

Microchip Technology PIC LITE Macro Assembler V1.35 build -356382666 
                                                                                               Thu Nov 05 00:32:05 2015

Microchip Technology Omniscient Code Generator v1.35 (Free mode) build 201507080246
     1                           	processor	16F1788
     2                           	opt	pw 120
     3                           	opt	lm
     4                           	psect	idataBANK1,global,class=CODE,delta=2
     5                           	psect	stringtext,global,class=STRCODE,delta=2
     6                           	psect	cinit,global,class=CODE,merge=1,delta=2
     7                           	psect	bssBANK0,global,class=BANK0,space=1,delta=1
     8                           	psect	bssBANK1,global,class=BANK1,space=1,delta=1
     9                           	psect	dataBANK1,global,class=BANK1,space=1,delta=1
    10                           	psect	cstackBANK1,global,class=BANK1,space=1,delta=1
    11                           	psect	cstackCOMMON,global,class=COMMON,space=1,delta=1
    12                           	psect	cstackBANK0,global,class=BANK0,space=1,delta=1
    13                           	psect	maintext,global,class=CODE,merge=1,split=1,delta=2
    14                           	psect	text1,local,class=CODE,merge=1,delta=2
    15                           	psect	text2,local,class=CODE,merge=1,delta=2
    16                           	psect	text3,local,class=CODE,merge=1,delta=2
    17                           	psect	text4,local,class=CODE,merge=1,delta=2
    18                           	psect	text5,local,class=CODE,merge=1,delta=2
    19                           	psect	text6,local,class=CODE,merge=1,delta=2
    20                           	psect	text7,local,class=CODE,merge=1,delta=2
    21                           	psect	text8,local,class=CODE,merge=1,delta=2
    22                           	psect	text9,local,class=CODE,merge=1,delta=2
    23                           	psect	text10,local,class=CODE,merge=1,delta=2
    24                           	psect	text11,local,class=CODE,merge=1,delta=2
    25                           	psect	text12,local,class=CODE,merge=1,delta=2
    26                           	psect	text13,local,class=CODE,merge=1,delta=2
    27                           	psect	text14,local,class=CODE,merge=1,delta=2
    28                           	psect	text15,local,class=CODE,merge=1,delta=2
    29                           	psect	text16,local,class=CODE,merge=1,delta=2
    30                           	psect	text17,local,class=CODE,merge=1,delta=2
    31                           	psect	text18,local,class=CODE,merge=1,delta=2
    32                           	psect	text19,local,class=CODE,merge=1,delta=2
    33                           	psect	intentry,global,class=CODE,delta=2
    34                           	psect	text21,local,class=CODE,merge=1,delta=2
    35                           	psect	text22,local,class=CODE,merge=1,delta=2
    36                           	psect	text23,local,class=CODE,merge=1,delta=2
    37                           	psect	text24,local,class=CODE,merge=1,delta=2
    38                           	psect	text25,local,class=CODE,merge=1,delta=2
    39                           	psect	text26,local,class=CODE,merge=1,delta=2
    40                           	psect	text27,local,class=CODE,merge=1,delta=2
    41                           	psect	text28,local,class=CODE,merge=1,delta=2
    42                           	psect	text29,local,class=CODE,merge=1,delta=2
    43                           	psect	text30,local,class=CODE,merge=1,delta=2
    44                           	psect	text31,local,class=CODE,merge=1,delta=2
    45                           	psect	text32,local,class=CODE,merge=1,delta=2
    46                           	psect	text33,local,class=CODE,merge=1,delta=2
    47                           	psect	text34,local,class=CODE,merge=1,delta=2
    48                           	psect	text35,local,class=CODE,merge=1,delta=2
    49                           	psect	text36,local,class=CODE,merge=1,delta=2
    50                           	dabs	1,0x7E,2
    51  0000                     	;# 
    52  0001                     	;# 
    53  0002                     	;# 
    54  0003                     	;# 
    55  0004                     	;# 
    56  0005                     	;# 
    57  0006                     	;# 
    58  0007                     	;# 
    59  0008                     	;# 
    60  0009                     	;# 
    61  000A                     	;# 
    62  000B                     	;# 
    63  000C                     	;# 
    64  000D                     	;# 
    65  000E                     	;# 
    66  0010                     	;# 
    67  0011                     	;# 
    68  0012                     	;# 
    69  0013                     	;# 
    70  0014                     	;# 
    71  0015                     	;# 
    72  0016                     	;# 
    73  0016                     	;# 
    74  0017                     	;# 
    75  0018                     	;# 
    76  0019                     	;# 
    77  001A                     	;# 
    78  001B                     	;# 
    79  001C                     	;# 
    80  008C                     	;# 
    81  008D                     	;# 
    82  008E                     	;# 
    83  0090                     	;# 
    84  0091                     	;# 
    85  0092                     	;# 
    86  0093                     	;# 
    87  0094                     	;# 
    88  0095                     	;# 
    89  0096                     	;# 
    90  0097                     	;# 
    91  0098                     	;# 
    92  0099                     	;# 
    93  009A                     	;# 
    94  009B                     	;# 
    95  009B                     	;# 
    96  009C                     	;# 
    97  009D                     	;# 
    98  009E                     	;# 
    99  009F                     	;# 
   100  010C                     	;# 
   101  010D                     	;# 
   102  010E                     	;# 
   103  0111                     	;# 
   104  0112                     	;# 
   105  0113                     	;# 
   106  0114                     	;# 
   107  0115                     	;# 
   108  0116                     	;# 
   109  0117                     	;# 
   110  0118                     	;# 
   111  0119                     	;# 
   112  011A                     	;# 
   113  011B                     	;# 
   114  011C                     	;# 
   115  011D                     	;# 
   116  011D                     	;# 
   117  011D                     	;# 
   118  011E                     	;# 
   119  011F                     	;# 
   120  018C                     	;# 
   121  018D                     	;# 
   122  018E                     	;# 
   123  0191                     	;# 
   124  0191                     	;# 
   125  0192                     	;# 
   126  0193                     	;# 
   127  0193                     	;# 
   128  0193                     	;# 
   129  0194                     	;# 
   130  0195                     	;# 
   131  0196                     	;# 
   132  0197                     	;# 
   133  0199                     	;# 
   134  0199                     	;# 
   135  0199                     	;# 
   136  019A                     	;# 
   137  019A                     	;# 
   138  019A                     	;# 
   139  019B                     	;# 
   140  019B                     	;# 
   141  019B                     	;# 
   142  019B                     	;# 
   143  019B                     	;# 
   144  019C                     	;# 
   145  019C                     	;# 
   146  019C                     	;# 
   147  019D                     	;# 
   148  019D                     	;# 
   149  019D                     	;# 
   150  019E                     	;# 
   151  019E                     	;# 
   152  019E                     	;# 
   153  019F                     	;# 
   154  019F                     	;# 
   155  019F                     	;# 
   156  019F                     	;# 
   157  019F                     	;# 
   158  020C                     	;# 
   159  020D                     	;# 
   160  020E                     	;# 
   161  0210                     	;# 
   162  0211                     	;# 
   163  0211                     	;# 
   164  0212                     	;# 
   165  0212                     	;# 
   166  0213                     	;# 
   167  0213                     	;# 
   168  0214                     	;# 
   169  0214                     	;# 
   170  0215                     	;# 
   171  0215                     	;# 
   172  0215                     	;# 
   173  0215                     	;# 
   174  0216                     	;# 
   175  0216                     	;# 
   176  0217                     	;# 
   177  0217                     	;# 
   178  028C                     	;# 
   179  028D                     	;# 
   180  028E                     	;# 
   181  0291                     	;# 
   182  0291                     	;# 
   183  0292                     	;# 
   184  0293                     	;# 
   185  0298                     	;# 
   186  0298                     	;# 
   187  0299                     	;# 
   188  029A                     	;# 
   189  030C                     	;# 
   190  030D                     	;# 
   191  030E                     	;# 
   192  0311                     	;# 
   193  0311                     	;# 
   194  0312                     	;# 
   195  0313                     	;# 
   196  038C                     	;# 
   197  038D                     	;# 
   198  038E                     	;# 
   199  0390                     	;# 
   200  0391                     	;# 
   201  0392                     	;# 
   202  0393                     	;# 
   203  0394                     	;# 
   204  0395                     	;# 
   205  0396                     	;# 
   206  0397                     	;# 
   207  0398                     	;# 
   208  0399                     	;# 
   209  039D                     	;# 
   210  039E                     	;# 
   211  039F                     	;# 
   212  0511                     	;# 
   213  0513                     	;# 
   214  051A                     	;# 
   215  0591                     	;# 
   216  0592                     	;# 
   217  0592                     	;# 
   218  0593                     	;# 
   219  0594                     	;# 
   220  0594                     	;# 
   221  0595                     	;# 
   222  0596                     	;# 
   223  0596                     	;# 
   224  0E91                     	;# 
   225  0E92                     	;# 
   226  0E93                     	;# 
   227  0E94                     	;# 
   228  0E95                     	;# 
   229  0E96                     	;# 
   230  0E97                     	;# 
   231  0E98                     	;# 
   232  0E99                     	;# 
   233  0E9A                     	;# 
   234  0E9B                     	;# 
   235  0E9C                     	;# 
   236  0E9D                     	;# 
   237  0E9E                     	;# 
   238  0E9F                     	;# 
   239  0EA0                     	;# 
   240  0EA1                     	;# 
   241  0EA1                     	;# 
   242  0EA2                     	;# 
   243  0EA3                     	;# 
   244  0EA3                     	;# 
   245  0EA4                     	;# 
   246  0EA5                     	;# 
   247  0EA5                     	;# 
   248  0EA6                     	;# 
   249  0EA7                     	;# 
   250  0EA7                     	;# 
   251  0EA8                     	;# 
   252  0EA9                     	;# 
   253  0EAA                     	;# 
   254  0EAB                     	;# 
   255  0EAC                     	;# 
   256  0EAD                     	;# 
   257  0EAE                     	;# 
   258  0EAF                     	;# 
   259  0EB1                     	;# 
   260  0EB2                     	;# 
   261  0EB3                     	;# 
   262  0EB4                     	;# 
   263  0EB5                     	;# 
   264  0EB6                     	;# 
   265  0EB7                     	;# 
   266  0EB8                     	;# 
   267  0EB9                     	;# 
   268  0EBA                     	;# 
   269  0EBB                     	;# 
   270  0EBC                     	;# 
   271  0EBD                     	;# 
   272  0EBE                     	;# 
   273  0EBF                     	;# 
   274  0EC0                     	;# 
   275  0EC1                     	;# 
   276  0EC1                     	;# 
   277  0EC2                     	;# 
   278  0EC3                     	;# 
   279  0EC3                     	;# 
   280  0EC4                     	;# 
   281  0EC5                     	;# 
   282  0EC5                     	;# 
   283  0EC6                     	;# 
   284  0EC7                     	;# 
   285  0EC7                     	;# 
   286  0EC8                     	;# 
   287  0EC9                     	;# 
   288  0ECA                     	;# 
   289  0ECB                     	;# 
   290  0ECC                     	;# 
   291  0ECD                     	;# 
   292  0ECE                     	;# 
   293  0ECF                     	;# 
   294  0ED1                     	;# 
   295  0ED2                     	;# 
   296  0ED3                     	;# 
   297  0ED4                     	;# 
   298  0ED5                     	;# 
   299  0ED6                     	;# 
   300  0ED7                     	;# 
   301  0ED8                     	;# 
   302  0ED9                     	;# 
   303  0EDA                     	;# 
   304  0EDB                     	;# 
   305  0EDC                     	;# 
   306  0EDD                     	;# 
   307  0EDE                     	;# 
   308  0EDF                     	;# 
   309  0EE0                     	;# 
   310  0EE1                     	;# 
   311  0EE1                     	;# 
   312  0EE2                     	;# 
   313  0EE3                     	;# 
   314  0EE3                     	;# 
   315  0EE4                     	;# 
   316  0EE5                     	;# 
   317  0EE5                     	;# 
   318  0EE6                     	;# 
   319  0EE7                     	;# 
   320  0EE7                     	;# 
   321  0EE8                     	;# 
   322  0EE9                     	;# 
   323  0EEA                     	;# 
   324  0EEB                     	;# 
   325  0EEC                     	;# 
   326  0EED                     	;# 
   327  0EEE                     	;# 
   328  0EEF                     	;# 
   329  0F11                     	;# 
   330  0F12                     	;# 
   331  0F13                     	;# 
   332  0F14                     	;# 
   333  0F15                     	;# 
   334  0F16                     	;# 
   335  0F17                     	;# 
   336  0F18                     	;# 
   337  0F19                     	;# 
   338  0F1A                     	;# 
   339  0F1B                     	;# 
   340  0F1C                     	;# 
   341  0F1D                     	;# 
   342  0F1E                     	;# 
   343  0F1F                     	;# 
   344  0F20                     	;# 
   345  0F21                     	;# 
   346  0F21                     	;# 
   347  0F22                     	;# 
   348  0F23                     	;# 
   349  0F23                     	;# 
   350  0F24                     	;# 
   351  0F25                     	;# 
   352  0F25                     	;# 
   353  0F26                     	;# 
   354  0F27                     	;# 
   355  0F27                     	;# 
   356  0F28                     	;# 
   357  0F29                     	;# 
   358  0F2A                     	;# 
   359  0F2B                     	;# 
   360  0F2C                     	;# 
   361  0F2D                     	;# 
   362  0F2E                     	;# 
   363  0F2F                     	;# 
   364  0FE4                     	;# 
   365  0FE5                     	;# 
   366  0FE6                     	;# 
   367  0FE7                     	;# 
   368  0FE8                     	;# 
   369  0FE9                     	;# 
   370  0FEA                     	;# 
   371  0FEB                     	;# 
   372  0FED                     	;# 
   373  0FEE                     	;# 
   374  0FEF                     	;# 
   375  0000                     	;# 
   376  0001                     	;# 
   377  0002                     	;# 
   378  0003                     	;# 
   379  0004                     	;# 
   380  0005                     	;# 
   381  0006                     	;# 
   382  0007                     	;# 
   383  0008                     	;# 
   384  0009                     	;# 
   385  000A                     	;# 
   386  000B                     	;# 
   387  000C                     	;# 
   388  000D                     	;# 
   389  000E                     	;# 
   390  0010                     	;# 
   391  0011                     	;# 
   392  0012                     	;# 
   393  0013                     	;# 
   394  0014                     	;# 
   395  0015                     	;# 
   396  0016                     	;# 
   397  0016                     	;# 
   398  0017                     	;# 
   399  0018                     	;# 
   400  0019                     	;# 
   401  001A                     	;# 
   402  001B                     	;# 
   403  001C                     	;# 
   404  008C                     	;# 
   405  008D                     	;# 
   406  008E                     	;# 
   407  0090                     	;# 
   408  0091                     	;# 
   409  0092                     	;# 
   410  0093                     	;# 
   411  0094                     	;# 
   412  0095                     	;# 
   413  0096                     	;# 
   414  0097                     	;# 
   415  0098                     	;# 
   416  0099                     	;# 
   417  009A                     	;# 
   418  009B                     	;# 
   419  009B                     	;# 
   420  009C                     	;# 
   421  009D                     	;# 
   422  009E                     	;# 
   423  009F                     	;# 
   424  010C                     	;# 
   425  010D                     	;# 
   426  010E                     	;# 
   427  0111                     	;# 
   428  0112                     	;# 
   429  0113                     	;# 
   430  0114                     	;# 
   431  0115                     	;# 
   432  0116                     	;# 
   433  0117                     	;# 
   434  0118                     	;# 
   435  0119                     	;# 
   436  011A                     	;# 
   437  011B                     	;# 
   438  011C                     	;# 
   439  011D                     	;# 
   440  011D                     	;# 
   441  011D                     	;# 
   442  011E                     	;# 
   443  011F                     	;# 
   444  018C                     	;# 
   445  018D                     	;# 
   446  018E                     	;# 
   447  0191                     	;# 
   448  0191                     	;# 
   449  0192                     	;# 
   450  0193                     	;# 
   451  0193                     	;# 
   452  0193                     	;# 
   453  0194                     	;# 
   454  0195                     	;# 
   455  0196                     	;# 
   456  0197                     	;# 
   457  0199                     	;# 
   458  0199                     	;# 
   459  0199                     	;# 
   460  019A                     	;# 
   461  019A                     	;# 
   462  019A                     	;# 
   463  019B                     	;# 
   464  019B                     	;# 
   465  019B                     	;# 
   466  019B                     	;# 
   467  019B                     	;# 
   468  019C                     	;# 
   469  019C                     	;# 
   470  019C                     	;# 
   471  019D                     	;# 
   472  019D                     	;# 
   473  019D                     	;# 
   474  019E                     	;# 
   475  019E                     	;# 
   476  019E                     	;# 
   477  019F                     	;# 
   478  019F                     	;# 
   479  019F                     	;# 
   480  019F                     	;# 
   481  019F                     	;# 
   482  020C                     	;# 
   483  020D                     	;# 
   484  020E                     	;# 
   485  0210                     	;# 
   486  0211                     	;# 
   487  0211                     	;# 
   488  0212                     	;# 
   489  0212                     	;# 
   490  0213                     	;# 
   491  0213                     	;# 
   492  0214                     	;# 
   493  0214                     	;# 
   494  0215                     	;# 
   495  0215                     	;# 
   496  0215                     	;# 
   497  0215                     	;# 
   498  0216                     	;# 
   499  0216                     	;# 
   500  0217                     	;# 
   501  0217                     	;# 
   502  028C                     	;# 
   503  028D                     	;# 
   504  028E                     	;# 
   505  0291                     	;# 
   506  0291                     	;# 
   507  0292                     	;# 
   508  0293                     	;# 
   509  0298                     	;# 
   510  0298                     	;# 
   511  0299                     	;# 
   512  029A                     	;# 
   513  030C                     	;# 
   514  030D                     	;# 
   515  030E                     	;# 
   516  0311                     	;# 
   517  0311                     	;# 
   518  0312                     	;# 
   519  0313                     	;# 
   520  038C                     	;# 
   521  038D                     	;# 
   522  038E                     	;# 
   523  0390                     	;# 
   524  0391                     	;# 
   525  0392                     	;# 
   526  0393                     	;# 
   527  0394                     	;# 
   528  0395                     	;# 
   529  0396                     	;# 
   530  0397                     	;# 
   531  0398                     	;# 
   532  0399                     	;# 
   533  039D                     	;# 
   534  039E                     	;# 
   535  039F                     	;# 
   536  0511                     	;# 
   537  0513                     	;# 
   538  051A                     	;# 
   539  0591                     	;# 
   540  0592                     	;# 
   541  0592                     	;# 
   542  0593                     	;# 
   543  0594                     	;# 
   544  0594                     	;# 
   545  0595                     	;# 
   546  0596                     	;# 
   547  0596                     	;# 
   548  0E91                     	;# 
   549  0E92                     	;# 
   550  0E93                     	;# 
   551  0E94                     	;# 
   552  0E95                     	;# 
   553  0E96                     	;# 
   554  0E97                     	;# 
   555  0E98                     	;# 
   556  0E99                     	;# 
   557  0E9A                     	;# 
   558  0E9B                     	;# 
   559  0E9C                     	;# 
   560  0E9D                     	;# 
   561  0E9E                     	;# 
   562  0E9F                     	;# 
   563  0EA0                     	;# 
   564  0EA1                     	;# 
   565  0EA1                     	;# 
   566  0EA2                     	;# 
   567  0EA3                     	;# 
   568  0EA3                     	;# 
   569  0EA4                     	;# 
   570  0EA5                     	;# 
   571  0EA5                     	;# 
   572  0EA6                     	;# 
   573  0EA7                     	;# 
   574  0EA7                     	;# 
   575  0EA8                     	;# 
   576  0EA9                     	;# 
   577  0EAA                     	;# 
   578  0EAB                     	;# 
   579  0EAC                     	;# 
   580  0EAD                     	;# 
   581  0EAE                     	;# 
   582  0EAF                     	;# 
   583  0EB1                     	;# 
   584  0EB2                     	;# 
   585  0EB3                     	;# 
   586  0EB4                     	;# 
   587  0EB5                     	;# 
   588  0EB6                     	;# 
   589  0EB7                     	;# 
   590  0EB8                     	;# 
   591  0EB9                     	;# 
   592  0EBA                     	;# 
   593  0EBB                     	;# 
   594  0EBC                     	;# 
   595  0EBD                     	;# 
   596  0EBE                     	;# 
   597  0EBF                     	;# 
   598  0EC0                     	;# 
   599  0EC1                     	;# 
   600  0EC1                     	;# 
   601  0EC2                     	;# 
   602  0EC3                     	;# 
   603  0EC3                     	;# 
   604  0EC4                     	;# 
   605  0EC5                     	;# 
   606  0EC5                     	;# 
   607  0EC6                     	;# 
   608  0EC7                     	;# 
   609  0EC7                     	;# 
   610  0EC8                     	;# 
   611  0EC9                     	;# 
   612  0ECA                     	;# 
   613  0ECB                     	;# 
   614  0ECC                     	;# 
   615  0ECD                     	;# 
   616  0ECE                     	;# 
   617  0ECF                     	;# 
   618  0ED1                     	;# 
   619  0ED2                     	;# 
   620  0ED3                     	;# 
   621  0ED4                     	;# 
   622  0ED5                     	;# 
   623  0ED6                     	;# 
   624  0ED7                     	;# 
   625  0ED8                     	;# 
   626  0ED9                     	;# 
   627  0EDA                     	;# 
   628  0EDB                     	;# 
   629  0EDC                     	;# 
   630  0EDD                     	;# 
   631  0EDE                     	;# 
   632  0EDF                     	;# 
   633  0EE0                     	;# 
   634  0EE1                     	;# 
   635  0EE1                     	;# 
   636  0EE2                     	;# 
   637  0EE3                     	;# 
   638  0EE3                     	;# 
   639  0EE4                     	;# 
   640  0EE5                     	;# 
   641  0EE5                     	;# 
   642  0EE6                     	;# 
   643  0EE7                     	;# 
   644  0EE7                     	;# 
   645  0EE8                     	;# 
   646  0EE9                     	;# 
   647  0EEA                     	;# 
   648  0EEB                     	;# 
   649  0EEC                     	;# 
   650  0EED                     	;# 
   651  0EEE                     	;# 
   652  0EEF                     	;# 
   653  0F11                     	;# 
   654  0F12                     	;# 
   655  0F13                     	;# 
   656  0F14                     	;# 
   657  0F15                     	;# 
   658  0F16                     	;# 
   659  0F17                     	;# 
   660  0F18                     	;# 
   661  0F19                     	;# 
   662  0F1A                     	;# 
   663  0F1B                     	;# 
   664  0F1C                     	;# 
   665  0F1D                     	;# 
   666  0F1E                     	;# 
   667  0F1F                     	;# 
   668  0F20                     	;# 
   669  0F21                     	;# 
   670  0F21                     	;# 
   671  0F22                     	;# 
   672  0F23                     	;# 
   673  0F23                     	;# 
   674  0F24                     	;# 
   675  0F25                     	;# 
   676  0F25                     	;# 
   677  0F26                     	;# 
   678  0F27                     	;# 
   679  0F27                     	;# 
   680  0F28                     	;# 
   681  0F29                     	;# 
   682  0F2A                     	;# 
   683  0F2B                     	;# 
   684  0F2C                     	;# 
   685  0F2D                     	;# 
   686  0F2E                     	;# 
   687  0F2F                     	;# 
   688  0FE4                     	;# 
   689  0FE5                     	;# 
   690  0FE6                     	;# 
   691  0FE7                     	;# 
   692  0FE8                     	;# 
   693  0FE9                     	;# 
   694  0FEA                     	;# 
   695  0FEB                     	;# 
   696  0FED                     	;# 
   697  0FEE                     	;# 
   698  0FEF                     	;# 
   699  0000                     	;# 
   700  0001                     	;# 
   701  0002                     	;# 
   702  0003                     	;# 
   703  0004                     	;# 
   704  0005                     	;# 
   705  0006                     	;# 
   706  0007                     	;# 
   707  0008                     	;# 
   708  0009                     	;# 
   709  000A                     	;# 
   710  000B                     	;# 
   711  000C                     	;# 
   712  000D                     	;# 
   713  000E                     	;# 
   714  0010                     	;# 
   715  0011                     	;# 
   716  0012                     	;# 
   717  0013                     	;# 
   718  0014                     	;# 
   719  0015                     	;# 
   720  0016                     	;# 
   721  0016                     	;# 
   722  0017                     	;# 
   723  0018                     	;# 
   724  0019                     	;# 
   725  001A                     	;# 
   726  001B                     	;# 
   727  001C                     	;# 
   728  008C                     	;# 
   729  008D                     	;# 
   730  008E                     	;# 
   731  0090                     	;# 
   732  0091                     	;# 
   733  0092                     	;# 
   734  0093                     	;# 
   735  0094                     	;# 
   736  0095                     	;# 
   737  0096                     	;# 
   738  0097                     	;# 
   739  0098                     	;# 
   740  0099                     	;# 
   741  009A                     	;# 
   742  009B                     	;# 
   743  009B                     	;# 
   744  009C                     	;# 
   745  009D                     	;# 
   746  009E                     	;# 
   747  009F                     	;# 
   748  010C                     	;# 
   749  010D                     	;# 
   750  010E                     	;# 
   751  0111                     	;# 
   752  0112                     	;# 
   753  0113                     	;# 
   754  0114                     	;# 
   755  0115                     	;# 
   756  0116                     	;# 
   757  0117                     	;# 
   758  0118                     	;# 
   759  0119                     	;# 
   760  011A                     	;# 
   761  011B                     	;# 
   762  011C                     	;# 
   763  011D                     	;# 
   764  011D                     	;# 
   765  011D                     	;# 
   766  011E                     	;# 
   767  011F                     	;# 
   768  018C                     	;# 
   769  018D                     	;# 
   770  018E                     	;# 
   771  0191                     	;# 
   772  0191                     	;# 
   773  0192                     	;# 
   774  0193                     	;# 
   775  0193                     	;# 
   776  0193                     	;# 
   777  0194                     	;# 
   778  0195                     	;# 
   779  0196                     	;# 
   780  0197                     	;# 
   781  0199                     	;# 
   782  0199                     	;# 
   783  0199                     	;# 
   784  019A                     	;# 
   785  019A                     	;# 
   786  019A                     	;# 
   787  019B                     	;# 
   788  019B                     	;# 
   789  019B                     	;# 
   790  019B                     	;# 
   791  019B                     	;# 
   792  019C                     	;# 
   793  019C                     	;# 
   794  019C                     	;# 
   795  019D                     	;# 
   796  019D                     	;# 
   797  019D                     	;# 
   798  019E                     	;# 
   799  019E                     	;# 
   800  019E                     	;# 
   801  019F                     	;# 
   802  019F                     	;# 
   803  019F                     	;# 
   804  019F                     	;# 
   805  019F                     	;# 
   806  020C                     	;# 
   807  020D                     	;# 
   808  020E                     	;# 
   809  0210                     	;# 
   810  0211                     	;# 
   811  0211                     	;# 
   812  0212                     	;# 
   813  0212                     	;# 
   814  0213                     	;# 
   815  0213                     	;# 
   816  0214                     	;# 
   817  0214                     	;# 
   818  0215                     	;# 
   819  0215                     	;# 
   820  0215                     	;# 
   821  0215                     	;# 
   822  0216                     	;# 
   823  0216                     	;# 
   824  0217                     	;# 
   825  0217                     	;# 
   826  028C                     	;# 
   827  028D                     	;# 
   828  028E                     	;# 
   829  0291                     	;# 
   830  0291                     	;# 
   831  0292                     	;# 
   832  0293                     	;# 
   833  0298                     	;# 
   834  0298                     	;# 
   835  0299                     	;# 
   836  029A                     	;# 
   837  030C                     	;# 
   838  030D                     	;# 
   839  030E                     	;# 
   840  0311                     	;# 
   841  0311                     	;# 
   842  0312                     	;# 
   843  0313                     	;# 
   844  038C                     	;# 
   845  038D                     	;# 
   846  038E                     	;# 
   847  0390                     	;# 
   848  0391                     	;# 
   849  0392                     	;# 
   850  0393                     	;# 
   851  0394                     	;# 
   852  0395                     	;# 
   853  0396                     	;# 
   854  0397                     	;# 
   855  0398                     	;# 
   856  0399                     	;# 
   857  039D                     	;# 
   858  039E                     	;# 
   859  039F                     	;# 
   860  0511                     	;# 
   861  0513                     	;# 
   862  051A                     	;# 
   863  0591                     	;# 
   864  0592                     	;# 
   865  0592                     	;# 
   866  0593                     	;# 
   867  0594                     	;# 
   868  0594                     	;# 
   869  0595                     	;# 
   870  0596                     	;# 
   871  0596                     	;# 
   872  0E91                     	;# 
   873  0E92                     	;# 
   874  0E93                     	;# 
   875  0E94                     	;# 
   876  0E95                     	;# 
   877  0E96                     	;# 
   878  0E97                     	;# 
   879  0E98                     	;# 
   880  0E99                     	;# 
   881  0E9A                     	;# 
   882  0E9B                     	;# 
   883  0E9C                     	;# 
   884  0E9D                     	;# 
   885  0E9E                     	;# 
   886  0E9F                     	;# 
   887  0EA0                     	;# 
   888  0EA1                     	;# 
   889  0EA1                     	;# 
   890  0EA2                     	;# 
   891  0EA3                     	;# 
   892  0EA3                     	;# 
   893  0EA4                     	;# 
   894  0EA5                     	;# 
   895  0EA5                     	;# 
   896  0EA6                     	;# 
   897  0EA7                     	;# 
   898  0EA7                     	;# 
   899  0EA8                     	;# 
   900  0EA9                     	;# 
   901  0EAA                     	;# 
   902  0EAB                     	;# 
   903  0EAC                     	;# 
   904  0EAD                     	;# 
   905  0EAE                     	;# 
   906  0EAF                     	;# 
   907  0EB1                     	;# 
   908  0EB2                     	;# 
   909  0EB3                     	;# 
   910  0EB4                     	;# 
   911  0EB5                     	;# 
   912  0EB6                     	;# 
   913  0EB7                     	;# 
   914  0EB8                     	;# 
   915  0EB9                     	;# 
   916  0EBA                     	;# 
   917  0EBB                     	;# 
   918  0EBC                     	;# 
   919  0EBD                     	;# 
   920  0EBE                     	;# 
   921  0EBF                     	;# 
   922  0EC0                     	;# 
   923  0EC1                     	;# 
   924  0EC1                     	;# 
   925  0EC2                     	;# 
   926  0EC3                     	;# 
   927  0EC3                     	;# 
   928  0EC4                     	;# 
   929  0EC5                     	;# 
   930  0EC5                     	;# 
   931  0EC6                     	;# 
   932  0EC7                     	;# 
   933  0EC7                     	;# 
   934  0EC8                     	;# 
   935  0EC9                     	;# 
   936  0ECA                     	;# 
   937  0ECB                     	;# 
   938  0ECC                     	;# 
   939  0ECD                     	;# 
   940  0ECE                     	;# 
   941  0ECF                     	;# 
   942  0ED1                     	;# 
   943  0ED2                     	;# 
   944  0ED3                     	;# 
   945  0ED4                     	;# 
   946  0ED5                     	;# 
   947  0ED6                     	;# 
   948  0ED7                     	;# 
   949  0ED8                     	;# 
   950  0ED9                     	;# 
   951  0EDA                     	;# 
   952  0EDB                     	;# 
   953  0EDC                     	;# 
   954  0EDD                     	;# 
   955  0EDE                     	;# 
   956  0EDF                     	;# 
   957  0EE0                     	;# 
   958  0EE1                     	;# 
   959  0EE1                     	;# 
   960  0EE2                     	;# 
   961  0EE3                     	;# 
   962  0EE3                     	;# 
   963  0EE4                     	;# 
   964  0EE5                     	;# 
   965  0EE5                     	;# 
   966  0EE6                     	;# 
   967  0EE7                     	;# 
   968  0EE7                     	;# 
   969  0EE8                     	;# 
   970  0EE9                     	;# 
   971  0EEA                     	;# 
   972  0EEB                     	;# 
   973  0EEC                     	;# 
   974  0EED                     	;# 
   975  0EEE                     	;# 
   976  0EEF                     	;# 
   977  0F11                     	;# 
   978  0F12                     	;# 
   979  0F13                     	;# 
   980  0F14                     	;# 
   981  0F15                     	;# 
   982  0F16                     	;# 
   983  0F17                     	;# 
   984  0F18                     	;# 
   985  0F19                     	;# 
   986  0F1A                     	;# 
   987  0F1B                     	;# 
   988  0F1C                     	;# 
   989  0F1D                     	;# 
   990  0F1E                     	;# 
   991  0F1F                     	;# 
   992  0F20                     	;# 
   993  0F21                     	;# 
   994  0F21                     	;# 
   995  0F22                     	;# 
   996  0F23                     	;# 
   997  0F23                     	;# 
   998  0F24                     	;# 
   999  0F25                     	;# 
  1000  0F25                     	;# 
  1001  0F26                     	;# 
  1002  0F27                     	;# 
  1003  0F27                     	;# 
  1004  0F28                     	;# 
  1005  0F29                     	;# 
  1006  0F2A                     	;# 
  1007  0F2B                     	;# 
  1008  0F2C                     	;# 
  1009  0F2D                     	;# 
  1010  0F2E                     	;# 
  1011  0F2F                     	;# 
  1012  0FE4                     	;# 
  1013  0FE5                     	;# 
  1014  0FE6                     	;# 
  1015  0FE7                     	;# 
  1016  0FE8                     	;# 
  1017  0FE9                     	;# 
  1018  0FEA                     	;# 
  1019  0FEB                     	;# 
  1020  0FED                     	;# 
  1021  0FEE                     	;# 
  1022  0FEF                     	;# 
  1023  0000                     	;# 
  1024  0001                     	;# 
  1025  0002                     	;# 
  1026  0003                     	;# 
  1027  0004                     	;# 
  1028  0005                     	;# 
  1029  0006                     	;# 
  1030  0007                     	;# 
  1031  0008                     	;# 
  1032  0009                     	;# 
  1033  000A                     	;# 
  1034  000B                     	;# 
  1035  000C                     	;# 
  1036  000D                     	;# 
  1037  000E                     	;# 
  1038  0010                     	;# 
  1039  0011                     	;# 
  1040  0012                     	;# 
  1041  0013                     	;# 
  1042  0014                     	;# 
  1043  0015                     	;# 
  1044  0016                     	;# 
  1045  0016                     	;# 
  1046  0017                     	;# 
  1047  0018                     	;# 
  1048  0019                     	;# 
  1049  001A                     	;# 
  1050  001B                     	;# 
  1051  001C                     	;# 
  1052  008C                     	;# 
  1053  008D                     	;# 
  1054  008E                     	;# 
  1055  0090                     	;# 
  1056  0091                     	;# 
  1057  0092                     	;# 
  1058  0093                     	;# 
  1059  0094                     	;# 
  1060  0095                     	;# 
  1061  0096                     	;# 
  1062  0097                     	;# 
  1063  0098                     	;# 
  1064  0099                     	;# 
  1065  009A                     	;# 
  1066  009B                     	;# 
  1067  009B                     	;# 
  1068  009C                     	;# 
  1069  009D                     	;# 
  1070  009E                     	;# 
  1071  009F                     	;# 
  1072  010C                     	;# 
  1073  010D                     	;# 
  1074  010E                     	;# 
  1075  0111                     	;# 
  1076  0112                     	;# 
  1077  0113                     	;# 
  1078  0114                     	;# 
  1079  0115                     	;# 
  1080  0116                     	;# 
  1081  0117                     	;# 
  1082  0118                     	;# 
  1083  0119                     	;# 
  1084  011A                     	;# 
  1085  011B                     	;# 
  1086  011C                     	;# 
  1087  011D                     	;# 
  1088  011D                     	;# 
  1089  011D                     	;# 
  1090  011E                     	;# 
  1091  011F                     	;# 
  1092  018C                     	;# 
  1093  018D                     	;# 
  1094  018E                     	;# 
  1095  0191                     	;# 
  1096  0191                     	;# 
  1097  0192                     	;# 
  1098  0193                     	;# 
  1099  0193                     	;# 
  1100  0193                     	;# 
  1101  0194                     	;# 
  1102  0195                     	;# 
  1103  0196                     	;# 
  1104  0197                     	;# 
  1105  0199                     	;# 
  1106  0199                     	;# 
  1107  0199                     	;# 
  1108  019A                     	;# 
  1109  019A                     	;# 
  1110  019A                     	;# 
  1111  019B                     	;# 
  1112  019B                     	;# 
  1113  019B                     	;# 
  1114  019B                     	;# 
  1115  019B                     	;# 
  1116  019C                     	;# 
  1117  019C                     	;# 
  1118  019C                     	;# 
  1119  019D                     	;# 
  1120  019D                     	;# 
  1121  019D                     	;# 
  1122  019E                     	;# 
  1123  019E                     	;# 
  1124  019E                     	;# 
  1125  019F                     	;# 
  1126  019F                     	;# 
  1127  019F                     	;# 
  1128  019F                     	;# 
  1129  019F                     	;# 
  1130  020C                     	;# 
  1131  020D                     	;# 
  1132  020E                     	;# 
  1133  0210                     	;# 
  1134  0211                     	;# 
  1135  0211                     	;# 
  1136  0212                     	;# 
  1137  0212                     	;# 
  1138  0213                     	;# 
  1139  0213                     	;# 
  1140  0214                     	;# 
  1141  0214                     	;# 
  1142  0215                     	;# 
  1143  0215                     	;# 
  1144  0215                     	;# 
  1145  0215                     	;# 
  1146  0216                     	;# 
  1147  0216                     	;# 
  1148  0217                     	;# 
  1149  0217                     	;# 
  1150  028C                     	;# 
  1151  028D                     	;# 
  1152  028E                     	;# 
  1153  0291                     	;# 
  1154  0291                     	;# 
  1155  0292                     	;# 
  1156  0293                     	;# 
  1157  0298                     	;# 
  1158  0298                     	;# 
  1159  0299                     	;# 
  1160  029A                     	;# 
  1161  030C                     	;# 
  1162  030D                     	;# 
  1163  030E                     	;# 
  1164  0311                     	;# 
  1165  0311                     	;# 
  1166  0312                     	;# 
  1167  0313                     	;# 
  1168  038C                     	;# 
  1169  038D                     	;# 
  1170  038E                     	;# 
  1171  0390                     	;# 
  1172  0391                     	;# 
  1173  0392                     	;# 
  1174  0393                     	;# 
  1175  0394                     	;# 
  1176  0395                     	;# 
  1177  0396                     	;# 
  1178  0397                     	;# 
  1179  0398                     	;# 
  1180  0399                     	;# 
  1181  039D                     	;# 
  1182  039E                     	;# 
  1183  039F                     	;# 
  1184  0511                     	;# 
  1185  0513                     	;# 
  1186  051A                     	;# 
  1187  0591                     	;# 
  1188  0592                     	;# 
  1189  0592                     	;# 
  1190  0593                     	;# 
  1191  0594                     	;# 
  1192  0594                     	;# 
  1193  0595                     	;# 
  1194  0596                     	;# 
  1195  0596                     	;# 
  1196  0E91                     	;# 
  1197  0E92                     	;# 
  1198  0E93                     	;# 
  1199  0E94                     	;# 
  1200  0E95                     	;# 
  1201  0E96                     	;# 
  1202  0E97                     	;# 
  1203  0E98                     	;# 
  1204  0E99                     	;# 
  1205  0E9A                     	;# 
  1206  0E9B                     	;# 
  1207  0E9C                     	;# 
  1208  0E9D                     	;# 
  1209  0E9E                     	;# 
  1210  0E9F                     	;# 
  1211  0EA0                     	;# 
  1212  0EA1                     	;# 
  1213  0EA1                     	;# 
  1214  0EA2                     	;# 
  1215  0EA3                     	;# 
  1216  0EA3                     	;# 
  1217  0EA4                     	;# 
  1218  0EA5                     	;# 
  1219  0EA5                     	;# 
  1220  0EA6                     	;# 
  1221  0EA7                     	;# 
  1222  0EA7                     	;# 
  1223  0EA8                     	;# 
  1224  0EA9                     	;# 
  1225  0EAA                     	;# 
  1226  0EAB                     	;# 
  1227  0EAC                     	;# 
  1228  0EAD                     	;# 
  1229  0EAE                     	;# 
  1230  0EAF                     	;# 
  1231  0EB1                     	;# 
  1232  0EB2                     	;# 
  1233  0EB3                     	;# 
  1234  0EB4                     	;# 
  1235  0EB5                     	;# 
  1236  0EB6                     	;# 
  1237  0EB7                     	;# 
  1238  0EB8                     	;# 
  1239  0EB9                     	;# 
  1240  0EBA                     	;# 
  1241  0EBB                     	;# 
  1242  0EBC                     	;# 
  1243  0EBD                     	;# 
  1244  0EBE                     	;# 
  1245  0EBF                     	;# 
  1246  0EC0                     	;# 
  1247  0EC1                     	;# 
  1248  0EC1                     	;# 
  1249  0EC2                     	;# 
  1250  0EC3                     	;# 
  1251  0EC3                     	;# 
  1252  0EC4                     	;# 
  1253  0EC5                     	;# 
  1254  0EC5                     	;# 
  1255  0EC6                     	;# 
  1256  0EC7                     	;# 
  1257  0EC7                     	;# 
  1258  0EC8                     	;# 
  1259  0EC9                     	;# 
  1260  0ECA                     	;# 
  1261  0ECB                     	;# 
  1262  0ECC                     	;# 
  1263  0ECD                     	;# 
  1264  0ECE                     	;# 
  1265  0ECF                     	;# 
  1266  0ED1                     	;# 
  1267  0ED2                     	;# 
  1268  0ED3                     	;# 
  1269  0ED4                     	;# 
  1270  0ED5                     	;# 
  1271  0ED6                     	;# 
  1272  0ED7                     	;# 
  1273  0ED8                     	;# 
  1274  0ED9                     	;# 
  1275  0EDA                     	;# 
  1276  0EDB                     	;# 
  1277  0EDC                     	;# 
  1278  0EDD                     	;# 
  1279  0EDE                     	;# 
  1280  0EDF                     	;# 
  1281  0EE0                     	;# 
  1282  0EE1                     	;# 
  1283  0EE1                     	;# 
  1284  0EE2                     	;# 
  1285  0EE3                     	;# 
  1286  0EE3                     	;# 
  1287  0EE4                     	;# 
  1288  0EE5                     	;# 
  1289  0EE5                     	;# 
  1290  0EE6                     	;# 
  1291  0EE7                     	;# 
  1292  0EE7                     	;# 
  1293  0EE8                     	;# 
  1294  0EE9                     	;# 
  1295  0EEA                     	;# 
  1296  0EEB                     	;# 
  1297  0EEC                     	;# 
  1298  0EED                     	;# 
  1299  0EEE                     	;# 
  1300  0EEF                     	;# 
  1301  0F11                     	;# 
  1302  0F12                     	;# 
  1303  0F13                     	;# 
  1304  0F14                     	;# 
  1305  0F15                     	;# 
  1306  0F16                     	;# 
  1307  0F17                     	;# 
  1308  0F18                     	;# 
  1309  0F19                     	;# 
  1310  0F1A                     	;# 
  1311  0F1B                     	;# 
  1312  0F1C                     	;# 
  1313  0F1D                     	;# 
  1314  0F1E                     	;# 
  1315  0F1F                     	;# 
  1316  0F20                     	;# 
  1317  0F21                     	;# 
  1318  0F21                     	;# 
  1319  0F22                     	;# 
  1320  0F23                     	;# 
  1321  0F23                     	;# 
  1322  0F24                     	;# 
  1323  0F25                     	;# 
  1324  0F25                     	;# 
  1325  0F26                     	;# 
  1326  0F27                     	;# 
  1327  0F27                     	;# 
  1328  0F28                     	;# 
  1329  0F29                     	;# 
  1330  0F2A                     	;# 
  1331  0F2B                     	;# 
  1332  0F2C                     	;# 
  1333  0F2D                     	;# 
  1334  0F2E                     	;# 
  1335  0F2F                     	;# 
  1336  0FE4                     	;# 
  1337  0FE5                     	;# 
  1338  0FE6                     	;# 
  1339  0FE7                     	;# 
  1340  0FE8                     	;# 
  1341  0FE9                     	;# 
  1342  0FEA                     	;# 
  1343  0FEB                     	;# 
  1344  0FED                     	;# 
  1345  0FEE                     	;# 
  1346  0FEF                     	;# 
  1347  0000                     	;# 
  1348  0001                     	;# 
  1349  0002                     	;# 
  1350  0003                     	;# 
  1351  0004                     	;# 
  1352  0005                     	;# 
  1353  0006                     	;# 
  1354  0007                     	;# 
  1355  0008                     	;# 
  1356  0009                     	;# 
  1357  000A                     	;# 
  1358  000B                     	;# 
  1359  000C                     	;# 
  1360  000D                     	;# 
  1361  000E                     	;# 
  1362  0010                     	;# 
  1363  0011                     	;# 
  1364  0012                     	;# 
  1365  0013                     	;# 
  1366  0014                     	;# 
  1367  0015                     	;# 
  1368  0016                     	;# 
  1369  0016                     	;# 
  1370  0017                     	;# 
  1371  0018                     	;# 
  1372  0019                     	;# 
  1373  001A                     	;# 
  1374  001B                     	;# 
  1375  001C                     	;# 
  1376  008C                     	;# 
  1377  008D                     	;# 
  1378  008E                     	;# 
  1379  0090                     	;# 
  1380  0091                     	;# 
  1381  0092                     	;# 
  1382  0093                     	;# 
  1383  0094                     	;# 
  1384  0095                     	;# 
  1385  0096                     	;# 
  1386  0097                     	;# 
  1387  0098                     	;# 
  1388  0099                     	;# 
  1389  009A                     	;# 
  1390  009B                     	;# 
  1391  009B                     	;# 
  1392  009C                     	;# 
  1393  009D                     	;# 
  1394  009E                     	;# 
  1395  009F                     	;# 
  1396  010C                     	;# 
  1397  010D                     	;# 
  1398  010E                     	;# 
  1399  0111                     	;# 
  1400  0112                     	;# 
  1401  0113                     	;# 
  1402  0114                     	;# 
  1403  0115                     	;# 
  1404  0116                     	;# 
  1405  0117                     	;# 
  1406  0118                     	;# 
  1407  0119                     	;# 
  1408  011A                     	;# 
  1409  011B                     	;# 
  1410  011C                     	;# 
  1411  011D                     	;# 
  1412  011D                     	;# 
  1413  011D                     	;# 
  1414  011E                     	;# 
  1415  011F                     	;# 
  1416  018C                     	;# 
  1417  018D                     	;# 
  1418  018E                     	;# 
  1419  0191                     	;# 
  1420  0191                     	;# 
  1421  0192                     	;# 
  1422  0193                     	;# 
  1423  0193                     	;# 
  1424  0193                     	;# 
  1425  0194                     	;# 
  1426  0195                     	;# 
  1427  0196                     	;# 
  1428  0197                     	;# 
  1429  0199                     	;# 
  1430  0199                     	;# 
  1431  0199                     	;# 
  1432  019A                     	;# 
  1433  019A                     	;# 
  1434  019A                     	;# 
  1435  019B                     	;# 
  1436  019B                     	;# 
  1437  019B                     	;# 
  1438  019B                     	;# 
  1439  019B                     	;# 
  1440  019C                     	;# 
  1441  019C                     	;# 
  1442  019C                     	;# 
  1443  019D                     	;# 
  1444  019D                     	;# 
  1445  019D                     	;# 
  1446  019E                     	;# 
  1447  019E                     	;# 
  1448  019E                     	;# 
  1449  019F                     	;# 
  1450  019F                     	;# 
  1451  019F                     	;# 
  1452  019F                     	;# 
  1453  019F                     	;# 
  1454  020C                     	;# 
  1455  020D                     	;# 
  1456  020E                     	;# 
  1457  0210                     	;# 
  1458  0211                     	;# 
  1459  0211                     	;# 
  1460  0212                     	;# 
  1461  0212                     	;# 
  1462  0213                     	;# 
  1463  0213                     	;# 
  1464  0214                     	;# 
  1465  0214                     	;# 
  1466  0215                     	;# 
  1467  0215                     	;# 
  1468  0215                     	;# 
  1469  0215                     	;# 
  1470  0216                     	;# 
  1471  0216                     	;# 
  1472  0217                     	;# 
  1473  0217                     	;# 
  1474  028C                     	;# 
  1475  028D                     	;# 
  1476  028E                     	;# 
  1477  0291                     	;# 
  1478  0291                     	;# 
  1479  0292                     	;# 
  1480  0293                     	;# 
  1481  0298                     	;# 
  1482  0298                     	;# 
  1483  0299                     	;# 
  1484  029A                     	;# 
  1485  030C                     	;# 
  1486  030D                     	;# 
  1487  030E                     	;# 
  1488  0311                     	;# 
  1489  0311                     	;# 
  1490  0312                     	;# 
  1491  0313                     	;# 
  1492  038C                     	;# 
  1493  038D                     	;# 
  1494  038E                     	;# 
  1495  0390                     	;# 
  1496  0391                     	;# 
  1497  0392                     	;# 
  1498  0393                     	;# 
  1499  0394                     	;# 
  1500  0395                     	;# 
  1501  0396                     	;# 
  1502  0397                     	;# 
  1503  0398                     	;# 
  1504  0399                     	;# 
  1505  039D                     	;# 
  1506  039E                     	;# 
  1507  039F                     	;# 
  1508  0511                     	;# 
  1509  0513                     	;# 
  1510  051A                     	;# 
  1511  0591                     	;# 
  1512  0592                     	;# 
  1513  0592                     	;# 
  1514  0593                     	;# 
  1515  0594                     	;# 
  1516  0594                     	;# 
  1517  0595                     	;# 
  1518  0596                     	;# 
  1519  0596                     	;# 
  1520  0E91                     	;# 
  1521  0E92                     	;# 
  1522  0E93                     	;# 
  1523  0E94                     	;# 
  1524  0E95                     	;# 
  1525  0E96                     	;# 
  1526  0E97                     	;# 
  1527  0E98                     	;# 
  1528  0E99                     	;# 
  1529  0E9A                     	;# 
  1530  0E9B                     	;# 
  1531  0E9C                     	;# 
  1532  0E9D                     	;# 
  1533  0E9E                     	;# 
  1534  0E9F                     	;# 
  1535  0EA0                     	;# 
  1536  0EA1                     	;# 
  1537  0EA1                     	;# 
  1538  0EA2                     	;# 
  1539  0EA3                     	;# 
  1540  0EA3                     	;# 
  1541  0EA4                     	;# 
  1542  0EA5                     	;# 
  1543  0EA5                     	;# 
  1544  0EA6                     	;# 
  1545  0EA7                     	;# 
  1546  0EA7                     	;# 
  1547  0EA8                     	;# 
  1548  0EA9                     	;# 
  1549  0EAA                     	;# 
  1550  0EAB                     	;# 
  1551  0EAC                     	;# 
  1552  0EAD                     	;# 
  1553  0EAE                     	;# 
  1554  0EAF                     	;# 
  1555  0EB1                     	;# 
  1556  0EB2                     	;# 
  1557  0EB3                     	;# 
  1558  0EB4                     	;# 
  1559  0EB5                     	;# 
  1560  0EB6                     	;# 
  1561  0EB7                     	;# 
  1562  0EB8                     	;# 
  1563  0EB9                     	;# 
  1564  0EBA                     	;# 
  1565  0EBB                     	;# 
  1566  0EBC                     	;# 
  1567  0EBD                     	;# 
  1568  0EBE                     	;# 
  1569  0EBF                     	;# 
  1570  0EC0                     	;# 
  1571  0EC1                     	;# 
  1572  0EC1                     	;# 
  1573  0EC2                     	;# 
  1574  0EC3                     	;# 
  1575  0EC3                     	;# 
  1576  0EC4                     	;# 
  1577  0EC5                     	;# 
  1578  0EC5                     	;# 
  1579  0EC6                     	;# 
  1580  0EC7                     	;# 
  1581  0EC7                     	;# 
  1582  0EC8                     	;# 
  1583  0EC9                     	;# 
  1584  0ECA                     	;# 
  1585  0ECB                     	;# 
  1586  0ECC                     	;# 
  1587  0ECD                     	;# 
  1588  0ECE                     	;# 
  1589  0ECF                     	;# 
  1590  0ED1                     	;# 
  1591  0ED2                     	;# 
  1592  0ED3                     	;# 
  1593  0ED4                     	;# 
  1594  0ED5                     	;# 
  1595  0ED6                     	;# 
  1596  0ED7                     	;# 
  1597  0ED8                     	;# 
  1598  0ED9                     	;# 
  1599  0EDA                     	;# 
  1600  0EDB                     	;# 
  1601  0EDC                     	;# 
  1602  0EDD                     	;# 
  1603  0EDE                     	;# 
  1604  0EDF                     	;# 
  1605  0EE0                     	;# 
  1606  0EE1                     	;# 
  1607  0EE1                     	;# 
  1608  0EE2                     	;# 
  1609  0EE3                     	;# 
  1610  0EE3                     	;# 
  1611  0EE4                     	;# 
  1612  0EE5                     	;# 
  1613  0EE5                     	;# 
  1614  0EE6                     	;# 
  1615  0EE7                     	;# 
  1616  0EE7                     	;# 
  1617  0EE8                     	;# 
  1618  0EE9                     	;# 
  1619  0EEA                     	;# 
  1620  0EEB                     	;# 
  1621  0EEC                     	;# 
  1622  0EED                     	;# 
  1623  0EEE                     	;# 
  1624  0EEF                     	;# 
  1625  0F11                     	;# 
  1626  0F12                     	;# 
  1627  0F13                     	;# 
  1628  0F14                     	;# 
  1629  0F15                     	;# 
  1630  0F16                     	;# 
  1631  0F17                     	;# 
  1632  0F18                     	;# 
  1633  0F19                     	;# 
  1634  0F1A                     	;# 
  1635  0F1B                     	;# 
  1636  0F1C                     	;# 
  1637  0F1D                     	;# 
  1638  0F1E                     	;# 
  1639  0F1F                     	;# 
  1640  0F20                     	;# 
  1641  0F21                     	;# 
  1642  0F21                     	;# 
  1643  0F22                     	;# 
  1644  0F23                     	;# 
  1645  0F23                     	;# 
  1646  0F24                     	;# 
  1647  0F25                     	;# 
  1648  0F25                     	;# 
  1649  0F26                     	;# 
  1650  0F27                     	;# 
  1651  0F27                     	;# 
  1652  0F28                     	;# 
  1653  0F29                     	;# 
  1654  0F2A                     	;# 
  1655  0F2B                     	;# 
  1656  0F2C                     	;# 
  1657  0F2D                     	;# 
  1658  0F2E                     	;# 
  1659  0F2F                     	;# 
  1660  0FE4                     	;# 
  1661  0FE5                     	;# 
  1662  0FE6                     	;# 
  1663  0FE7                     	;# 
  1664  0FE8                     	;# 
  1665  0FE9                     	;# 
  1666  0FEA                     	;# 
  1667  0FEB                     	;# 
  1668  0FED                     	;# 
  1669  0FEE                     	;# 
  1670  0FEF                     	;# 
  1671  0000                     	;# 
  1672  0001                     	;# 
  1673  0002                     	;# 
  1674  0003                     	;# 
  1675  0004                     	;# 
  1676  0005                     	;# 
  1677  0006                     	;# 
  1678  0007                     	;# 
  1679  0008                     	;# 
  1680  0009                     	;# 
  1681  000A                     	;# 
  1682  000B                     	;# 
  1683  000C                     	;# 
  1684  000D                     	;# 
  1685  000E                     	;# 
  1686  0010                     	;# 
  1687  0011                     	;# 
  1688  0012                     	;# 
  1689  0013                     	;# 
  1690  0014                     	;# 
  1691  0015                     	;# 
  1692  0016                     	;# 
  1693  0016                     	;# 
  1694  0017                     	;# 
  1695  0018                     	;# 
  1696  0019                     	;# 
  1697  001A                     	;# 
  1698  001B                     	;# 
  1699  001C                     	;# 
  1700  008C                     	;# 
  1701  008D                     	;# 
  1702  008E                     	;# 
  1703  0090                     	;# 
  1704  0091                     	;# 
  1705  0092                     	;# 
  1706  0093                     	;# 
  1707  0094                     	;# 
  1708  0095                     	;# 
  1709  0096                     	;# 
  1710  0097                     	;# 
  1711  0098                     	;# 
  1712  0099                     	;# 
  1713  009A                     	;# 
  1714  009B                     	;# 
  1715  009B                     	;# 
  1716  009C                     	;# 
  1717  009D                     	;# 
  1718  009E                     	;# 
  1719  009F                     	;# 
  1720  010C                     	;# 
  1721  010D                     	;# 
  1722  010E                     	;# 
  1723  0111                     	;# 
  1724  0112                     	;# 
  1725  0113                     	;# 
  1726  0114                     	;# 
  1727  0115                     	;# 
  1728  0116                     	;# 
  1729  0117                     	;# 
  1730  0118                     	;# 
  1731  0119                     	;# 
  1732  011A                     	;# 
  1733  011B                     	;# 
  1734  011C                     	;# 
  1735  011D                     	;# 
  1736  011D                     	;# 
  1737  011D                     	;# 
  1738  011E                     	;# 
  1739  011F                     	;# 
  1740  018C                     	;# 
  1741  018D                     	;# 
  1742  018E                     	;# 
  1743  0191                     	;# 
  1744  0191                     	;# 
  1745  0192                     	;# 
  1746  0193                     	;# 
  1747  0193                     	;# 
  1748  0193                     	;# 
  1749  0194                     	;# 
  1750  0195                     	;# 
  1751  0196                     	;# 
  1752  0197                     	;# 
  1753  0199                     	;# 
  1754  0199                     	;# 
  1755  0199                     	;# 
  1756  019A                     	;# 
  1757  019A                     	;# 
  1758  019A                     	;# 
  1759  019B                     	;# 
  1760  019B                     	;# 
  1761  019B                     	;# 
  1762  019B                     	;# 
  1763  019B                     	;# 
  1764  019C                     	;# 
  1765  019C                     	;# 
  1766  019C                     	;# 
  1767  019D                     	;# 
  1768  019D                     	;# 
  1769  019D                     	;# 
  1770  019E                     	;# 
  1771  019E                     	;# 
  1772  019E                     	;# 
  1773  019F                     	;# 
  1774  019F                     	;# 
  1775  019F                     	;# 
  1776  019F                     	;# 
  1777  019F                     	;# 
  1778  020C                     	;# 
  1779  020D                     	;# 
  1780  020E                     	;# 
  1781  0210                     	;# 
  1782  0211                     	;# 
  1783  0211                     	;# 
  1784  0212                     	;# 
  1785  0212                     	;# 
  1786  0213                     	;# 
  1787  0213                     	;# 
  1788  0214                     	;# 
  1789  0214                     	;# 
  1790  0215                     	;# 
  1791  0215                     	;# 
  1792  0215                     	;# 
  1793  0215                     	;# 
  1794  0216                     	;# 
  1795  0216                     	;# 
  1796  0217                     	;# 
  1797  0217                     	;# 
  1798  028C                     	;# 
  1799  028D                     	;# 
  1800  028E                     	;# 
  1801  0291                     	;# 
  1802  0291                     	;# 
  1803  0292                     	;# 
  1804  0293                     	;# 
  1805  0298                     	;# 
  1806  0298                     	;# 
  1807  0299                     	;# 
  1808  029A                     	;# 
  1809  030C                     	;# 
  1810  030D                     	;# 
  1811  030E                     	;# 
  1812  0311                     	;# 
  1813  0311                     	;# 
  1814  0312                     	;# 
  1815  0313                     	;# 
  1816  038C                     	;# 
  1817  038D                     	;# 
  1818  038E                     	;# 
  1819  0390                     	;# 
  1820  0391                     	;# 
  1821  0392                     	;# 
  1822  0393                     	;# 
  1823  0394                     	;# 
  1824  0395                     	;# 
  1825  0396                     	;# 
  1826  0397                     	;# 
  1827  0398                     	;# 
  1828  0399                     	;# 
  1829  039D                     	;# 
  1830  039E                     	;# 
  1831  039F                     	;# 
  1832  0511                     	;# 
  1833  0513                     	;# 
  1834  051A                     	;# 
  1835  0591                     	;# 
  1836  0592                     	;# 
  1837  0592                     	;# 
  1838  0593                     	;# 
  1839  0594                     	;# 
  1840  0594                     	;# 
  1841  0595                     	;# 
  1842  0596                     	;# 
  1843  0596                     	;# 
  1844  0E91                     	;# 
  1845  0E92                     	;# 
  1846  0E93                     	;# 
  1847  0E94                     	;# 
  1848  0E95                     	;# 
  1849  0E96                     	;# 
  1850  0E97                     	;# 
  1851  0E98                     	;# 
  1852  0E99                     	;# 
  1853  0E9A                     	;# 
  1854  0E9B                     	;# 
  1855  0E9C                     	;# 
  1856  0E9D                     	;# 
  1857  0E9E                     	;# 
  1858  0E9F                     	;# 
  1859  0EA0                     	;# 
  1860  0EA1                     	;# 
  1861  0EA1                     	;# 
  1862  0EA2                     	;# 
  1863  0EA3                     	;# 
  1864  0EA3                     	;# 
  1865  0EA4                     	;# 
  1866  0EA5                     	;# 
  1867  0EA5                     	;# 
  1868  0EA6                     	;# 
  1869  0EA7                     	;# 
  1870  0EA7                     	;# 
  1871  0EA8                     	;# 
  1872  0EA9                     	;# 
  1873  0EAA                     	;# 
  1874  0EAB                     	;# 
  1875  0EAC                     	;# 
  1876  0EAD                     	;# 
  1877  0EAE                     	;# 
  1878  0EAF                     	;# 
  1879  0EB1                     	;# 
  1880  0EB2                     	;# 
  1881  0EB3                     	;# 
  1882  0EB4                     	;# 
  1883  0EB5                     	;# 
  1884  0EB6                     	;# 
  1885  0EB7                     	;# 
  1886  0EB8                     	;# 
  1887  0EB9                     	;# 
  1888  0EBA                     	;# 
  1889  0EBB                     	;# 
  1890  0EBC                     	;# 
  1891  0EBD                     	;# 
  1892  0EBE                     	;# 
  1893  0EBF                     	;# 
  1894  0EC0                     	;# 
  1895  0EC1                     	;# 
  1896  0EC1                     	;# 
  1897  0EC2                     	;# 
  1898  0EC3                     	;# 
  1899  0EC3                     	;# 
  1900  0EC4                     	;# 
  1901  0EC5                     	;# 
  1902  0EC5                     	;# 
  1903  0EC6                     	;# 
  1904  0EC7                     	;# 
  1905  0EC7                     	;# 
  1906  0EC8                     	;# 
  1907  0EC9                     	;# 
  1908  0ECA                     	;# 
  1909  0ECB                     	;# 
  1910  0ECC                     	;# 
  1911  0ECD                     	;# 
  1912  0ECE                     	;# 
  1913  0ECF                     	;# 
  1914  0ED1                     	;# 
  1915  0ED2                     	;# 
  1916  0ED3                     	;# 
  1917  0ED4                     	;# 
  1918  0ED5                     	;# 
  1919  0ED6                     	;# 
  1920  0ED7                     	;# 
  1921  0ED8                     	;# 
  1922  0ED9                     	;# 
  1923  0EDA                     	;# 
  1924  0EDB                     	;# 
  1925  0EDC                     	;# 
  1926  0EDD                     	;# 
  1927  0EDE                     	;# 
  1928  0EDF                     	;# 
  1929  0EE0                     	;# 
  1930  0EE1                     	;# 
  1931  0EE1                     	;# 
  1932  0EE2                     	;# 
  1933  0EE3                     	;# 
  1934  0EE3                     	;# 
  1935  0EE4                     	;# 
  1936  0EE5                     	;# 
  1937  0EE5                     	;# 
  1938  0EE6                     	;# 
  1939  0EE7                     	;# 
  1940  0EE7                     	;# 
  1941  0EE8                     	;# 
  1942  0EE9                     	;# 
  1943  0EEA                     	;# 
  1944  0EEB                     	;# 
  1945  0EEC                     	;# 
  1946  0EED                     	;# 
  1947  0EEE                     	;# 
  1948  0EEF                     	;# 
  1949  0F11                     	;# 
  1950  0F12                     	;# 
  1951  0F13                     	;# 
  1952  0F14                     	;# 
  1953  0F15                     	;# 
  1954  0F16                     	;# 
  1955  0F17                     	;# 
  1956  0F18                     	;# 
  1957  0F19                     	;# 
  1958  0F1A                     	;# 
  1959  0F1B                     	;# 
  1960  0F1C                     	;# 
  1961  0F1D                     	;# 
  1962  0F1E                     	;# 
  1963  0F1F                     	;# 
  1964  0F20                     	;# 
  1965  0F21                     	;# 
  1966  0F21                     	;# 
  1967  0F22                     	;# 
  1968  0F23                     	;# 
  1969  0F23                     	;# 
  1970  0F24                     	;# 
  1971  0F25                     	;# 
  1972  0F25                     	;# 
  1973  0F26                     	;# 
  1974  0F27                     	;# 
  1975  0F27                     	;# 
  1976  0F28                     	;# 
  1977  0F29                     	;# 
  1978  0F2A                     	;# 
  1979  0F2B                     	;# 
  1980  0F2C                     	;# 
  1981  0F2D                     	;# 
  1982  0F2E                     	;# 
  1983  0F2F                     	;# 
  1984  0FE4                     	;# 
  1985  0FE5                     	;# 
  1986  0FE6                     	;# 
  1987  0FE7                     	;# 
  1988  0FE8                     	;# 
  1989  0FE9                     	;# 
  1990  0FEA                     	;# 
  1991  0FEB                     	;# 
  1992  0FED                     	;# 
  1993  0FEE                     	;# 
  1994  0FEF                     	;# 
  1995  0000                     	;# 
  1996  0001                     	;# 
  1997  0002                     	;# 
  1998  0003                     	;# 
  1999  0004                     	;# 
  2000  0005                     	;# 
  2001  0006                     	;# 
  2002  0007                     	;# 
  2003  0008                     	;# 
  2004  0009                     	;# 
  2005  000A                     	;# 
  2006  000B                     	;# 
  2007  000C                     	;# 
  2008  000D                     	;# 
  2009  000E                     	;# 
  2010  0010                     	;# 
  2011  0011                     	;# 
  2012  0012                     	;# 
  2013  0013                     	;# 
  2014  0014                     	;# 
  2015  0015                     	;# 
  2016  0016                     	;# 
  2017  0016                     	;# 
  2018  0017                     	;# 
  2019  0018                     	;# 
  2020  0019                     	;# 
  2021  001A                     	;# 
  2022  001B                     	;# 
  2023  001C                     	;# 
  2024  008C                     	;# 
  2025  008D                     	;# 
  2026  008E                     	;# 
  2027  0090                     	;# 
  2028  0091                     	;# 
  2029  0092                     	;# 
  2030  0093                     	;# 
  2031  0094                     	;# 
  2032  0095                     	;# 
  2033  0096                     	;# 
  2034  0097                     	;# 
  2035  0098                     	;# 
  2036  0099                     	;# 
  2037  009A                     	;# 
  2038  009B                     	;# 
  2039  009B                     	;# 
  2040  009C                     	;# 
  2041  009D                     	;# 
  2042  009E                     	;# 
  2043  009F                     	;# 
  2044  010C                     	;# 
  2045  010D                     	;# 
  2046  010E                     	;# 
  2047  0111                     	;# 
  2048  0112                     	;# 
  2049  0113                     	;# 
  2050  0114                     	;# 
  2051  0115                     	;# 
  2052  0116                     	;# 
  2053  0117                     	;# 
  2054  0118                     	;# 
  2055  0119                     	;# 
  2056  011A                     	;# 
  2057  011B                     	;# 
  2058  011C                     	;# 
  2059  011D                     	;# 
  2060  011D                     	;# 
  2061  011D                     	;# 
  2062  011E                     	;# 
  2063  011F                     	;# 
  2064  018C                     	;# 
  2065  018D                     	;# 
  2066  018E                     	;# 
  2067  0191                     	;# 
  2068  0191                     	;# 
  2069  0192                     	;# 
  2070  0193                     	;# 
  2071  0193                     	;# 
  2072  0193                     	;# 
  2073  0194                     	;# 
  2074  0195                     	;# 
  2075  0196                     	;# 
  2076  0197                     	;# 
  2077  0199                     	;# 
  2078  0199                     	;# 
  2079  0199                     	;# 
  2080  019A                     	;# 
  2081  019A                     	;# 
  2082  019A                     	;# 
  2083  019B                     	;# 
  2084  019B                     	;# 
  2085  019B                     	;# 
  2086  019B                     	;# 
  2087  019B                     	;# 
  2088  019C                     	;# 
  2089  019C                     	;# 
  2090  019C                     	;# 
  2091  019D                     	;# 
  2092  019D                     	;# 
  2093  019D                     	;# 
  2094  019E                     	;# 
  2095  019E                     	;# 
  2096  019E                     	;# 
  2097  019F                     	;# 
  2098  019F                     	;# 
  2099  019F                     	;# 
  2100  019F                     	;# 
  2101  019F                     	;# 
  2102  020C                     	;# 
  2103  020D                     	;# 
  2104  020E                     	;# 
  2105  0210                     	;# 
  2106  0211                     	;# 
  2107  0211                     	;# 
  2108  0212                     	;# 
  2109  0212                     	;# 
  2110  0213                     	;# 
  2111  0213                     	;# 
  2112  0214                     	;# 
  2113  0214                     	;# 
  2114  0215                     	;# 
  2115  0215                     	;# 
  2116  0215                     	;# 
  2117  0215                     	;# 
  2118  0216                     	;# 
  2119  0216                     	;# 
  2120  0217                     	;# 
  2121  0217                     	;# 
  2122  028C                     	;# 
  2123  028D                     	;# 
  2124  028E                     	;# 
  2125  0291                     	;# 
  2126  0291                     	;# 
  2127  0292                     	;# 
  2128  0293                     	;# 
  2129  0298                     	;# 
  2130  0298                     	;# 
  2131  0299                     	;# 
  2132  029A                     	;# 
  2133  030C                     	;# 
  2134  030D                     	;# 
  2135  030E                     	;# 
  2136  0311                     	;# 
  2137  0311                     	;# 
  2138  0312                     	;# 
  2139  0313                     	;# 
  2140  038C                     	;# 
  2141  038D                     	;# 
  2142  038E                     	;# 
  2143  0390                     	;# 
  2144  0391                     	;# 
  2145  0392                     	;# 
  2146  0393                     	;# 
  2147  0394                     	;# 
  2148  0395                     	;# 
  2149  0396                     	;# 
  2150  0397                     	;# 
  2151  0398                     	;# 
  2152  0399                     	;# 
  2153  039D                     	;# 
  2154  039E                     	;# 
  2155  039F                     	;# 
  2156  0511                     	;# 
  2157  0513                     	;# 
  2158  051A                     	;# 
  2159  0591                     	;# 
  2160  0592                     	;# 
  2161  0592                     	;# 
  2162  0593                     	;# 
  2163  0594                     	;# 
  2164  0594                     	;# 
  2165  0595                     	;# 
  2166  0596                     	;# 
  2167  0596                     	;# 
  2168  0E91                     	;# 
  2169  0E92                     	;# 
  2170  0E93                     	;# 
  2171  0E94                     	;# 
  2172  0E95                     	;# 
  2173  0E96                     	;# 
  2174  0E97                     	;# 
  2175  0E98                     	;# 
  2176  0E99                     	;# 
  2177  0E9A                     	;# 
  2178  0E9B                     	;# 
  2179  0E9C                     	;# 
  2180  0E9D                     	;# 
  2181  0E9E                     	;# 
  2182  0E9F                     	;# 
  2183  0EA0                     	;# 
  2184  0EA1                     	;# 
  2185  0EA1                     	;# 
  2186  0EA2                     	;# 
  2187  0EA3                     	;# 
  2188  0EA3                     	;# 
  2189  0EA4                     	;# 
  2190  0EA5                     	;# 
  2191  0EA5                     	;# 
  2192  0EA6                     	;# 
  2193  0EA7                     	;# 
  2194  0EA7                     	;# 
  2195  0EA8                     	;# 
  2196  0EA9                     	;# 
  2197  0EAA                     	;# 
  2198  0EAB                     	;# 
  2199  0EAC                     	;# 
  2200  0EAD                     	;# 
  2201  0EAE                     	;# 
  2202  0EAF                     	;# 
  2203  0EB1                     	;# 
  2204  0EB2                     	;# 
  2205  0EB3                     	;# 
  2206  0EB4                     	;# 
  2207  0EB5                     	;# 
  2208  0EB6                     	;# 
  2209  0EB7                     	;# 
  2210  0EB8                     	;# 
  2211  0EB9                     	;# 
  2212  0EBA                     	;# 
  2213  0EBB                     	;# 
  2214  0EBC                     	;# 
  2215  0EBD                     	;# 
  2216  0EBE                     	;# 
  2217  0EBF                     	;# 
  2218  0EC0                     	;# 
  2219  0EC1                     	;# 
  2220  0EC1                     	;# 
  2221  0EC2                     	;# 
  2222  0EC3                     	;# 
  2223  0EC3                     	;# 
  2224  0EC4                     	;# 
  2225  0EC5                     	;# 
  2226  0EC5                     	;# 
  2227  0EC6                     	;# 
  2228  0EC7                     	;# 
  2229  0EC7                     	;# 
  2230  0EC8                     	;# 
  2231  0EC9                     	;# 
  2232  0ECA                     	;# 
  2233  0ECB                     	;# 
  2234  0ECC                     	;# 
  2235  0ECD                     	;# 
  2236  0ECE                     	;# 
  2237  0ECF                     	;# 
  2238  0ED1                     	;# 
  2239  0ED2                     	;# 
  2240  0ED3                     	;# 
  2241  0ED4                     	;# 
  2242  0ED5                     	;# 
  2243  0ED6                     	;# 
  2244  0ED7                     	;# 
  2245  0ED8                     	;# 
  2246  0ED9                     	;# 
  2247  0EDA                     	;# 
  2248  0EDB                     	;# 
  2249  0EDC                     	;# 
  2250  0EDD                     	;# 
  2251  0EDE                     	;# 
  2252  0EDF                     	;# 
  2253  0EE0                     	;# 
  2254  0EE1                     	;# 
  2255  0EE1                     	;# 
  2256  0EE2                     	;# 
  2257  0EE3                     	;# 
  2258  0EE3                     	;# 
  2259  0EE4                     	;# 
  2260  0EE5                     	;# 
  2261  0EE5                     	;# 
  2262  0EE6                     	;# 
  2263  0EE7                     	;# 
  2264  0EE7                     	;# 
  2265  0EE8                     	;# 
  2266  0EE9                     	;# 
  2267  0EEA                     	;# 
  2268  0EEB                     	;# 
  2269  0EEC                     	;# 
  2270  0EED                     	;# 
  2271  0EEE                     	;# 
  2272  0EEF                     	;# 
  2273  0F11                     	;# 
  2274  0F12                     	;# 
  2275  0F13                     	;# 
  2276  0F14                     	;# 
  2277  0F15                     	;# 
  2278  0F16                     	;# 
  2279  0F17                     	;# 
  2280  0F18                     	;# 
  2281  0F19                     	;# 
  2282  0F1A                     	;# 
  2283  0F1B                     	;# 
  2284  0F1C                     	;# 
  2285  0F1D                     	;# 
  2286  0F1E                     	;# 
  2287  0F1F                     	;# 
  2288  0F20                     	;# 
  2289  0F21                     	;# 
  2290  0F21                     	;# 
  2291  0F22                     	;# 
  2292  0F23                     	;# 
  2293  0F23                     	;# 
  2294  0F24                     	;# 
  2295  0F25                     	;# 
  2296  0F25                     	;# 
  2297  0F26                     	;# 
  2298  0F27                     	;# 
  2299  0F27                     	;# 
  2300  0F28                     	;# 
  2301  0F29                     	;# 
  2302  0F2A                     	;# 
  2303  0F2B                     	;# 
  2304  0F2C                     	;# 
  2305  0F2D                     	;# 
  2306  0F2E                     	;# 
  2307  0F2F                     	;# 
  2308  0FE4                     	;# 
  2309  0FE5                     	;# 
  2310  0FE6                     	;# 
  2311  0FE7                     	;# 
  2312  0FE8                     	;# 
  2313  0FE9                     	;# 
  2314  0FEA                     	;# 
  2315  0FEB                     	;# 
  2316  0FED                     	;# 
  2317  0FEE                     	;# 
  2318  0FEF                     	;# 
  2319  0000                     	;# 
  2320  0001                     	;# 
  2321  0002                     	;# 
  2322  0003                     	;# 
  2323  0004                     	;# 
  2324  0005                     	;# 
  2325  0006                     	;# 
  2326  0007                     	;# 
  2327  0008                     	;# 
  2328  0009                     	;# 
  2329  000A                     	;# 
  2330  000B                     	;# 
  2331  000C                     	;# 
  2332  000D                     	;# 
  2333  000E                     	;# 
  2334  0010                     	;# 
  2335  0011                     	;# 
  2336  0012                     	;# 
  2337  0013                     	;# 
  2338  0014                     	;# 
  2339  0015                     	;# 
  2340  0016                     	;# 
  2341  0016                     	;# 
  2342  0017                     	;# 
  2343  0018                     	;# 
  2344  0019                     	;# 
  2345  001A                     	;# 
  2346  001B                     	;# 
  2347  001C                     	;# 
  2348  008C                     	;# 
  2349  008D                     	;# 
  2350  008E                     	;# 
  2351  0090                     	;# 
  2352  0091                     	;# 
  2353  0092                     	;# 
  2354  0093                     	;# 
  2355  0094                     	;# 
  2356  0095                     	;# 
  2357  0096                     	;# 
  2358  0097                     	;# 
  2359  0098                     	;# 
  2360  0099                     	;# 
  2361  009A                     	;# 
  2362  009B                     	;# 
  2363  009B                     	;# 
  2364  009C                     	;# 
  2365  009D                     	;# 
  2366  009E                     	;# 
  2367  009F                     	;# 
  2368  010C                     	;# 
  2369  010D                     	;# 
  2370  010E                     	;# 
  2371  0111                     	;# 
  2372  0112                     	;# 
  2373  0113                     	;# 
  2374  0114                     	;# 
  2375  0115                     	;# 
  2376  0116                     	;# 
  2377  0117                     	;# 
  2378  0118                     	;# 
  2379  0119                     	;# 
  2380  011A                     	;# 
  2381  011B                     	;# 
  2382  011C                     	;# 
  2383  011D                     	;# 
  2384  011D                     	;# 
  2385  011D                     	;# 
  2386  011E                     	;# 
  2387  011F                     	;# 
  2388  018C                     	;# 
  2389  018D                     	;# 
  2390  018E                     	;# 
  2391  0191                     	;# 
  2392  0191                     	;# 
  2393  0192                     	;# 
  2394  0193                     	;# 
  2395  0193                     	;# 
  2396  0193                     	;# 
  2397  0194                     	;# 
  2398  0195                     	;# 
  2399  0196                     	;# 
  2400  0197                     	;# 
  2401  0199                     	;# 
  2402  0199                     	;# 
  2403  0199                     	;# 
  2404  019A                     	;# 
  2405  019A                     	;# 
  2406  019A                     	;# 
  2407  019B                     	;# 
  2408  019B                     	;# 
  2409  019B                     	;# 
  2410  019B                     	;# 
  2411  019B                     	;# 
  2412  019C                     	;# 
  2413  019C                     	;# 
  2414  019C                     	;# 
  2415  019D                     	;# 
  2416  019D                     	;# 
  2417  019D                     	;# 
  2418  019E                     	;# 
  2419  019E                     	;# 
  2420  019E                     	;# 
  2421  019F                     	;# 
  2422  019F                     	;# 
  2423  019F                     	;# 
  2424  019F                     	;# 
  2425  019F                     	;# 
  2426  020C                     	;# 
  2427  020D                     	;# 
  2428  020E                     	;# 
  2429  0210                     	;# 
  2430  0211                     	;# 
  2431  0211                     	;# 
  2432  0212                     	;# 
  2433  0212                     	;# 
  2434  0213                     	;# 
  2435  0213                     	;# 
  2436  0214                     	;# 
  2437  0214                     	;# 
  2438  0215                     	;# 
  2439  0215                     	;# 
  2440  0215                     	;# 
  2441  0215                     	;# 
  2442  0216                     	;# 
  2443  0216                     	;# 
  2444  0217                     	;# 
  2445  0217                     	;# 
  2446  028C                     	;# 
  2447  028D                     	;# 
  2448  028E                     	;# 
  2449  0291                     	;# 
  2450  0291                     	;# 
  2451  0292                     	;# 
  2452  0293                     	;# 
  2453  0298                     	;# 
  2454  0298                     	;# 
  2455  0299                     	;# 
  2456  029A                     	;# 
  2457  030C                     	;# 
  2458  030D                     	;# 
  2459  030E                     	;# 
  2460  0311                     	;# 
  2461  0311                     	;# 
  2462  0312                     	;# 
  2463  0313                     	;# 
  2464  038C                     	;# 
  2465  038D                     	;# 
  2466  038E                     	;# 
  2467  0390                     	;# 
  2468  0391                     	;# 
  2469  0392                     	;# 
  2470  0393                     	;# 
  2471  0394                     	;# 
  2472  0395                     	;# 
  2473  0396                     	;# 
  2474  0397                     	;# 
  2475  0398                     	;# 
  2476  0399                     	;# 
  2477  039D                     	;# 
  2478  039E                     	;# 
  2479  039F                     	;# 
  2480  0511                     	;# 
  2481  0513                     	;# 
  2482  051A                     	;# 
  2483  0591                     	;# 
  2484  0592                     	;# 
  2485  0592                     	;# 
  2486  0593                     	;# 
  2487  0594                     	;# 
  2488  0594                     	;# 
  2489  0595                     	;# 
  2490  0596                     	;# 
  2491  0596                     	;# 
  2492  0E91                     	;# 
  2493  0E92                     	;# 
  2494  0E93                     	;# 
  2495  0E94                     	;# 
  2496  0E95                     	;# 
  2497  0E96                     	;# 
  2498  0E97                     	;# 
  2499  0E98                     	;# 
  2500  0E99                     	;# 
  2501  0E9A                     	;# 
  2502  0E9B                     	;# 
  2503  0E9C                     	;# 
  2504  0E9D                     	;# 
  2505  0E9E                     	;# 
  2506  0E9F                     	;# 
  2507  0EA0                     	;# 
  2508  0EA1                     	;# 
  2509  0EA1                     	;# 
  2510  0EA2                     	;# 
  2511  0EA3                     	;# 
  2512  0EA3                     	;# 
  2513  0EA4                     	;# 
  2514  0EA5                     	;# 
  2515  0EA5                     	;# 
  2516  0EA6                     	;# 
  2517  0EA7                     	;# 
  2518  0EA7                     	;# 
  2519  0EA8                     	;# 
  2520  0EA9                     	;# 
  2521  0EAA                     	;# 
  2522  0EAB                     	;# 
  2523  0EAC                     	;# 
  2524  0EAD                     	;# 
  2525  0EAE                     	;# 
  2526  0EAF                     	;# 
  2527  0EB1                     	;# 
  2528  0EB2                     	;# 
  2529  0EB3                     	;# 
  2530  0EB4                     	;# 
  2531  0EB5                     	;# 
  2532  0EB6                     	;# 
  2533  0EB7                     	;# 
  2534  0EB8                     	;# 
  2535  0EB9                     	;# 
  2536  0EBA                     	;# 
  2537  0EBB                     	;# 
  2538  0EBC                     	;# 
  2539  0EBD                     	;# 
  2540  0EBE                     	;# 
  2541  0EBF                     	;# 
  2542  0EC0                     	;# 
  2543  0EC1                     	;# 
  2544  0EC1                     	;# 
  2545  0EC2                     	;# 
  2546  0EC3                     	;# 
  2547  0EC3                     	;# 
  2548  0EC4                     	;# 
  2549  0EC5                     	;# 
  2550  0EC5                     	;# 
  2551  0EC6                     	;# 
  2552  0EC7                     	;# 
  2553  0EC7                     	;# 
  2554  0EC8                     	;# 
  2555  0EC9                     	;# 
  2556  0ECA                     	;# 
  2557  0ECB                     	;# 
  2558  0ECC                     	;# 
  2559  0ECD                     	;# 
  2560  0ECE                     	;# 
  2561  0ECF                     	;# 
  2562  0ED1                     	;# 
  2563  0ED2                     	;# 
  2564  0ED3                     	;# 
  2565  0ED4                     	;# 
  2566  0ED5                     	;# 
  2567  0ED6                     	;# 
  2568  0ED7                     	;# 
  2569  0ED8                     	;# 
  2570  0ED9                     	;# 
  2571  0EDA                     	;# 
  2572  0EDB                     	;# 
  2573  0EDC                     	;# 
  2574  0EDD                     	;# 
  2575  0EDE                     	;# 
  2576  0EDF                     	;# 
  2577  0EE0                     	;# 
  2578  0EE1                     	;# 
  2579  0EE1                     	;# 
  2580  0EE2                     	;# 
  2581  0EE3                     	;# 
  2582  0EE3                     	;# 
  2583  0EE4                     	;# 
  2584  0EE5                     	;# 
  2585  0EE5                     	;# 
  2586  0EE6                     	;# 
  2587  0EE7                     	;# 
  2588  0EE7                     	;# 
  2589  0EE8                     	;# 
  2590  0EE9                     	;# 
  2591  0EEA                     	;# 
  2592  0EEB                     	;# 
  2593  0EEC                     	;# 
  2594  0EED                     	;# 
  2595  0EEE                     	;# 
  2596  0EEF                     	;# 
  2597  0F11                     	;# 
  2598  0F12                     	;# 
  2599  0F13                     	;# 
  2600  0F14                     	;# 
  2601  0F15                     	;# 
  2602  0F16                     	;# 
  2603  0F17                     	;# 
  2604  0F18                     	;# 
  2605  0F19                     	;# 
  2606  0F1A                     	;# 
  2607  0F1B                     	;# 
  2608  0F1C                     	;# 
  2609  0F1D                     	;# 
  2610  0F1E                     	;# 
  2611  0F1F                     	;# 
  2612  0F20                     	;# 
  2613  0F21                     	;# 
  2614  0F21                     	;# 
  2615  0F22                     	;# 
  2616  0F23                     	;# 
  2617  0F23                     	;# 
  2618  0F24                     	;# 
  2619  0F25                     	;# 
  2620  0F25                     	;# 
  2621  0F26                     	;# 
  2622  0F27                     	;# 
  2623  0F27                     	;# 
  2624  0F28                     	;# 
  2625  0F29                     	;# 
  2626  0F2A                     	;# 
  2627  0F2B                     	;# 
  2628  0F2C                     	;# 
  2629  0F2D                     	;# 
  2630  0F2E                     	;# 
  2631  0F2F                     	;# 
  2632  0FE4                     	;# 
  2633  0FE5                     	;# 
  2634  0FE6                     	;# 
  2635  0FE7                     	;# 
  2636  0FE8                     	;# 
  2637  0FE9                     	;# 
  2638  0FEA                     	;# 
  2639  0FEB                     	;# 
  2640  0FED                     	;# 
  2641  0FEE                     	;# 
  2642  0FEF                     	;# 
  2643  0000                     	;# 
  2644  0001                     	;# 
  2645  0002                     	;# 
  2646  0003                     	;# 
  2647  0004                     	;# 
  2648  0005                     	;# 
  2649  0006                     	;# 
  2650  0007                     	;# 
  2651  0008                     	;# 
  2652  0009                     	;# 
  2653  000A                     	;# 
  2654  000B                     	;# 
  2655  000C                     	;# 
  2656  000D                     	;# 
  2657  000E                     	;# 
  2658  0010                     	;# 
  2659  0011                     	;# 
  2660  0012                     	;# 
  2661  0013                     	;# 
  2662  0014                     	;# 
  2663  0015                     	;# 
  2664  0016                     	;# 
  2665  0016                     	;# 
  2666  0017                     	;# 
  2667  0018                     	;# 
  2668  0019                     	;# 
  2669  001A                     	;# 
  2670  001B                     	;# 
  2671  001C                     	;# 
  2672  008C                     	;# 
  2673  008D                     	;# 
  2674  008E                     	;# 
  2675  0090                     	;# 
  2676  0091                     	;# 
  2677  0092                     	;# 
  2678  0093                     	;# 
  2679  0094                     	;# 
  2680  0095                     	;# 
  2681  0096                     	;# 
  2682  0097                     	;# 
  2683  0098                     	;# 
  2684  0099                     	;# 
  2685  009A                     	;# 
  2686  009B                     	;# 
  2687  009B                     	;# 
  2688  009C                     	;# 
  2689  009D                     	;# 
  2690  009E                     	;# 
  2691  009F                     	;# 
  2692  010C                     	;# 
  2693  010D                     	;# 
  2694  010E                     	;# 
  2695  0111                     	;# 
  2696  0112                     	;# 
  2697  0113                     	;# 
  2698  0114                     	;# 
  2699  0115                     	;# 
  2700  0116                     	;# 
  2701  0117                     	;# 
  2702  0118                     	;# 
  2703  0119                     	;# 
  2704  011A                     	;# 
  2705  011B                     	;# 
  2706  011C                     	;# 
  2707  011D                     	;# 
  2708  011D                     	;# 
  2709  011D                     	;# 
  2710  011E                     	;# 
  2711  011F                     	;# 
  2712  018C                     	;# 
  2713  018D                     	;# 
  2714  018E                     	;# 
  2715  0191                     	;# 
  2716  0191                     	;# 
  2717  0192                     	;# 
  2718  0193                     	;# 
  2719  0193                     	;# 
  2720  0193                     	;# 
  2721  0194                     	;# 
  2722  0195                     	;# 
  2723  0196                     	;# 
  2724  0197                     	;# 
  2725  0199                     	;# 
  2726  0199                     	;# 
  2727  0199                     	;# 
  2728  019A                     	;# 
  2729  019A                     	;# 
  2730  019A                     	;# 
  2731  019B                     	;# 
  2732  019B                     	;# 
  2733  019B                     	;# 
  2734  019B                     	;# 
  2735  019B                     	;# 
  2736  019C                     	;# 
  2737  019C                     	;# 
  2738  019C                     	;# 
  2739  019D                     	;# 
  2740  019D                     	;# 
  2741  019D                     	;# 
  2742  019E                     	;# 
  2743  019E                     	;# 
  2744  019E                     	;# 
  2745  019F                     	;# 
  2746  019F                     	;# 
  2747  019F                     	;# 
  2748  019F                     	;# 
  2749  019F                     	;# 
  2750  020C                     	;# 
  2751  020D                     	;# 
  2752  020E                     	;# 
  2753  0210                     	;# 
  2754  0211                     	;# 
  2755  0211                     	;# 
  2756  0212                     	;# 
  2757  0212                     	;# 
  2758  0213                     	;# 
  2759  0213                     	;# 
  2760  0214                     	;# 
  2761  0214                     	;# 
  2762  0215                     	;# 
  2763  0215                     	;# 
  2764  0215                     	;# 
  2765  0215                     	;# 
  2766  0216                     	;# 
  2767  0216                     	;# 
  2768  0217                     	;# 
  2769  0217                     	;# 
  2770  028C                     	;# 
  2771  028D                     	;# 
  2772  028E                     	;# 
  2773  0291                     	;# 
  2774  0291                     	;# 
  2775  0292                     	;# 
  2776  0293                     	;# 
  2777  0298                     	;# 
  2778  0298                     	;# 
  2779  0299                     	;# 
  2780  029A                     	;# 
  2781  030C                     	;# 
  2782  030D                     	;# 
  2783  030E                     	;# 
  2784  0311                     	;# 
  2785  0311                     	;# 
  2786  0312                     	;# 
  2787  0313                     	;# 
  2788  038C                     	;# 
  2789  038D                     	;# 
  2790  038E                     	;# 
  2791  0390                     	;# 
  2792  0391                     	;# 
  2793  0392                     	;# 
  2794  0393                     	;# 
  2795  0394                     	;# 
  2796  0395                     	;# 
  2797  0396                     	;# 
  2798  0397                     	;# 
  2799  0398                     	;# 
  2800  0399                     	;# 
  2801  039D                     	;# 
  2802  039E                     	;# 
  2803  039F                     	;# 
  2804  0511                     	;# 
  2805  0513                     	;# 
  2806  051A                     	;# 
  2807  0591                     	;# 
  2808  0592                     	;# 
  2809  0592                     	;# 
  2810  0593                     	;# 
  2811  0594                     	;# 
  2812  0594                     	;# 
  2813  0595                     	;# 
  2814  0596                     	;# 
  2815  0596                     	;# 
  2816  0E91                     	;# 
  2817  0E92                     	;# 
  2818  0E93                     	;# 
  2819  0E94                     	;# 
  2820  0E95                     	;# 
  2821  0E96                     	;# 
  2822  0E97                     	;# 
  2823  0E98                     	;# 
  2824  0E99                     	;# 
  2825  0E9A                     	;# 
  2826  0E9B                     	;# 
  2827  0E9C                     	;# 
  2828  0E9D                     	;# 
  2829  0E9E                     	;# 
  2830  0E9F                     	;# 
  2831  0EA0                     	;# 
  2832  0EA1                     	;# 
  2833  0EA1                     	;# 
  2834  0EA2                     	;# 
  2835  0EA3                     	;# 
  2836  0EA3                     	;# 
  2837  0EA4                     	;# 
  2838  0EA5                     	;# 
  2839  0EA5                     	;# 
  2840  0EA6                     	;# 
  2841  0EA7                     	;# 
  2842  0EA7                     	;# 
  2843  0EA8                     	;# 
  2844  0EA9                     	;# 
  2845  0EAA                     	;# 
  2846  0EAB                     	;# 
  2847  0EAC                     	;# 
  2848  0EAD                     	;# 
  2849  0EAE                     	;# 
  2850  0EAF                     	;# 
  2851  0EB1                     	;# 
  2852  0EB2                     	;# 
  2853  0EB3                     	;# 
  2854  0EB4                     	;# 
  2855  0EB5                     	;# 
  2856  0EB6                     	;# 
  2857  0EB7                     	;# 
  2858  0EB8                     	;# 
  2859  0EB9                     	;# 
  2860  0EBA                     	;# 
  2861  0EBB                     	;# 
  2862  0EBC                     	;# 
  2863  0EBD                     	;# 
  2864  0EBE                     	;# 
  2865  0EBF                     	;# 
  2866  0EC0                     	;# 
  2867  0EC1                     	;# 
  2868  0EC1                     	;# 
  2869  0EC2                     	;# 
  2870  0EC3                     	;# 
  2871  0EC3                     	;# 
  2872  0EC4                     	;# 
  2873  0EC5                     	;# 
  2874  0EC5                     	;# 
  2875  0EC6                     	;# 
  2876  0EC7                     	;# 
  2877  0EC7                     	;# 
  2878  0EC8                     	;# 
  2879  0EC9                     	;# 
  2880  0ECA                     	;# 
  2881  0ECB                     	;# 
  2882  0ECC                     	;# 
  2883  0ECD                     	;# 
  2884  0ECE                     	;# 
  2885  0ECF                     	;# 
  2886  0ED1                     	;# 
  2887  0ED2                     	;# 
  2888  0ED3                     	;# 
  2889  0ED4                     	;# 
  2890  0ED5                     	;# 
  2891  0ED6                     	;# 
  2892  0ED7                     	;# 
  2893  0ED8                     	;# 
  2894  0ED9                     	;# 
  2895  0EDA                     	;# 
  2896  0EDB                     	;# 
  2897  0EDC                     	;# 
  2898  0EDD                     	;# 
  2899  0EDE                     	;# 
  2900  0EDF                     	;# 
  2901  0EE0                     	;# 
  2902  0EE1                     	;# 
  2903  0EE1                     	;# 
  2904  0EE2                     	;# 
  2905  0EE3                     	;# 
  2906  0EE3                     	;# 
  2907  0EE4                     	;# 
  2908  0EE5                     	;# 
  2909  0EE5                     	;# 
  2910  0EE6                     	;# 
  2911  0EE7                     	;# 
  2912  0EE7                     	;# 
  2913  0EE8                     	;# 
  2914  0EE9                     	;# 
  2915  0EEA                     	;# 
  2916  0EEB                     	;# 
  2917  0EEC                     	;# 
  2918  0EED                     	;# 
  2919  0EEE                     	;# 
  2920  0EEF                     	;# 
  2921  0F11                     	;# 
  2922  0F12                     	;# 
  2923  0F13                     	;# 
  2924  0F14                     	;# 
  2925  0F15                     	;# 
  2926  0F16                     	;# 
  2927  0F17                     	;# 
  2928  0F18                     	;# 
  2929  0F19                     	;# 
  2930  0F1A                     	;# 
  2931  0F1B                     	;# 
  2932  0F1C                     	;# 
  2933  0F1D                     	;# 
  2934  0F1E                     	;# 
  2935  0F1F                     	;# 
  2936  0F20                     	;# 
  2937  0F21                     	;# 
  2938  0F21                     	;# 
  2939  0F22                     	;# 
  2940  0F23                     	;# 
  2941  0F23                     	;# 
  2942  0F24                     	;# 
  2943  0F25                     	;# 
  2944  0F25                     	;# 
  2945  0F26                     	;# 
  2946  0F27                     	;# 
  2947  0F27                     	;# 
  2948  0F28                     	;# 
  2949  0F29                     	;# 
  2950  0F2A                     	;# 
  2951  0F2B                     	;# 
  2952  0F2C                     	;# 
  2953  0F2D                     	;# 
  2954  0F2E                     	;# 
  2955  0F2F                     	;# 
  2956  0FE4                     	;# 
  2957  0FE5                     	;# 
  2958  0FE6                     	;# 
  2959  0FE7                     	;# 
  2960  0FE8                     	;# 
  2961  0FE9                     	;# 
  2962  0FEA                     	;# 
  2963  0FEB                     	;# 
  2964  0FED                     	;# 
  2965  0FEE                     	;# 
  2966  0FEF                     	;# 
  2967                           
  2968                           	psect	idataBANK1
  2969  07FF                     __pidataBANK1:	
  2970                           
  2971                           ;initializer for _health
  2972  07FF  3432               	retlw	50
  2973  0016                     _TMR1	set	22
  2974  000B                     _INTCON	set	11
  2975  0011                     _PIR1bits	set	17
  2976  000C                     _PORTAbits	set	12
  2977  0018                     _T1CON	set	24
  2978  005F                     _GIE	set	95
  2979  0061                     _RA1	set	97
  2980  006A                     _RB2	set	106
  2981  006B                     _RB3	set	107
  2982  0077                     _RC7	set	119
  2983  008D                     _RCIF	set	141
  2984  009D                     _ADCON0	set	157
  2985  009E                     _ADCON1	set	158
  2986  009F                     _ADCON2	set	159
  2987  009C                     _ADRESH	set	156
  2988  009B                     _ADRESL	set	155
  2989  0099                     _OSCCON	set	153
  2990  0094                     _PIE4	set	148
  2991  008C                     _TRISA	set	140
  2992  008C                     _TRISAbits	set	140
  2993  008D                     _TRISB	set	141
  2994  008D                     _TRISBbits	set	141
  2995  008E                     _TRISC	set	142
  2996  04E9                     _ADGO	set	1257
  2997  048D                     _RCIE	set	1165
  2998  08EC                     _SCKSEL	set	2284
  2999  08EB                     _SDISEL	set	2283
  3000  08ED                     _SDOSEL	set	2285
  3001  018C                     _ANSELA	set	396
  3002  018C                     _ANSELAbits	set	396
  3003  018D                     _ANSELB	set	397
  3004  0199                     _RCREG	set	409
  3005  019B                     _SPBRG	set	411
  3006  019A                     _TXREG	set	410
  3007  0CFB                     _BRG16	set	3323
  3008  0CF2                     _BRGH	set	3314
  3009  0CEC                     _CREN	set	3308
  3010  0CEF                     _SPEN	set	3311
  3011  0CF4                     _SYNC	set	3316
  3012  0CF1                     _TRMT	set	3313
  3013  0CF5                     _TXEN	set	3317
  3014  0211                     _SSPBUF	set	529
  3015  0215                     _SSPCON1	set	533
  3016  0215                     _SSPCON1bits	set	533
  3017  10AD                     _SSPEN	set	4269
  3018  0393                     _IOCAF	set	915
  3019  0393                     _IOCAFbits	set	915
  3020  0392                     _IOCAN	set	914
  3021  0391                     _IOCAP	set	913
  3022  1C99                     _IOCAF1	set	7321
  3023  0E9D                     _PSMC1ASDC	set	3741
  3024  0E9E                     _PSMC1ASDL	set	3742
  3025  0E9F                     _PSMC1ASDS	set	3743
  3026  0EAC                     _PSMC1BLKF	set	3756
  3027  0EAB                     _PSMC1BLKR	set	3755
  3028  0E97                     _PSMC1BLNK	set	3735
  3029  0E94                     _PSMC1CLK	set	3732
  3030  0E91                     _PSMC1CON	set	3729
  3031  0EAA                     _PSMC1DBF	set	3754
  3032  0EA9                     _PSMC1DBR	set	3753
  3033  0EA4                     _PSMC1DCH	set	3748
  3034  0EA3                     _PSMC1DCL	set	3747
  3035  0E9B                     _PSMC1DCS	set	3739
  3036  0E99                     _PSMC1FEBS	set	3737
  3037  0EAD                     _PSMC1FFA	set	3757
  3038  0EA0                     _PSMC1INT	set	3744
  3039  0E92                     _PSMC1MDL	set	3730
  3040  0E95                     _PSMC1OEN	set	3733
  3041  0EA2                     _PSMC1PHH	set	3746
  3042  0EA1                     _PSMC1PHL	set	3745
  3043  0E9A                     _PSMC1PHS	set	3738
  3044  0E96                     _PSMC1POL	set	3734
  3045  0EA6                     _PSMC1PRH	set	3750
  3046  0EA5                     _PSMC1PRL	set	3749
  3047  0E9C                     _PSMC1PRS	set	3740
  3048  0E98                     _PSMC1REBS	set	3736
  3049  0EAE                     _PSMC1STR0	set	3758
  3050  0EAF                     _PSMC1STR1	set	3759
  3051  0E93                     _PSMC1SYNC	set	3731
  3052  0EBD                     _PSMC2ASDC	set	3773
  3053  0EBE                     _PSMC2ASDL	set	3774
  3054  0EBF                     _PSMC2ASDS	set	3775
  3055  0ECC                     _PSMC2BLKF	set	3788
  3056  0ECB                     _PSMC2BLKR	set	3787
  3057  0EB7                     _PSMC2BLNK	set	3767
  3058  0EB4                     _PSMC2CLK	set	3764
  3059  0EB1                     _PSMC2CON	set	3761
  3060  0ECA                     _PSMC2DBF	set	3786
  3061  0EC9                     _PSMC2DBR	set	3785
  3062  0EC4                     _PSMC2DCH	set	3780
  3063  0EC3                     _PSMC2DCL	set	3779
  3064  0EBB                     _PSMC2DCS	set	3771
  3065  0EB9                     _PSMC2FEBS	set	3769
  3066  0ECD                     _PSMC2FFA	set	3789
  3067  0EC0                     _PSMC2INT	set	3776
  3068  0EB2                     _PSMC2MDL	set	3762
  3069  0EB5                     _PSMC2OEN	set	3765
  3070  0EC2                     _PSMC2PHH	set	3778
  3071  0EC1                     _PSMC2PHL	set	3777
  3072  0EBA                     _PSMC2PHS	set	3770
  3073  0EB6                     _PSMC2POL	set	3766
  3074  0EC6                     _PSMC2PRH	set	3782
  3075  0EC5                     _PSMC2PRL	set	3781
  3076  0EBC                     _PSMC2PRS	set	3772
  3077  0EB8                     _PSMC2REBS	set	3768
  3078  0ECE                     _PSMC2STR0	set	3790
  3079  0ECF                     _PSMC2STR1	set	3791
  3080  0EB3                     _PSMC2SYNC	set	3763
  3081  0EDD                     _PSMC3ASDC	set	3805
  3082  0EDE                     _PSMC3ASDL	set	3806
  3083  0EDF                     _PSMC3ASDS	set	3807
  3084  0EEC                     _PSMC3BLKF	set	3820
  3085  0EEB                     _PSMC3BLKR	set	3819
  3086  0ED7                     _PSMC3BLNK	set	3799
  3087  0ED4                     _PSMC3CLK	set	3796
  3088  0ED1                     _PSMC3CON	set	3793
  3089  0EEA                     _PSMC3DBF	set	3818
  3090  0EE9                     _PSMC3DBR	set	3817
  3091  0EE4                     _PSMC3DCH	set	3812
  3092  0EE3                     _PSMC3DCL	set	3811
  3093  0EDB                     _PSMC3DCS	set	3803
  3094  0ED9                     _PSMC3FEBS	set	3801
  3095  0EED                     _PSMC3FFA	set	3821
  3096  0EE0                     _PSMC3INT	set	3808
  3097  0ED2                     _PSMC3MDL	set	3794
  3098  0ED5                     _PSMC3OEN	set	3797
  3099  0EE2                     _PSMC3PHH	set	3810
  3100  0EE1                     _PSMC3PHL	set	3809
  3101  0EDA                     _PSMC3PHS	set	3802
  3102  0ED6                     _PSMC3POL	set	3798
  3103  0EE6                     _PSMC3PRH	set	3814
  3104  0EE5                     _PSMC3PRL	set	3813
  3105  0EDC                     _PSMC3PRS	set	3804
  3106  0ED8                     _PSMC3REBS	set	3800
  3107  0EEE                     _PSMC3STR0	set	3822
  3108  0EEF                     _PSMC3STR1	set	3823
  3109  0ED3                     _PSMC3SYNC	set	3795
  3110  7495                     _P1MDLBIT	set	29845
  3111  758E                     _PSMC2LD	set	30094
  3112  768E                     _PSMC3LD	set	30350
  3113  0F1D                     _PSMC4ASDC	set	3869
  3114  0F1E                     _PSMC4ASDL	set	3870
  3115  0F1F                     _PSMC4ASDS	set	3871
  3116  0F2C                     _PSMC4BLKF	set	3884
  3117  0F2B                     _PSMC4BLKR	set	3883
  3118  0F17                     _PSMC4BLNK	set	3863
  3119  0F14                     _PSMC4CLK	set	3860
  3120  0F11                     _PSMC4CON	set	3857
  3121  0F2A                     _PSMC4DBF	set	3882
  3122  0F29                     _PSMC4DBR	set	3881
  3123  0F24                     _PSMC4DCH	set	3876
  3124  0F23                     _PSMC4DCL	set	3875
  3125  0F1B                     _PSMC4DCS	set	3867
  3126  0F19                     _PSMC4FEBS	set	3865
  3127  0F2D                     _PSMC4FFA	set	3885
  3128  0F20                     _PSMC4INT	set	3872
  3129  0F12                     _PSMC4MDL	set	3858
  3130  0F15                     _PSMC4OEN	set	3861
  3131  0F22                     _PSMC4PHH	set	3874
  3132  0F21                     _PSMC4PHL	set	3873
  3133  0F1A                     _PSMC4PHS	set	3866
  3134  0F16                     _PSMC4POL	set	3862
  3135  0F26                     _PSMC4PRH	set	3878
  3136  0F25                     _PSMC4PRL	set	3877
  3137  0F1C                     _PSMC4PRS	set	3868
  3138  0F18                     _PSMC4REBS	set	3864
  3139  0F2E                     _PSMC4STR0	set	3886
  3140  0F2F                     _PSMC4STR1	set	3887
  3141  0F13                     _PSMC4SYNC	set	3859
  3142  788E                     _PSMC4LD	set	30862
  3143                           
  3144                           	psect	stringtext
  3145  1800                     __pstringtext:	
  3146  1800                     STR_3:	
  3147  1800  340A               	retlw	10
  3148  1801  340D               	retlw	13
  3149  1802  3447               	retlw	71	;'G'
  3150  1803  346F               	retlw	111	;'o'
  3151  1804  346F               	retlw	111	;'o'
  3152  1805  3464               	retlw	100	;'d'
  3153  1806  3420               	retlw	32	;' '
  3154  1807  346A               	retlw	106	;'j'
  3155  1808  346F               	retlw	111	;'o'
  3156  1809  3462               	retlw	98	;'b'
  3157  180A  342E               	retlw	46	;'.'
  3158  180B  3420               	retlw	32	;' '
  3159  180C  3459               	retlw	89	;'Y'
  3160  180D  346F               	retlw	111	;'o'
  3161  180E  3475               	retlw	117	;'u'
  3162  180F  3420               	retlw	32	;' '
  3163  1810  346B               	retlw	107	;'k'
  3164  1811  346E               	retlw	110	;'n'
  3165  1812  346F               	retlw	111	;'o'
  3166  1813  3477               	retlw	119	;'w'
  3167  1814  3420               	retlw	32	;' '
  3168  1815  3468               	retlw	104	;'h'
  3169  1816  346F               	retlw	111	;'o'
  3170  1817  3477               	retlw	119	;'w'
  3171  1818  3420               	retlw	32	;' '
  3172  1819  3474               	retlw	116	;'t'
  3173  181A  346F               	retlw	111	;'o'
  3174  181B  3420               	retlw	32	;' '
  3175  181C  3472               	retlw	114	;'r'
  3176  181D  3465               	retlw	101	;'e'
  3177  181E  3461               	retlw	97	;'a'
  3178  181F  3464               	retlw	100	;'d'
  3179  1820  3420               	retlw	32	;' '
  3180  1821  3469               	retlw	105	;'i'
  3181  1822  346E               	retlw	110	;'n'
  3182  1823  3473               	retlw	115	;'s'
  3183  1824  3474               	retlw	116	;'t'
  3184  1825  3472               	retlw	114	;'r'
  3185  1826  3475               	retlw	117	;'u'
  3186  1827  3463               	retlw	99	;'c'
  3187  1828  3474               	retlw	116	;'t'
  3188  1829  3469               	retlw	105	;'i'
  3189  182A  346F               	retlw	111	;'o'
  3190  182B  346E               	retlw	110	;'n'
  3191  182C  3473               	retlw	115	;'s'
  3192  182D  342E               	retlw	46	;'.'
  3193  182E  340A               	retlw	10
  3194  182F  340A               	retlw	10
  3195  1830  3400               	retlw	0
  3196  1831                     STR_2:	
  3197  1831  3450               	retlw	80	;'P'
  3198  1832  346C               	retlw	108	;'l'
  3199  1833  3465               	retlw	101	;'e'
  3200  1834  3461               	retlw	97	;'a'
  3201  1835  3473               	retlw	115	;'s'
  3202  1836  3465               	retlw	101	;'e'
  3203  1837  3420               	retlw	32	;' '
  3204  1838  3465               	retlw	101	;'e'
  3205  1839  346E               	retlw	110	;'n'
  3206  183A  3474               	retlw	116	;'t'
  3207  183B  3465               	retlw	101	;'e'
  3208  183C  3472               	retlw	114	;'r'
  3209  183D  3420               	retlw	32	;' '
  3210  183E  3474               	retlw	116	;'t'
  3211  183F  3468               	retlw	104	;'h'
  3212  1840  3465               	retlw	101	;'e'
  3213  1841  3420               	retlw	32	;' '
  3214  1842  3463               	retlw	99	;'c'
  3215  1843  3468               	retlw	104	;'h'
  3216  1844  3461               	retlw	97	;'a'
  3217  1845  3472               	retlw	114	;'r'
  3218  1846  3461               	retlw	97	;'a'
  3219  1847  3463               	retlw	99	;'c'
  3220  1848  3474               	retlw	116	;'t'
  3221  1849  3465               	retlw	101	;'e'
  3222  184A  3472               	retlw	114	;'r'
  3223  184B  3420               	retlw	32	;' '
  3224  184C  3441               	retlw	65	;'A'
  3225  184D  343A               	retlw	58	;':'
  3226  184E  3420               	retlw	32	;' '
  3227  184F  3400               	retlw	0
  3228  1850                     STR_4:	
  3229  1850  340A               	retlw	10
  3230  1851  340D               	retlw	13
  3231  1852  3457               	retlw	87	;'W'
  3232  1853  3472               	retlw	114	;'r'
  3233  1854  346F               	retlw	111	;'o'
  3234  1855  346E               	retlw	110	;'n'
  3235  1856  3467               	retlw	103	;'g'
  3236  1857  3420               	retlw	32	;' '
  3237  1858  346B               	retlw	107	;'k'
  3238  1859  3465               	retlw	101	;'e'
  3239  185A  3479               	retlw	121	;'y'
  3240  185B  342E               	retlw	46	;'.'
  3241  185C  3420               	retlw	32	;' '
  3242  185D  3454               	retlw	84	;'T'
  3243  185E  3472               	retlw	114	;'r'
  3244  185F  3479               	retlw	121	;'y'
  3245  1860  3420               	retlw	32	;' '
  3246  1861  3461               	retlw	97	;'a'
  3247  1862  3467               	retlw	103	;'g'
  3248  1863  3461               	retlw	97	;'a'
  3249  1864  3469               	retlw	105	;'i'
  3250  1865  346E               	retlw	110	;'n'
  3251  1866  342E               	retlw	46	;'.'
  3252  1867  340A               	retlw	10
  3253  1868  340D               	retlw	13
  3254  1869  3400               	retlw	0
  3255  186A                     STR_1:	
  3256  186A  340A               	retlw	10
  3257  186B  340D               	retlw	13
  3258  186C  344D               	retlw	77	;'M'
  3259  186D  3461               	retlw	97	;'a'
  3260  186E  3469               	retlw	105	;'i'
  3261  186F  346E               	retlw	110	;'n'
  3262  1870  3420               	retlw	32	;' '
  3263  1871  344C               	retlw	76	;'L'
  3264  1872  346F               	retlw	111	;'o'
  3265  1873  346F               	retlw	111	;'o'
  3266  1874  3470               	retlw	112	;'p'
  3267  1875  3420               	retlw	32	;' '
  3268  1876  3449               	retlw	73	;'I'
  3269  1877  346E               	retlw	110	;'n'
  3270  1878  3464               	retlw	100	;'d'
  3271  1879  3469               	retlw	105	;'i'
  3272  187A  3476               	retlw	118	;'v'
  3273  187B  3469               	retlw	105	;'i'
  3274  187C  3464               	retlw	100	;'d'
  3275  187D  3475               	retlw	117	;'u'
  3276  187E  3461               	retlw	97	;'a'
  3277  187F  346C               	retlw	108	;'l'
  3278  1880  340A               	retlw	10
  3279  1881  340D               	retlw	13
  3280  1882  3400               	retlw	0
  3281                           
  3282                           ; #config settings
  3283  0000                     
  3284                           	psect	cinit
  3285  0175                     start_initialization:	
  3286  0175                     __initialization:	
  3287                           
  3288                           ; Clear objects allocated to BANK0
  3289  0175  01C8               	clrf	__pbssBANK0& (0+127)
  3290  0176  01C9               	clrf	(__pbssBANK0+1)& (0+127)
  3291  0177  01CA               	clrf	(__pbssBANK0+2)& (0+127)
  3292  0178  01CB               	clrf	(__pbssBANK0+3)& (0+127)
  3293  0179  01CC               	clrf	(__pbssBANK0+4)& (0+127)
  3294  017A  01CD               	clrf	(__pbssBANK0+5)& (0+127)
  3295  017B  01CE               	clrf	(__pbssBANK0+6)& (0+127)
  3296  017C  01CF               	clrf	(__pbssBANK0+7)& (0+127)
  3297                           
  3298                           ; Clear objects allocated to BANK1
  3299  017D  0021               	movlb	1	; select bank1
  3300  017E  01C0               	clrf	__pbssBANK1& (0+127)
  3301  017F  01C1               	clrf	(__pbssBANK1+1)& (0+127)
  3302  0180  01C2               	clrf	(__pbssBANK1+2)& (0+127)
  3303  0181  01C3               	clrf	(__pbssBANK1+3)& (0+127)
  3304  0182  01C4               	clrf	(__pbssBANK1+4)& (0+127)
  3305                           
  3306                           ; Initialize objects allocated to BANK1
  3307  0183  3187  27FF         	fcall	__pidataBANK1	;fetch initializer
  3308  0185  00C5               	movwf	__pdataBANK1& (0+127)
  3309  0186                     end_of_initialization:	
  3310                           ;End of C runtime variable initialization code
  3311                           
  3312  0186                     __end_of__initialization:	
  3313  0186  107E               	bcf	int$flags,0	;clear compiler interrupt flag (level 1)
  3314  0187  0020               	movlb	0
  3315  0188  318C  2CBD         	ljmp	_main	;jump to C main() function
  3316                           
  3317                           	psect	bssBANK0
  3318  0048                     __pbssBANK0:	
  3319  0048                     _D1cycles:	
  3320  0048                     	ds	2
  3321  004A                     _D2cycles:	
  3322  004A                     	ds	2
  3323  004C                     _Davgcycles:	
  3324  004C                     	ds	2
  3325  004E                     _numPackets:	
  3326  004E                     	ds	2
  3327                           
  3328                           	psect	bssBANK1
  3329  00C0                     __pbssBANK1:	
  3330  00C0                     main@F7230:	
  3331  00C0                     	ds	3
  3332  00C3                     _damage_received:	
  3333  00C3                     	ds	1
  3334  00C4                     _stun_counter:	
  3335  00C4                     	ds	1
  3336                           
  3337                           	psect	dataBANK1
  3338  00C5                     __pdataBANK1:	
  3339  00C5                     _health:	
  3340  00C5                     	ds	1
  3341                           
  3342                           	psect	cstackBANK1
  3343  00A0                     __pcstackBANK1:	
  3344  00A0                     led1_command@brightness:	
  3345  00A0                     led2_command@brightness:	
  3346                           ; 1 bytes @ 0x0
  3347                           
  3348  00A0                     led3_command@brightness:	
  3349                           ; 1 bytes @ 0x0
  3350                           
  3351  00A0                     led4_command@brightness:	
  3352                           ; 1 bytes @ 0x0
  3353                           
  3354  00A0                     led5_command@brightness:	
  3355                           ; 1 bytes @ 0x0
  3356                           
  3357  00A0                     output_ir@i:	
  3358                           ; 1 bytes @ 0x0
  3359                           
  3360  00A0                     determine_sword_was_swung@i:	
  3361                           ; 2 bytes @ 0x0
  3362                           
  3363  00A0                     leds_off@i:	
  3364                           ; 2 bytes @ 0x0
  3365                           
  3366                           
  3367                           ; 2 bytes @ 0x0
  3368  00A0                     	ds	1
  3369  00A1                     led1_command@i:	
  3370  00A1                     led2_command@i:	
  3371                           ; 2 bytes @ 0x1
  3372                           
  3373  00A1                     led3_command@i:	
  3374                           ; 2 bytes @ 0x1
  3375                           
  3376  00A1                     led4_command@i:	
  3377                           ; 2 bytes @ 0x1
  3378                           
  3379  00A1                     led5_command@i:	
  3380                           ; 2 bytes @ 0x1
  3381                           
  3382                           
  3383                           ; 2 bytes @ 0x1
  3384  00A1                     	ds	1
  3385  00A2                     output_ir@i_266:	
  3386  00A2                     determine_sword_was_swung@i_355:	
  3387                           ; 2 bytes @ 0x2
  3388                           
  3389  00A2                     leds_off@i_668:	
  3390                           ; 2 bytes @ 0x2
  3391                           
  3392                           
  3393                           ; 2 bytes @ 0x2
  3394  00A2                     	ds	1
  3395  00A3                     led1_command@i_637:	
  3396  00A3                     led2_command@i_644:	
  3397                           ; 2 bytes @ 0x3
  3398                           
  3399  00A3                     led3_command@i_651:	
  3400                           ; 2 bytes @ 0x3
  3401                           
  3402  00A3                     led4_command@i_658:	
  3403                           ; 2 bytes @ 0x3
  3404                           
  3405  00A3                     led5_command@i_665:	
  3406                           ; 2 bytes @ 0x3
  3407                           
  3408                           
  3409                           ; 2 bytes @ 0x3
  3410  00A3                     	ds	1
  3411  00A4                     determine_sword_was_swung@swung:	
  3412  00A4                     output_ir@i_267:	
  3413                           ; 1 bytes @ 0x4
  3414                           
  3415                           
  3416                           ; 2 bytes @ 0x4
  3417  00A4                     	ds	1
  3418  00A5                     ??_display_blade_lights:	
  3419  00A5                     determine_sword_was_swung@lowAdh:	
  3420                           ; 0 bytes @ 0x5
  3421                           
  3422                           
  3423                           ; 2 bytes @ 0x5
  3424  00A5                     	ds	1
  3425  00A6                     output_ir@pkt_type:	
  3426                           
  3427                           ; 1 bytes @ 0x6
  3428  00A6                     	ds	1
  3429  00A7                     determine_sword_was_swung@lowAdl:	
  3430                           
  3431                           ; 2 bytes @ 0x7
  3432  00A7                     	ds	1
  3433  00A8                     display_blade_lights@i_609:	
  3434                           
  3435                           ; 2 bytes @ 0x8
  3436  00A8                     	ds	1
  3437  00A9                     determine_sword_was_swung@highAdh:	
  3438                           
  3439                           ; 2 bytes @ 0x9
  3440  00A9                     	ds	1
  3441  00AA                     display_blade_lights@i_610:	
  3442                           
  3443                           ; 2 bytes @ 0xA
  3444  00AA                     	ds	1
  3445  00AB                     determine_sword_was_swung@highAdl:	
  3446                           
  3447                           ; 2 bytes @ 0xB
  3448  00AB                     	ds	1
  3449  00AC                     display_blade_lights@i_612:	
  3450                           
  3451                           ; 2 bytes @ 0xC
  3452  00AC                     	ds	1
  3453  00AD                     determine_sword_was_swung@x:	
  3454                           
  3455                           ; 2 bytes @ 0xD
  3456  00AD                     	ds	1
  3457  00AE                     display_blade_lights@i_613:	
  3458                           
  3459                           ; 2 bytes @ 0xE
  3460  00AE                     	ds	1
  3461  00AF                     determine_sword_was_swung@y:	
  3462                           
  3463                           ; 2 bytes @ 0xF
  3464  00AF                     	ds	1
  3465  00B0                     display_blade_lights@i:	
  3466                           
  3467                           ; 1 bytes @ 0x10
  3468  00B0                     	ds	1
  3469  00B1                     display_blade_lights@i_614:	
  3470  00B1                     determine_sword_was_swung@count:	
  3471                           ; 1 bytes @ 0x11
  3472                           
  3473                           
  3474                           ; 2 bytes @ 0x11
  3475  00B1                     	ds	1
  3476  00B2                     display_blade_lights@mode:	
  3477                           
  3478                           ; 1 bytes @ 0x12
  3479  00B2                     	ds	1
  3480  00B3                     display_blade_lights@brightness:	
  3481                           
  3482                           ; 1 bytes @ 0x13
  3483  00B3                     	ds	1
  3484  00B4                     display_blade_lights@red:	
  3485                           
  3486                           ; 1 bytes @ 0x14
  3487  00B4                     	ds	1
  3488  00B5                     display_blade_lights@green:	
  3489                           
  3490                           ; 1 bytes @ 0x15
  3491  00B5                     	ds	1
  3492  00B6                     display_blade_lights@blue:	
  3493                           
  3494                           ; 1 bytes @ 0x16
  3495  00B6                     	ds	1
  3496  00B7                     display_blade_lights@r:	
  3497                           
  3498                           ; 1 bytes @ 0x17
  3499  00B7                     	ds	1
  3500  00B8                     display_blade_lights@r_611:	
  3501                           
  3502                           ; 1 bytes @ 0x18
  3503  00B8                     	ds	1
  3504  00B9                     ??_main:	
  3505                           
  3506                           ; 0 bytes @ 0x19
  3507  00B9                     	ds	3
  3508  00BC                     main@pkt_arr:	
  3509                           
  3510                           ; 3 bytes @ 0x1C
  3511  00BC                     	ds	3
  3512  00BF                     main@i:	
  3513                           
  3514                           ; 1 bytes @ 0x1F
  3515  00BF                     	ds	1
  3516                           
  3517                           	psect	cstackCOMMON
  3518  0070                     __pcstackCOMMON:	
  3519  0070                     ?_init_pic:	
  3520  0070                     ?_init_ir:	
  3521                           ; 0 bytes @ 0x0
  3522                           
  3523  0070                     ?_init_accel:	
  3524                           ; 0 bytes @ 0x0
  3525                           
  3526  0070                     ?_init_leds:	
  3527                           ; 0 bytes @ 0x0
  3528                           
  3529  0070                     ?_init_isr:	
  3530                           ; 0 bytes @ 0x0
  3531                           
  3532  0070                     ?_init_conn:	
  3533                           ; 0 bytes @ 0x0
  3534                           
  3535  0070                     ?_display_health:	
  3536                           ; 0 bytes @ 0x0
  3537                           
  3538  0070                     ?_display_blade_lights:	
  3539                           ; 0 bytes @ 0x0
  3540                           
  3541  0070                     ?_determine_packets_to_send:	
  3542                           ; 0 bytes @ 0x0
  3543                           
  3544  0070                     ?_leds_off:	
  3545                           ; 0 bytes @ 0x0
  3546                           
  3547  0070                     ?_writespi:	
  3548                           ; 0 bytes @ 0x0
  3549                           
  3550  0070                     ?_isr:	
  3551                           ; 0 bytes @ 0x0
  3552                           
  3553  0070                     ??i1_determine_omega_mode_active:	
  3554                           ; 0 bytes @ 0x0
  3555                           
  3556  0070                     ?i1_display_health:	
  3557                           ; 0 bytes @ 0x0
  3558                           
  3559  0070                     ??i1_display_health:	
  3560                           ; 0 bytes @ 0x0
  3561                           
  3562  0070                     ?i1_display_blade_lights:	
  3563                           ; 0 bytes @ 0x0
  3564                           
  3565  0070                     ?i1_writespi:	
  3566                           ; 0 bytes @ 0x0
  3567                           
  3568  0070                     ??i1_writespi:	
  3569                           ; 0 bytes @ 0x0
  3570                           
  3571  0070                     ?i1_leds_off:	
  3572                           ; 0 bytes @ 0x0
  3573                           
  3574  0070                     ?_determine_sword_was_swung:	
  3575                           ; 0 bytes @ 0x0
  3576                           
  3577  0070                     ?_determine_omega_mode_active:	
  3578                           ; 1 bytes @ 0x0
  3579                           
  3580  0070                     ?i1_determine_omega_mode_active:	
  3581                           ; 1 bytes @ 0x0
  3582                           
  3583  0070                     ?_main:	
  3584                           ; 1 bytes @ 0x0
  3585                           
  3586  0070                     ?___awdiv:	
  3587                           ; 2 bytes @ 0x0
  3588                           
  3589  0070                     ?___ftpack:	
  3590                           ; 2 bytes @ 0x0
  3591                           
  3592  0070                     ___awdiv@divisor:	
  3593                           ; 3 bytes @ 0x0
  3594                           
  3595  0070                     ___ftpack@arg:	
  3596                           ; 2 bytes @ 0x0
  3597                           
  3598                           
  3599                           ; 3 bytes @ 0x0
  3600  0070                     	ds	1
  3601  0071                     i1writespi@TempVar:	
  3602                           
  3603                           ; 1 bytes @ 0x1
  3604  0071                     	ds	1
  3605  0072                     i1writespi@data_out:	
  3606  0072                     ___awdiv@dividend:	
  3607                           ; 1 bytes @ 0x2
  3608                           
  3609                           
  3610                           ; 2 bytes @ 0x2
  3611  0072                     	ds	1
  3612  0073                     ?i1_led1_command:	
  3613  0073                     ?i1_led2_command:	
  3614                           ; 0 bytes @ 0x3
  3615                           
  3616  0073                     ?i1_led3_command:	
  3617                           ; 0 bytes @ 0x3
  3618                           
  3619  0073                     ?i1_led4_command:	
  3620                           ; 0 bytes @ 0x3
  3621                           
  3622  0073                     ?i1_led5_command:	
  3623                           ; 0 bytes @ 0x3
  3624                           
  3625  0073                     ??i1_leds_off:	
  3626                           ; 0 bytes @ 0x3
  3627                           
  3628  0073                     ___ftpack@exp:	
  3629                           ; 0 bytes @ 0x3
  3630                           
  3631  0073                     i1led1_command@red:	
  3632                           ; 1 bytes @ 0x3
  3633                           
  3634  0073                     i1led2_command@red:	
  3635                           ; 1 bytes @ 0x3
  3636                           
  3637  0073                     i1led3_command@red:	
  3638                           ; 1 bytes @ 0x3
  3639                           
  3640  0073                     i1led4_command@red:	
  3641                           ; 1 bytes @ 0x3
  3642                           
  3643  0073                     i1led5_command@red:	
  3644                           ; 1 bytes @ 0x3
  3645                           
  3646                           
  3647                           ; 1 bytes @ 0x3
  3648  0073                     	ds	1
  3649  0074                     ??___awdiv:	
  3650  0074                     ___ftpack@sign:	
  3651                           ; 0 bytes @ 0x4
  3652                           
  3653  0074                     i1led1_command@green:	
  3654                           ; 1 bytes @ 0x4
  3655                           
  3656  0074                     i1led2_command@green:	
  3657                           ; 1 bytes @ 0x4
  3658                           
  3659  0074                     i1led3_command@green:	
  3660                           ; 1 bytes @ 0x4
  3661                           
  3662  0074                     i1led4_command@green:	
  3663                           ; 1 bytes @ 0x4
  3664                           
  3665  0074                     i1led5_command@green:	
  3666                           ; 1 bytes @ 0x4
  3667                           
  3668                           
  3669                           ; 1 bytes @ 0x4
  3670  0074                     	ds	1
  3671  0075                     ??___ftpack:	
  3672  0075                     ___awdiv@counter:	
  3673                           ; 0 bytes @ 0x5
  3674                           
  3675  0075                     i1led1_command@blue:	
  3676                           ; 1 bytes @ 0x5
  3677                           
  3678  0075                     i1led2_command@blue:	
  3679                           ; 1 bytes @ 0x5
  3680                           
  3681  0075                     i1led3_command@blue:	
  3682                           ; 1 bytes @ 0x5
  3683                           
  3684  0075                     i1led4_command@blue:	
  3685                           ; 1 bytes @ 0x5
  3686                           
  3687  0075                     i1led5_command@blue:	
  3688                           ; 1 bytes @ 0x5
  3689                           
  3690  0075                     i1leds_off@i:	
  3691                           ; 1 bytes @ 0x5
  3692                           
  3693                           
  3694                           ; 2 bytes @ 0x5
  3695  0075                     	ds	1
  3696  0076                     ??i1_led1_command:	
  3697  0076                     ??i1_led2_command:	
  3698                           ; 0 bytes @ 0x6
  3699                           
  3700  0076                     ??i1_led3_command:	
  3701                           ; 0 bytes @ 0x6
  3702                           
  3703  0076                     ??i1_led4_command:	
  3704                           ; 0 bytes @ 0x6
  3705                           
  3706  0076                     ??i1_led5_command:	
  3707                           ; 0 bytes @ 0x6
  3708                           
  3709  0076                     ___awdiv@sign:	
  3710                           ; 0 bytes @ 0x6
  3711                           
  3712                           
  3713                           ; 1 bytes @ 0x6
  3714  0076                     	ds	1
  3715  0077                     ___awdiv@quotient:	
  3716  0077                     i1leds_off@i_668:	
  3717                           ; 2 bytes @ 0x7
  3718                           
  3719                           
  3720                           ; 2 bytes @ 0x7
  3721  0077                     	ds	1
  3722  0078                     ?___awtoft:	
  3723  0078                     i1led1_command@brightness:	
  3724                           ; 3 bytes @ 0x8
  3725                           
  3726  0078                     i1led2_command@brightness:	
  3727                           ; 1 bytes @ 0x8
  3728                           
  3729  0078                     i1led3_command@brightness:	
  3730                           ; 1 bytes @ 0x8
  3731                           
  3732  0078                     i1led4_command@brightness:	
  3733                           ; 1 bytes @ 0x8
  3734                           
  3735  0078                     i1led5_command@brightness:	
  3736                           ; 1 bytes @ 0x8
  3737                           
  3738  0078                     ___awtoft@c:	
  3739                           ; 1 bytes @ 0x8
  3740                           
  3741                           
  3742                           ; 2 bytes @ 0x8
  3743  0078                     	ds	1
  3744  0079                     i1led1_command@i:	
  3745  0079                     i1led2_command@i:	
  3746                           ; 2 bytes @ 0x9
  3747                           
  3748  0079                     i1led3_command@i:	
  3749                           ; 2 bytes @ 0x9
  3750                           
  3751  0079                     i1led4_command@i:	
  3752                           ; 2 bytes @ 0x9
  3753                           
  3754  0079                     i1led5_command@i:	
  3755                           ; 2 bytes @ 0x9
  3756                           
  3757                           
  3758                           ; 2 bytes @ 0x9
  3759  0079                     	ds	2
  3760  007B                     ??___awtoft:	
  3761  007B                     i1led1_command@i_637:	
  3762                           ; 0 bytes @ 0xB
  3763                           
  3764  007B                     i1led2_command@i_644:	
  3765                           ; 2 bytes @ 0xB
  3766                           
  3767  007B                     i1led3_command@i_651:	
  3768                           ; 2 bytes @ 0xB
  3769                           
  3770  007B                     i1led4_command@i_658:	
  3771                           ; 2 bytes @ 0xB
  3772                           
  3773  007B                     i1led5_command@i_665:	
  3774                           ; 2 bytes @ 0xB
  3775                           
  3776                           
  3777                           ; 2 bytes @ 0xB
  3778  007B                     	ds	2
  3779  007D                     ___awtoft@sign:	
  3780                           
  3781                           ; 1 bytes @ 0xD
  3782  007D                     	ds	1
  3783                           
  3784                           	psect	cstackBANK0
  3785  0020                     __pcstackBANK0:	
  3786  0020                     ??i1_display_blade_lights:	
  3787  0020                     ?___ftmul:	
  3788                           ; 0 bytes @ 0x0
  3789                           
  3790  0020                     ___ftmul@f1:	
  3791                           ; 3 bytes @ 0x0
  3792                           
  3793                           
  3794                           ; 3 bytes @ 0x0
  3795  0020                     	ds	3
  3796  0023                     i1display_blade_lights@mode:	
  3797  0023                     ___ftmul@f2:	
  3798                           ; 1 bytes @ 0x3
  3799                           
  3800                           
  3801                           ; 3 bytes @ 0x3
  3802  0023                     	ds	1
  3803  0024                     i1display_blade_lights@i_609:	
  3804                           
  3805                           ; 2 bytes @ 0x4
  3806  0024                     	ds	2
  3807  0026                     ??___ftmul:	
  3808  0026                     i1display_blade_lights@i_610:	
  3809                           ; 0 bytes @ 0x6
  3810                           
  3811                           
  3812                           ; 2 bytes @ 0x6
  3813  0026                     	ds	2
  3814  0028                     i1display_blade_lights@i_612:	
  3815                           
  3816                           ; 2 bytes @ 0x8
  3817  0028                     	ds	2
  3818  002A                     ___ftmul@exp:	
  3819  002A                     i1display_blade_lights@i_613:	
  3820                           ; 1 bytes @ 0xA
  3821                           
  3822                           
  3823                           ; 2 bytes @ 0xA
  3824  002A                     	ds	1
  3825  002B                     ___ftmul@f3_as_product:	
  3826                           
  3827                           ; 3 bytes @ 0xB
  3828  002B                     	ds	1
  3829  002C                     i1display_blade_lights@i:	
  3830                           
  3831                           ; 1 bytes @ 0xC
  3832  002C                     	ds	1
  3833  002D                     i1display_blade_lights@i_614:	
  3834                           
  3835                           ; 1 bytes @ 0xD
  3836  002D                     	ds	1
  3837  002E                     ___ftmul@cntr:	
  3838  002E                     i1display_blade_lights@brightness:	
  3839                           ; 1 bytes @ 0xE
  3840                           
  3841                           
  3842                           ; 1 bytes @ 0xE
  3843  002E                     	ds	1
  3844  002F                     ___ftmul@sign:	
  3845  002F                     i1display_blade_lights@red:	
  3846                           ; 1 bytes @ 0xF
  3847                           
  3848                           
  3849                           ; 1 bytes @ 0xF
  3850  002F                     	ds	1
  3851  0030                     ?___ftge:	
  3852  0030                     ?___fttol:	
  3853                           ; 1 bit 
  3854                           
  3855  0030                     i1display_blade_lights@green:	
  3856                           ; 4 bytes @ 0x10
  3857                           
  3858  0030                     ___ftge@ff1:	
  3859                           ; 1 bytes @ 0x10
  3860                           
  3861  0030                     ___fttol@f1:	
  3862                           ; 3 bytes @ 0x10
  3863                           
  3864                           
  3865                           ; 3 bytes @ 0x10
  3866  0030                     	ds	1
  3867  0031                     i1display_blade_lights@blue:	
  3868                           
  3869                           ; 1 bytes @ 0x11
  3870  0031                     	ds	1
  3871  0032                     i1display_blade_lights@r:	
  3872                           
  3873                           ; 1 bytes @ 0x12
  3874  0032                     	ds	1
  3875  0033                     i1display_blade_lights@r_611:	
  3876  0033                     ___ftge@ff2:	
  3877                           ; 1 bytes @ 0x13
  3878                           
  3879                           
  3880                           ; 3 bytes @ 0x13
  3881  0033                     	ds	1
  3882  0034                     ??___fttol:	
  3883                           
  3884                           ; 0 bytes @ 0x14
  3885  0034                     	ds	2
  3886  0036                     ??___ftge:	
  3887                           
  3888                           ; 0 bytes @ 0x16
  3889  0036                     	ds	2
  3890  0038                     ___fttol@sign1:	
  3891                           
  3892                           ; 1 bytes @ 0x18
  3893  0038                     	ds	1
  3894  0039                     ___fttol@lval:	
  3895                           
  3896                           ; 4 bytes @ 0x19
  3897  0039                     	ds	4
  3898  003D                     ___fttol@exp1:	
  3899                           
  3900                           ; 1 bytes @ 0x1D
  3901  003D                     	ds	1
  3902  003E                     ??_isr:	
  3903                           
  3904                           ; 0 bytes @ 0x1E
  3905  003E                     	ds	2
  3906  0040                     ??_init_pic:	
  3907  0040                     ??_init_ir:	
  3908                           ; 0 bytes @ 0x20
  3909                           
  3910  0040                     ??_init_accel:	
  3911                           ; 0 bytes @ 0x20
  3912                           
  3913  0040                     ??_init_isr:	
  3914                           ; 0 bytes @ 0x20
  3915                           
  3916  0040                     ??_init_conn:	
  3917                           ; 0 bytes @ 0x20
  3918                           
  3919  0040                     ??_display_health:	
  3920                           ; 0 bytes @ 0x20
  3921                           
  3922  0040                     ??_determine_sword_was_swung:	
  3923                           ; 0 bytes @ 0x20
  3924                           
  3925  0040                     ??_determine_omega_mode_active:	
  3926                           ; 0 bytes @ 0x20
  3927                           
  3928  0040                     ??_determine_packets_to_send:	
  3929                           ; 0 bytes @ 0x20
  3930                           
  3931  0040                     ?_output_ir:	
  3932                           ; 0 bytes @ 0x20
  3933                           
  3934  0040                     ??_writespi:	
  3935                           ; 0 bytes @ 0x20
  3936                           
  3937  0040                     output_ir@amount:	
  3938                           ; 0 bytes @ 0x20
  3939                           
  3940                           
  3941                           ; 1 bytes @ 0x20
  3942  0040                     	ds	1
  3943  0041                     ??_output_ir:	
  3944  0041                     determine_packets_to_send@packets:	
  3945                           ; 0 bytes @ 0x21
  3946                           
  3947  0041                     writespi@TempVar:	
  3948                           ; 1 bytes @ 0x21
  3949                           
  3950                           
  3951                           ; 1 bytes @ 0x21
  3952  0041                     	ds	1
  3953  0042                     writespi@data_out:	
  3954                           
  3955                           ; 1 bytes @ 0x22
  3956  0042                     	ds	1
  3957  0043                     ??_leds_off:	
  3958  0043                     ?_led1_command:	
  3959                           ; 0 bytes @ 0x23
  3960                           
  3961  0043                     ?_led2_command:	
  3962                           ; 0 bytes @ 0x23
  3963                           
  3964  0043                     ?_led3_command:	
  3965                           ; 0 bytes @ 0x23
  3966                           
  3967  0043                     ?_led4_command:	
  3968                           ; 0 bytes @ 0x23
  3969                           
  3970  0043                     ?_led5_command:	
  3971                           ; 0 bytes @ 0x23
  3972                           
  3973  0043                     led1_command@red:	
  3974                           ; 0 bytes @ 0x23
  3975                           
  3976  0043                     led2_command@red:	
  3977                           ; 1 bytes @ 0x23
  3978                           
  3979  0043                     led3_command@red:	
  3980                           ; 1 bytes @ 0x23
  3981                           
  3982  0043                     led4_command@red:	
  3983                           ; 1 bytes @ 0x23
  3984                           
  3985  0043                     led5_command@red:	
  3986                           ; 1 bytes @ 0x23
  3987                           
  3988                           
  3989                           ; 1 bytes @ 0x23
  3990  0043                     	ds	1
  3991  0044                     led1_command@green:	
  3992  0044                     led2_command@green:	
  3993                           ; 1 bytes @ 0x24
  3994                           
  3995  0044                     led3_command@green:	
  3996                           ; 1 bytes @ 0x24
  3997                           
  3998  0044                     led4_command@green:	
  3999                           ; 1 bytes @ 0x24
  4000                           
  4001  0044                     led5_command@green:	
  4002                           ; 1 bytes @ 0x24
  4003                           
  4004                           
  4005                           ; 1 bytes @ 0x24
  4006  0044                     	ds	1
  4007  0045                     ??_init_leds:	
  4008  0045                     led1_command@blue:	
  4009                           ; 0 bytes @ 0x25
  4010                           
  4011  0045                     led2_command@blue:	
  4012                           ; 1 bytes @ 0x25
  4013                           
  4014  0045                     led3_command@blue:	
  4015                           ; 1 bytes @ 0x25
  4016                           
  4017  0045                     led4_command@blue:	
  4018                           ; 1 bytes @ 0x25
  4019                           
  4020  0045                     led5_command@blue:	
  4021                           ; 1 bytes @ 0x25
  4022                           
  4023                           
  4024                           ; 1 bytes @ 0x25
  4025  0045                     	ds	1
  4026  0046                     ??_led1_command:	
  4027  0046                     ??_led2_command:	
  4028                           ; 0 bytes @ 0x26
  4029                           
  4030  0046                     ??_led3_command:	
  4031                           ; 0 bytes @ 0x26
  4032                           
  4033  0046                     ??_led4_command:	
  4034                           ; 0 bytes @ 0x26
  4035                           
  4036  0046                     ??_led5_command:	
  4037                           ; 0 bytes @ 0x26
  4038                           
  4039                           
  4040                           ; 0 bytes @ 0x26
  4041  0046                     	ds	2
  4042                           
  4043                           	psect	maintext
  4044  0CBD                     __pmaintext:	
  4045 ;;
  4046 ;;Main: autosize = 0, tempsize = 3, incstack = 0, save=0
  4047 ;;
  4048 ;; *************** function _main *****************
  4049 ;; Defined at:
  4050 ;;		line 17 in file "../../source/main.c"
  4051 ;; Parameters:    Size  Location     Type
  4052 ;;		None
  4053 ;; Auto vars:     Size  Location     Type
  4054 ;;  pkt_arr         3   28[BANK1 ] unsigned char [3]
  4055 ;;  i               1   31[BANK1 ] unsigned char 
  4056 ;; Return value:  Size  Location     Type
  4057 ;;                  2   66[None  ] int 
  4058 ;; Registers used:
  4059 ;;		wreg, fsr1l, fsr1h, status,2, status,0, pclath, cstack
  4060 ;; Tracked objects:
  4061 ;;		On entry : B1F/0
  4062 ;;		On exit  : 0/0
  4063 ;;		Unchanged: 0/0
  4064 ;; Data sizes:     COMMON   BANK0   BANK1   BANK2   BANK3   BANK4   BANK5   BANK6   BANK7   BANK8   BANK9  BANK10  BANK1
      +1  BANK12  BANK13  BANK14  BANK15  BANK16  BANK17  BANK18  BANK19  BANK20  BANK21  BANK22  BANK23  BANK24  BANK25
  4065 ;;      Params:         0       0       0       0       0       0       0       0       0       0       0       0       
      +0       0       0       0       0       0       0       0       0       0       0       0       0       0       0
  4066 ;;      Locals:         0       0       4       0       0       0       0       0       0       0       0       0       
      +0       0       0       0       0       0       0       0       0       0       0       0       0       0       0
  4067 ;;      Temps:          0       0       3       0       0       0       0       0       0       0       0       0       
      +0       0       0       0       0       0       0       0       0       0       0       0       0       0       0
  4068 ;;      Totals:         0       0       7       0       0       0       0       0       0       0       0       0       
      +0       0       0       0       0       0       0       0       0       0       0       0       0       0       0
  4069 ;;Total ram usage:        7 bytes
  4070 ;; Hardware stack levels required when called:    7
  4071 ;; This function calls:
  4072 ;;		_determine_omega_mode_active
  4073 ;;		_determine_packets_to_send
  4074 ;;		_determine_sword_was_swung
  4075 ;;		_display_blade_lights
  4076 ;;		_display_health
  4077 ;;		_init_accel
  4078 ;;		_init_conn
  4079 ;;		_init_ir
  4080 ;;		_init_isr
  4081 ;;		_init_leds
  4082 ;;		_init_pic
  4083 ;;		_output_ir
  4084 ;; This function is called by:
  4085 ;;		Startup code after reset
  4086 ;; This function uses a non-reentrant model
  4087 ;;
  4088                           
  4089                           
  4090                           ;psect for function _main
  4091  0CBD                     _main:	
  4092                           
  4093                           ;main.c: 19: char pkt_arr[] = {0, 0, 0};
  4094                           
  4095                           ;incstack = 0
  4096                           ; Regs used in _main: [wreg+fsr1l+fsr1h+status,2+status,0+pclath+cstack]
  4097  0CBD  0021               	movlb	1	; select bank1
  4098  0CBE  0840               	movf	main@F7230^(0+128),w
  4099  0CBF  00BC               	movwf	main@pkt_arr^(0+128)
  4100  0CC0  0841               	movf	(main@F7230+1)^(0+128),w
  4101  0CC1  00BD               	movwf	(main@pkt_arr+1)^(0+128)
  4102  0CC2  0842               	movf	(main@F7230+2)^(0+128),w
  4103  0CC3  00BE               	movwf	(main@pkt_arr+2)^(0+128)
  4104                           
  4105                           ;main.c: 20: unsigned char i = 0;
  4106  0CC4  01BF               	clrf	main@i^(0+128)
  4107                           
  4108                           ;main.c: 23: init_pic();
  4109  0CC5  3190  20AA  318C   	fcall	_init_pic
  4110                           
  4111                           ;main.c: 27: _delay((unsigned long)((100)*(32000000/4000.0)));
  4112  0CC8  3005               	movlw	5
  4113  0CC9  0021               	movlb	1	; select bank1
  4114  0CCA  00BB               	movwf	(??_main^(0+128)+2)
  4115  0CCB  300F               	movlw	15
  4116  0CCC  00BA               	movwf	(??_main^(0+128)+1)
  4117  0CCD  30F4               	movlw	244
  4118  0CCE  00B9               	movwf	??_main^(0+128)
  4119  0CCF                     u4737:	
  4120  0CCF  0BB9               	decfsz	??_main^(0+128),f
  4121  0CD0  2CCF               	goto	u4737
  4122  0CD1  0BBA               	decfsz	(??_main^(0+128)+1),f
  4123  0CD2  2CCF               	goto	u4737
  4124  0CD3  0BBB               	decfsz	(??_main^(0+128)+2),f
  4125  0CD4  2CCF               	goto	u4737
  4126                           
  4127                           ;main.c: 30: init_ir();
  4128  0CD5  3190  20DD  318C   	fcall	_init_ir
  4129                           
  4130                           ;main.c: 31: init_accel();
  4131  0CD8  3190  206C  318C   	fcall	_init_accel
  4132                           
  4133                           ;main.c: 32: init_leds();
  4134  0CDB  3188  2003  318C   	fcall	_init_leds
  4135                           
  4136                           ;main.c: 33: init_isr();
  4137  0CDE  3190  2078  318C   	fcall	_init_isr
  4138                           
  4139                           ;main.c: 34: init_conn();
  4140  0CE1  3188  2000  318C   	fcall	_init_conn
  4141  0CE4                     l5259:	
  4142                           ;main.c: 51: while(1)
  4143                           
  4144                           
  4145                           ;main.c: 52: {
  4146                           ;main.c: 168: display_health();
  4147  0CE4  3193  2322  318C   	fcall	_display_health
  4148                           
  4149                           ;main.c: 169: if(damage_received)
  4150  0CE7  0021               	movlb	1	; select bank1
  4151  0CE8  0843               	movf	_damage_received^(0+128),w
  4152  0CE9  1903               	btfsc	3,2
  4153  0CEA  2CF1               	goto	l5267
  4154                           
  4155                           ;main.c: 170: {
  4156                           ;main.c: 171: display_blade_lights(3);
  4157  0CEB  3003               	movlw	3
  4158  0CEC  3181  218A  318C   	fcall	_display_blade_lights
  4159                           
  4160                           ;main.c: 172: damage_received = 0;
  4161  0CEF  0021               	movlb	1	; select bank1
  4162  0CF0  01C3               	clrf	_damage_received^(0+128)
  4163  0CF1                     l5267:	
  4164                           
  4165                           ;main.c: 173: }
  4166                           ;main.c: 175: if( determine_sword_was_swung() && ( ( health > 0) || determine_omega_mode
      +                          _active() ) )
  4167  0CF1  318D  258F  318C   	fcall	_determine_sword_was_swung
  4168  0CF4  3A00               	xorlw	0
  4169  0CF5  1903               	skipnz
  4170  0CF6  2D37               	goto	l71
  4171  0CF7  0021               	movlb	1	; select bank1
  4172  0CF8  0845               	movf	_health^(0+128),w
  4173  0CF9  1D03               	btfss	3,2
  4174  0CFA  2D01               	goto	l5273
  4175  0CFB  3187  27FA  318C   	fcall	_determine_omega_mode_active
  4176  0CFE  3A00               	xorlw	0
  4177  0CFF  1903               	skipnz
  4178  0D00  2D37               	goto	l71
  4179  0D01                     l5273:	
  4180                           
  4181                           ;main.c: 176: {
  4182                           ;main.c: 177: if(!determine_omega_mode_active())
  4183  0D01  3187  27FA  318C   	fcall	_determine_omega_mode_active
  4184  0D04  3A00               	xorlw	0
  4185  0D05  1D03               	skipz
  4186  0D06  2D09               	goto	l5277
  4187                           
  4188                           ;main.c: 178: {
  4189                           ;main.c: 179: display_blade_lights(0);
  4190  0D07  3000               	movlw	0
  4191  0D08  2D0A               	goto	L1
  4192  0D09                     l5277:	
  4193                           ;main.c: 180: }
  4194                           
  4195                           
  4196                           ;main.c: 181: else
  4197                           ;main.c: 182: {
  4198                           ;main.c: 183: display_blade_lights(1);
  4199  0D09  3001               	movlw	1
  4200  0D0A                     L1:	
  4201  0D0A  3181  218A  318C   	fcall	_display_blade_lights
  4202                           
  4203                           ;main.c: 184: }
  4204                           ;main.c: 186: determine_packets_to_send(&pkt_arr);
  4205  0D0D  30BC               	movlw	(low (main@pkt_arr| 0))& (0+255)
  4206  0D0E  3187  27C8  318C   	fcall	_determine_packets_to_send
  4207                           
  4208                           ;main.c: 188: for(i = 3; i > 0; --i)
  4209  0D11  3003               	movlw	3
  4210  0D12  0021               	movlb	1	; select bank1
  4211  0D13  00B9               	movwf	??_main^(0+128)
  4212  0D14  0839               	movf	??_main^(0+128),w
  4213  0D15  00BF               	movwf	main@i^(0+128)
  4214  0D16                     L2:	
  4215  0D16  083F               	movf	main@i^(0+128),w
  4216  0D17  1903               	btfsc	3,2
  4217  0D18  2D8D               	goto	l86
  4218                           
  4219                           ;main.c: 189: {
  4220                           ;main.c: 190: if(pkt_arr[i-1] > 0)
  4221  0D19  083F               	movf	main@i^(0+128),w
  4222  0D1A  3EFF               	addlw	255
  4223  0D1B  3EBC               	addlw	(low (main@pkt_arr| 0))& (0+255)
  4224  0D1C  0086               	movwf	6
  4225  0D1D  0187               	clrf	7
  4226  0D1E  0801               	movf	1,w
  4227  0D1F  1903               	btfsc	3,2
  4228  0D20  2D33               	goto	l5295
  4229                           
  4230                           ;main.c: 191: {
  4231                           ;main.c: 192: GIE = 0;
  4232  0D21  138B               	bcf	11,7	;volatile
  4233                           
  4234                           ;main.c: 193: output_ir(i-1, pkt_arr[i-1]);
  4235  0D22  083F               	movf	main@i^(0+128),w
  4236  0D23  3EFF               	addlw	255
  4237  0D24  3EBC               	addlw	(low (main@pkt_arr| 0))& (0+255)
  4238  0D25  0086               	movwf	6
  4239  0D26  0187               	clrf	7
  4240  0D27  0801               	movf	1,w
  4241  0D28  00B9               	movwf	??_main^(0+128)
  4242  0D29  0839               	movf	??_main^(0+128),w
  4243  0D2A  0020               	movlb	0	; select bank0
  4244  0D2B  00C0               	movwf	output_ir@amount
  4245  0D2C  0021               	movlb	1	; select bank1
  4246  0D2D  083F               	movf	main@i^(0+128),w
  4247  0D2E  3EFF               	addlw	255
  4248  0D2F  318E  26BB  318C   	fcall	_output_ir
  4249                           
  4250                           ;main.c: 194: GIE = 1;
  4251  0D32  178B               	bsf	11,7	;volatile
  4252  0D33                     l5295:	
  4253  0D33  3001               	movlw	1
  4254  0D34  0021               	movlb	1	; select bank1
  4255  0D35  02BF               	subwf	main@i^(0+128),f
  4256  0D36  2D16               	goto	L2
  4257  0D37                     l71:	
  4258                           ;main.c: 195: }
  4259                           ;main.c: 196: }
  4260                           ;main.c: 198: break;
  4261                           
  4262                           
  4263                           ;main.c: 199: }
  4264                           ;main.c: 201: GIE = 0;
  4265  0D37  138B               	bcf	11,7	;volatile
  4266                           
  4267                           ;main.c: 202: while( ( stun_counter > 0 ) && !determine_omega_mode_active() )
  4268  0D38  2D81               	goto	l5351
  4269  0D39                     l81:	
  4270                           
  4271                           ;main.c: 203: {
  4272                           ;main.c: 204: GIE = 1;
  4273  0D39  178B               	bsf	11,7	;volatile
  4274                           
  4275                           ;main.c: 208: PSMC2DCH = 0x00;
  4276  0D3A  003D               	movlb	29	; select bank29
  4277  0D3B  01C4               	clrf	68	;volatile
  4278                           
  4279                           ;main.c: 209: PSMC2DCL = 0x00;
  4280  0D3C  01C3               	clrf	67	;volatile
  4281                           
  4282                           ;main.c: 210: PSMC2LD = 1;
  4283  0D3D  1731               	bsf	49,6	;volatile
  4284                           
  4285                           ;main.c: 212: PSMC3DCH = 0xFF;
  4286  0D3E  30FF               	movlw	255
  4287  0D3F  00E4               	movwf	100	;volatile
  4288                           
  4289                           ;main.c: 213: PSMC3DCL = 0xFF;
  4290  0D40  30FF               	movlw	255
  4291  0D41  00E3               	movwf	99	;volatile
  4292                           
  4293                           ;main.c: 214: PSMC3LD = 1;
  4294  0D42  1751               	bsf	81,6	;volatile
  4295                           
  4296                           ;main.c: 216: PSMC4DCH = 0x00;
  4297  0D43  003E               	movlb	30	; select bank30
  4298  0D44  01A4               	clrf	36	;volatile
  4299                           
  4300                           ;main.c: 217: PSMC4DCL = 0xFF;
  4301  0D45  30FF               	movlw	255
  4302  0D46  00A3               	movwf	35	;volatile
  4303                           
  4304                           ;main.c: 218: PSMC4LD = 1;
  4305  0D47  1711               	bsf	17,6	;volatile
  4306                           
  4307                           ;main.c: 220: PSMC2LD = 1;
  4308  0D48  003D               	movlb	29	; select bank29
  4309  0D49  1731               	bsf	49,6	;volatile
  4310                           
  4311                           ;main.c: 221: PSMC3LD = 1;
  4312  0D4A  1751               	bsf	81,6	;volatile
  4313                           
  4314                           ;main.c: 222: PSMC4LD = 1;
  4315  0D4B  003E               	movlb	30	; select bank30
  4316  0D4C  1711               	bsf	17,6	;volatile
  4317                           
  4318                           ;main.c: 224: _delay((unsigned long)((50)*(32000000/4000.0)));
  4319  0D4D  3003               	movlw	3
  4320  0D4E  0021               	movlb	1	; select bank1
  4321  0D4F  00BB               	movwf	(??_main^(0+128)+2)
  4322  0D50  3008               	movlw	8
  4323  0D51  00BA               	movwf	(??_main^(0+128)+1)
  4324  0D52  3078               	movlw	120
  4325  0D53  00B9               	movwf	??_main^(0+128)
  4326  0D54                     u4747:	
  4327  0D54  0BB9               	decfsz	??_main^(0+128),f
  4328  0D55  2D54               	goto	u4747
  4329  0D56  0BBA               	decfsz	(??_main^(0+128)+1),f
  4330  0D57  2D54               	goto	u4747
  4331  0D58  0BBB               	decfsz	(??_main^(0+128)+2),f
  4332  0D59  2D54               	goto	u4747
  4333                           
  4334                           ;main.c: 228: PSMC2DCH = 0xFF;
  4335  0D5A  30FF               	movlw	255
  4336  0D5B  003D               	movlb	29	; select bank29
  4337  0D5C  00C4               	movwf	68	;volatile
  4338                           
  4339                           ;main.c: 229: PSMC2DCL = 0xFF;
  4340  0D5D  30FF               	movlw	255
  4341  0D5E  00C3               	movwf	67	;volatile
  4342                           
  4343                           ;main.c: 230: PSMC2LD = 1;
  4344  0D5F  1731               	bsf	49,6	;volatile
  4345                           
  4346                           ;main.c: 232: PSMC3DCH = 0xFF;
  4347  0D60  30FF               	movlw	255
  4348  0D61  00E4               	movwf	100	;volatile
  4349                           
  4350                           ;main.c: 233: PSMC3DCL = 0xFF;
  4351  0D62  30FF               	movlw	255
  4352  0D63  00E3               	movwf	99	;volatile
  4353                           
  4354                           ;main.c: 234: PSMC3LD = 1;
  4355  0D64  1751               	bsf	81,6	;volatile
  4356                           
  4357                           ;main.c: 236: PSMC4DCH = 0xFF;
  4358  0D65  30FF               	movlw	255
  4359  0D66  003E               	movlb	30	; select bank30
  4360  0D67  00A4               	movwf	36	;volatile
  4361                           
  4362                           ;main.c: 237: PSMC4DCL = 0xFF;
  4363  0D68  30FF               	movlw	255
  4364  0D69  00A3               	movwf	35	;volatile
  4365                           
  4366                           ;main.c: 238: PSMC4LD = 1;
  4367  0D6A  1711               	bsf	17,6	;volatile
  4368                           
  4369                           ;main.c: 240: PSMC2LD = 1;
  4370  0D6B  003D               	movlb	29	; select bank29
  4371  0D6C  1731               	bsf	49,6	;volatile
  4372                           
  4373                           ;main.c: 241: PSMC3LD = 1;
  4374  0D6D  1751               	bsf	81,6	;volatile
  4375                           
  4376                           ;main.c: 242: PSMC4LD = 1;
  4377  0D6E  003E               	movlb	30	; select bank30
  4378  0D6F  1711               	bsf	17,6	;volatile
  4379                           
  4380                           ;main.c: 244: _delay((unsigned long)((50)*(32000000/4000.0)));
  4381  0D70  3003               	movlw	3
  4382  0D71  0021               	movlb	1	; select bank1
  4383  0D72  00BB               	movwf	(??_main^(0+128)+2)
  4384  0D73  3008               	movlw	8
  4385  0D74  00BA               	movwf	(??_main^(0+128)+1)
  4386  0D75  3078               	movlw	120
  4387  0D76  00B9               	movwf	??_main^(0+128)
  4388  0D77                     u4757:	
  4389  0D77  0BB9               	decfsz	??_main^(0+128),f
  4390  0D78  2D77               	goto	u4757
  4391  0D79  0BBA               	decfsz	(??_main^(0+128)+1),f
  4392  0D7A  2D77               	goto	u4757
  4393  0D7B  0BBB               	decfsz	(??_main^(0+128)+2),f
  4394  0D7C  2D77               	goto	u4757
  4395                           
  4396                           ;main.c: 246: GIE = 0;
  4397  0D7D  138B               	bcf	11,7	;volatile
  4398                           
  4399                           ;main.c: 247: --stun_counter;
  4400  0D7E  3001               	movlw	1
  4401  0D7F  0021               	movlb	1	; select bank1
  4402  0D80  02C4               	subwf	_stun_counter^(0+128),f
  4403  0D81                     l5351:	
  4404  0D81  0021               	movlb	1	; select bank1
  4405  0D82  0844               	movf	_stun_counter^(0+128),w
  4406  0D83  1903               	btfsc	3,2
  4407  0D84  2D8B               	goto	l84
  4408  0D85  3187  27FA  318C   	fcall	_determine_omega_mode_active
  4409  0D88  3A00               	xorlw	0
  4410  0D89  1903               	skipnz
  4411  0D8A  2D39               	goto	l81
  4412  0D8B                     l84:	
  4413                           
  4414                           ;main.c: 248: }
  4415                           ;main.c: 249: GIE = 1;
  4416  0D8B  178B               	bsf	11,7	;volatile
  4417  0D8C  2CE4               	goto	l5259
  4418  0D8D                     l86:	
  4419  0D8D  3181  2973         	ljmp	start
  4420  0D8F                     __end_of_main:	
  4421                           
  4422                           	psect	text1
  4423  0EBB                     __ptext1:	
  4424 ;; *************** function _output_ir *****************
  4425 ;; Defined at:
  4426 ;;		line 41 in file "../../source/ir.c"
  4427 ;; Parameters:    Size  Location     Type
  4428 ;;  pkt_type        1    wreg     unsigned char 
  4429 ;;  amount          1   32[BANK0 ] unsigned char 
  4430 ;; Auto vars:     Size  Location     Type
  4431 ;;  pkt_type        1    6[BANK1 ] unsigned char 
  4432 ;;  i               2    4[BANK1 ] int 
  4433 ;;  i               2    2[BANK1 ] int 
  4434 ;;  i               2    0[BANK1 ] int 
  4435 ;; Return value:  Size  Location     Type
  4436 ;;		None               void
  4437 ;; Registers used:
  4438 ;;		wreg, status,2, status,0
  4439 ;; Tracked objects:
  4440 ;;		On entry : 0/0
  4441 ;;		On exit  : 0/0
  4442 ;;		Unchanged: 0/0
  4443 ;; Data sizes:     COMMON   BANK0   BANK1   BANK2   BANK3   BANK4   BANK5   BANK6   BANK7   BANK8   BANK9  BANK10  BANK1
      +1  BANK12  BANK13  BANK14  BANK15  BANK16  BANK17  BANK18  BANK19  BANK20  BANK21  BANK22  BANK23  BANK24  BANK25
  4444 ;;      Params:         0       1       0       0       0       0       0       0       0       0       0       0       
      +0       0       0       0       0       0       0       0       0       0       0       0       0       0       0
  4445 ;;      Locals:         0       0       7       0       0       0       0       0       0       0       0       0       
      +0       0       0       0       0       0       0       0       0       0       0       0       0       0       0
  4446 ;;      Temps:          0       2       0       0       0       0       0       0       0       0       0       0       
      +0       0       0       0       0       0       0       0       0       0       0       0       0       0       0
  4447 ;;      Totals:         0       3       7       0       0       0       0       0       0       0       0       0       
      +0       0       0       0       0       0       0       0       0       0       0       0       0       0       0
  4448 ;;Total ram usage:       10 bytes
  4449 ;; Hardware stack levels used:    1
  4450 ;; Hardware stack levels required when called:    4
  4451 ;; This function calls:
  4452 ;;		Nothing
  4453 ;; This function is called by:
  4454 ;;		_main
  4455 ;; This function uses a non-reentrant model
  4456 ;;
  4457                           
  4458                           
  4459                           ;psect for function _output_ir
  4460  0EBB                     _output_ir:	
  4461                           
  4462                           ;incstack = 0
  4463                           ; Regs used in _output_ir: [wreg+status,2+status,0]
  4464                           ;output_ir@pkt_type stored from wreg
  4465  0EBB  0021               	movlb	1	; select bank1
  4466  0EBC  00A6               	movwf	output_ir@pkt_type^(0+128)
  4467                           
  4468                           ;ir.c: 43: if(pkt_type == 0)
  4469  0EBD  0826               	movf	output_ir@pkt_type^(0+128),w
  4470  0EBE  1D03               	btfss	3,2
  4471  0EBF  2F29               	goto	l5203
  4472                           
  4473                           ;ir.c: 44: {
  4474                           ;ir.c: 45: for(int i = 0;i < amount;i++){
  4475  0EC0  01A0               	clrf	output_ir@i^(0+128)
  4476  0EC1  01A1               	clrf	(output_ir@i+1)^(0+128)
  4477  0EC2                     l305:	
  4478  0EC2  0821               	movf	(output_ir@i+1)^(0+128),w
  4479  0EC3  3A80               	xorlw	128
  4480  0EC4  0020               	movlb	0	; select bank0
  4481  0EC5  00C1               	movwf	??_output_ir
  4482  0EC6  3080               	movlw	128
  4483  0EC7  0241               	subwf	??_output_ir,w
  4484  0EC8  1D03               	skipz
  4485  0EC9  2ECD               	goto	u4595
  4486  0ECA  0840               	movf	output_ir@amount,w
  4487  0ECB  0021               	movlb	1	; select bank1
  4488  0ECC  0220               	subwf	output_ir@i^(0+128),w
  4489  0ECD                     u4595:	
  4490  0ECD  1803               	btfsc	3,0
  4491  0ECE  0008               	return
  4492                           
  4493                           ;ir.c: 47: P1MDLBIT = 1;
  4494  0ECF  003D               	movlb	29	; select bank29
  4495  0ED0  1692               	bsf	18,5	;volatile
  4496                           
  4497                           ;ir.c: 48: _delay((unsigned long)((178)*(32000000/4000000.0)));
  4498  0ED1  30ED               	movlw	237
  4499  0ED2  0020               	movlb	0	; select bank0
  4500  0ED3  00C1               	movwf	??_output_ir
  4501  0ED4                     u4767:	
  4502  0ED4  3200               	nop2
  4503  0ED5  0000               	nop
  4504  0ED6  0BC1               	decfsz	??_output_ir,f
  4505  0ED7  2ED4               	goto	u4767
  4506  0ED8  0000               	nop
  4507                           
  4508                           ;ir.c: 49: P1MDLBIT = 0;
  4509  0ED9  003D               	movlb	29	; select bank29
  4510  0EDA  1292               	bcf	18,5	;volatile
  4511                           
  4512                           ;ir.c: 50: _delay((unsigned long)((2678-178)*(32000000/4000000.0)));
  4513  0EDB  301A               	movlw	26
  4514  0EDC  0020               	movlb	0	; select bank0
  4515  0EDD  00C2               	movwf	??_output_ir+1
  4516  0EDE  30F8               	movlw	248
  4517  0EDF  00C1               	movwf	??_output_ir
  4518  0EE0                     u4777:	
  4519  0EE0  0BC1               	decfsz	??_output_ir,f
  4520  0EE1  2EE0               	goto	u4777
  4521  0EE2  0BC2               	decfsz	??_output_ir+1,f
  4522  0EE3  2EE0               	goto	u4777
  4523  0EE4  0000               	nop
  4524                           
  4525                           ;ir.c: 53: P1MDLBIT = 1;
  4526  0EE5  003D               	movlb	29	; select bank29
  4527  0EE6  1692               	bsf	18,5	;volatile
  4528                           
  4529                           ;ir.c: 54: _delay((unsigned long)((357)*(32000000/4000000.0)));
  4530  0EE7  3004               	movlw	4
  4531  0EE8  0020               	movlb	0	; select bank0
  4532  0EE9  00C2               	movwf	??_output_ir+1
  4533  0EEA  30B4               	movlw	180
  4534  0EEB  00C1               	movwf	??_output_ir
  4535  0EEC                     u4787:	
  4536  0EEC  0BC1               	decfsz	??_output_ir,f
  4537  0EED  2EEC               	goto	u4787
  4538  0EEE  0BC2               	decfsz	??_output_ir+1,f
  4539  0EEF  2EEC               	goto	u4787
  4540  0EF0  0000               	nop
  4541                           
  4542                           ;ir.c: 55: P1MDLBIT = 0;
  4543  0EF1  003D               	movlb	29	; select bank29
  4544  0EF2  1292               	bcf	18,5	;volatile
  4545                           
  4546                           ;ir.c: 56: _delay((unsigned long)((2678-357)*(32000000/4000000.0)));
  4547  0EF3  3019               	movlw	25
  4548  0EF4  0020               	movlb	0	; select bank0
  4549  0EF5  00C2               	movwf	??_output_ir+1
  4550  0EF6  301B               	movlw	27
  4551  0EF7  00C1               	movwf	??_output_ir
  4552  0EF8                     u4797:	
  4553  0EF8  0BC1               	decfsz	??_output_ir,f
  4554  0EF9  2EF8               	goto	u4797
  4555  0EFA  0BC2               	decfsz	??_output_ir+1,f
  4556  0EFB  2EF8               	goto	u4797
  4557  0EFC  3200               	nop2
  4558                           
  4559                           ;ir.c: 57: P1MDLBIT = 1;
  4560  0EFD  003D               	movlb	29	; select bank29
  4561  0EFE  1692               	bsf	18,5	;volatile
  4562                           
  4563                           ;ir.c: 58: _delay((unsigned long)((357)*(32000000/4000000.0)));
  4564  0EFF  3004               	movlw	4
  4565  0F00  0020               	movlb	0	; select bank0
  4566  0F01  00C2               	movwf	??_output_ir+1
  4567  0F02  30B4               	movlw	180
  4568  0F03  00C1               	movwf	??_output_ir
  4569  0F04                     u4807:	
  4570  0F04  0BC1               	decfsz	??_output_ir,f
  4571  0F05  2F04               	goto	u4807
  4572  0F06  0BC2               	decfsz	??_output_ir+1,f
  4573  0F07  2F04               	goto	u4807
  4574  0F08  0000               	nop
  4575                           
  4576                           ;ir.c: 59: P1MDLBIT = 0;
  4577  0F09  003D               	movlb	29	; select bank29
  4578  0F0A  1292               	bcf	18,5	;volatile
  4579                           
  4580                           ;ir.c: 60: _delay((unsigned long)((2678-357)*(32000000/4000000.0)));
  4581  0F0B  3019               	movlw	25
  4582  0F0C  0020               	movlb	0	; select bank0
  4583  0F0D  00C2               	movwf	??_output_ir+1
  4584  0F0E  301B               	movlw	27
  4585  0F0F  00C1               	movwf	??_output_ir
  4586  0F10                     u4817:	
  4587  0F10  0BC1               	decfsz	??_output_ir,f
  4588  0F11  2F10               	goto	u4817
  4589  0F12  0BC2               	decfsz	??_output_ir+1,f
  4590  0F13  2F10               	goto	u4817
  4591  0F14  3200               	nop2
  4592                           
  4593                           ;ir.c: 63: P1MDLBIT = 1;
  4594  0F15  003D               	movlb	29	; select bank29
  4595  0F16  1692               	bsf	18,5	;volatile
  4596                           
  4597                           ;ir.c: 64: _delay((unsigned long)((2678)*(32000000/4000000.0)));
  4598  0F17  301C               	movlw	28
  4599  0F18  0020               	movlb	0	; select bank0
  4600  0F19  00C2               	movwf	??_output_ir+1
  4601  0F1A  30D1               	movlw	209
  4602  0F1B  00C1               	movwf	??_output_ir
  4603  0F1C                     u4827:	
  4604  0F1C  0BC1               	decfsz	??_output_ir,f
  4605  0F1D  2F1C               	goto	u4827
  4606  0F1E  0BC2               	decfsz	??_output_ir+1,f
  4607  0F1F  2F1C               	goto	u4827
  4608  0F20  3200               	nop2
  4609                           
  4610                           ;ir.c: 65: P1MDLBIT = 0;
  4611  0F21  003D               	movlb	29	; select bank29
  4612  0F22  1292               	bcf	18,5	;volatile
  4613  0F23  3001               	movlw	1
  4614  0F24  0021               	movlb	1	; select bank1
  4615  0F25  07A0               	addwf	output_ir@i^(0+128),f
  4616  0F26  3000               	movlw	0
  4617  0F27  3DA1               	addwfc	(output_ir@i+1)^(0+128),f
  4618  0F28  2EC2               	goto	l305
  4619  0F29                     l5203:	
  4620                           ;ir.c: 66: }
  4621                           ;ir.c: 68: }
  4622                           
  4623                           
  4624                           ;ir.c: 69: else if(pkt_type == 1)
  4625  0F29  0021               	movlb	1	; select bank1
  4626  0F2A  0326               	decf	output_ir@pkt_type^(0+128),w
  4627  0F2B  1D03               	btfss	3,2
  4628  0F2C  2F96               	goto	l5223
  4629                           
  4630                           ;ir.c: 70: {
  4631                           ;ir.c: 71: for(int i = 0;i < amount;i++){
  4632  0F2D  01A2               	clrf	output_ir@i_266^(0+128)
  4633  0F2E  01A3               	clrf	(output_ir@i_266+1)^(0+128)
  4634  0F2F                     l310:	
  4635  0F2F  0823               	movf	(output_ir@i_266+1)^(0+128),w
  4636  0F30  3A80               	xorlw	128
  4637  0F31  0020               	movlb	0	; select bank0
  4638  0F32  00C1               	movwf	??_output_ir
  4639  0F33  3080               	movlw	128
  4640  0F34  0241               	subwf	??_output_ir,w
  4641  0F35  1D03               	skipz
  4642  0F36  2F3A               	goto	u4615
  4643  0F37  0840               	movf	output_ir@amount,w
  4644  0F38  0021               	movlb	1	; select bank1
  4645  0F39  0222               	subwf	output_ir@i_266^(0+128),w
  4646  0F3A                     u4615:	
  4647  0F3A  1803               	btfsc	3,0
  4648  0F3B  0008               	return
  4649                           
  4650                           ;ir.c: 73: P1MDLBIT = 1;
  4651  0F3C  003D               	movlb	29	; select bank29
  4652  0F3D  1692               	bsf	18,5	;volatile
  4653                           
  4654                           ;ir.c: 74: _delay((unsigned long)((178)*(32000000/4000000.0)));
  4655  0F3E  30ED               	movlw	237
  4656  0F3F  0020               	movlb	0	; select bank0
  4657  0F40  00C1               	movwf	??_output_ir
  4658  0F41                     u4837:	
  4659  0F41  3200               	nop2
  4660  0F42  0000               	nop
  4661  0F43  0BC1               	decfsz	??_output_ir,f
  4662  0F44  2F41               	goto	u4837
  4663  0F45  0000               	nop
  4664                           
  4665                           ;ir.c: 75: P1MDLBIT = 0;
  4666  0F46  003D               	movlb	29	; select bank29
  4667  0F47  1292               	bcf	18,5	;volatile
  4668                           
  4669                           ;ir.c: 76: _delay((unsigned long)((2678-178)*(32000000/4000000.0)));
  4670  0F48  301A               	movlw	26
  4671  0F49  0020               	movlb	0	; select bank0
  4672  0F4A  00C2               	movwf	??_output_ir+1
  4673  0F4B  30F8               	movlw	248
  4674  0F4C  00C1               	movwf	??_output_ir
  4675  0F4D                     u4847:	
  4676  0F4D  0BC1               	decfsz	??_output_ir,f
  4677  0F4E  2F4D               	goto	u4847
  4678  0F4F  0BC2               	decfsz	??_output_ir+1,f
  4679  0F50  2F4D               	goto	u4847
  4680  0F51  0000               	nop
  4681                           
  4682                           ;ir.c: 79: P1MDLBIT = 1;
  4683  0F52  003D               	movlb	29	; select bank29
  4684  0F53  1692               	bsf	18,5	;volatile
  4685                           
  4686                           ;ir.c: 80: _delay((unsigned long)((535)*(32000000/4000000.0)));
  4687  0F54  3006               	movlw	6
  4688  0F55  0020               	movlb	0	; select bank0
  4689  0F56  00C2               	movwf	??_output_ir+1
  4690  0F57  308D               	movlw	141
  4691  0F58  00C1               	movwf	??_output_ir
  4692  0F59                     u4857:	
  4693  0F59  0BC1               	decfsz	??_output_ir,f
  4694  0F5A  2F59               	goto	u4857
  4695  0F5B  0BC2               	decfsz	??_output_ir+1,f
  4696  0F5C  2F59               	goto	u4857
  4697  0F5D  3200               	nop2
  4698                           
  4699                           ;ir.c: 81: P1MDLBIT = 0;
  4700  0F5E  003D               	movlb	29	; select bank29
  4701  0F5F  1292               	bcf	18,5	;volatile
  4702                           
  4703                           ;ir.c: 82: _delay((unsigned long)((2678-535)*(32000000/4000000.0)));
  4704  0F60  3017               	movlw	23
  4705  0F61  0020               	movlb	0	; select bank0
  4706  0F62  00C2               	movwf	??_output_ir+1
  4707  0F63  3042               	movlw	66
  4708  0F64  00C1               	movwf	??_output_ir
  4709  0F65                     u4867:	
  4710  0F65  0BC1               	decfsz	??_output_ir,f
  4711  0F66  2F65               	goto	u4867
  4712  0F67  0BC2               	decfsz	??_output_ir+1,f
  4713  0F68  2F65               	goto	u4867
  4714  0F69  0000               	nop
  4715                           
  4716                           ;ir.c: 83: P1MDLBIT = 1;
  4717  0F6A  003D               	movlb	29	; select bank29
  4718  0F6B  1692               	bsf	18,5	;volatile
  4719                           
  4720                           ;ir.c: 84: _delay((unsigned long)((535)*(32000000/4000000.0)));
  4721  0F6C  3006               	movlw	6
  4722  0F6D  0020               	movlb	0	; select bank0
  4723  0F6E  00C2               	movwf	??_output_ir+1
  4724  0F6F  308D               	movlw	141
  4725  0F70  00C1               	movwf	??_output_ir
  4726  0F71                     u4877:	
  4727  0F71  0BC1               	decfsz	??_output_ir,f
  4728  0F72  2F71               	goto	u4877
  4729  0F73  0BC2               	decfsz	??_output_ir+1,f
  4730  0F74  2F71               	goto	u4877
  4731  0F75  3200               	nop2
  4732                           
  4733                           ;ir.c: 85: P1MDLBIT = 0;
  4734  0F76  003D               	movlb	29	; select bank29
  4735  0F77  1292               	bcf	18,5	;volatile
  4736                           
  4737                           ;ir.c: 86: _delay((unsigned long)((2678-535)*(32000000/4000000.0)));
  4738  0F78  3017               	movlw	23
  4739  0F79  0020               	movlb	0	; select bank0
  4740  0F7A  00C2               	movwf	??_output_ir+1
  4741  0F7B  3042               	movlw	66
  4742  0F7C  00C1               	movwf	??_output_ir
  4743  0F7D                     u4887:	
  4744  0F7D  0BC1               	decfsz	??_output_ir,f
  4745  0F7E  2F7D               	goto	u4887
  4746  0F7F  0BC2               	decfsz	??_output_ir+1,f
  4747  0F80  2F7D               	goto	u4887
  4748  0F81  0000               	nop
  4749                           
  4750                           ;ir.c: 89: P1MDLBIT = 1;
  4751  0F82  003D               	movlb	29	; select bank29
  4752  0F83  1692               	bsf	18,5	;volatile
  4753                           
  4754                           ;ir.c: 90: _delay((unsigned long)((2678)*(32000000/4000000.0)));
  4755  0F84  301C               	movlw	28
  4756  0F85  0020               	movlb	0	; select bank0
  4757  0F86  00C2               	movwf	??_output_ir+1
  4758  0F87  30D1               	movlw	209
  4759  0F88  00C1               	movwf	??_output_ir
  4760  0F89                     u4897:	
  4761  0F89  0BC1               	decfsz	??_output_ir,f
  4762  0F8A  2F89               	goto	u4897
  4763  0F8B  0BC2               	decfsz	??_output_ir+1,f
  4764  0F8C  2F89               	goto	u4897
  4765  0F8D  3200               	nop2
  4766                           
  4767                           ;ir.c: 91: P1MDLBIT = 0;
  4768  0F8E  003D               	movlb	29	; select bank29
  4769  0F8F  1292               	bcf	18,5	;volatile
  4770  0F90  3001               	movlw	1
  4771  0F91  0021               	movlb	1	; select bank1
  4772  0F92  07A2               	addwf	output_ir@i_266^(0+128),f
  4773  0F93  3000               	movlw	0
  4774  0F94  3DA3               	addwfc	(output_ir@i_266+1)^(0+128),f
  4775  0F95  2F2F               	goto	l310
  4776  0F96                     l5223:	
  4777                           ;ir.c: 92: }
  4778                           ;ir.c: 93: }
  4779                           
  4780                           
  4781                           ;ir.c: 94: else
  4782                           ;ir.c: 95: {
  4783                           ;ir.c: 96: for(int i = 0;i < amount;i++){
  4784  0F96  0021               	movlb	1	; select bank1
  4785  0F97  01A4               	clrf	output_ir@i_267^(0+128)
  4786  0F98  01A5               	clrf	(output_ir@i_267+1)^(0+128)
  4787  0F99                     l314:	
  4788  0F99  0825               	movf	(output_ir@i_267+1)^(0+128),w
  4789  0F9A  3A80               	xorlw	128
  4790  0F9B  0020               	movlb	0	; select bank0
  4791  0F9C  00C1               	movwf	??_output_ir
  4792  0F9D  3080               	movlw	128
  4793  0F9E  0241               	subwf	??_output_ir,w
  4794  0F9F  1D03               	skipz
  4795  0FA0  2FA4               	goto	u4625
  4796  0FA1  0840               	movf	output_ir@amount,w
  4797  0FA2  0021               	movlb	1	; select bank1
  4798  0FA3  0224               	subwf	output_ir@i_267^(0+128),w
  4799  0FA4                     u4625:	
  4800  0FA4  1803               	btfsc	3,0
  4801  0FA5  0008               	return
  4802                           
  4803                           ;ir.c: 98: P1MDLBIT = 1;
  4804  0FA6  003D               	movlb	29	; select bank29
  4805  0FA7  1692               	bsf	18,5	;volatile
  4806                           
  4807                           ;ir.c: 99: _delay((unsigned long)((178)*(32000000/4000000.0)));
  4808  0FA8  30ED               	movlw	237
  4809  0FA9  0020               	movlb	0	; select bank0
  4810  0FAA  00C1               	movwf	??_output_ir
  4811  0FAB                     u4907:	
  4812  0FAB  3200               	nop2
  4813  0FAC  0000               	nop
  4814  0FAD  0BC1               	decfsz	??_output_ir,f
  4815  0FAE  2FAB               	goto	u4907
  4816  0FAF  0000               	nop
  4817                           
  4818                           ;ir.c: 100: P1MDLBIT = 0;
  4819  0FB0  003D               	movlb	29	; select bank29
  4820  0FB1  1292               	bcf	18,5	;volatile
  4821                           
  4822                           ;ir.c: 101: _delay((unsigned long)((2678-178)*(32000000/4000000.0)));
  4823  0FB2  301A               	movlw	26
  4824  0FB3  0020               	movlb	0	; select bank0
  4825  0FB4  00C2               	movwf	??_output_ir+1
  4826  0FB5  30F8               	movlw	248
  4827  0FB6  00C1               	movwf	??_output_ir
  4828  0FB7                     u4917:	
  4829  0FB7  0BC1               	decfsz	??_output_ir,f
  4830  0FB8  2FB7               	goto	u4917
  4831  0FB9  0BC2               	decfsz	??_output_ir+1,f
  4832  0FBA  2FB7               	goto	u4917
  4833  0FBB  0000               	nop
  4834                           
  4835                           ;ir.c: 104: P1MDLBIT = 1;
  4836  0FBC  003D               	movlb	29	; select bank29
  4837  0FBD  1692               	bsf	18,5	;volatile
  4838                           
  4839                           ;ir.c: 105: _delay((unsigned long)((714)*(32000000/4000000.0)));
  4840  0FBE  3008               	movlw	8
  4841  0FBF  0020               	movlb	0	; select bank0
  4842  0FC0  00C2               	movwf	??_output_ir+1
  4843  0FC1  3069               	movlw	105
  4844  0FC2  00C1               	movwf	??_output_ir
  4845  0FC3                     u4927:	
  4846  0FC3  0BC1               	decfsz	??_output_ir,f
  4847  0FC4  2FC3               	goto	u4927
  4848  0FC5  0BC2               	decfsz	??_output_ir+1,f
  4849  0FC6  2FC3               	goto	u4927
  4850  0FC7  3200               	nop2
  4851                           
  4852                           ;ir.c: 106: P1MDLBIT = 0;
  4853  0FC8  003D               	movlb	29	; select bank29
  4854  0FC9  1292               	bcf	18,5	;volatile
  4855                           
  4856                           ;ir.c: 107: _delay((unsigned long)((2678-714)*(32000000/4000000.0)));
  4857  0FCA  3015               	movlw	21
  4858  0FCB  0020               	movlb	0	; select bank0
  4859  0FCC  00C2               	movwf	??_output_ir+1
  4860  0FCD  3066               	movlw	102
  4861  0FCE  00C1               	movwf	??_output_ir
  4862  0FCF                     u4937:	
  4863  0FCF  0BC1               	decfsz	??_output_ir,f
  4864  0FD0  2FCF               	goto	u4937
  4865  0FD1  0BC2               	decfsz	??_output_ir+1,f
  4866  0FD2  2FCF               	goto	u4937
  4867  0FD3  0000               	nop
  4868                           
  4869                           ;ir.c: 108: P1MDLBIT = 1;
  4870  0FD4  003D               	movlb	29	; select bank29
  4871  0FD5  1692               	bsf	18,5	;volatile
  4872                           
  4873                           ;ir.c: 109: _delay((unsigned long)((714)*(32000000/4000000.0)));
  4874  0FD6  3008               	movlw	8
  4875  0FD7  0020               	movlb	0	; select bank0
  4876  0FD8  00C2               	movwf	??_output_ir+1
  4877  0FD9  3069               	movlw	105
  4878  0FDA  00C1               	movwf	??_output_ir
  4879  0FDB                     u4947:	
  4880  0FDB  0BC1               	decfsz	??_output_ir,f
  4881  0FDC  2FDB               	goto	u4947
  4882  0FDD  0BC2               	decfsz	??_output_ir+1,f
  4883  0FDE  2FDB               	goto	u4947
  4884  0FDF  3200               	nop2
  4885                           
  4886                           ;ir.c: 110: P1MDLBIT = 0;
  4887  0FE0  003D               	movlb	29	; select bank29
  4888  0FE1  1292               	bcf	18,5	;volatile
  4889                           
  4890                           ;ir.c: 111: _delay((unsigned long)((2678-714)*(32000000/4000000.0)));
  4891  0FE2  3015               	movlw	21
  4892  0FE3  0020               	movlb	0	; select bank0
  4893  0FE4  00C2               	movwf	??_output_ir+1
  4894  0FE5  3066               	movlw	102
  4895  0FE6  00C1               	movwf	??_output_ir
  4896  0FE7                     u4957:	
  4897  0FE7  0BC1               	decfsz	??_output_ir,f
  4898  0FE8  2FE7               	goto	u4957
  4899  0FE9  0BC2               	decfsz	??_output_ir+1,f
  4900  0FEA  2FE7               	goto	u4957
  4901  0FEB  0000               	nop
  4902                           
  4903                           ;ir.c: 114: P1MDLBIT = 1;
  4904  0FEC  003D               	movlb	29	; select bank29
  4905  0FED  1692               	bsf	18,5	;volatile
  4906                           
  4907                           ;ir.c: 115: _delay((unsigned long)((2678)*(32000000/4000000.0)));
  4908  0FEE  301C               	movlw	28
  4909  0FEF  0020               	movlb	0	; select bank0
  4910  0FF0  00C2               	movwf	??_output_ir+1
  4911  0FF1  30D1               	movlw	209
  4912  0FF2  00C1               	movwf	??_output_ir
  4913  0FF3                     u4967:	
  4914  0FF3  0BC1               	decfsz	??_output_ir,f
  4915  0FF4  2FF3               	goto	u4967
  4916  0FF5  0BC2               	decfsz	??_output_ir+1,f
  4917  0FF6  2FF3               	goto	u4967
  4918  0FF7  3200               	nop2
  4919                           
  4920                           ;ir.c: 116: P1MDLBIT = 0;
  4921  0FF8  003D               	movlb	29	; select bank29
  4922  0FF9  1292               	bcf	18,5	;volatile
  4923  0FFA  3001               	movlw	1
  4924  0FFB  0021               	movlb	1	; select bank1
  4925  0FFC  07A4               	addwf	output_ir@i_267^(0+128),f
  4926  0FFD  3000               	movlw	0
  4927  0FFE  3DA5               	addwfc	(output_ir@i_267+1)^(0+128),f
  4928  0FFF  2F99               	goto	l314
  4929  1000                     __end_of_output_ir:	
  4930                           
  4931                           	psect	text2
  4932  10AA                     __ptext2:	
  4933 ;; *************** function _init_pic *****************
  4934 ;; Defined at:
  4935 ;;		line 341 in file "../../source/main.c"
  4936 ;; Parameters:    Size  Location     Type
  4937 ;;		None
  4938 ;; Auto vars:     Size  Location     Type
  4939 ;;		None
  4940 ;; Return value:  Size  Location     Type
  4941 ;;		None               void
  4942 ;; Registers used:
  4943 ;;		wreg, status,2, status,0
  4944 ;; Tracked objects:
  4945 ;;		On entry : 0/0
  4946 ;;		On exit  : 0/0
  4947 ;;		Unchanged: 0/0
  4948 ;; Data sizes:     COMMON   BANK0   BANK1   BANK2   BANK3   BANK4   BANK5   BANK6   BANK7   BANK8   BANK9  BANK10  BANK1
      +1  BANK12  BANK13  BANK14  BANK15  BANK16  BANK17  BANK18  BANK19  BANK20  BANK21  BANK22  BANK23  BANK24  BANK25
  4949 ;;      Params:         0       0       0       0       0       0       0       0       0       0       0       0       
      +0       0       0       0       0       0       0       0       0       0       0       0       0       0       0
  4950 ;;      Locals:         0       0       0       0       0       0       0       0       0       0       0       0       
      +0       0       0       0       0       0       0       0       0       0       0       0       0       0       0
  4951 ;;      Temps:          0       1       0       0       0       0       0       0       0       0       0       0       
      +0       0       0       0       0       0       0       0       0       0       0       0       0       0       0
  4952 ;;      Totals:         0       1       0       0       0       0       0       0       0       0       0       0       
      +0       0       0       0       0       0       0       0       0       0       0       0       0       0       0
  4953 ;;Total ram usage:        1 bytes
  4954 ;; Hardware stack levels used:    1
  4955 ;; Hardware stack levels required when called:    4
  4956 ;; This function calls:
  4957 ;;		Nothing
  4958 ;; This function is called by:
  4959 ;;		_main
  4960 ;; This function uses a non-reentrant model
  4961 ;;
  4962                           
  4963                           
  4964                           ;psect for function _init_pic
  4965  10AA                     _init_pic:	
  4966                           
  4967                           ;main.c: 343: ANSELA = 0;
  4968                           
  4969                           ;incstack = 0
  4970                           ; Regs used in _init_pic: [wreg+status,2+status,0]
  4971  10AA  0023               	movlb	3	; select bank3
  4972  10AB  018C               	clrf	12	;volatile
  4973                           
  4974                           ;main.c: 344: ANSELB = 0;
  4975  10AC  018D               	clrf	13	;volatile
  4976                           
  4977                           ;main.c: 347: TRISB &= 0b11110011;
  4978  10AD  30F3               	movlw	243
  4979  10AE  0020               	movlb	0	; select bank0
  4980  10AF  00C0               	movwf	??_init_pic
  4981  10B0  0840               	movf	??_init_pic,w
  4982  10B1  0021               	movlb	1	; select bank1
  4983  10B2  058D               	andwf	13,f	;volatile
  4984                           
  4985                           ;main.c: 348: RB2 = 1;
  4986  10B3  0020               	movlb	0	; select bank0
  4987  10B4  150D               	bsf	13,2	;volatile
  4988                           
  4989                           ;main.c: 349: RB3 = 1;
  4990  10B5  158D               	bsf	13,3	;volatile
  4991                           
  4992                           ;main.c: 352: OSCCON |= 0b11111000;
  4993  10B6  30F8               	movlw	248
  4994  10B7  00C0               	movwf	??_init_pic
  4995  10B8  0840               	movf	??_init_pic,w
  4996  10B9  0021               	movlb	1	; select bank1
  4997  10BA  0499               	iorwf	25,f	;volatile
  4998                           
  4999                           ;main.c: 355: GIE = 1;
  5000  10BB  178B               	bsf	11,7	;volatile
  5001  10BC  0008               	return
  5002  10BD                     __end_of_init_pic:	
  5003                           
  5004                           	psect	text3
  5005  0803                     __ptext3:	
  5006 ;; *************** function _init_leds *****************
  5007 ;; Defined at:
  5008 ;;		line 26 in file "../../source/lighting.c"
  5009 ;; Parameters:    Size  Location     Type
  5010 ;;		None
  5011 ;; Auto vars:     Size  Location     Type
  5012 ;;		None
  5013 ;; Return value:  Size  Location     Type
  5014 ;;		None               void
  5015 ;; Registers used:
  5016 ;;		wreg, status,2, status,0, pclath, cstack
  5017 ;; Tracked objects:
  5018 ;;		On entry : 0/0
  5019 ;;		On exit  : 0/0
  5020 ;;		Unchanged: 0/0
  5021 ;; Data sizes:     COMMON   BANK0   BANK1   BANK2   BANK3   BANK4   BANK5   BANK6   BANK7   BANK8   BANK9  BANK10  BANK1
      +1  BANK12  BANK13  BANK14  BANK15  BANK16  BANK17  BANK18  BANK19  BANK20  BANK21  BANK22  BANK23  BANK24  BANK25
  5022 ;;      Params:         0       0       0       0       0       0       0       0       0       0       0       0       
      +0       0       0       0       0       0       0       0       0       0       0       0       0       0       0
  5023 ;;      Locals:         0       0       0       0       0       0       0       0       0       0       0       0       
      +0       0       0       0       0       0       0       0       0       0       0       0       0       0       0
  5024 ;;      Temps:          0       1       0       0       0       0       0       0       0       0       0       0       
      +0       0       0       0       0       0       0       0       0       0       0       0       0       0       0
  5025 ;;      Totals:         0       1       0       0       0       0       0       0       0       0       0       0       
      +0       0       0       0       0       0       0       0       0       0       0       0       0       0       0
  5026 ;;Total ram usage:        1 bytes
  5027 ;; Hardware stack levels used:    1
  5028 ;; Hardware stack levels required when called:    6
  5029 ;; This function calls:
  5030 ;;		_leds_off
  5031 ;; This function is called by:
  5032 ;;		_main
  5033 ;; This function uses a non-reentrant model
  5034 ;;
  5035                           
  5036                           
  5037                           ;psect for function _init_leds
  5038  0803                     _init_leds:	
  5039                           
  5040                           ;lighting.c: 29: TRISC &= 0b10001111;
  5041                           
  5042                           ;incstack = 0
  5043                           ; Regs used in _init_leds: [wreg+status,2+status,0+pclath+cstack]
  5044  0803  308F               	movlw	143
  5045  0804  0020               	movlb	0	; select bank0
  5046  0805  00C5               	movwf	??_init_leds
  5047  0806  0845               	movf	??_init_leds,w
  5048  0807  0021               	movlb	1	; select bank1
  5049  0808  058E               	andwf	14,f	;volatile
  5050                           
  5051                           ;lighting.c: 32: TRISBbits.TRISB7 = 0;
  5052  0809  138D               	bcf	13,7	;volatile
  5053                           
  5054                           ;lighting.c: 33: TRISBbits.TRISB5 = 0;
  5055  080A  128D               	bcf	13,5	;volatile
  5056                           
  5057                           ;lighting.c: 37: PSMC2CON = 0x00;
  5058  080B  003D               	movlb	29	; select bank29
  5059  080C  01B1               	clrf	49	;volatile
  5060                           
  5061                           ;lighting.c: 38: PSMC2MDL = 0x00;
  5062  080D  01B2               	clrf	50	;volatile
  5063                           
  5064                           ;lighting.c: 39: PSMC2SYNC = 0x00;
  5065  080E  01B3               	clrf	51	;volatile
  5066                           
  5067                           ;lighting.c: 40: PSMC2CLK = 0x00;
  5068  080F  01B4               	clrf	52	;volatile
  5069                           
  5070                           ;lighting.c: 41: PSMC2POL = 0x00;
  5071  0810  01B6               	clrf	54	;volatile
  5072                           
  5073                           ;lighting.c: 42: PSMC2BLNK = 0x00;
  5074  0811  01B7               	clrf	55	;volatile
  5075                           
  5076                           ;lighting.c: 43: PSMC2REBS = 0x00;
  5077  0812  01B8               	clrf	56	;volatile
  5078                           
  5079                           ;lighting.c: 44: PSMC2FEBS = 0x00;
  5080  0813  01B9               	clrf	57	;volatile
  5081                           
  5082                           ;lighting.c: 45: PSMC2PHS = 0x01;
  5083  0814  3001               	movlw	1
  5084  0815  00BA               	movwf	58	;volatile
  5085                           
  5086                           ;lighting.c: 46: PSMC2DCS = 0x01;
  5087  0816  3001               	movlw	1
  5088  0817  00BB               	movwf	59	;volatile
  5089                           
  5090                           ;lighting.c: 47: PSMC2PRS = 0x01;
  5091  0818  3001               	movlw	1
  5092  0819  00BC               	movwf	60	;volatile
  5093                           
  5094                           ;lighting.c: 48: PSMC2ASDC = 0x00;
  5095  081A  01BD               	clrf	61	;volatile
  5096                           
  5097                           ;lighting.c: 49: PSMC2ASDL = 0x01;
  5098  081B  3001               	movlw	1
  5099  081C  00BE               	movwf	62	;volatile
  5100                           
  5101                           ;lighting.c: 50: PSMC2ASDS = 0x00;
  5102  081D  01BF               	clrf	63	;volatile
  5103                           
  5104                           ;lighting.c: 51: PSMC2PHH = 0x00;
  5105  081E  01C2               	clrf	66	;volatile
  5106                           
  5107                           ;lighting.c: 52: PSMC2PHL = 0x00;
  5108  081F  01C1               	clrf	65	;volatile
  5109                           
  5110                           ;lighting.c: 53: PSMC2DCH = 0x01;
  5111  0820  3001               	movlw	1
  5112  0821  00C4               	movwf	68	;volatile
  5113                           
  5114                           ;lighting.c: 54: PSMC2DCL = 0xF4;
  5115  0822  30F4               	movlw	244
  5116  0823  00C3               	movwf	67	;volatile
  5117                           
  5118                           ;lighting.c: 55: PSMC2PRH = 0x03;
  5119  0824  3003               	movlw	3
  5120  0825  00C6               	movwf	70	;volatile
  5121                           
  5122                           ;lighting.c: 56: PSMC2PRL = 0xE7;
  5123  0826  30E7               	movlw	231
  5124  0827  00C5               	movwf	69	;volatile
  5125                           
  5126                           ;lighting.c: 57: PSMC2DBR = 0x00;
  5127  0828  01C9               	clrf	73	;volatile
  5128                           
  5129                           ;lighting.c: 58: PSMC2DBF = 0x00;
  5130  0829  01CA               	clrf	74	;volatile
  5131                           
  5132                           ;lighting.c: 59: PSMC2FFA = 0x00;
  5133  082A  01CD               	clrf	77	;volatile
  5134                           
  5135                           ;lighting.c: 60: PSMC2BLKR = 0x00;
  5136  082B  01CB               	clrf	75	;volatile
  5137                           
  5138                           ;lighting.c: 61: PSMC2BLKF = 0x00;
  5139  082C  01CC               	clrf	76	;volatile
  5140                           
  5141                           ;lighting.c: 62: PSMC2STR0 = 0x01;
  5142  082D  3001               	movlw	1
  5143  082E  00CE               	movwf	78	;volatile
  5144                           
  5145                           ;lighting.c: 63: PSMC2STR1 = 0x00;
  5146  082F  01CF               	clrf	79	;volatile
  5147                           
  5148                           ;lighting.c: 64: PSMC2INT = 0x00;
  5149  0830  01C0               	clrf	64	;volatile
  5150                           
  5151                           ;lighting.c: 65: PSMC2OEN = 0x01;
  5152  0831  3001               	movlw	1
  5153  0832  00B5               	movwf	53	;volatile
  5154                           
  5155                           ;lighting.c: 66: PSMC2CON = 0x80;
  5156  0833  3080               	movlw	128
  5157  0834  00B1               	movwf	49	;volatile
  5158                           
  5159                           ;lighting.c: 67: PIE4 &= 0xDD;
  5160  0835  30DD               	movlw	221
  5161  0836  0020               	movlb	0	; select bank0
  5162  0837  00C5               	movwf	??_init_leds
  5163  0838  0845               	movf	??_init_leds,w
  5164  0839  0021               	movlb	1	; select bank1
  5165  083A  0594               	andwf	20,f	;volatile
  5166                           
  5167                           ;lighting.c: 68: PIE4 |= 0x00;
  5168  083B  0814               	movf	20,w	;volatile
  5169                           
  5170                           ;lighting.c: 71: PSMC3CON = 0x00;
  5171  083C  003D               	movlb	29	; select bank29
  5172  083D  01D1               	clrf	81	;volatile
  5173                           
  5174                           ;lighting.c: 72: PSMC3MDL = 0x00;
  5175  083E  01D2               	clrf	82	;volatile
  5176                           
  5177                           ;lighting.c: 73: PSMC3SYNC = 0x02;
  5178  083F  3002               	movlw	2
  5179  0840  00D3               	movwf	83	;volatile
  5180                           
  5181                           ;lighting.c: 74: PSMC3CLK = 0x00;
  5182  0841  01D4               	clrf	84	;volatile
  5183                           
  5184                           ;lighting.c: 75: PSMC3POL = 0x00;
  5185  0842  01D6               	clrf	86	;volatile
  5186                           
  5187                           ;lighting.c: 76: PSMC3BLNK = 0x00;
  5188  0843  01D7               	clrf	87	;volatile
  5189                           
  5190                           ;lighting.c: 77: PSMC3REBS = 0x00;
  5191  0844  01D8               	clrf	88	;volatile
  5192                           
  5193                           ;lighting.c: 78: PSMC3FEBS = 0x00;
  5194  0845  01D9               	clrf	89	;volatile
  5195                           
  5196                           ;lighting.c: 79: PSMC3PHS = 0x01;
  5197  0846  3001               	movlw	1
  5198  0847  00DA               	movwf	90	;volatile
  5199                           
  5200                           ;lighting.c: 80: PSMC3DCS = 0x01;
  5201  0848  3001               	movlw	1
  5202  0849  00DB               	movwf	91	;volatile
  5203                           
  5204                           ;lighting.c: 81: PSMC3PRS = 0x01;
  5205  084A  3001               	movlw	1
  5206  084B  00DC               	movwf	92	;volatile
  5207                           
  5208                           ;lighting.c: 82: PSMC3ASDC = 0x00;
  5209  084C  01DD               	clrf	93	;volatile
  5210                           
  5211                           ;lighting.c: 83: PSMC3ASDL = 0x01;
  5212  084D  3001               	movlw	1
  5213  084E  00DE               	movwf	94	;volatile
  5214                           
  5215                           ;lighting.c: 84: PSMC3ASDS = 0x00;
  5216  084F  01DF               	clrf	95	;volatile
  5217                           
  5218                           ;lighting.c: 85: PSMC3PHH = 0x00;
  5219  0850  01E2               	clrf	98	;volatile
  5220                           
  5221                           ;lighting.c: 86: PSMC3PHL = 0x00;
  5222  0851  01E1               	clrf	97	;volatile
  5223                           
  5224                           ;lighting.c: 87: PSMC3DCH = 0x01;
  5225  0852  3001               	movlw	1
  5226  0853  00E4               	movwf	100	;volatile
  5227                           
  5228                           ;lighting.c: 88: PSMC3DCL = 0xF4;
  5229  0854  30F4               	movlw	244
  5230  0855  00E3               	movwf	99	;volatile
  5231                           
  5232                           ;lighting.c: 89: PSMC3PRH = 0x03;
  5233  0856  3003               	movlw	3
  5234  0857  00E6               	movwf	102	;volatile
  5235                           
  5236                           ;lighting.c: 90: PSMC3PRL = 0xE7;
  5237  0858  30E7               	movlw	231
  5238  0859  00E5               	movwf	101	;volatile
  5239                           
  5240                           ;lighting.c: 91: PSMC3DBR = 0x00;
  5241  085A  01E9               	clrf	105	;volatile
  5242                           
  5243                           ;lighting.c: 92: PSMC3DBF = 0x00;
  5244  085B  01EA               	clrf	106	;volatile
  5245                           
  5246                           ;lighting.c: 93: PSMC3FFA = 0x00;
  5247  085C  01ED               	clrf	109	;volatile
  5248                           
  5249                           ;lighting.c: 94: PSMC3BLKR = 0x00;
  5250  085D  01EB               	clrf	107	;volatile
  5251                           
  5252                           ;lighting.c: 95: PSMC3BLKF = 0x00;
  5253  085E  01EC               	clrf	108	;volatile
  5254                           
  5255                           ;lighting.c: 96: PSMC3STR0 = 0x01;
  5256  085F  3001               	movlw	1
  5257  0860  00EE               	movwf	110	;volatile
  5258                           
  5259                           ;lighting.c: 97: PSMC3STR1 = 0x00;
  5260  0861  01EF               	clrf	111	;volatile
  5261                           
  5262                           ;lighting.c: 98: PSMC3INT = 0x00;
  5263  0862  01E0               	clrf	96	;volatile
  5264                           
  5265                           ;lighting.c: 99: PSMC3OEN = 0x01;
  5266  0863  3001               	movlw	1
  5267  0864  00D5               	movwf	85	;volatile
  5268                           
  5269                           ;lighting.c: 100: PSMC3CON = 0x80;
  5270  0865  3080               	movlw	128
  5271  0866  00D1               	movwf	81	;volatile
  5272                           
  5273                           ;lighting.c: 101: PIE4 &= 0xBB;
  5274  0867  30BB               	movlw	187
  5275  0868  0020               	movlb	0	; select bank0
  5276  0869  00C5               	movwf	??_init_leds
  5277  086A  0845               	movf	??_init_leds,w
  5278  086B  0021               	movlb	1	; select bank1
  5279  086C  0594               	andwf	20,f	;volatile
  5280                           
  5281                           ;lighting.c: 102: PIE4 |= 0x00;
  5282  086D  0814               	movf	20,w	;volatile
  5283                           
  5284                           ;lighting.c: 105: PSMC4CON = 0x00;
  5285  086E  003E               	movlb	30	; select bank30
  5286  086F  0191               	clrf	17	;volatile
  5287                           
  5288                           ;lighting.c: 106: PSMC4MDL = 0x00;
  5289  0870  0192               	clrf	18	;volatile
  5290                           
  5291                           ;lighting.c: 107: PSMC4SYNC = 0x02;
  5292  0871  3002               	movlw	2
  5293  0872  0093               	movwf	19	;volatile
  5294                           
  5295                           ;lighting.c: 108: PSMC4CLK = 0x00;
  5296  0873  0194               	clrf	20	;volatile
  5297                           
  5298                           ;lighting.c: 109: PSMC4POL = 0x00;
  5299  0874  0196               	clrf	22	;volatile
  5300                           
  5301                           ;lighting.c: 110: PSMC4BLNK = 0x00;
  5302  0875  0197               	clrf	23	;volatile
  5303                           
  5304                           ;lighting.c: 111: PSMC4REBS = 0x00;
  5305  0876  0198               	clrf	24	;volatile
  5306                           
  5307                           ;lighting.c: 112: PSMC4FEBS = 0x00;
  5308  0877  0199               	clrf	25	;volatile
  5309                           
  5310                           ;lighting.c: 113: PSMC4PHS = 0x01;
  5311  0878  3001               	movlw	1
  5312  0879  009A               	movwf	26	;volatile
  5313                           
  5314                           ;lighting.c: 114: PSMC4DCS = 0x01;
  5315  087A  3001               	movlw	1
  5316  087B  009B               	movwf	27	;volatile
  5317                           
  5318                           ;lighting.c: 115: PSMC4PRS = 0x01;
  5319  087C  3001               	movlw	1
  5320  087D  009C               	movwf	28	;volatile
  5321                           
  5322                           ;lighting.c: 116: PSMC4ASDC = 0x00;
  5323  087E  019D               	clrf	29	;volatile
  5324                           
  5325                           ;lighting.c: 117: PSMC4ASDL = 0x02;
  5326  087F  3002               	movlw	2
  5327  0880  009E               	movwf	30	;volatile
  5328                           
  5329                           ;lighting.c: 118: PSMC4ASDS = 0x00;
  5330  0881  019F               	clrf	31	;volatile
  5331                           
  5332                           ;lighting.c: 119: PSMC4PHH = 0x00;
  5333  0882  01A2               	clrf	34	;volatile
  5334                           
  5335                           ;lighting.c: 120: PSMC4PHL = 0x00;
  5336  0883  01A1               	clrf	33	;volatile
  5337                           
  5338                           ;lighting.c: 121: PSMC4DCH = 0x01;
  5339  0884  3001               	movlw	1
  5340  0885  00A4               	movwf	36	;volatile
  5341                           
  5342                           ;lighting.c: 122: PSMC4DCL = 0xF4;
  5343  0886  30F4               	movlw	244
  5344  0887  00A3               	movwf	35	;volatile
  5345                           
  5346                           ;lighting.c: 123: PSMC4PRH = 0x03;
  5347  0888  3003               	movlw	3
  5348  0889  00A6               	movwf	38	;volatile
  5349                           
  5350                           ;lighting.c: 124: PSMC4PRL = 0xE7;
  5351  088A  30E7               	movlw	231
  5352  088B  00A5               	movwf	37	;volatile
  5353                           
  5354                           ;lighting.c: 125: PSMC4DBR = 0x00;
  5355  088C  01A9               	clrf	41	;volatile
  5356                           
  5357                           ;lighting.c: 126: PSMC4DBF = 0x00;
  5358  088D  01AA               	clrf	42	;volatile
  5359                           
  5360                           ;lighting.c: 127: PSMC4FFA = 0x00;
  5361  088E  01AD               	clrf	45	;volatile
  5362                           
  5363                           ;lighting.c: 128: PSMC4BLKR = 0x00;
  5364  088F  01AB               	clrf	43	;volatile
  5365                           
  5366                           ;lighting.c: 129: PSMC4BLKF = 0x00;
  5367  0890  01AC               	clrf	44	;volatile
  5368                           
  5369                           ;lighting.c: 130: PSMC4STR0 = 0x02;
  5370  0891  3002               	movlw	2
  5371  0892  00AE               	movwf	46	;volatile
  5372                           
  5373                           ;lighting.c: 131: PSMC4STR1 = 0x00;
  5374  0893  01AF               	clrf	47	;volatile
  5375                           
  5376                           ;lighting.c: 132: PSMC4INT = 0x00;
  5377  0894  01A0               	clrf	32	;volatile
  5378                           
  5379                           ;lighting.c: 133: PSMC4OEN = 0x02;
  5380  0895  3002               	movlw	2
  5381  0896  0095               	movwf	21	;volatile
  5382                           
  5383                           ;lighting.c: 134: PSMC4CON = 0x80;
  5384  0897  3080               	movlw	128
  5385  0898  0091               	movwf	17	;volatile
  5386                           
  5387                           ;lighting.c: 135: PIE4 &= 0x77;
  5388  0899  3077               	movlw	119
  5389  089A  0020               	movlb	0	; select bank0
  5390  089B  00C5               	movwf	??_init_leds
  5391  089C  0845               	movf	??_init_leds,w
  5392  089D  0021               	movlb	1	; select bank1
  5393  089E  0594               	andwf	20,f	;volatile
  5394                           
  5395                           ;lighting.c: 136: PIE4 |= 0x00;
  5396  089F  0814               	movf	20,w	;volatile
  5397                           
  5398                           ;lighting.c: 140: SSPEN = 0;
  5399  08A0  0024               	movlb	4	; select bank4
  5400  08A1  1295               	bcf	21,5	;volatile
  5401                           
  5402                           ;lighting.c: 141: SSPCON1 = 0b00100000;
  5403  08A2  3020               	movlw	32
  5404  08A3  0095               	movwf	21	;volatile
  5405                           
  5406                           ;lighting.c: 142: SCKSEL = 1;
  5407  08A4  0022               	movlb	2	; select bank2
  5408  08A5  161D               	bsf	29,4	;volatile
  5409                           
  5410                           ;lighting.c: 143: SDOSEL = 1;
  5411  08A6  169D               	bsf	29,5	;volatile
  5412                           
  5413                           ;lighting.c: 144: SDISEL = 1;
  5414  08A7  159D               	bsf	29,3	;volatile
  5415                           
  5416                           ;lighting.c: 146: SSPEN = 1;
  5417  08A8  0024               	movlb	4	; select bank4
  5418  08A9  1695               	bsf	21,5	;volatile
  5419                           
  5420                           ;lighting.c: 149: leds_off();
  5421  08AA  3197  2759         	fcall	_leds_off
  5422  08AC  0008               	return
  5423  08AD                     __end_of_init_leds:	
  5424                           
  5425                           	psect	text4
  5426  1078                     __ptext4:	
  5427 ;; *************** function _init_isr *****************
  5428 ;; Defined at:
  5429 ;;		line 19 in file "../../source/interrupt.c"
  5430 ;; Parameters:    Size  Location     Type
  5431 ;;		None
  5432 ;; Auto vars:     Size  Location     Type
  5433 ;;		None
  5434 ;; Return value:  Size  Location     Type
  5435 ;;		None               void
  5436 ;; Registers used:
  5437 ;;		wreg, status,2
  5438 ;; Tracked objects:
  5439 ;;		On entry : 0/0
  5440 ;;		On exit  : 0/0
  5441 ;;		Unchanged: 0/0
  5442 ;; Data sizes:     COMMON   BANK0   BANK1   BANK2   BANK3   BANK4   BANK5   BANK6   BANK7   BANK8   BANK9  BANK10  BANK1
      +1  BANK12  BANK13  BANK14  BANK15  BANK16  BANK17  BANK18  BANK19  BANK20  BANK21  BANK22  BANK23  BANK24  BANK25
  5443 ;;      Params:         0       0       0       0       0       0       0       0       0       0       0       0       
      +0       0       0       0       0       0       0       0       0       0       0       0       0       0       0
  5444 ;;      Locals:         0       0       0       0       0       0       0       0       0       0       0       0       
      +0       0       0       0       0       0       0       0       0       0       0       0       0       0       0
  5445 ;;      Temps:          0       0       0       0       0       0       0       0       0       0       0       0       
      +0       0       0       0       0       0       0       0       0       0       0       0       0       0       0
  5446 ;;      Totals:         0       0       0       0       0       0       0       0       0       0       0       0       
      +0       0       0       0       0       0       0       0       0       0       0       0       0       0       0
  5447 ;;Total ram usage:        0 bytes
  5448 ;; Hardware stack levels used:    1
  5449 ;; Hardware stack levels required when called:    4
  5450 ;; This function calls:
  5451 ;;		Nothing
  5452 ;; This function is called by:
  5453 ;;		_main
  5454 ;; This function uses a non-reentrant model
  5455 ;;
  5456                           
  5457                           
  5458                           ;psect for function _init_isr
  5459  1078                     _init_isr:	
  5460                           
  5461                           ;interrupt.c: 21: INTCON = 0b11011000;
  5462                           
  5463                           ;incstack = 0
  5464                           ; Regs used in _init_isr: [wreg+status,2]
  5465  1078  30D8               	movlw	216
  5466  1079  008B               	movwf	11	;volatile
  5467                           
  5468                           ;interrupt.c: 24: IOCAP = IOCAP | 0b00010010;
  5469  107A  0027               	movlb	7	; select bank7
  5470  107B  0811               	movf	17,w	;volatile
  5471  107C  3812               	iorlw	18
  5472  107D  0091               	movwf	17	;volatile
  5473                           
  5474                           ;interrupt.c: 27: IOCAN = IOCAN | 0b00010000;
  5475  107E  0812               	movf	18,w	;volatile
  5476  107F  3810               	iorlw	16
  5477  1080  0092               	movwf	18	;volatile
  5478                           
  5479                           ;interrupt.c: 31: T1CON = 0b00110001;
  5480  1081  3031               	movlw	49
  5481  1082  0020               	movlb	0	; select bank0
  5482  1083  0098               	movwf	24	;volatile
  5483                           
  5484                           ;interrupt.c: 34: TRISA |= 0b00010000;
  5485  1084  0021               	movlb	1	; select bank1
  5486  1085  160C               	bsf	12,4	;volatile
  5487  1086  0008               	return
  5488  1087                     __end_of_init_isr:	
  5489                           
  5490                           	psect	text5
  5491  10DD                     __ptext5:	
  5492 ;; *************** function _init_ir *****************
  5493 ;; Defined at:
  5494 ;;		line 3 in file "../../source/ir.c"
  5495 ;; Parameters:    Size  Location     Type
  5496 ;;		None
  5497 ;; Auto vars:     Size  Location     Type
  5498 ;;		None
  5499 ;; Return value:  Size  Location     Type
  5500 ;;		None               void
  5501 ;; Registers used:
  5502 ;;		wreg, status,2, status,0
  5503 ;; Tracked objects:
  5504 ;;		On entry : 0/0
  5505 ;;		On exit  : 0/0
  5506 ;;		Unchanged: 0/0
  5507 ;; Data sizes:     COMMON   BANK0   BANK1   BANK2   BANK3   BANK4   BANK5   BANK6   BANK7   BANK8   BANK9  BANK10  BANK1
      +1  BANK12  BANK13  BANK14  BANK15  BANK16  BANK17  BANK18  BANK19  BANK20  BANK21  BANK22  BANK23  BANK24  BANK25
  5508 ;;      Params:         0       0       0       0       0       0       0       0       0       0       0       0       
      +0       0       0       0       0       0       0       0       0       0       0       0       0       0       0
  5509 ;;      Locals:         0       0       0       0       0       0       0       0       0       0       0       0       
      +0       0       0       0       0       0       0       0       0       0       0       0       0       0       0
  5510 ;;      Temps:          0       1       0       0       0       0       0       0       0       0       0       0       
      +0       0       0       0       0       0       0       0       0       0       0       0       0       0       0
  5511 ;;      Totals:         0       1       0       0       0       0       0       0       0       0       0       0       
      +0       0       0       0       0       0       0       0       0       0       0       0       0       0       0
  5512 ;;Total ram usage:        1 bytes
  5513 ;; Hardware stack levels used:    1
  5514 ;; Hardware stack levels required when called:    4
  5515 ;; This function calls:
  5516 ;;		Nothing
  5517 ;; This function is called by:
  5518 ;;		_main
  5519 ;; This function uses a non-reentrant model
  5520 ;;
  5521                           
  5522                           
  5523                           ;psect for function _init_ir
  5524  10DD                     _init_ir:	
  5525                           
  5526                           ;ir.c: 5: TRISC &= 0b11110111;
  5527                           
  5528                           ;incstack = 0
  5529                           ; Regs used in _init_ir: [wreg+status,2+status,0]
  5530  10DD  30F7               	movlw	247
  5531  10DE  0020               	movlb	0	; select bank0
  5532  10DF  00C0               	movwf	??_init_ir
  5533  10E0  0840               	movf	??_init_ir,w
  5534  10E1  0021               	movlb	1	; select bank1
  5535  10E2  058E               	andwf	14,f	;volatile
  5536                           
  5537                           ;ir.c: 7: PSMC1CON = 0x00;
  5538  10E3  003D               	movlb	29	; select bank29
  5539  10E4  0191               	clrf	17	;volatile
  5540                           
  5541                           ;ir.c: 8: PSMC1MDL = 0x80;
  5542  10E5  3080               	movlw	128
  5543  10E6  0092               	movwf	18	;volatile
  5544                           
  5545                           ;ir.c: 9: PSMC1SYNC = 0x00;
  5546  10E7  0193               	clrf	19	;volatile
  5547                           
  5548                           ;ir.c: 10: PSMC1CLK = 0x00;
  5549  10E8  0194               	clrf	20	;volatile
  5550                           
  5551                           ;ir.c: 11: PSMC1POL = 0x00;
  5552  10E9  0196               	clrf	22	;volatile
  5553                           
  5554                           ;ir.c: 12: PSMC1BLNK = 0x00;
  5555  10EA  0197               	clrf	23	;volatile
  5556                           
  5557                           ;ir.c: 13: PSMC1REBS = 0x00;
  5558  10EB  0198               	clrf	24	;volatile
  5559                           
  5560                           ;ir.c: 14: PSMC1FEBS = 0x00;
  5561  10EC  0199               	clrf	25	;volatile
  5562                           
  5563                           ;ir.c: 15: PSMC1PHS = 0x01;
  5564  10ED  3001               	movlw	1
  5565  10EE  009A               	movwf	26	;volatile
  5566                           
  5567                           ;ir.c: 16: PSMC1DCS = 0x01;
  5568  10EF  3001               	movlw	1
  5569  10F0  009B               	movwf	27	;volatile
  5570                           
  5571                           ;ir.c: 17: PSMC1PRS = 0x01;
  5572  10F1  3001               	movlw	1
  5573  10F2  009C               	movwf	28	;volatile
  5574                           
  5575                           ;ir.c: 18: PSMC1ASDC = 0x00;
  5576  10F3  019D               	clrf	29	;volatile
  5577                           
  5578                           ;ir.c: 19: PSMC1ASDL = 0x08;
  5579  10F4  3008               	movlw	8
  5580  10F5  009E               	movwf	30	;volatile
  5581                           
  5582                           ;ir.c: 20: PSMC1ASDS = 0x00;
  5583  10F6  019F               	clrf	31	;volatile
  5584                           
  5585                           ;ir.c: 21: PSMC1PHH = 0x00;
  5586  10F7  01A2               	clrf	34	;volatile
  5587                           
  5588                           ;ir.c: 22: PSMC1PHL = 0x00;
  5589  10F8  01A1               	clrf	33	;volatile
  5590                           
  5591                           ;ir.c: 23: PSMC1DCH = 0x01;
  5592  10F9  3001               	movlw	1
  5593  10FA  00A4               	movwf	36	;volatile
  5594                           
  5595                           ;ir.c: 24: PSMC1DCL = 0x6A;
  5596  10FB  306A               	movlw	106
  5597  10FC  00A3               	movwf	35	;volatile
  5598                           
  5599                           ;ir.c: 25: PSMC1PRH = 0x02;
  5600  10FD  3002               	movlw	2
  5601  10FE  00A6               	movwf	38	;volatile
  5602                           
  5603                           ;ir.c: 26: PSMC1PRL = 0x3A;
  5604  10FF  303A               	movlw	58
  5605  1100  00A5               	movwf	37	;volatile
  5606                           
  5607                           ;ir.c: 27: PSMC1DBR = 0x00;
  5608  1101  01A9               	clrf	41	;volatile
  5609                           
  5610                           ;ir.c: 28: PSMC1DBF = 0x00;
  5611  1102  01AA               	clrf	42	;volatile
  5612                           
  5613                           ;ir.c: 29: PSMC1FFA = 0x00;
  5614  1103  01AD               	clrf	45	;volatile
  5615                           
  5616                           ;ir.c: 30: PSMC1BLKR = 0x00;
  5617  1104  01AB               	clrf	43	;volatile
  5618                           
  5619                           ;ir.c: 31: PSMC1BLKF = 0x00;
  5620  1105  01AC               	clrf	44	;volatile
  5621                           
  5622                           ;ir.c: 32: PSMC1STR0 = 0x08;
  5623  1106  3008               	movlw	8
  5624  1107  00AE               	movwf	46	;volatile
  5625                           
  5626                           ;ir.c: 33: PSMC1STR1 = 0x00;
  5627  1108  01AF               	clrf	47	;volatile
  5628                           
  5629                           ;ir.c: 34: PSMC1INT = 0x00;
  5630  1109  01A0               	clrf	32	;volatile
  5631                           
  5632                           ;ir.c: 35: PSMC1OEN = 0x08;
  5633  110A  3008               	movlw	8
  5634  110B  0095               	movwf	21	;volatile
  5635                           
  5636                           ;ir.c: 36: PSMC1CON = 0x80;
  5637  110C  3080               	movlw	128
  5638  110D  0091               	movwf	17	;volatile
  5639                           
  5640                           ;ir.c: 37: PIE4 &= 0xEE;
  5641  110E  30EE               	movlw	238
  5642  110F  0020               	movlb	0	; select bank0
  5643  1110  00C0               	movwf	??_init_ir
  5644  1111  0840               	movf	??_init_ir,w
  5645  1112  0021               	movlb	1	; select bank1
  5646  1113  0594               	andwf	20,f	;volatile
  5647                           
  5648                           ;ir.c: 38: PIE4 |= 0x00;
  5649  1114  0814               	movf	20,w	;volatile
  5650  1115  0008               	return
  5651  1116                     __end_of_init_ir:	
  5652                           
  5653                           	psect	text6
  5654  0800                     __ptext6:	
  5655 ;; *************** function _init_conn *****************
  5656 ;; Defined at:
  5657 ;;		line 3 in file "../../source/blade_connection.c"
  5658 ;; Parameters:    Size  Location     Type
  5659 ;;		None
  5660 ;; Auto vars:     Size  Location     Type
  5661 ;;		None
  5662 ;; Return value:  Size  Location     Type
  5663 ;;		None               void
  5664 ;; Registers used:
  5665 ;;		None
  5666 ;; Tracked objects:
  5667 ;;		On entry : 0/0
  5668 ;;		On exit  : 0/0
  5669 ;;		Unchanged: 0/0
  5670 ;; Data sizes:     COMMON   BANK0   BANK1   BANK2   BANK3   BANK4   BANK5   BANK6   BANK7   BANK8   BANK9  BANK10  BANK1
      +1  BANK12  BANK13  BANK14  BANK15  BANK16  BANK17  BANK18  BANK19  BANK20  BANK21  BANK22  BANK23  BANK24  BANK25
  5671 ;;      Params:         0       0       0       0       0       0       0       0       0       0       0       0       
      +0       0       0       0       0       0       0       0       0       0       0       0       0       0       0
  5672 ;;      Locals:         0       0       0       0       0       0       0       0       0       0       0       0       
      +0       0       0       0       0       0       0       0       0       0       0       0       0       0       0
  5673 ;;      Temps:          0       0       0       0       0       0       0       0       0       0       0       0       
      +0       0       0       0       0       0       0       0       0       0       0       0       0       0       0
  5674 ;;      Totals:         0       0       0       0       0       0       0       0       0       0       0       0       
      +0       0       0       0       0       0       0       0       0       0       0       0       0       0       0
  5675 ;;Total ram usage:        0 bytes
  5676 ;; Hardware stack levels used:    1
  5677 ;; Hardware stack levels required when called:    4
  5678 ;; This function calls:
  5679 ;;		Nothing
  5680 ;; This function is called by:
  5681 ;;		_main
  5682 ;; This function uses a non-reentrant model
  5683 ;;
  5684                           
  5685                           
  5686                           ;psect for function _init_conn
  5687  0800                     _init_conn:	
  5688                           
  5689                           ;blade_connection.c: 6: TRISA |= 0b00000010;
  5690                           
  5691                           ;incstack = 0
  5692                           ; Regs used in _init_conn: []
  5693  0800  0021               	movlb	1	; select bank1
  5694  0801  148C               	bsf	12,1	;volatile
  5695  0802  0008               	return
  5696  0803                     __end_of_init_conn:	
  5697                           
  5698                           	psect	text7
  5699  106C                     __ptext7:	
  5700 ;; *************** function _init_accel *****************
  5701 ;; Defined at:
  5702 ;;		line 3 in file "../../source/accelerometer.c"
  5703 ;; Parameters:    Size  Location     Type
  5704 ;;		None
  5705 ;; Auto vars:     Size  Location     Type
  5706 ;;		None
  5707 ;; Return value:  Size  Location     Type
  5708 ;;		None               void
  5709 ;; Registers used:
  5710 ;;		wreg
  5711 ;; Tracked objects:
  5712 ;;		On entry : 0/0
  5713 ;;		On exit  : 0/0
  5714 ;;		Unchanged: 0/0
  5715 ;; Data sizes:     COMMON   BANK0   BANK1   BANK2   BANK3   BANK4   BANK5   BANK6   BANK7   BANK8   BANK9  BANK10  BANK1
      +1  BANK12  BANK13  BANK14  BANK15  BANK16  BANK17  BANK18  BANK19  BANK20  BANK21  BANK22  BANK23  BANK24  BANK25
  5716 ;;      Params:         0       0       0       0       0       0       0       0       0       0       0       0       
      +0       0       0       0       0       0       0       0       0       0       0       0       0       0       0
  5717 ;;      Locals:         0       0       0       0       0       0       0       0       0       0       0       0       
      +0       0       0       0       0       0       0       0       0       0       0       0       0       0       0
  5718 ;;      Temps:          0       0       0       0       0       0       0       0       0       0       0       0       
      +0       0       0       0       0       0       0       0       0       0       0       0       0       0       0
  5719 ;;      Totals:         0       0       0       0       0       0       0       0       0       0       0       0       
      +0       0       0       0       0       0       0       0       0       0       0       0       0       0       0
  5720 ;;Total ram usage:        0 bytes
  5721 ;; Hardware stack levels used:    1
  5722 ;; Hardware stack levels required when called:    4
  5723 ;; This function calls:
  5724 ;;		Nothing
  5725 ;; This function is called by:
  5726 ;;		_main
  5727 ;; This function uses a non-reentrant model
  5728 ;;
  5729                           
  5730                           
  5731                           ;psect for function _init_accel
  5732  106C                     _init_accel:	
  5733                           
  5734                           ;accelerometer.c: 5: TRISAbits.TRISA2 = 1;
  5735                           
  5736                           ;incstack = 0
  5737                           ; Regs used in _init_accel: [wreg]
  5738  106C  0021               	movlb	1	; select bank1
  5739  106D  150C               	bsf	12,2	;volatile
  5740                           
  5741                           ;accelerometer.c: 6: TRISAbits.TRISA3 = 1;
  5742  106E  158C               	bsf	12,3	;volatile
  5743                           
  5744                           ;accelerometer.c: 7: ANSELAbits.ANSA2 = 1;
  5745  106F  0023               	movlb	3	; select bank3
  5746  1070  150C               	bsf	12,2	;volatile
  5747                           
  5748                           ;accelerometer.c: 8: ANSELAbits.ANSA3 = 1;
  5749  1071  158C               	bsf	12,3	;volatile
  5750                           
  5751                           ;accelerometer.c: 9: ADCON1 = 0b11110000;
  5752  1072  30F0               	movlw	240
  5753  1073  0021               	movlb	1	; select bank1
  5754  1074  009E               	movwf	30	;volatile
  5755                           
  5756                           ;accelerometer.c: 10: ADCON2 = 0b00001111;
  5757  1075  300F               	movlw	15
  5758  1076  009F               	movwf	31	;volatile
  5759  1077  0008               	return
  5760  1078                     __end_of_init_accel:	
  5761                           
  5762                           	psect	text8
  5763  1322                     __ptext8:	
  5764 ;; *************** function _display_health *****************
  5765 ;; Defined at:
  5766 ;;		line 152 in file "../../source/lighting.c"
  5767 ;; Parameters:    Size  Location     Type
  5768 ;;		None
  5769 ;; Auto vars:     Size  Location     Type
  5770 ;;		None
  5771 ;; Return value:  Size  Location     Type
  5772 ;;		None               void
  5773 ;; Registers used:
  5774 ;;		wreg, status,2, status,0
  5775 ;; Tracked objects:
  5776 ;;		On entry : 0/0
  5777 ;;		On exit  : 0/0
  5778 ;;		Unchanged: 0/0
  5779 ;; Data sizes:     COMMON   BANK0   BANK1   BANK2   BANK3   BANK4   BANK5   BANK6   BANK7   BANK8   BANK9  BANK10  BANK1
      +1  BANK12  BANK13  BANK14  BANK15  BANK16  BANK17  BANK18  BANK19  BANK20  BANK21  BANK22  BANK23  BANK24  BANK25
  5780 ;;      Params:         0       0       0       0       0       0       0       0       0       0       0       0       
      +0       0       0       0       0       0       0       0       0       0       0       0       0       0       0
  5781 ;;      Locals:         0       0       0       0       0       0       0       0       0       0       0       0       
      +0       0       0       0       0       0       0       0       0       0       0       0       0       0       0
  5782 ;;      Temps:          0       3       0       0       0       0       0       0       0       0       0       0       
      +0       0       0       0       0       0       0       0       0       0       0       0       0       0       0
  5783 ;;      Totals:         0       3       0       0       0       0       0       0       0       0       0       0       
      +0       0       0       0       0       0       0       0       0       0       0       0       0       0       0
  5784 ;;Total ram usage:        3 bytes
  5785 ;; Hardware stack levels used:    1
  5786 ;; Hardware stack levels required when called:    4
  5787 ;; This function calls:
  5788 ;;		Nothing
  5789 ;; This function is called by:
  5790 ;;		_main
  5791 ;; This function uses a non-reentrant model
  5792 ;;
  5793                           
  5794                           
  5795                           ;psect for function _display_health
  5796  1322                     _display_health:	
  5797  1322                     l3661:	
  5798                           ;lighting.c: 154: while(health == 0)
  5799                           
  5800                           ;incstack = 0
  5801                           ; Regs used in _display_health: [wreg+status,2+status,0]
  5802                           
  5803  1322  0021               	movlb	1	; select bank1
  5804  1323  0845               	movf	_health^(0+128),w
  5805  1324  1D03               	btfss	3,2
  5806  1325  2B6D               	goto	l3663
  5807                           
  5808                           ;lighting.c: 155: {
  5809                           ;lighting.c: 158: PSMC2DCH = 0xFF;
  5810  1326  30FF               	movlw	255
  5811  1327  003D               	movlb	29	; select bank29
  5812  1328  00C4               	movwf	68	;volatile
  5813                           
  5814                           ;lighting.c: 159: PSMC2DCL = 0xFF;
  5815  1329  30FF               	movlw	255
  5816  132A  00C3               	movwf	67	;volatile
  5817                           
  5818                           ;lighting.c: 160: PSMC2LD = 1;
  5819  132B  1731               	bsf	49,6	;volatile
  5820                           
  5821                           ;lighting.c: 162: PSMC3DCH = 0xFF;
  5822  132C  30FF               	movlw	255
  5823  132D  00E4               	movwf	100	;volatile
  5824                           
  5825                           ;lighting.c: 163: PSMC3DCL = 0xFF;
  5826  132E  30FF               	movlw	255
  5827  132F  00E3               	movwf	99	;volatile
  5828                           
  5829                           ;lighting.c: 164: PSMC3LD = 1;
  5830  1330  1751               	bsf	81,6	;volatile
  5831                           
  5832                           ;lighting.c: 166: PSMC4DCH = 0x00;
  5833  1331  003E               	movlb	30	; select bank30
  5834  1332  01A4               	clrf	36	;volatile
  5835                           
  5836                           ;lighting.c: 167: PSMC4DCL = 0x00;
  5837  1333  01A3               	clrf	35	;volatile
  5838                           
  5839                           ;lighting.c: 168: PSMC4LD = 1;
  5840  1334  1711               	bsf	17,6	;volatile
  5841                           
  5842                           ;lighting.c: 170: PSMC2LD = 1;
  5843  1335  003D               	movlb	29	; select bank29
  5844  1336  1731               	bsf	49,6	;volatile
  5845                           
  5846                           ;lighting.c: 171: PSMC3LD = 1;
  5847  1337  1751               	bsf	81,6	;volatile
  5848                           
  5849                           ;lighting.c: 172: PSMC4LD = 1;
  5850  1338  003E               	movlb	30	; select bank30
  5851  1339  1711               	bsf	17,6	;volatile
  5852                           
  5853                           ;lighting.c: 174: _delay((unsigned long)((500)*(32000000/4000.0)));
  5854  133A  3015               	movlw	21
  5855  133B  0020               	movlb	0	; select bank0
  5856  133C  00C2               	movwf	??_display_health+2
  5857  133D  304B               	movlw	75
  5858  133E  00C1               	movwf	??_display_health+1
  5859  133F  30D1               	movlw	209
  5860  1340  00C0               	movwf	??_display_health
  5861  1341                     u4977:	
  5862  1341  0BC0               	decfsz	??_display_health,f
  5863  1342  2B41               	goto	u4977
  5864  1343  0BC1               	decfsz	??_display_health+1,f
  5865  1344  2B41               	goto	u4977
  5866  1345  0BC2               	decfsz	??_display_health+2,f
  5867  1346  2B41               	goto	u4977
  5868  1347  0000               	nop
  5869                           
  5870                           ;lighting.c: 178: PSMC2DCH = 0xFF;
  5871  1348  30FF               	movlw	255
  5872  1349  003D               	movlb	29	; select bank29
  5873  134A  00C4               	movwf	68	;volatile
  5874                           
  5875                           ;lighting.c: 179: PSMC2DCL = 0xFF;
  5876  134B  30FF               	movlw	255
  5877  134C  00C3               	movwf	67	;volatile
  5878                           
  5879                           ;lighting.c: 180: PSMC2LD = 1;
  5880  134D  1731               	bsf	49,6	;volatile
  5881                           
  5882                           ;lighting.c: 182: PSMC3DCH = 0xFF;
  5883  134E  30FF               	movlw	255
  5884  134F  00E4               	movwf	100	;volatile
  5885                           
  5886                           ;lighting.c: 183: PSMC3DCL = 0xFF;
  5887  1350  30FF               	movlw	255
  5888  1351  00E3               	movwf	99	;volatile
  5889                           
  5890                           ;lighting.c: 184: PSMC3LD = 1;
  5891  1352  1751               	bsf	81,6	;volatile
  5892                           
  5893                           ;lighting.c: 186: PSMC4DCH = 0xFF;
  5894  1353  30FF               	movlw	255
  5895  1354  003E               	movlb	30	; select bank30
  5896  1355  00A4               	movwf	36	;volatile
  5897                           
  5898                           ;lighting.c: 187: PSMC4DCL = 0xFF;
  5899  1356  30FF               	movlw	255
  5900  1357  00A3               	movwf	35	;volatile
  5901                           
  5902                           ;lighting.c: 188: PSMC4LD = 1;
  5903  1358  1711               	bsf	17,6	;volatile
  5904                           
  5905                           ;lighting.c: 190: PSMC2LD = 1;
  5906  1359  003D               	movlb	29	; select bank29
  5907  135A  1731               	bsf	49,6	;volatile
  5908                           
  5909                           ;lighting.c: 191: PSMC3LD = 1;
  5910  135B  1751               	bsf	81,6	;volatile
  5911                           
  5912                           ;lighting.c: 192: PSMC4LD = 1;
  5913  135C  003E               	movlb	30	; select bank30
  5914  135D  1711               	bsf	17,6	;volatile
  5915                           
  5916                           ;lighting.c: 194: _delay((unsigned long)((500)*(32000000/4000.0)));
  5917  135E  3015               	movlw	21
  5918  135F  0020               	movlb	0	; select bank0
  5919  1360  00C2               	movwf	??_display_health+2
  5920  1361  304B               	movlw	75
  5921  1362  00C1               	movwf	??_display_health+1
  5922  1363  30D1               	movlw	209
  5923  1364  00C0               	movwf	??_display_health
  5924  1365                     u4987:	
  5925  1365  0BC0               	decfsz	??_display_health,f
  5926  1366  2B65               	goto	u4987
  5927  1367  0BC1               	decfsz	??_display_health+1,f
  5928  1368  2B65               	goto	u4987
  5929  1369  0BC2               	decfsz	??_display_health+2,f
  5930  136A  2B65               	goto	u4987
  5931  136B  0000               	nop
  5932  136C  2B22               	goto	l3661
  5933  136D                     l3663:	
  5934                           
  5935                           ;lighting.c: 195: }
  5936                           ;lighting.c: 197: if(health <= 10)
  5937  136D  300B               	movlw	11
  5938  136E  0245               	subwf	_health^(0+128),w
  5939  136F  1803               	skipnc
  5940  1370  2B86               	goto	l3683
  5941                           
  5942                           ;lighting.c: 198: {
  5943                           ;lighting.c: 201: PSMC2DCH = 0xFF;
  5944  1371  30FF               	movlw	255
  5945  1372  003D               	movlb	29	; select bank29
  5946  1373  00C4               	movwf	68	;volatile
  5947                           
  5948                           ;lighting.c: 202: PSMC2DCL = 0xFF;
  5949  1374  30FF               	movlw	255
  5950  1375  00C3               	movwf	67	;volatile
  5951                           
  5952                           ;lighting.c: 203: PSMC2LD = 1;
  5953  1376  1731               	bsf	49,6	;volatile
  5954                           
  5955                           ;lighting.c: 205: PSMC3DCH = 0xFF;
  5956  1377  30FF               	movlw	255
  5957  1378  00E4               	movwf	100	;volatile
  5958                           
  5959                           ;lighting.c: 206: PSMC3DCL = 0xFF;
  5960  1379  30FF               	movlw	255
  5961  137A  00E3               	movwf	99	;volatile
  5962                           
  5963                           ;lighting.c: 207: PSMC3LD = 1;
  5964  137B  1751               	bsf	81,6	;volatile
  5965                           
  5966                           ;lighting.c: 209: PSMC4DCH = 0x00;
  5967  137C  003E               	movlb	30	; select bank30
  5968  137D  01A4               	clrf	36	;volatile
  5969                           
  5970                           ;lighting.c: 210: PSMC4DCL = 0x00;
  5971  137E  01A3               	clrf	35	;volatile
  5972                           
  5973                           ;lighting.c: 211: PSMC4LD = 1;
  5974  137F  1711               	bsf	17,6	;volatile
  5975                           
  5976                           ;lighting.c: 213: PSMC2LD = 1;
  5977  1380  003D               	movlb	29	; select bank29
  5978  1381  1731               	bsf	49,6	;volatile
  5979                           
  5980                           ;lighting.c: 214: PSMC3LD = 1;
  5981  1382  1751               	bsf	81,6	;volatile
  5982                           
  5983                           ;lighting.c: 215: PSMC4LD = 1;
  5984  1383  003E               	movlb	30	; select bank30
  5985  1384  1711               	bsf	17,6	;volatile
  5986                           
  5987                           ;lighting.c: 216: }
  5988  1385  0008               	return
  5989  1386                     l3683:	
  5990                           
  5991                           ;lighting.c: 217: else if(10 < health && health < 35)
  5992  1386  300B               	movlw	11
  5993  1387  0021               	movlb	1	; select bank1
  5994  1388  0245               	subwf	_health^(0+128),w
  5995  1389  1C03               	skipc
  5996  138A  2BA3               	goto	l3707
  5997  138B  3023               	movlw	35
  5998  138C  0245               	subwf	_health^(0+128),w
  5999  138D  1803               	skipnc
  6000  138E  2BA3               	goto	l3707
  6001                           
  6002                           ;lighting.c: 218: {
  6003                           ;lighting.c: 221: PSMC2DCH = 0x00;
  6004  138F  003D               	movlb	29	; select bank29
  6005  1390  01C4               	clrf	68	;volatile
  6006                           
  6007                           ;lighting.c: 222: PSMC2DCL = 0x00;
  6008  1391  01C3               	clrf	67	;volatile
  6009                           
  6010                           ;lighting.c: 223: PSMC2LD = 1;
  6011  1392  1731               	bsf	49,6	;volatile
  6012                           
  6013                           ;lighting.c: 225: PSMC3DCH = 0xFF;
  6014  1393  30FF               	movlw	255
  6015  1394  00E4               	movwf	100	;volatile
  6016                           
  6017                           ;lighting.c: 226: PSMC3DCL = 0xFF;
  6018  1395  30FF               	movlw	255
  6019  1396  00E3               	movwf	99	;volatile
  6020                           
  6021                           ;lighting.c: 227: PSMC3LD = 1;
  6022  1397  1751               	bsf	81,6	;volatile
  6023                           
  6024                           ;lighting.c: 229: PSMC4DCH = 0x00;
  6025  1398  003E               	movlb	30	; select bank30
  6026  1399  01A4               	clrf	36	;volatile
  6027                           
  6028                           ;lighting.c: 230: PSMC4DCL = 0xFF;
  6029  139A  30FF               	movlw	255
  6030  139B  00A3               	movwf	35	;volatile
  6031                           
  6032                           ;lighting.c: 231: PSMC4LD = 1;
  6033  139C  1711               	bsf	17,6	;volatile
  6034                           
  6035                           ;lighting.c: 233: PSMC2LD = 1;
  6036  139D  003D               	movlb	29	; select bank29
  6037  139E  1731               	bsf	49,6	;volatile
  6038                           
  6039                           ;lighting.c: 234: PSMC3LD = 1;
  6040  139F  1751               	bsf	81,6	;volatile
  6041                           
  6042                           ;lighting.c: 235: PSMC4LD = 1;
  6043  13A0  003E               	movlb	30	; select bank30
  6044  13A1  1711               	bsf	17,6	;volatile
  6045                           
  6046                           ;lighting.c: 236: }
  6047  13A2  0008               	return
  6048  13A3                     l3707:	
  6049                           
  6050                           ;lighting.c: 237: else
  6051                           ;lighting.c: 238: {
  6052                           ;lighting.c: 241: PSMC2DCH = 0x00;
  6053  13A3  003D               	movlb	29	; select bank29
  6054  13A4  01C4               	clrf	68	;volatile
  6055                           
  6056                           ;lighting.c: 242: PSMC2DCL = 0x00;
  6057  13A5  01C3               	clrf	67	;volatile
  6058                           
  6059                           ;lighting.c: 243: PSMC2LD = 1;
  6060  13A6  1731               	bsf	49,6	;volatile
  6061                           
  6062                           ;lighting.c: 245: PSMC3DCH = 0xFF;
  6063  13A7  30FF               	movlw	255
  6064  13A8  00E4               	movwf	100	;volatile
  6065                           
  6066                           ;lighting.c: 246: PSMC3DCL = 0xFF;
  6067  13A9  30FF               	movlw	255
  6068  13AA  00E3               	movwf	99	;volatile
  6069                           
  6070                           ;lighting.c: 247: PSMC3LD = 1;
  6071  13AB  1751               	bsf	81,6	;volatile
  6072                           
  6073                           ;lighting.c: 249: PSMC4DCH = 0xFF;
  6074  13AC  30FF               	movlw	255
  6075  13AD  003E               	movlb	30	; select bank30
  6076  13AE  00A4               	movwf	36	;volatile
  6077                           
  6078                           ;lighting.c: 250: PSMC4DCL = 0xFF;
  6079  13AF  30FF               	movlw	255
  6080  13B0  00A3               	movwf	35	;volatile
  6081                           
  6082                           ;lighting.c: 251: PSMC4LD = 1;
  6083  13B1  1711               	bsf	17,6	;volatile
  6084                           
  6085                           ;lighting.c: 253: PSMC2LD = 1;
  6086  13B2  003D               	movlb	29	; select bank29
  6087  13B3  1731               	bsf	49,6	;volatile
  6088                           
  6089                           ;lighting.c: 254: PSMC3LD = 1;
  6090  13B4  1751               	bsf	81,6	;volatile
  6091                           
  6092                           ;lighting.c: 255: PSMC4LD = 1;
  6093  13B5  003E               	movlb	30	; select bank30
  6094  13B6  1711               	bsf	17,6	;volatile
  6095  13B7  0008               	return
  6096  13B8                     __end_of_display_health:	
  6097                           
  6098                           	psect	text9
  6099  018A                     __ptext9:	
  6100 ;; *************** function _display_blade_lights *****************
  6101 ;; Defined at:
  6102 ;;		line 259 in file "../../source/lighting.c"
  6103 ;; Parameters:    Size  Location     Type
  6104 ;;  mode            1    wreg     unsigned char 
  6105 ;; Auto vars:     Size  Location     Type
  6106 ;;  mode            1   18[BANK1 ] unsigned char 
  6107 ;;  i               2   14[BANK1 ] int 
  6108 ;;  i               2   12[BANK1 ] int 
  6109 ;;  i               2   10[BANK1 ] int 
  6110 ;;  i               2    8[BANK1 ] int 
  6111 ;;  i               1   17[BANK1 ] unsigned char 
  6112 ;;  r               1   24[BANK1 ] unsigned char 
  6113 ;;  r               1   23[BANK1 ] unsigned char 
  6114 ;;  i               1   16[BANK1 ] unsigned char 
  6115 ;;  blue            1   22[BANK1 ] unsigned char 
  6116 ;;  green           1   21[BANK1 ] unsigned char 
  6117 ;;  red             1   20[BANK1 ] unsigned char 
  6118 ;;  brightness      1   19[BANK1 ] unsigned char 
  6119 ;; Return value:  Size  Location     Type
  6120 ;;		None               void
  6121 ;; Registers used:
  6122 ;;		wreg, status,2, status,0, pclath, cstack
  6123 ;; Tracked objects:
  6124 ;;		On entry : 0/0
  6125 ;;		On exit  : 0/0
  6126 ;;		Unchanged: 0/0
  6127 ;; Data sizes:     COMMON   BANK0   BANK1   BANK2   BANK3   BANK4   BANK5   BANK6   BANK7   BANK8   BANK9  BANK10  BANK1
      +1  BANK12  BANK13  BANK14  BANK15  BANK16  BANK17  BANK18  BANK19  BANK20  BANK21  BANK22  BANK23  BANK24  BANK25
  6128 ;;      Params:         0       0       0       0       0       0       0       0       0       0       0       0       
      +0       0       0       0       0       0       0       0       0       0       0       0       0       0       0
  6129 ;;      Locals:         0       0      17       0       0       0       0       0       0       0       0       0       
      +0       0       0       0       0       0       0       0       0       0       0       0       0       0       0
  6130 ;;      Temps:          0       0       3       0       0       0       0       0       0       0       0       0       
      +0       0       0       0       0       0       0       0       0       0       0       0       0       0       0
  6131 ;;      Totals:         0       0      20       0       0       0       0       0       0       0       0       0       
      +0       0       0       0       0       0       0       0       0       0       0       0       0       0       0
  6132 ;;Total ram usage:       20 bytes
  6133 ;; Hardware stack levels used:    1
  6134 ;; Hardware stack levels required when called:    6
  6135 ;; This function calls:
  6136 ;;		_led1_command
  6137 ;;		_led2_command
  6138 ;;		_led3_command
  6139 ;;		_led4_command
  6140 ;;		_led5_command
  6141 ;;		_leds_off
  6142 ;;		_writespi
  6143 ;; This function is called by:
  6144 ;;		_main
  6145 ;; This function uses a non-reentrant model
  6146 ;;
  6147                           
  6148                           
  6149                           ;psect for function _display_blade_lights
  6150  018A                     _display_blade_lights:	
  6151                           
  6152                           ;incstack = 0
  6153                           ; Regs used in _display_blade_lights: [wreg+status,2+status,0+pclath+cstack]
  6154                           ;display_blade_lights@mode stored from wreg
  6155  018A  0021               	movlb	1	; select bank1
  6156  018B  00B2               	movwf	display_blade_lights@mode^(0+128)
  6157                           
  6158                           ;lighting.c: 261: unsigned char red = 0;
  6159  018C  01B4               	clrf	display_blade_lights@red^(0+128)
  6160                           
  6161                           ;lighting.c: 262: unsigned char green = 0;
  6162  018D  01B5               	clrf	display_blade_lights@green^(0+128)
  6163                           
  6164                           ;lighting.c: 263: unsigned char blue = 0;
  6165  018E  01B6               	clrf	display_blade_lights@blue^(0+128)
  6166                           
  6167                           ;lighting.c: 264: unsigned char brightness = 0xFF;
  6168  018F  30FF               	movlw	255
  6169  0190  00A5               	movwf	??_display_blade_lights^(0+128)
  6170  0191  0825               	movf	??_display_blade_lights^(0+128),w
  6171  0192  00B3               	movwf	display_blade_lights@brightness^(0+128)
  6172                           
  6173                           ;lighting.c: 275: red = 0x00;
  6174  0193  01B4               	clrf	display_blade_lights@red^(0+128)
  6175                           
  6176                           ;lighting.c: 276: green = 0x00;
  6177  0194  01B5               	clrf	display_blade_lights@green^(0+128)
  6178                           
  6179                           ;lighting.c: 277: blue = 0xFF;
  6180  0195  30FF               	movlw	255
  6181  0196  00A5               	movwf	??_display_blade_lights^(0+128)
  6182  0197  0825               	movf	??_display_blade_lights^(0+128),w
  6183  0198  00B6               	movwf	display_blade_lights@blue^(0+128)
  6184                           
  6185                           ;lighting.c: 284: if( (mode == 0)
  6186                           ;lighting.c: 285: || (mode == 1) )
  6187  0199  0832               	movf	display_blade_lights@mode^(0+128),w
  6188  019A  1D03               	btfss	3,2
  6189  019B  0332               	decf	display_blade_lights@mode^(0+128),w
  6190  019C  1D03               	btfss	3,2
  6191  019D  2A97               	goto	l5071
  6192                           
  6193                           ;lighting.c: 286: {
  6194                           ;lighting.c: 288: led1_command(brightness, red, green, blue);
  6195  019E  0834               	movf	display_blade_lights@red^(0+128),w
  6196  019F  00A5               	movwf	??_display_blade_lights^(0+128)
  6197  01A0  0825               	movf	??_display_blade_lights^(0+128),w
  6198  01A1  0020               	movlb	0	; select bank0
  6199  01A2  00C3               	movwf	led1_command@red
  6200  01A3  0021               	movlb	1	; select bank1
  6201  01A4  0835               	movf	display_blade_lights@green^(0+128),w
  6202  01A5  00A6               	movwf	(??_display_blade_lights+1)^(0+128)
  6203  01A6  0826               	movf	(??_display_blade_lights+1)^(0+128),w
  6204  01A7  0020               	movlb	0	; select bank0
  6205  01A8  00C4               	movwf	led1_command@green
  6206  01A9  0021               	movlb	1	; select bank1
  6207  01AA  0836               	movf	display_blade_lights@blue^(0+128),w
  6208  01AB  00A7               	movwf	(??_display_blade_lights+2)^(0+128)
  6209  01AC  0827               	movf	(??_display_blade_lights+2)^(0+128),w
  6210  01AD  0020               	movlb	0	; select bank0
  6211  01AE  00C5               	movwf	led1_command@blue
  6212  01AF  0021               	movlb	1	; select bank1
  6213  01B0  0833               	movf	display_blade_lights@brightness^(0+128),w
  6214  01B1  3188  20AD  3181   	fcall	_led1_command
  6215                           
  6216                           ;lighting.c: 289: _delay((unsigned long)((50)*(32000000/4000.0)));
  6217  01B4  3003               	movlw	3
  6218  01B5  0021               	movlb	1	; select bank1
  6219  01B6  00A7               	movwf	(??_display_blade_lights^(0+128)+2)
  6220  01B7  3008               	movlw	8
  6221  01B8  00A6               	movwf	(??_display_blade_lights^(0+128)+1)
  6222  01B9  3078               	movlw	120
  6223  01BA  00A5               	movwf	??_display_blade_lights^(0+128)
  6224  01BB                     u4997:	
  6225  01BB  0BA5               	decfsz	??_display_blade_lights^(0+128),f
  6226  01BC  29BB               	goto	u4997
  6227  01BD  0BA6               	decfsz	(??_display_blade_lights^(0+128)+1),f
  6228  01BE  29BB               	goto	u4997
  6229  01BF  0BA7               	decfsz	(??_display_blade_lights^(0+128)+2),f
  6230  01C0  29BB               	goto	u4997
  6231                           
  6232                           ;lighting.c: 291: led2_command(brightness, red, green, blue);
  6233  01C1  0021               	movlb	1	; select bank1
  6234  01C2  0834               	movf	display_blade_lights@red^(0+128),w
  6235  01C3  00A5               	movwf	??_display_blade_lights^(0+128)
  6236  01C4  0825               	movf	??_display_blade_lights^(0+128),w
  6237  01C5  0020               	movlb	0	; select bank0
  6238  01C6  00C3               	movwf	led2_command@red
  6239  01C7  0021               	movlb	1	; select bank1
  6240  01C8  0835               	movf	display_blade_lights@green^(0+128),w
  6241  01C9  00A6               	movwf	(??_display_blade_lights+1)^(0+128)
  6242  01CA  0826               	movf	(??_display_blade_lights+1)^(0+128),w
  6243  01CB  0020               	movlb	0	; select bank0
  6244  01CC  00C4               	movwf	led2_command@green
  6245  01CD  0021               	movlb	1	; select bank1
  6246  01CE  0836               	movf	display_blade_lights@blue^(0+128),w
  6247  01CF  00A7               	movwf	(??_display_blade_lights+2)^(0+128)
  6248  01D0  0827               	movf	(??_display_blade_lights+2)^(0+128),w
  6249  01D1  0020               	movlb	0	; select bank0
  6250  01D2  00C5               	movwf	led2_command@blue
  6251  01D3  0021               	movlb	1	; select bank1
  6252  01D4  0833               	movf	display_blade_lights@brightness^(0+128),w
  6253  01D5  3189  2159  3181   	fcall	_led2_command
  6254                           
  6255                           ;lighting.c: 292: _delay((unsigned long)((50)*(32000000/4000.0)));
  6256  01D8  3003               	movlw	3
  6257  01D9  0021               	movlb	1	; select bank1
  6258  01DA  00A7               	movwf	(??_display_blade_lights^(0+128)+2)
  6259  01DB  3008               	movlw	8
  6260  01DC  00A6               	movwf	(??_display_blade_lights^(0+128)+1)
  6261  01DD  3078               	movlw	120
  6262  01DE  00A5               	movwf	??_display_blade_lights^(0+128)
  6263  01DF                     u5007:	
  6264  01DF  0BA5               	decfsz	??_display_blade_lights^(0+128),f
  6265  01E0  29DF               	goto	u5007
  6266  01E1  0BA6               	decfsz	(??_display_blade_lights^(0+128)+1),f
  6267  01E2  29DF               	goto	u5007
  6268  01E3  0BA7               	decfsz	(??_display_blade_lights^(0+128)+2),f
  6269  01E4  29DF               	goto	u5007
  6270                           
  6271                           ;lighting.c: 294: led3_command(brightness, red, green, blue);
  6272  01E5  0021               	movlb	1	; select bank1
  6273  01E6  0834               	movf	display_blade_lights@red^(0+128),w
  6274  01E7  00A5               	movwf	??_display_blade_lights^(0+128)
  6275  01E8  0825               	movf	??_display_blade_lights^(0+128),w
  6276  01E9  0020               	movlb	0	; select bank0
  6277  01EA  00C3               	movwf	led3_command@red
  6278  01EB  0021               	movlb	1	; select bank1
  6279  01EC  0835               	movf	display_blade_lights@green^(0+128),w
  6280  01ED  00A6               	movwf	(??_display_blade_lights+1)^(0+128)
  6281  01EE  0826               	movf	(??_display_blade_lights+1)^(0+128),w
  6282  01EF  0020               	movlb	0	; select bank0
  6283  01F0  00C4               	movwf	led3_command@green
  6284  01F1  0021               	movlb	1	; select bank1
  6285  01F2  0836               	movf	display_blade_lights@blue^(0+128),w
  6286  01F3  00A7               	movwf	(??_display_blade_lights+2)^(0+128)
  6287  01F4  0827               	movf	(??_display_blade_lights+2)^(0+128),w
  6288  01F5  0020               	movlb	0	; select bank0
  6289  01F6  00C5               	movwf	led3_command@blue
  6290  01F7  0021               	movlb	1	; select bank1
  6291  01F8  0833               	movf	display_blade_lights@brightness^(0+128),w
  6292  01F9  318A  2205  3181   	fcall	_led3_command
  6293                           
  6294                           ;lighting.c: 295: _delay((unsigned long)((50)*(32000000/4000.0)));
  6295  01FC  3003               	movlw	3
  6296  01FD  0021               	movlb	1	; select bank1
  6297  01FE  00A7               	movwf	(??_display_blade_lights^(0+128)+2)
  6298  01FF  3008               	movlw	8
  6299  0200  00A6               	movwf	(??_display_blade_lights^(0+128)+1)
  6300  0201  3078               	movlw	120
  6301  0202  00A5               	movwf	??_display_blade_lights^(0+128)
  6302  0203                     u5017:	
  6303  0203  0BA5               	decfsz	??_display_blade_lights^(0+128),f
  6304  0204  2A03               	goto	u5017
  6305  0205  0BA6               	decfsz	(??_display_blade_lights^(0+128)+1),f
  6306  0206  2A03               	goto	u5017
  6307  0207  0BA7               	decfsz	(??_display_blade_lights^(0+128)+2),f
  6308  0208  2A03               	goto	u5017
  6309                           
  6310                           ;lighting.c: 297: led4_command(brightness, red, green, blue);
  6311  0209  0021               	movlb	1	; select bank1
  6312  020A  0834               	movf	display_blade_lights@red^(0+128),w
  6313  020B  00A5               	movwf	??_display_blade_lights^(0+128)
  6314  020C  0825               	movf	??_display_blade_lights^(0+128),w
  6315  020D  0020               	movlb	0	; select bank0
  6316  020E  00C3               	movwf	led4_command@red
  6317  020F  0021               	movlb	1	; select bank1
  6318  0210  0835               	movf	display_blade_lights@green^(0+128),w
  6319  0211  00A6               	movwf	(??_display_blade_lights+1)^(0+128)
  6320  0212  0826               	movf	(??_display_blade_lights+1)^(0+128),w
  6321  0213  0020               	movlb	0	; select bank0
  6322  0214  00C4               	movwf	led4_command@green
  6323  0215  0021               	movlb	1	; select bank1
  6324  0216  0836               	movf	display_blade_lights@blue^(0+128),w
  6325  0217  00A7               	movwf	(??_display_blade_lights+2)^(0+128)
  6326  0218  0827               	movf	(??_display_blade_lights+2)^(0+128),w
  6327  0219  0020               	movlb	0	; select bank0
  6328  021A  00C5               	movwf	led4_command@blue
  6329  021B  0021               	movlb	1	; select bank1
  6330  021C  0833               	movf	display_blade_lights@brightness^(0+128),w
  6331  021D  318A  22B1  3181   	fcall	_led4_command
  6332                           
  6333                           ;lighting.c: 298: _delay((unsigned long)((50)*(32000000/4000.0)));
  6334  0220  3003               	movlw	3
  6335  0221  0021               	movlb	1	; select bank1
  6336  0222  00A7               	movwf	(??_display_blade_lights^(0+128)+2)
  6337  0223  3008               	movlw	8
  6338  0224  00A6               	movwf	(??_display_blade_lights^(0+128)+1)
  6339  0225  3078               	movlw	120
  6340  0226  00A5               	movwf	??_display_blade_lights^(0+128)
  6341  0227                     u5027:	
  6342  0227  0BA5               	decfsz	??_display_blade_lights^(0+128),f
  6343  0228  2A27               	goto	u5027
  6344  0229  0BA6               	decfsz	(??_display_blade_lights^(0+128)+1),f
  6345  022A  2A27               	goto	u5027
  6346  022B  0BA7               	decfsz	(??_display_blade_lights^(0+128)+2),f
  6347  022C  2A27               	goto	u5027
  6348                           
  6349                           ;lighting.c: 300: led5_command(brightness, red, green, blue);
  6350  022D  0021               	movlb	1	; select bank1
  6351  022E  0834               	movf	display_blade_lights@red^(0+128),w
  6352  022F  00A5               	movwf	??_display_blade_lights^(0+128)
  6353  0230  0825               	movf	??_display_blade_lights^(0+128),w
  6354  0231  0020               	movlb	0	; select bank0
  6355  0232  00C3               	movwf	led5_command@red
  6356  0233  0021               	movlb	1	; select bank1
  6357  0234  0835               	movf	display_blade_lights@green^(0+128),w
  6358  0235  00A6               	movwf	(??_display_blade_lights+1)^(0+128)
  6359  0236  0826               	movf	(??_display_blade_lights+1)^(0+128),w
  6360  0237  0020               	movlb	0	; select bank0
  6361  0238  00C4               	movwf	led5_command@green
  6362  0239  0021               	movlb	1	; select bank1
  6363  023A  0836               	movf	display_blade_lights@blue^(0+128),w
  6364  023B  00A7               	movwf	(??_display_blade_lights+2)^(0+128)
  6365  023C  0827               	movf	(??_display_blade_lights+2)^(0+128),w
  6366  023D  0020               	movlb	0	; select bank0
  6367  023E  00C5               	movwf	led5_command@blue
  6368  023F  0021               	movlb	1	; select bank1
  6369  0240  0833               	movf	display_blade_lights@brightness^(0+128),w
  6370  0241  318B  235D  3181   	fcall	_led5_command
  6371                           
  6372                           ;lighting.c: 301: _delay((unsigned long)((50)*(32000000/4000.0)));
  6373  0244  3003               	movlw	3
  6374  0245  0021               	movlb	1	; select bank1
  6375  0246  00A7               	movwf	(??_display_blade_lights^(0+128)+2)
  6376  0247  3008               	movlw	8
  6377  0248  00A6               	movwf	(??_display_blade_lights^(0+128)+1)
  6378  0249  3078               	movlw	120
  6379  024A  00A5               	movwf	??_display_blade_lights^(0+128)
  6380  024B                     u5037:	
  6381  024B  0BA5               	decfsz	??_display_blade_lights^(0+128),f
  6382  024C  2A4B               	goto	u5037
  6383  024D  0BA6               	decfsz	(??_display_blade_lights^(0+128)+1),f
  6384  024E  2A4B               	goto	u5037
  6385  024F  0BA7               	decfsz	(??_display_blade_lights^(0+128)+2),f
  6386  0250  2A4B               	goto	u5037
  6387                           
  6388                           ;lighting.c: 303: for(unsigned char i = 0; i < 4; ++i)
  6389  0251  0021               	movlb	1	; select bank1
  6390  0252  01B0               	clrf	display_blade_lights@i^(0+128)
  6391  0253                     L3:	
  6392  0253  3004               	movlw	4
  6393  0254  0230               	subwf	display_blade_lights@i^(0+128),w
  6394  0255  1803               	btfsc	3,0
  6395  0256  2CBC               	goto	l5181
  6396                           
  6397                           ;lighting.c: 304: {
  6398                           ;lighting.c: 306: led5_command(brightness, red, green, blue);
  6399  0257  0834               	movf	display_blade_lights@red^(0+128),w
  6400  0258  00A5               	movwf	??_display_blade_lights^(0+128)
  6401  0259  0825               	movf	??_display_blade_lights^(0+128),w
  6402  025A  0020               	movlb	0	; select bank0
  6403  025B  00C3               	movwf	led5_command@red
  6404  025C  0021               	movlb	1	; select bank1
  6405  025D  0835               	movf	display_blade_lights@green^(0+128),w
  6406  025E  00A6               	movwf	(??_display_blade_lights+1)^(0+128)
  6407  025F  0826               	movf	(??_display_blade_lights+1)^(0+128),w
  6408  0260  0020               	movlb	0	; select bank0
  6409  0261  00C4               	movwf	led5_command@green
  6410  0262  0021               	movlb	1	; select bank1
  6411  0263  0836               	movf	display_blade_lights@blue^(0+128),w
  6412  0264  00A7               	movwf	(??_display_blade_lights+2)^(0+128)
  6413  0265  0827               	movf	(??_display_blade_lights+2)^(0+128),w
  6414  0266  0020               	movlb	0	; select bank0
  6415  0267  00C5               	movwf	led5_command@blue
  6416  0268  0021               	movlb	1	; select bank1
  6417  0269  0833               	movf	display_blade_lights@brightness^(0+128),w
  6418  026A  318B  235D  3181   	fcall	_led5_command
  6419                           
  6420                           ;lighting.c: 307: _delay((unsigned long)((25)*(32000000/4000.0)));
  6421  026D  3002               	movlw	2
  6422  026E  0021               	movlb	1	; select bank1
  6423  026F  00A7               	movwf	(??_display_blade_lights^(0+128)+2)
  6424  0270  3004               	movlw	4
  6425  0271  00A6               	movwf	(??_display_blade_lights^(0+128)+1)
  6426  0272  30BA               	movlw	186
  6427  0273  00A5               	movwf	??_display_blade_lights^(0+128)
  6428  0274                     u5047:	
  6429  0274  0BA5               	decfsz	??_display_blade_lights^(0+128),f
  6430  0275  2A74               	goto	u5047
  6431  0276  0BA6               	decfsz	(??_display_blade_lights^(0+128)+1),f
  6432  0277  2A74               	goto	u5047
  6433  0278  0BA7               	decfsz	(??_display_blade_lights^(0+128)+2),f
  6434  0279  2A74               	goto	u5047
  6435  027A  0000               	nop
  6436                           
  6437                           ;lighting.c: 309: led5_command(0xFF, 0, 0, 0);
  6438  027B  0020               	movlb	0	; select bank0
  6439  027C  01C3               	clrf	led5_command@red
  6440  027D  01C4               	clrf	led5_command@green
  6441  027E  01C5               	clrf	led5_command@blue
  6442  027F  30FF               	movlw	255
  6443  0280  318B  235D  3181   	fcall	_led5_command
  6444                           
  6445                           ;lighting.c: 310: _delay((unsigned long)((25)*(32000000/4000.0)));
  6446  0283  3002               	movlw	2
  6447  0284  0021               	movlb	1	; select bank1
  6448  0285  00A7               	movwf	(??_display_blade_lights^(0+128)+2)
  6449  0286  3004               	movlw	4
  6450  0287  00A6               	movwf	(??_display_blade_lights^(0+128)+1)
  6451  0288  30BA               	movlw	186
  6452  0289  00A5               	movwf	??_display_blade_lights^(0+128)
  6453  028A                     u5057:	
  6454  028A  0BA5               	decfsz	??_display_blade_lights^(0+128),f
  6455  028B  2A8A               	goto	u5057
  6456  028C  0BA6               	decfsz	(??_display_blade_lights^(0+128)+1),f
  6457  028D  2A8A               	goto	u5057
  6458  028E  0BA7               	decfsz	(??_display_blade_lights^(0+128)+2),f
  6459  028F  2A8A               	goto	u5057
  6460  0290  0000               	nop
  6461  0291  3001               	movlw	1
  6462  0292  0021               	movlb	1	; select bank1
  6463  0293  00A5               	movwf	??_display_blade_lights^(0+128)
  6464  0294  0825               	movf	??_display_blade_lights^(0+128),w
  6465  0295  07B0               	addwf	display_blade_lights@i^(0+128),f
  6466  0296  2A53               	goto	L3
  6467  0297                     l5071:	
  6468                           ;lighting.c: 311: }
  6469                           ;lighting.c: 312: }
  6470                           
  6471                           
  6472                           ;lighting.c: 313: else if( mode == 2 )
  6473  0297  3002               	movlw	2
  6474  0298  0632               	xorwf	display_blade_lights@mode^(0+128),w
  6475  0299  1D03               	btfss	3,2
  6476  029A  2BFE               	goto	l5149
  6477                           
  6478                           ;lighting.c: 314: {
  6479                           ;lighting.c: 315: for(unsigned char r = 0;r < 255; r+=5)
  6480  029B  01B7               	clrf	display_blade_lights@r^(0+128)
  6481  029C  0A37               	incf	display_blade_lights@r^(0+128),w
  6482  029D  1903               	btfsc	3,2
  6483  029E  2B4D               	goto	l5111
  6484  029F                     l5079:	
  6485                           
  6486                           ;lighting.c: 316: {
  6487                           ;lighting.c: 318: for(int i = 0;i < 4; i++){
  6488  029F  01A8               	clrf	display_blade_lights@i_609^(0+128)
  6489  02A0  01A9               	clrf	(display_blade_lights@i_609+1)^(0+128)
  6490  02A1  0829               	movf	(display_blade_lights@i_609+1)^(0+128),w
  6491  02A2  3A80               	xorlw	128
  6492  02A3  00A5               	movwf	??_display_blade_lights^(0+128)
  6493  02A4  3080               	movlw	128
  6494  02A5  0225               	subwf	??_display_blade_lights^(0+128),w
  6495  02A6  1D03               	skipz
  6496  02A7  2AAA               	goto	u4445
  6497  02A8  3004               	movlw	4
  6498  02A9  0228               	subwf	display_blade_lights@i_609^(0+128),w
  6499  02AA                     u4445:	
  6500  02AA  1803               	btfsc	3,0
  6501  02AB  2AC0               	goto	l5091
  6502  02AC                     l5085:	
  6503                           
  6504                           ;lighting.c: 319: writespi(0x00);
  6505  02AC  3000               	movlw	0
  6506  02AD  3190  2097  3181   	fcall	_writespi
  6507  02B0  3001               	movlw	1
  6508  02B1  0021               	movlb	1	; select bank1
  6509  02B2  07A8               	addwf	display_blade_lights@i_609^(0+128),f
  6510  02B3  3000               	movlw	0
  6511  02B4  3DA9               	addwfc	(display_blade_lights@i_609+1)^(0+128),f
  6512  02B5  0829               	movf	(display_blade_lights@i_609+1)^(0+128),w
  6513  02B6  3A80               	xorlw	128
  6514  02B7  00A5               	movwf	??_display_blade_lights^(0+128)
  6515  02B8  3080               	movlw	128
  6516  02B9  0225               	subwf	??_display_blade_lights^(0+128),w
  6517  02BA  1D03               	skipz
  6518  02BB  2ABE               	goto	u4455
  6519  02BC  3004               	movlw	4
  6520  02BD  0228               	subwf	display_blade_lights@i_609^(0+128),w
  6521  02BE                     u4455:	
  6522  02BE  1C03               	skipc
  6523  02BF  2AAC               	goto	l5085
  6524  02C0                     l5091:	
  6525                           
  6526                           ;lighting.c: 320: }
  6527                           ;lighting.c: 322: writespi(0xFF);
  6528  02C0  30FF               	movlw	255
  6529  02C1  3190  2097  3181   	fcall	_writespi
  6530                           
  6531                           ;lighting.c: 323: writespi(0x00);
  6532  02C4  3000               	movlw	0
  6533  02C5  3190  2097  3181   	fcall	_writespi
  6534                           
  6535                           ;lighting.c: 324: writespi(0x00);
  6536  02C8  3000               	movlw	0
  6537  02C9  3190  2097  3181   	fcall	_writespi
  6538                           
  6539                           ;lighting.c: 325: writespi(r);
  6540  02CC  0021               	movlb	1	; select bank1
  6541  02CD  0837               	movf	display_blade_lights@r^(0+128),w
  6542  02CE  3190  2097  3181   	fcall	_writespi
  6543                           
  6544                           ;lighting.c: 327: writespi(0xFF);
  6545  02D1  30FF               	movlw	255
  6546  02D2  3190  2097  3181   	fcall	_writespi
  6547                           
  6548                           ;lighting.c: 328: writespi(0x00);
  6549  02D5  3000               	movlw	0
  6550  02D6  3190  2097  3181   	fcall	_writespi
  6551                           
  6552                           ;lighting.c: 329: writespi(0x00);
  6553  02D9  3000               	movlw	0
  6554  02DA  3190  2097  3181   	fcall	_writespi
  6555                           
  6556                           ;lighting.c: 330: writespi(255 - r);
  6557  02DD  0021               	movlb	1	; select bank1
  6558  02DE  0337               	decf	display_blade_lights@r^(0+128),w
  6559  02DF  3AFF               	xorlw	255
  6560  02E0  3EFF               	addlw	255
  6561  02E1  3190  2097  3181   	fcall	_writespi
  6562                           
  6563                           ;lighting.c: 332: writespi(0xFF);
  6564  02E4  30FF               	movlw	255
  6565  02E5  3190  2097  3181   	fcall	_writespi
  6566                           
  6567                           ;lighting.c: 333: writespi(0x00);
  6568  02E8  3000               	movlw	0
  6569  02E9  3190  2097  3181   	fcall	_writespi
  6570                           
  6571                           ;lighting.c: 334: writespi(0x00);
  6572  02EC  3000               	movlw	0
  6573  02ED  3190  2097  3181   	fcall	_writespi
  6574                           
  6575                           ;lighting.c: 335: writespi(r);
  6576  02F0  0021               	movlb	1	; select bank1
  6577  02F1  0837               	movf	display_blade_lights@r^(0+128),w
  6578  02F2  3190  2097  3181   	fcall	_writespi
  6579                           
  6580                           ;lighting.c: 337: writespi(0xFF);
  6581  02F5  30FF               	movlw	255
  6582  02F6  3190  2097  3181   	fcall	_writespi
  6583                           
  6584                           ;lighting.c: 338: writespi(0x00);
  6585  02F9  3000               	movlw	0
  6586  02FA  3190  2097  3181   	fcall	_writespi
  6587                           
  6588                           ;lighting.c: 339: writespi(0x00);
  6589  02FD  3000               	movlw	0
  6590  02FE  3190  2097  3181   	fcall	_writespi
  6591                           
  6592                           ;lighting.c: 340: writespi(255-r);
  6593  0301  0021               	movlb	1	; select bank1
  6594  0302  0337               	decf	display_blade_lights@r^(0+128),w
  6595  0303  3AFF               	xorlw	255
  6596  0304  3EFF               	addlw	255
  6597  0305  3190  2097  3181   	fcall	_writespi
  6598                           
  6599                           ;lighting.c: 342: writespi(0xFF);
  6600  0308  30FF               	movlw	255
  6601  0309  3190  2097  3181   	fcall	_writespi
  6602                           
  6603                           ;lighting.c: 343: writespi(0x00);
  6604  030C  3000               	movlw	0
  6605  030D  3190  2097  3181   	fcall	_writespi
  6606                           
  6607                           ;lighting.c: 344: writespi(0x00);
  6608  0310  3000               	movlw	0
  6609  0311  3190  2097  3181   	fcall	_writespi
  6610                           
  6611                           ;lighting.c: 345: writespi(r);
  6612  0314  0021               	movlb	1	; select bank1
  6613  0315  0837               	movf	display_blade_lights@r^(0+128),w
  6614  0316  3190  2097  3181   	fcall	_writespi
  6615                           
  6616                           ;lighting.c: 347: for(int i = 0;i < 4; i++){
  6617  0319  0021               	movlb	1	; select bank1
  6618  031A  01AA               	clrf	display_blade_lights@i_610^(0+128)
  6619  031B  01AB               	clrf	(display_blade_lights@i_610+1)^(0+128)
  6620  031C  082B               	movf	(display_blade_lights@i_610+1)^(0+128),w
  6621  031D  3A80               	xorlw	128
  6622  031E  00A5               	movwf	??_display_blade_lights^(0+128)
  6623  031F  3080               	movlw	128
  6624  0320  0225               	subwf	??_display_blade_lights^(0+128),w
  6625  0321  1D03               	skipz
  6626  0322  2B25               	goto	u4465
  6627  0323  3004               	movlw	4
  6628  0324  022A               	subwf	display_blade_lights@i_610^(0+128),w
  6629  0325                     u4465:	
  6630  0325  1803               	btfsc	3,0
  6631  0326  2B3B               	goto	l5105
  6632  0327                     l5099:	
  6633                           
  6634                           ;lighting.c: 348: writespi(0xFF);
  6635  0327  30FF               	movlw	255
  6636  0328  3190  2097  3181   	fcall	_writespi
  6637  032B  3001               	movlw	1
  6638  032C  0021               	movlb	1	; select bank1
  6639  032D  07AA               	addwf	display_blade_lights@i_610^(0+128),f
  6640  032E  3000               	movlw	0
  6641  032F  3DAB               	addwfc	(display_blade_lights@i_610+1)^(0+128),f
  6642  0330  082B               	movf	(display_blade_lights@i_610+1)^(0+128),w
  6643  0331  3A80               	xorlw	128
  6644  0332  00A5               	movwf	??_display_blade_lights^(0+128)
  6645  0333  3080               	movlw	128
  6646  0334  0225               	subwf	??_display_blade_lights^(0+128),w
  6647  0335  1D03               	skipz
  6648  0336  2B39               	goto	u4475
  6649  0337  3004               	movlw	4
  6650  0338  022A               	subwf	display_blade_lights@i_610^(0+128),w
  6651  0339                     u4475:	
  6652  0339  1C03               	skipc
  6653  033A  2B27               	goto	l5099
  6654  033B                     l5105:	
  6655                           
  6656                           ;lighting.c: 349: }
  6657                           ;lighting.c: 350: _delay((unsigned long)((20)*(32000000/4000.0)));
  6658  033B  30D0               	movlw	208
  6659  033C  0021               	movlb	1	; select bank1
  6660  033D  00A6               	movwf	(??_display_blade_lights^(0+128)+1)
  6661  033E  30C9               	movlw	201
  6662  033F  00A5               	movwf	??_display_blade_lights^(0+128)
  6663  0340                     u5067:	
  6664  0340  0BA5               	decfsz	??_display_blade_lights^(0+128),f
  6665  0341  2B40               	goto	u5067
  6666  0342  0BA6               	decfsz	(??_display_blade_lights^(0+128)+1),f
  6667  0343  2B40               	goto	u5067
  6668  0344  3200               	nop2
  6669  0345  3005               	movlw	5
  6670  0346  0021               	movlb	1	; select bank1
  6671  0347  00A5               	movwf	??_display_blade_lights^(0+128)
  6672  0348  0825               	movf	??_display_blade_lights^(0+128),w
  6673  0349  07B7               	addwf	display_blade_lights@r^(0+128),f
  6674  034A  0A37               	incf	display_blade_lights@r^(0+128),w
  6675  034B  1D03               	btfss	3,2
  6676  034C  2A9F               	goto	l5079
  6677  034D                     l5111:	
  6678                           
  6679                           ;lighting.c: 351: }
  6680                           ;lighting.c: 353: for(unsigned char r = 255;r > 0; r-=5)
  6681  034D  30FF               	movlw	255
  6682  034E  00A5               	movwf	??_display_blade_lights^(0+128)
  6683  034F  0825               	movf	??_display_blade_lights^(0+128),w
  6684  0350  00B8               	movwf	display_blade_lights@r_611^(0+128)
  6685  0351                     L4:	
  6686  0351  0838               	movf	display_blade_lights@r_611^(0+128),w
  6687  0352  1903               	btfsc	3,2
  6688  0353  2CBC               	goto	l5181
  6689                           
  6690                           ;lighting.c: 354: {
  6691                           ;lighting.c: 356: for(int i = 0;i < 4; i++){
  6692  0354  01AC               	clrf	display_blade_lights@i_612^(0+128)
  6693  0355  01AD               	clrf	(display_blade_lights@i_612+1)^(0+128)
  6694  0356  082D               	movf	(display_blade_lights@i_612+1)^(0+128),w
  6695  0357  3A80               	xorlw	128
  6696  0358  00A5               	movwf	??_display_blade_lights^(0+128)
  6697  0359  3080               	movlw	128
  6698  035A  0225               	subwf	??_display_blade_lights^(0+128),w
  6699  035B  1D03               	skipz
  6700  035C  2B5F               	goto	u4505
  6701  035D  3004               	movlw	4
  6702  035E  022C               	subwf	display_blade_lights@i_612^(0+128),w
  6703  035F                     u4505:	
  6704  035F  1803               	btfsc	3,0
  6705  0360  2B75               	goto	l5129
  6706  0361                     l5123:	
  6707                           
  6708                           ;lighting.c: 357: writespi(0x00);
  6709  0361  3000               	movlw	0
  6710  0362  3190  2097  3181   	fcall	_writespi
  6711  0365  3001               	movlw	1
  6712  0366  0021               	movlb	1	; select bank1
  6713  0367  07AC               	addwf	display_blade_lights@i_612^(0+128),f
  6714  0368  3000               	movlw	0
  6715  0369  3DAD               	addwfc	(display_blade_lights@i_612+1)^(0+128),f
  6716  036A  082D               	movf	(display_blade_lights@i_612+1)^(0+128),w
  6717  036B  3A80               	xorlw	128
  6718  036C  00A5               	movwf	??_display_blade_lights^(0+128)
  6719  036D  3080               	movlw	128
  6720  036E  0225               	subwf	??_display_blade_lights^(0+128),w
  6721  036F  1D03               	skipz
  6722  0370  2B73               	goto	u4515
  6723  0371  3004               	movlw	4
  6724  0372  022C               	subwf	display_blade_lights@i_612^(0+128),w
  6725  0373                     u4515:	
  6726  0373  1C03               	skipc
  6727  0374  2B61               	goto	l5123
  6728  0375                     l5129:	
  6729                           
  6730                           ;lighting.c: 358: }
  6731                           ;lighting.c: 360: writespi(0xFF);
  6732  0375  30FF               	movlw	255
  6733  0376  3190  2097  3181   	fcall	_writespi
  6734                           
  6735                           ;lighting.c: 361: writespi(0x00);
  6736  0379  3000               	movlw	0
  6737  037A  3190  2097  3181   	fcall	_writespi
  6738                           
  6739                           ;lighting.c: 362: writespi(0x00);
  6740  037D  3000               	movlw	0
  6741  037E  3190  2097  3181   	fcall	_writespi
  6742                           
  6743                           ;lighting.c: 363: writespi(r);
  6744  0381  0021               	movlb	1	; select bank1
  6745  0382  0838               	movf	display_blade_lights@r_611^(0+128),w
  6746  0383  3190  2097  3181   	fcall	_writespi
  6747                           
  6748                           ;lighting.c: 365: writespi(0xFF);
  6749  0386  30FF               	movlw	255
  6750  0387  3190  2097  3181   	fcall	_writespi
  6751                           
  6752                           ;lighting.c: 366: writespi(0x00);
  6753  038A  3000               	movlw	0
  6754  038B  3190  2097  3181   	fcall	_writespi
  6755                           
  6756                           ;lighting.c: 367: writespi(0x00);
  6757  038E  3000               	movlw	0
  6758  038F  3190  2097  3181   	fcall	_writespi
  6759                           
  6760                           ;lighting.c: 368: writespi(255 - r);
  6761  0392  0021               	movlb	1	; select bank1
  6762  0393  0338               	decf	display_blade_lights@r_611^(0+128),w
  6763  0394  3AFF               	xorlw	255
  6764  0395  3EFF               	addlw	255
  6765  0396  3190  2097  3181   	fcall	_writespi
  6766                           
  6767                           ;lighting.c: 370: writespi(0xFF);
  6768  0399  30FF               	movlw	255
  6769  039A  3190  2097  3181   	fcall	_writespi
  6770                           
  6771                           ;lighting.c: 371: writespi(0x00);
  6772  039D  3000               	movlw	0
  6773  039E  3190  2097  3181   	fcall	_writespi
  6774                           
  6775                           ;lighting.c: 372: writespi(0x00);
  6776  03A1  3000               	movlw	0
  6777  03A2  3190  2097  3181   	fcall	_writespi
  6778                           
  6779                           ;lighting.c: 373: writespi(r);
  6780  03A5  0021               	movlb	1	; select bank1
  6781  03A6  0838               	movf	display_blade_lights@r_611^(0+128),w
  6782  03A7  3190  2097  3181   	fcall	_writespi
  6783                           
  6784                           ;lighting.c: 375: writespi(0xFF);
  6785  03AA  30FF               	movlw	255
  6786  03AB  3190  2097  3181   	fcall	_writespi
  6787                           
  6788                           ;lighting.c: 376: writespi(0x00);
  6789  03AE  3000               	movlw	0
  6790  03AF  3190  2097  3181   	fcall	_writespi
  6791                           
  6792                           ;lighting.c: 377: writespi(0x00);
  6793  03B2  3000               	movlw	0
  6794  03B3  3190  2097  3181   	fcall	_writespi
  6795                           
  6796                           ;lighting.c: 378: writespi(255-r);
  6797  03B6  0021               	movlb	1	; select bank1
  6798  03B7  0338               	decf	display_blade_lights@r_611^(0+128),w
  6799  03B8  3AFF               	xorlw	255
  6800  03B9  3EFF               	addlw	255
  6801  03BA  3190  2097  3181   	fcall	_writespi
  6802                           
  6803                           ;lighting.c: 380: writespi(0xFF);
  6804  03BD  30FF               	movlw	255
  6805  03BE  3190  2097  3181   	fcall	_writespi
  6806                           
  6807                           ;lighting.c: 381: writespi(0x00);
  6808  03C1  3000               	movlw	0
  6809  03C2  3190  2097  3181   	fcall	_writespi
  6810                           
  6811                           ;lighting.c: 382: writespi(0x00);
  6812  03C5  3000               	movlw	0
  6813  03C6  3190  2097  3181   	fcall	_writespi
  6814                           
  6815                           ;lighting.c: 383: writespi(r);
  6816  03C9  0021               	movlb	1	; select bank1
  6817  03CA  0838               	movf	display_blade_lights@r_611^(0+128),w
  6818  03CB  3190  2097  3181   	fcall	_writespi
  6819                           
  6820                           ;lighting.c: 385: for(int i = 0;i < 4; i++){
  6821  03CE  0021               	movlb	1	; select bank1
  6822  03CF  01AE               	clrf	display_blade_lights@i_613^(0+128)
  6823  03D0  01AF               	clrf	(display_blade_lights@i_613+1)^(0+128)
  6824  03D1  082F               	movf	(display_blade_lights@i_613+1)^(0+128),w
  6825  03D2  3A80               	xorlw	128
  6826  03D3  00A5               	movwf	??_display_blade_lights^(0+128)
  6827  03D4  3080               	movlw	128
  6828  03D5  0225               	subwf	??_display_blade_lights^(0+128),w
  6829  03D6  1D03               	skipz
  6830  03D7  2BDA               	goto	u4525
  6831  03D8  3004               	movlw	4
  6832  03D9  022E               	subwf	display_blade_lights@i_613^(0+128),w
  6833  03DA                     u4525:	
  6834  03DA  1803               	btfsc	3,0
  6835  03DB  2BF0               	goto	l5143
  6836  03DC                     l5137:	
  6837                           
  6838                           ;lighting.c: 386: writespi(0xFF);
  6839  03DC  30FF               	movlw	255
  6840  03DD  3190  2097  3181   	fcall	_writespi
  6841  03E0  3001               	movlw	1
  6842  03E1  0021               	movlb	1	; select bank1
  6843  03E2  07AE               	addwf	display_blade_lights@i_613^(0+128),f
  6844  03E3  3000               	movlw	0
  6845  03E4  3DAF               	addwfc	(display_blade_lights@i_613+1)^(0+128),f
  6846  03E5  082F               	movf	(display_blade_lights@i_613+1)^(0+128),w
  6847  03E6  3A80               	xorlw	128
  6848  03E7  00A5               	movwf	??_display_blade_lights^(0+128)
  6849  03E8  3080               	movlw	128
  6850  03E9  0225               	subwf	??_display_blade_lights^(0+128),w
  6851  03EA  1D03               	skipz
  6852  03EB  2BEE               	goto	u4535
  6853  03EC  3004               	movlw	4
  6854  03ED  022E               	subwf	display_blade_lights@i_613^(0+128),w
  6855  03EE                     u4535:	
  6856  03EE  1C03               	skipc
  6857  03EF  2BDC               	goto	l5137
  6858  03F0                     l5143:	
  6859                           
  6860                           ;lighting.c: 387: }
  6861                           ;lighting.c: 388: _delay((unsigned long)((20)*(32000000/4000.0)));
  6862  03F0  30D0               	movlw	208
  6863  03F1  0021               	movlb	1	; select bank1
  6864  03F2  00A6               	movwf	(??_display_blade_lights^(0+128)+1)
  6865  03F3  30C9               	movlw	201
  6866  03F4  00A5               	movwf	??_display_blade_lights^(0+128)
  6867  03F5                     u5077:	
  6868  03F5  0BA5               	decfsz	??_display_blade_lights^(0+128),f
  6869  03F6  2BF5               	goto	u5077
  6870  03F7  0BA6               	decfsz	(??_display_blade_lights^(0+128)+1),f
  6871  03F8  2BF5               	goto	u5077
  6872  03F9  3200               	nop2
  6873  03FA  3005               	movlw	5
  6874  03FB  0021               	movlb	1	; select bank1
  6875  03FC  02B8               	subwf	display_blade_lights@r_611^(0+128),f
  6876  03FD  2B51               	goto	L4
  6877  03FE                     l5149:	
  6878                           ;lighting.c: 389: }
  6879                           ;lighting.c: 390: }
  6880                           
  6881                           
  6882                           ;lighting.c: 391: else if( mode == 3 )
  6883  03FE  3003               	movlw	3
  6884  03FF  0632               	xorwf	display_blade_lights@mode^(0+128),w
  6885  0400  1D03               	btfss	3,2
  6886  0401  2CBC               	goto	l5181
  6887                           
  6888                           ;lighting.c: 392: {
  6889                           ;lighting.c: 394: led5_command(0xFF, 0xFF, 0, 0);
  6890  0402  30FF               	movlw	255
  6891  0403  00A5               	movwf	??_display_blade_lights^(0+128)
  6892  0404  0825               	movf	??_display_blade_lights^(0+128),w
  6893  0405  0020               	movlb	0	; select bank0
  6894  0406  00C3               	movwf	led5_command@red
  6895  0407  01C4               	clrf	led5_command@green
  6896  0408  01C5               	clrf	led5_command@blue
  6897  0409  30FF               	movlw	255
  6898  040A  318B  235D  3181   	fcall	_led5_command
  6899                           
  6900                           ;lighting.c: 395: _delay((unsigned long)((50)*(32000000/4000.0)));
  6901  040D  3003               	movlw	3
  6902  040E  0021               	movlb	1	; select bank1
  6903  040F  00A7               	movwf	(??_display_blade_lights^(0+128)+2)
  6904  0410  3008               	movlw	8
  6905  0411  00A6               	movwf	(??_display_blade_lights^(0+128)+1)
  6906  0412  3078               	movlw	120
  6907  0413  00A5               	movwf	??_display_blade_lights^(0+128)
  6908  0414                     u5087:	
  6909  0414  0BA5               	decfsz	??_display_blade_lights^(0+128),f
  6910  0415  2C14               	goto	u5087
  6911  0416  0BA6               	decfsz	(??_display_blade_lights^(0+128)+1),f
  6912  0417  2C14               	goto	u5087
  6913  0418  0BA7               	decfsz	(??_display_blade_lights^(0+128)+2),f
  6914  0419  2C14               	goto	u5087
  6915                           
  6916                           ;lighting.c: 397: led4_command(0xFF, 0xFF, 0, 0);
  6917  041A  30FF               	movlw	255
  6918  041B  0021               	movlb	1	; select bank1
  6919  041C  00A5               	movwf	??_display_blade_lights^(0+128)
  6920  041D  0825               	movf	??_display_blade_lights^(0+128),w
  6921  041E  0020               	movlb	0	; select bank0
  6922  041F  00C3               	movwf	led4_command@red
  6923  0420  01C4               	clrf	led4_command@green
  6924  0421  01C5               	clrf	led4_command@blue
  6925  0422  30FF               	movlw	255
  6926  0423  318A  22B1  3181   	fcall	_led4_command
  6927                           
  6928                           ;lighting.c: 398: _delay((unsigned long)((50)*(32000000/4000.0)));
  6929  0426  3003               	movlw	3
  6930  0427  0021               	movlb	1	; select bank1
  6931  0428  00A7               	movwf	(??_display_blade_lights^(0+128)+2)
  6932  0429  3008               	movlw	8
  6933  042A  00A6               	movwf	(??_display_blade_lights^(0+128)+1)
  6934  042B  3078               	movlw	120
  6935  042C  00A5               	movwf	??_display_blade_lights^(0+128)
  6936  042D                     u5097:	
  6937  042D  0BA5               	decfsz	??_display_blade_lights^(0+128),f
  6938  042E  2C2D               	goto	u5097
  6939  042F  0BA6               	decfsz	(??_display_blade_lights^(0+128)+1),f
  6940  0430  2C2D               	goto	u5097
  6941  0431  0BA7               	decfsz	(??_display_blade_lights^(0+128)+2),f
  6942  0432  2C2D               	goto	u5097
  6943                           
  6944                           ;lighting.c: 400: led3_command(0xFF, 0xFF, 0, 0);
  6945  0433  30FF               	movlw	255
  6946  0434  0021               	movlb	1	; select bank1
  6947  0435  00A5               	movwf	??_display_blade_lights^(0+128)
  6948  0436  0825               	movf	??_display_blade_lights^(0+128),w
  6949  0437  0020               	movlb	0	; select bank0
  6950  0438  00C3               	movwf	led3_command@red
  6951  0439  01C4               	clrf	led3_command@green
  6952  043A  01C5               	clrf	led3_command@blue
  6953  043B  30FF               	movlw	255
  6954  043C  318A  2205  3181   	fcall	_led3_command
  6955                           
  6956                           ;lighting.c: 401: _delay((unsigned long)((50)*(32000000/4000.0)));
  6957  043F  3003               	movlw	3
  6958  0440  0021               	movlb	1	; select bank1
  6959  0441  00A7               	movwf	(??_display_blade_lights^(0+128)+2)
  6960  0442  3008               	movlw	8
  6961  0443  00A6               	movwf	(??_display_blade_lights^(0+128)+1)
  6962  0444  3078               	movlw	120
  6963  0445  00A5               	movwf	??_display_blade_lights^(0+128)
  6964  0446                     u5107:	
  6965  0446  0BA5               	decfsz	??_display_blade_lights^(0+128),f
  6966  0447  2C46               	goto	u5107
  6967  0448  0BA6               	decfsz	(??_display_blade_lights^(0+128)+1),f
  6968  0449  2C46               	goto	u5107
  6969  044A  0BA7               	decfsz	(??_display_blade_lights^(0+128)+2),f
  6970  044B  2C46               	goto	u5107
  6971                           
  6972                           ;lighting.c: 403: led2_command(0xFF, 0xFF, 0, 0);
  6973  044C  30FF               	movlw	255
  6974  044D  0021               	movlb	1	; select bank1
  6975  044E  00A5               	movwf	??_display_blade_lights^(0+128)
  6976  044F  0825               	movf	??_display_blade_lights^(0+128),w
  6977  0450  0020               	movlb	0	; select bank0
  6978  0451  00C3               	movwf	led2_command@red
  6979  0452  01C4               	clrf	led2_command@green
  6980  0453  01C5               	clrf	led2_command@blue
  6981  0454  30FF               	movlw	255
  6982  0455  3189  2159  3181   	fcall	_led2_command
  6983                           
  6984                           ;lighting.c: 404: _delay((unsigned long)((50)*(32000000/4000.0)));
  6985  0458  3003               	movlw	3
  6986  0459  0021               	movlb	1	; select bank1
  6987  045A  00A7               	movwf	(??_display_blade_lights^(0+128)+2)
  6988  045B  3008               	movlw	8
  6989  045C  00A6               	movwf	(??_display_blade_lights^(0+128)+1)
  6990  045D  3078               	movlw	120
  6991  045E  00A5               	movwf	??_display_blade_lights^(0+128)
  6992  045F                     u5117:	
  6993  045F  0BA5               	decfsz	??_display_blade_lights^(0+128),f
  6994  0460  2C5F               	goto	u5117
  6995  0461  0BA6               	decfsz	(??_display_blade_lights^(0+128)+1),f
  6996  0462  2C5F               	goto	u5117
  6997  0463  0BA7               	decfsz	(??_display_blade_lights^(0+128)+2),f
  6998  0464  2C5F               	goto	u5117
  6999                           
  7000                           ;lighting.c: 406: led1_command(0xFF, 0xFF, 0, 0);
  7001  0465  30FF               	movlw	255
  7002  0466  0021               	movlb	1	; select bank1
  7003  0467  00A5               	movwf	??_display_blade_lights^(0+128)
  7004  0468  0825               	movf	??_display_blade_lights^(0+128),w
  7005  0469  0020               	movlb	0	; select bank0
  7006  046A  00C3               	movwf	led1_command@red
  7007  046B  01C4               	clrf	led1_command@green
  7008  046C  01C5               	clrf	led1_command@blue
  7009  046D  30FF               	movlw	255
  7010  046E  3188  20AD  3181   	fcall	_led1_command
  7011                           
  7012                           ;lighting.c: 407: _delay((unsigned long)((50)*(32000000/4000.0)));
  7013  0471  3003               	movlw	3
  7014  0472  0021               	movlb	1	; select bank1
  7015  0473  00A7               	movwf	(??_display_blade_lights^(0+128)+2)
  7016  0474  3008               	movlw	8
  7017  0475  00A6               	movwf	(??_display_blade_lights^(0+128)+1)
  7018  0476  3078               	movlw	120
  7019  0477  00A5               	movwf	??_display_blade_lights^(0+128)
  7020  0478                     u5127:	
  7021  0478  0BA5               	decfsz	??_display_blade_lights^(0+128),f
  7022  0479  2C78               	goto	u5127
  7023  047A  0BA6               	decfsz	(??_display_blade_lights^(0+128)+1),f
  7024  047B  2C78               	goto	u5127
  7025  047C  0BA7               	decfsz	(??_display_blade_lights^(0+128)+2),f
  7026  047D  2C78               	goto	u5127
  7027                           
  7028                           ;lighting.c: 409: for(unsigned char i = 0; i < 4; ++i)
  7029  047E  0021               	movlb	1	; select bank1
  7030  047F  01B1               	clrf	display_blade_lights@i_614^(0+128)
  7031  0480  3004               	movlw	4
  7032  0481  0231               	subwf	display_blade_lights@i_614^(0+128),w
  7033  0482  1803               	btfsc	3,0
  7034  0483  2CBC               	goto	l5181
  7035  0484                     l5171:	
  7036                           
  7037                           ;lighting.c: 410: {
  7038                           ;lighting.c: 412: led1_command(0xFF, 0xFF, 0, 0);
  7039  0484  30FF               	movlw	255
  7040  0485  00A5               	movwf	??_display_blade_lights^(0+128)
  7041  0486  0825               	movf	??_display_blade_lights^(0+128),w
  7042  0487  0020               	movlb	0	; select bank0
  7043  0488  00C3               	movwf	led1_command@red
  7044  0489  01C4               	clrf	led1_command@green
  7045  048A  01C5               	clrf	led1_command@blue
  7046  048B  30FF               	movlw	255
  7047  048C  3188  20AD  3181   	fcall	_led1_command
  7048                           
  7049                           ;lighting.c: 413: _delay((unsigned long)((25)*(32000000/4000.0)));
  7050  048F  3002               	movlw	2
  7051  0490  0021               	movlb	1	; select bank1
  7052  0491  00A7               	movwf	(??_display_blade_lights^(0+128)+2)
  7053  0492  3004               	movlw	4
  7054  0493  00A6               	movwf	(??_display_blade_lights^(0+128)+1)
  7055  0494  30BA               	movlw	186
  7056  0495  00A5               	movwf	??_display_blade_lights^(0+128)
  7057  0496                     u5137:	
  7058  0496  0BA5               	decfsz	??_display_blade_lights^(0+128),f
  7059  0497  2C96               	goto	u5137
  7060  0498  0BA6               	decfsz	(??_display_blade_lights^(0+128)+1),f
  7061  0499  2C96               	goto	u5137
  7062  049A  0BA7               	decfsz	(??_display_blade_lights^(0+128)+2),f
  7063  049B  2C96               	goto	u5137
  7064  049C  0000               	nop
  7065                           
  7066                           ;lighting.c: 415: led1_command(0xFF, 0, 0, 0);
  7067  049D  0020               	movlb	0	; select bank0
  7068  049E  01C3               	clrf	led1_command@red
  7069  049F  01C4               	clrf	led1_command@green
  7070  04A0  01C5               	clrf	led1_command@blue
  7071  04A1  30FF               	movlw	255
  7072  04A2  3188  20AD  3181   	fcall	_led1_command
  7073                           
  7074                           ;lighting.c: 416: _delay((unsigned long)((25)*(32000000/4000.0)));
  7075  04A5  3002               	movlw	2
  7076  04A6  0021               	movlb	1	; select bank1
  7077  04A7  00A7               	movwf	(??_display_blade_lights^(0+128)+2)
  7078  04A8  3004               	movlw	4
  7079  04A9  00A6               	movwf	(??_display_blade_lights^(0+128)+1)
  7080  04AA  30BA               	movlw	186
  7081  04AB  00A5               	movwf	??_display_blade_lights^(0+128)
  7082  04AC                     u5147:	
  7083  04AC  0BA5               	decfsz	??_display_blade_lights^(0+128),f
  7084  04AD  2CAC               	goto	u5147
  7085  04AE  0BA6               	decfsz	(??_display_blade_lights^(0+128)+1),f
  7086  04AF  2CAC               	goto	u5147
  7087  04B0  0BA7               	decfsz	(??_display_blade_lights^(0+128)+2),f
  7088  04B1  2CAC               	goto	u5147
  7089  04B2  0000               	nop
  7090  04B3  3001               	movlw	1
  7091  04B4  0021               	movlb	1	; select bank1
  7092  04B5  00A5               	movwf	??_display_blade_lights^(0+128)
  7093  04B6  0825               	movf	??_display_blade_lights^(0+128),w
  7094  04B7  07B1               	addwf	display_blade_lights@i_614^(0+128),f
  7095  04B8  3004               	movlw	4
  7096  04B9  0231               	subwf	display_blade_lights@i_614^(0+128),w
  7097  04BA  1C03               	skipc
  7098  04BB  2C84               	goto	l5171
  7099  04BC                     l5181:	
  7100                           
  7101                           ;lighting.c: 417: }
  7102                           ;lighting.c: 418: }
  7103                           ;lighting.c: 419: leds_off();
  7104  04BC  3197  2759         	fcall	_leds_off
  7105  04BE  0008               	return
  7106  04BF                     __end_of_display_blade_lights:	
  7107                           
  7108                           	psect	text10
  7109  1759                     __ptext10:	
  7110 ;; *************** function _leds_off *****************
  7111 ;; Defined at:
  7112 ;;		line 652 in file "../../source/lighting.c"
  7113 ;; Parameters:    Size  Location     Type
  7114 ;;		None
  7115 ;; Auto vars:     Size  Location     Type
  7116 ;;  i               2    2[BANK1 ] int 
  7117 ;;  i               2    0[BANK1 ] int 
  7118 ;; Return value:  Size  Location     Type
  7119 ;;		None               void
  7120 ;; Registers used:
  7121 ;;		wreg, status,2, status,0, pclath, cstack
  7122 ;; Tracked objects:
  7123 ;;		On entry : 0/0
  7124 ;;		On exit  : 0/0
  7125 ;;		Unchanged: 0/0
  7126 ;; Data sizes:     COMMON   BANK0   BANK1   BANK2   BANK3   BANK4   BANK5   BANK6   BANK7   BANK8   BANK9  BANK10  BANK1
      +1  BANK12  BANK13  BANK14  BANK15  BANK16  BANK17  BANK18  BANK19  BANK20  BANK21  BANK22  BANK23  BANK24  BANK25
  7127 ;;      Params:         0       0       0       0       0       0       0       0       0       0       0       0       
      +0       0       0       0       0       0       0       0       0       0       0       0       0       0       0
  7128 ;;      Locals:         0       0       4       0       0       0       0       0       0       0       0       0       
      +0       0       0       0       0       0       0       0       0       0       0       0       0       0       0
  7129 ;;      Temps:          0       2       0       0       0       0       0       0       0       0       0       0       
      +0       0       0       0       0       0       0       0       0       0       0       0       0       0       0
  7130 ;;      Totals:         0       2       4       0       0       0       0       0       0       0       0       0       
      +0       0       0       0       0       0       0       0       0       0       0       0       0       0       0
  7131 ;;Total ram usage:        6 bytes
  7132 ;; Hardware stack levels used:    1
  7133 ;; Hardware stack levels required when called:    5
  7134 ;; This function calls:
  7135 ;;		_writespi
  7136 ;; This function is called by:
  7137 ;;		_init_leds
  7138 ;;		_display_blade_lights
  7139 ;; This function uses a non-reentrant model
  7140 ;;
  7141                           
  7142                           
  7143                           ;psect for function _leds_off
  7144  1759                     _leds_off:	
  7145                           
  7146                           ;lighting.c: 655: for(int i = 0;i < 4; i++)
  7147                           
  7148                           ;incstack = 0
  7149                           ; Regs used in _leds_off: [wreg+status,2+status,0+pclath+cstack]
  7150  1759  0021               	movlb	1	; select bank1
  7151  175A  01A0               	clrf	leds_off@i^(0+128)
  7152  175B  01A1               	clrf	(leds_off@i+1)^(0+128)
  7153  175C  0821               	movf	(leds_off@i+1)^(0+128),w
  7154  175D  3A80               	xorlw	128
  7155  175E  0020               	movlb	0	; select bank0
  7156  175F  00C3               	movwf	??_leds_off
  7157  1760  3080               	movlw	128
  7158  1761  0243               	subwf	??_leds_off,w
  7159  1762  1D03               	skipz
  7160  1763  2F67               	goto	u4145
  7161  1764  3004               	movlw	4
  7162  1765  0021               	movlb	1	; select bank1
  7163  1766  0220               	subwf	leds_off@i^(0+128),w
  7164  1767                     u4145:	
  7165  1767  1803               	btfsc	3,0
  7166  1768  2F7F               	goto	l4685
  7167  1769                     l4679:	
  7168                           
  7169                           ;lighting.c: 656: {
  7170                           ;lighting.c: 657: writespi(0x00);
  7171  1769  3000               	movlw	0
  7172  176A  3190  2097  3197   	fcall	_writespi
  7173  176D  3001               	movlw	1
  7174  176E  0021               	movlb	1	; select bank1
  7175  176F  07A0               	addwf	leds_off@i^(0+128),f
  7176  1770  3000               	movlw	0
  7177  1771  3DA1               	addwfc	(leds_off@i+1)^(0+128),f
  7178  1772  0821               	movf	(leds_off@i+1)^(0+128),w
  7179  1773  3A80               	xorlw	128
  7180  1774  0020               	movlb	0	; select bank0
  7181  1775  00C3               	movwf	??_leds_off
  7182  1776  3080               	movlw	128
  7183  1777  0243               	subwf	??_leds_off,w
  7184  1778  1D03               	skipz
  7185  1779  2F7D               	goto	u4155
  7186  177A  3004               	movlw	4
  7187  177B  0021               	movlb	1	; select bank1
  7188  177C  0220               	subwf	leds_off@i^(0+128),w
  7189  177D                     u4155:	
  7190  177D  1C03               	skipc
  7191  177E  2F69               	goto	l4679
  7192  177F                     l4685:	
  7193                           
  7194                           ;lighting.c: 658: }
  7195                           ;lighting.c: 660: writespi(0xFF);
  7196  177F  30FF               	movlw	255
  7197  1780  3190  2097  3197   	fcall	_writespi
  7198                           
  7199                           ;lighting.c: 661: writespi(0);
  7200  1783  3000               	movlw	0
  7201  1784  3190  2097  3197   	fcall	_writespi
  7202                           
  7203                           ;lighting.c: 662: writespi(0);
  7204  1787  3000               	movlw	0
  7205  1788  3190  2097  3197   	fcall	_writespi
  7206                           
  7207                           ;lighting.c: 663: writespi(0);
  7208  178B  3000               	movlw	0
  7209  178C  3190  2097  3197   	fcall	_writespi
  7210                           
  7211                           ;lighting.c: 665: writespi(0xFF);
  7212  178F  30FF               	movlw	255
  7213  1790  3190  2097  3197   	fcall	_writespi
  7214                           
  7215                           ;lighting.c: 666: writespi(0);
  7216  1793  3000               	movlw	0
  7217  1794  3190  2097  3197   	fcall	_writespi
  7218                           
  7219                           ;lighting.c: 667: writespi(0);
  7220  1797  3000               	movlw	0
  7221  1798  3190  2097  3197   	fcall	_writespi
  7222                           
  7223                           ;lighting.c: 668: writespi(0);
  7224  179B  3000               	movlw	0
  7225  179C  3190  2097  3197   	fcall	_writespi
  7226                           
  7227                           ;lighting.c: 670: writespi(0xFF);
  7228  179F  30FF               	movlw	255
  7229  17A0  3190  2097  3197   	fcall	_writespi
  7230                           
  7231                           ;lighting.c: 671: writespi(0);
  7232  17A3  3000               	movlw	0
  7233  17A4  3190  2097  3197   	fcall	_writespi
  7234                           
  7235                           ;lighting.c: 672: writespi(0);
  7236  17A7  3000               	movlw	0
  7237  17A8  3190  2097  3197   	fcall	_writespi
  7238                           
  7239                           ;lighting.c: 673: writespi(0);
  7240  17AB  3000               	movlw	0
  7241  17AC  3190  2097  3197   	fcall	_writespi
  7242                           
  7243                           ;lighting.c: 675: writespi(0xFF);
  7244  17AF  30FF               	movlw	255
  7245  17B0  3190  2097  3197   	fcall	_writespi
  7246                           
  7247                           ;lighting.c: 676: writespi(0);
  7248  17B3  3000               	movlw	0
  7249  17B4  3190  2097  3197   	fcall	_writespi
  7250                           
  7251                           ;lighting.c: 677: writespi(0);
  7252  17B7  3000               	movlw	0
  7253  17B8  3190  2097  3197   	fcall	_writespi
  7254                           
  7255                           ;lighting.c: 678: writespi(0);
  7256  17BB  3000               	movlw	0
  7257  17BC  3190  2097  3197   	fcall	_writespi
  7258                           
  7259                           ;lighting.c: 680: writespi(0xFF);
  7260  17BF  30FF               	movlw	255
  7261  17C0  3190  2097  3197   	fcall	_writespi
  7262                           
  7263                           ;lighting.c: 681: writespi(0);
  7264  17C3  3000               	movlw	0
  7265  17C4  3190  2097  3197   	fcall	_writespi
  7266                           
  7267                           ;lighting.c: 682: writespi(0);
  7268  17C7  3000               	movlw	0
  7269  17C8  3190  2097  3197   	fcall	_writespi
  7270                           
  7271                           ;lighting.c: 683: writespi(0);
  7272  17CB  3000               	movlw	0
  7273  17CC  3190  2097  3197   	fcall	_writespi
  7274                           
  7275                           ;lighting.c: 685: for(int i = 0;i < 4; i++)
  7276  17CF  0021               	movlb	1	; select bank1
  7277  17D0  01A2               	clrf	leds_off@i_668^(0+128)
  7278  17D1  01A3               	clrf	(leds_off@i_668+1)^(0+128)
  7279  17D2  0823               	movf	(leds_off@i_668+1)^(0+128),w
  7280  17D3  3A80               	xorlw	128
  7281  17D4  0020               	movlb	0	; select bank0
  7282  17D5  00C3               	movwf	??_leds_off
  7283  17D6  3080               	movlw	128
  7284  17D7  0243               	subwf	??_leds_off,w
  7285  17D8  1D03               	skipz
  7286  17D9  2FDD               	goto	u4165
  7287  17DA  3004               	movlw	4
  7288  17DB  0021               	movlb	1	; select bank1
  7289  17DC  0222               	subwf	leds_off@i_668^(0+128),w
  7290  17DD                     u4165:	
  7291  17DD  1803               	btfsc	3,0
  7292  17DE  2FF5               	goto	l4699
  7293  17DF                     l4693:	
  7294                           
  7295                           ;lighting.c: 686: {
  7296                           ;lighting.c: 687: writespi(0xFF);
  7297  17DF  30FF               	movlw	255
  7298  17E0  3190  2097  3197   	fcall	_writespi
  7299  17E3  3001               	movlw	1
  7300  17E4  0021               	movlb	1	; select bank1
  7301  17E5  07A2               	addwf	leds_off@i_668^(0+128),f
  7302  17E6  3000               	movlw	0
  7303  17E7  3DA3               	addwfc	(leds_off@i_668+1)^(0+128),f
  7304  17E8  0823               	movf	(leds_off@i_668+1)^(0+128),w
  7305  17E9  3A80               	xorlw	128
  7306  17EA  0020               	movlb	0	; select bank0
  7307  17EB  00C3               	movwf	??_leds_off
  7308  17EC  3080               	movlw	128
  7309  17ED  0243               	subwf	??_leds_off,w
  7310  17EE  1D03               	skipz
  7311  17EF  2FF3               	goto	u4175
  7312  17F0  3004               	movlw	4
  7313  17F1  0021               	movlb	1	; select bank1
  7314  17F2  0222               	subwf	leds_off@i_668^(0+128),w
  7315  17F3                     u4175:	
  7316  17F3  1C03               	skipc
  7317  17F4  2FDF               	goto	l4693
  7318  17F5                     l4699:	
  7319                           
  7320                           ;lighting.c: 688: }
  7321                           ;lighting.c: 689: _delay((unsigned long)((20)*(32000000/4000.0)));
  7322  17F5  30D0               	movlw	208
  7323  17F6  0020               	movlb	0	; select bank0
  7324  17F7  00C4               	movwf	??_leds_off+1
  7325  17F8  30C9               	movlw	201
  7326  17F9  00C3               	movwf	??_leds_off
  7327  17FA                     u5157:	
  7328  17FA  0BC3               	decfsz	??_leds_off,f
  7329  17FB  2FFA               	goto	u5157
  7330  17FC  0BC4               	decfsz	??_leds_off+1,f
  7331  17FD  2FFA               	goto	u5157
  7332  17FE  3200               	nop2
  7333  17FF  0008               	return
  7334  1800                     __end_of_leds_off:	
  7335                           
  7336                           	psect	text11
  7337  0B5D                     __ptext11:	
  7338 ;; *************** function _led5_command *****************
  7339 ;; Defined at:
  7340 ;;		line 609 in file "../../source/lighting.c"
  7341 ;; Parameters:    Size  Location     Type
  7342 ;;  brightness      1    wreg     unsigned char 
  7343 ;;  red             1   35[BANK0 ] unsigned char 
  7344 ;;  green           1   36[BANK0 ] unsigned char 
  7345 ;;  blue            1   37[BANK0 ] unsigned char 
  7346 ;; Auto vars:     Size  Location     Type
  7347 ;;  brightness      1    0[BANK1 ] unsigned char 
  7348 ;;  i               2    3[BANK1 ] int 
  7349 ;;  i               2    1[BANK1 ] int 
  7350 ;; Return value:  Size  Location     Type
  7351 ;;		None               void
  7352 ;; Registers used:
  7353 ;;		wreg, status,2, status,0, pclath, cstack
  7354 ;; Tracked objects:
  7355 ;;		On entry : 0/0
  7356 ;;		On exit  : 0/0
  7357 ;;		Unchanged: 0/0
  7358 ;; Data sizes:     COMMON   BANK0   BANK1   BANK2   BANK3   BANK4   BANK5   BANK6   BANK7   BANK8   BANK9  BANK10  BANK1
      +1  BANK12  BANK13  BANK14  BANK15  BANK16  BANK17  BANK18  BANK19  BANK20  BANK21  BANK22  BANK23  BANK24  BANK25
  7359 ;;      Params:         0       3       0       0       0       0       0       0       0       0       0       0       
      +0       0       0       0       0       0       0       0       0       0       0       0       0       0       0
  7360 ;;      Locals:         0       0       5       0       0       0       0       0       0       0       0       0       
      +0       0       0       0       0       0       0       0       0       0       0       0       0       0       0
  7361 ;;      Temps:          0       2       0       0       0       0       0       0       0       0       0       0       
      +0       0       0       0       0       0       0       0       0       0       0       0       0       0       0
  7362 ;;      Totals:         0       5       5       0       0       0       0       0       0       0       0       0       
      +0       0       0       0       0       0       0       0       0       0       0       0       0       0       0
  7363 ;;Total ram usage:       10 bytes
  7364 ;; Hardware stack levels used:    1
  7365 ;; Hardware stack levels required when called:    5
  7366 ;; This function calls:
  7367 ;;		_writespi
  7368 ;; This function is called by:
  7369 ;;		_display_blade_lights
  7370 ;; This function uses a non-reentrant model
  7371 ;;
  7372                           
  7373                           
  7374                           ;psect for function _led5_command
  7375  0B5D                     _led5_command:	
  7376                           
  7377                           ;incstack = 0
  7378                           ; Regs used in _led5_command: [wreg+status,2+status,0+pclath+cstack]
  7379                           ;led5_command@brightness stored from wreg
  7380  0B5D  0021               	movlb	1	; select bank1
  7381  0B5E  00A0               	movwf	led5_command@brightness^(0+128)
  7382                           
  7383                           ;lighting.c: 615: for(int i = 0;i < 4; i++)
  7384  0B5F  01A1               	clrf	led5_command@i^(0+128)
  7385  0B60  01A2               	clrf	(led5_command@i+1)^(0+128)
  7386  0B61  0822               	movf	(led5_command@i+1)^(0+128),w
  7387  0B62  3A80               	xorlw	128
  7388  0B63  0020               	movlb	0	; select bank0
  7389  0B64  00C6               	movwf	??_led5_command
  7390  0B65  3080               	movlw	128
  7391  0B66  0246               	subwf	??_led5_command,w
  7392  0B67  1D03               	skipz
  7393  0B68  2B6C               	goto	u4345
  7394  0B69  3004               	movlw	4
  7395  0B6A  0021               	movlb	1	; select bank1
  7396  0B6B  0221               	subwf	led5_command@i^(0+128),w
  7397  0B6C                     u4345:	
  7398  0B6C  1803               	btfsc	3,0
  7399  0B6D  2B84               	goto	l4825
  7400  0B6E                     l4819:	
  7401                           
  7402                           ;lighting.c: 616: {
  7403                           ;lighting.c: 617: writespi(0x00);
  7404  0B6E  3000               	movlw	0
  7405  0B6F  3190  2097  318B   	fcall	_writespi
  7406  0B72  3001               	movlw	1
  7407  0B73  0021               	movlb	1	; select bank1
  7408  0B74  07A1               	addwf	led5_command@i^(0+128),f
  7409  0B75  3000               	movlw	0
  7410  0B76  3DA2               	addwfc	(led5_command@i+1)^(0+128),f
  7411  0B77  0822               	movf	(led5_command@i+1)^(0+128),w
  7412  0B78  3A80               	xorlw	128
  7413  0B79  0020               	movlb	0	; select bank0
  7414  0B7A  00C6               	movwf	??_led5_command
  7415  0B7B  3080               	movlw	128
  7416  0B7C  0246               	subwf	??_led5_command,w
  7417  0B7D  1D03               	skipz
  7418  0B7E  2B82               	goto	u4355
  7419  0B7F  3004               	movlw	4
  7420  0B80  0021               	movlb	1	; select bank1
  7421  0B81  0221               	subwf	led5_command@i^(0+128),w
  7422  0B82                     u4355:	
  7423  0B82  1C03               	skipc
  7424  0B83  2B6E               	goto	l4819
  7425  0B84                     l4825:	
  7426                           
  7427                           ;lighting.c: 618: }
  7428                           ;lighting.c: 620: writespi(0xFF);
  7429  0B84  30FF               	movlw	255
  7430  0B85  3190  2097  318B   	fcall	_writespi
  7431                           
  7432                           ;lighting.c: 621: writespi(0);
  7433  0B88  3000               	movlw	0
  7434  0B89  3190  2097  318B   	fcall	_writespi
  7435                           
  7436                           ;lighting.c: 622: writespi(0);
  7437  0B8C  3000               	movlw	0
  7438  0B8D  3190  2097  318B   	fcall	_writespi
  7439                           
  7440                           ;lighting.c: 623: writespi(0);
  7441  0B90  3000               	movlw	0
  7442  0B91  3190  2097  318B   	fcall	_writespi
  7443                           
  7444                           ;lighting.c: 625: writespi(0xFF);
  7445  0B94  30FF               	movlw	255
  7446  0B95  3190  2097  318B   	fcall	_writespi
  7447                           
  7448                           ;lighting.c: 626: writespi(0);
  7449  0B98  3000               	movlw	0
  7450  0B99  3190  2097  318B   	fcall	_writespi
  7451                           
  7452                           ;lighting.c: 627: writespi(0);
  7453  0B9C  3000               	movlw	0
  7454  0B9D  3190  2097  318B   	fcall	_writespi
  7455                           
  7456                           ;lighting.c: 628: writespi(0);
  7457  0BA0  3000               	movlw	0
  7458  0BA1  3190  2097  318B   	fcall	_writespi
  7459                           
  7460                           ;lighting.c: 630: writespi(0xFF);
  7461  0BA4  30FF               	movlw	255
  7462  0BA5  3190  2097  318B   	fcall	_writespi
  7463                           
  7464                           ;lighting.c: 631: writespi(0);
  7465  0BA8  3000               	movlw	0
  7466  0BA9  3190  2097  318B   	fcall	_writespi
  7467                           
  7468                           ;lighting.c: 632: writespi(0);
  7469  0BAC  3000               	movlw	0
  7470  0BAD  3190  2097  318B   	fcall	_writespi
  7471                           
  7472                           ;lighting.c: 633: writespi(0);
  7473  0BB0  3000               	movlw	0
  7474  0BB1  3190  2097  318B   	fcall	_writespi
  7475                           
  7476                           ;lighting.c: 635: writespi(0xFF);
  7477  0BB4  30FF               	movlw	255
  7478  0BB5  3190  2097  318B   	fcall	_writespi
  7479                           
  7480                           ;lighting.c: 636: writespi(0);
  7481  0BB8  3000               	movlw	0
  7482  0BB9  3190  2097  318B   	fcall	_writespi
  7483                           
  7484                           ;lighting.c: 637: writespi(0);
  7485  0BBC  3000               	movlw	0
  7486  0BBD  3190  2097  318B   	fcall	_writespi
  7487                           
  7488                           ;lighting.c: 638: writespi(0);
  7489  0BC0  3000               	movlw	0
  7490  0BC1  3190  2097  318B   	fcall	_writespi
  7491                           
  7492                           ;lighting.c: 640: writespi(brightness);
  7493  0BC4  0021               	movlb	1	; select bank1
  7494  0BC5  0820               	movf	led5_command@brightness^(0+128),w
  7495  0BC6  3190  2097  318B   	fcall	_writespi
  7496                           
  7497                           ;lighting.c: 641: writespi(blue);
  7498  0BC9  0020               	movlb	0	; select bank0
  7499  0BCA  0845               	movf	led5_command@blue,w
  7500  0BCB  3190  2097  318B   	fcall	_writespi
  7501                           
  7502                           ;lighting.c: 642: writespi(green);
  7503  0BCE  0020               	movlb	0	; select bank0
  7504  0BCF  0844               	movf	led5_command@green,w
  7505  0BD0  3190  2097  318B   	fcall	_writespi
  7506                           
  7507                           ;lighting.c: 643: writespi(red);
  7508  0BD3  0020               	movlb	0	; select bank0
  7509  0BD4  0843               	movf	led5_command@red,w
  7510  0BD5  3190  2097  318B   	fcall	_writespi
  7511                           
  7512                           ;lighting.c: 645: for(int i = 0;i < 4; i++)
  7513  0BD8  0021               	movlb	1	; select bank1
  7514  0BD9  01A3               	clrf	led5_command@i_665^(0+128)
  7515  0BDA  01A4               	clrf	(led5_command@i_665+1)^(0+128)
  7516  0BDB  0824               	movf	(led5_command@i_665+1)^(0+128),w
  7517  0BDC  3A80               	xorlw	128
  7518  0BDD  0020               	movlb	0	; select bank0
  7519  0BDE  00C6               	movwf	??_led5_command
  7520  0BDF  3080               	movlw	128
  7521  0BE0  0246               	subwf	??_led5_command,w
  7522  0BE1  1D03               	skipz
  7523  0BE2  2BE6               	goto	u4365
  7524  0BE3  3004               	movlw	4
  7525  0BE4  0021               	movlb	1	; select bank1
  7526  0BE5  0223               	subwf	led5_command@i_665^(0+128),w
  7527  0BE6                     u4365:	
  7528  0BE6  1803               	btfsc	3,0
  7529  0BE7  2BFE               	goto	l4839
  7530  0BE8                     l4833:	
  7531                           
  7532                           ;lighting.c: 646: {
  7533                           ;lighting.c: 647: writespi(0xFF);
  7534  0BE8  30FF               	movlw	255
  7535  0BE9  3190  2097  318B   	fcall	_writespi
  7536  0BEC  3001               	movlw	1
  7537  0BED  0021               	movlb	1	; select bank1
  7538  0BEE  07A3               	addwf	led5_command@i_665^(0+128),f
  7539  0BEF  3000               	movlw	0
  7540  0BF0  3DA4               	addwfc	(led5_command@i_665+1)^(0+128),f
  7541  0BF1  0824               	movf	(led5_command@i_665+1)^(0+128),w
  7542  0BF2  3A80               	xorlw	128
  7543  0BF3  0020               	movlb	0	; select bank0
  7544  0BF4  00C6               	movwf	??_led5_command
  7545  0BF5  3080               	movlw	128
  7546  0BF6  0246               	subwf	??_led5_command,w
  7547  0BF7  1D03               	skipz
  7548  0BF8  2BFC               	goto	u4375
  7549  0BF9  3004               	movlw	4
  7550  0BFA  0021               	movlb	1	; select bank1
  7551  0BFB  0223               	subwf	led5_command@i_665^(0+128),w
  7552  0BFC                     u4375:	
  7553  0BFC  1C03               	skipc
  7554  0BFD  2BE8               	goto	l4833
  7555  0BFE                     l4839:	
  7556                           
  7557                           ;lighting.c: 648: }
  7558                           ;lighting.c: 649: _delay((unsigned long)((20)*(32000000/4000.0)));
  7559  0BFE  30D0               	movlw	208
  7560  0BFF  0020               	movlb	0	; select bank0
  7561  0C00  00C7               	movwf	??_led5_command+1
  7562  0C01  30C9               	movlw	201
  7563  0C02  00C6               	movwf	??_led5_command
  7564  0C03                     u5167:	
  7565  0C03  0BC6               	decfsz	??_led5_command,f
  7566  0C04  2C03               	goto	u5167
  7567  0C05  0BC7               	decfsz	??_led5_command+1,f
  7568  0C06  2C03               	goto	u5167
  7569  0C07  3200               	nop2
  7570  0C08  0008               	return
  7571  0C09                     __end_of_led5_command:	
  7572                           
  7573                           	psect	text12
  7574  0AB1                     __ptext12:	
  7575 ;; *************** function _led4_command *****************
  7576 ;; Defined at:
  7577 ;;		line 566 in file "../../source/lighting.c"
  7578 ;; Parameters:    Size  Location     Type
  7579 ;;  brightness      1    wreg     unsigned char 
  7580 ;;  red             1   35[BANK0 ] unsigned char 
  7581 ;;  green           1   36[BANK0 ] unsigned char 
  7582 ;;  blue            1   37[BANK0 ] unsigned char 
  7583 ;; Auto vars:     Size  Location     Type
  7584 ;;  brightness      1    0[BANK1 ] unsigned char 
  7585 ;;  i               2    3[BANK1 ] int 
  7586 ;;  i               2    1[BANK1 ] int 
  7587 ;; Return value:  Size  Location     Type
  7588 ;;		None               void
  7589 ;; Registers used:
  7590 ;;		wreg, status,2, status,0, pclath, cstack
  7591 ;; Tracked objects:
  7592 ;;		On entry : 0/0
  7593 ;;		On exit  : 0/0
  7594 ;;		Unchanged: 0/0
  7595 ;; Data sizes:     COMMON   BANK0   BANK1   BANK2   BANK3   BANK4   BANK5   BANK6   BANK7   BANK8   BANK9  BANK10  BANK1
      +1  BANK12  BANK13  BANK14  BANK15  BANK16  BANK17  BANK18  BANK19  BANK20  BANK21  BANK22  BANK23  BANK24  BANK25
  7596 ;;      Params:         0       3       0       0       0       0       0       0       0       0       0       0       
      +0       0       0       0       0       0       0       0       0       0       0       0       0       0       0
  7597 ;;      Locals:         0       0       5       0       0       0       0       0       0       0       0       0       
      +0       0       0       0       0       0       0       0       0       0       0       0       0       0       0
  7598 ;;      Temps:          0       2       0       0       0       0       0       0       0       0       0       0       
      +0       0       0       0       0       0       0       0       0       0       0       0       0       0       0
  7599 ;;      Totals:         0       5       5       0       0       0       0       0       0       0       0       0       
      +0       0       0       0       0       0       0       0       0       0       0       0       0       0       0
  7600 ;;Total ram usage:       10 bytes
  7601 ;; Hardware stack levels used:    1
  7602 ;; Hardware stack levels required when called:    5
  7603 ;; This function calls:
  7604 ;;		_writespi
  7605 ;; This function is called by:
  7606 ;;		_display_blade_lights
  7607 ;; This function uses a non-reentrant model
  7608 ;;
  7609                           
  7610                           
  7611                           ;psect for function _led4_command
  7612  0AB1                     _led4_command:	
  7613                           
  7614                           ;incstack = 0
  7615                           ; Regs used in _led4_command: [wreg+status,2+status,0+pclath+cstack]
  7616                           ;led4_command@brightness stored from wreg
  7617  0AB1  0021               	movlb	1	; select bank1
  7618  0AB2  00A0               	movwf	led4_command@brightness^(0+128)
  7619                           
  7620                           ;lighting.c: 572: for(int i = 0;i < 4; i++)
  7621  0AB3  01A1               	clrf	led4_command@i^(0+128)
  7622  0AB4  01A2               	clrf	(led4_command@i+1)^(0+128)
  7623  0AB5  0822               	movf	(led4_command@i+1)^(0+128),w
  7624  0AB6  3A80               	xorlw	128
  7625  0AB7  0020               	movlb	0	; select bank0
  7626  0AB8  00C6               	movwf	??_led4_command
  7627  0AB9  3080               	movlw	128
  7628  0ABA  0246               	subwf	??_led4_command,w
  7629  0ABB  1D03               	skipz
  7630  0ABC  2AC0               	goto	u4305
  7631  0ABD  3004               	movlw	4
  7632  0ABE  0021               	movlb	1	; select bank1
  7633  0ABF  0221               	subwf	led4_command@i^(0+128),w
  7634  0AC0                     u4305:	
  7635  0AC0  1803               	btfsc	3,0
  7636  0AC1  2AD8               	goto	l4797
  7637  0AC2                     l4791:	
  7638                           
  7639                           ;lighting.c: 573: {
  7640                           ;lighting.c: 574: writespi(0x00);
  7641  0AC2  3000               	movlw	0
  7642  0AC3  3190  2097  318A   	fcall	_writespi
  7643  0AC6  3001               	movlw	1
  7644  0AC7  0021               	movlb	1	; select bank1
  7645  0AC8  07A1               	addwf	led4_command@i^(0+128),f
  7646  0AC9  3000               	movlw	0
  7647  0ACA  3DA2               	addwfc	(led4_command@i+1)^(0+128),f
  7648  0ACB  0822               	movf	(led4_command@i+1)^(0+128),w
  7649  0ACC  3A80               	xorlw	128
  7650  0ACD  0020               	movlb	0	; select bank0
  7651  0ACE  00C6               	movwf	??_led4_command
  7652  0ACF  3080               	movlw	128
  7653  0AD0  0246               	subwf	??_led4_command,w
  7654  0AD1  1D03               	skipz
  7655  0AD2  2AD6               	goto	u4315
  7656  0AD3  3004               	movlw	4
  7657  0AD4  0021               	movlb	1	; select bank1
  7658  0AD5  0221               	subwf	led4_command@i^(0+128),w
  7659  0AD6                     u4315:	
  7660  0AD6  1C03               	skipc
  7661  0AD7  2AC2               	goto	l4791
  7662  0AD8                     l4797:	
  7663                           
  7664                           ;lighting.c: 575: }
  7665                           ;lighting.c: 577: writespi(0xFF);
  7666  0AD8  30FF               	movlw	255
  7667  0AD9  3190  2097  318A   	fcall	_writespi
  7668                           
  7669                           ;lighting.c: 578: writespi(0);
  7670  0ADC  3000               	movlw	0
  7671  0ADD  3190  2097  318A   	fcall	_writespi
  7672                           
  7673                           ;lighting.c: 579: writespi(0);
  7674  0AE0  3000               	movlw	0
  7675  0AE1  3190  2097  318A   	fcall	_writespi
  7676                           
  7677                           ;lighting.c: 580: writespi(0);
  7678  0AE4  3000               	movlw	0
  7679  0AE5  3190  2097  318A   	fcall	_writespi
  7680                           
  7681                           ;lighting.c: 582: writespi(0xFF);
  7682  0AE8  30FF               	movlw	255
  7683  0AE9  3190  2097  318A   	fcall	_writespi
  7684                           
  7685                           ;lighting.c: 583: writespi(0);
  7686  0AEC  3000               	movlw	0
  7687  0AED  3190  2097  318A   	fcall	_writespi
  7688                           
  7689                           ;lighting.c: 584: writespi(0);
  7690  0AF0  3000               	movlw	0
  7691  0AF1  3190  2097  318A   	fcall	_writespi
  7692                           
  7693                           ;lighting.c: 585: writespi(0);
  7694  0AF4  3000               	movlw	0
  7695  0AF5  3190  2097  318A   	fcall	_writespi
  7696                           
  7697                           ;lighting.c: 587: writespi(0xFF);
  7698  0AF8  30FF               	movlw	255
  7699  0AF9  3190  2097  318A   	fcall	_writespi
  7700                           
  7701                           ;lighting.c: 588: writespi(0);
  7702  0AFC  3000               	movlw	0
  7703  0AFD  3190  2097  318A   	fcall	_writespi
  7704                           
  7705                           ;lighting.c: 589: writespi(0);
  7706  0B00  3000               	movlw	0
  7707  0B01  3190  2097  318A   	fcall	_writespi
  7708                           
  7709                           ;lighting.c: 590: writespi(0);
  7710  0B04  3000               	movlw	0
  7711  0B05  3190  2097  318A   	fcall	_writespi
  7712                           
  7713                           ;lighting.c: 592: writespi(brightness);
  7714  0B08  0021               	movlb	1	; select bank1
  7715  0B09  0820               	movf	led4_command@brightness^(0+128),w
  7716  0B0A  3190  2097  318A   	fcall	_writespi
  7717                           
  7718                           ;lighting.c: 593: writespi(blue);
  7719  0B0D  0020               	movlb	0	; select bank0
  7720  0B0E  0845               	movf	led4_command@blue,w
  7721  0B0F  3190  2097  318A   	fcall	_writespi
  7722                           
  7723                           ;lighting.c: 594: writespi(green);
  7724  0B12  0020               	movlb	0	; select bank0
  7725  0B13  0844               	movf	led4_command@green,w
  7726  0B14  3190  2097  318A   	fcall	_writespi
  7727                           
  7728                           ;lighting.c: 595: writespi(red);
  7729  0B17  0020               	movlb	0	; select bank0
  7730  0B18  0843               	movf	led4_command@red,w
  7731  0B19  3190  2097  318A   	fcall	_writespi
  7732                           
  7733                           ;lighting.c: 597: writespi(0xFF);
  7734  0B1C  30FF               	movlw	255
  7735  0B1D  3190  2097  318A   	fcall	_writespi
  7736                           
  7737                           ;lighting.c: 598: writespi(0);
  7738  0B20  3000               	movlw	0
  7739  0B21  3190  2097  318A   	fcall	_writespi
  7740                           
  7741                           ;lighting.c: 599: writespi(0);
  7742  0B24  3000               	movlw	0
  7743  0B25  3190  2097  318A   	fcall	_writespi
  7744                           
  7745                           ;lighting.c: 600: writespi(0);
  7746  0B28  3000               	movlw	0
  7747  0B29  3190  2097  318A   	fcall	_writespi
  7748                           
  7749                           ;lighting.c: 602: for(int i = 0;i < 4; i++)
  7750  0B2C  0021               	movlb	1	; select bank1
  7751  0B2D  01A3               	clrf	led4_command@i_658^(0+128)
  7752  0B2E  01A4               	clrf	(led4_command@i_658+1)^(0+128)
  7753  0B2F  0824               	movf	(led4_command@i_658+1)^(0+128),w
  7754  0B30  3A80               	xorlw	128
  7755  0B31  0020               	movlb	0	; select bank0
  7756  0B32  00C6               	movwf	??_led4_command
  7757  0B33  3080               	movlw	128
  7758  0B34  0246               	subwf	??_led4_command,w
  7759  0B35  1D03               	skipz
  7760  0B36  2B3A               	goto	u4325
  7761  0B37  3004               	movlw	4
  7762  0B38  0021               	movlb	1	; select bank1
  7763  0B39  0223               	subwf	led4_command@i_658^(0+128),w
  7764  0B3A                     u4325:	
  7765  0B3A  1803               	btfsc	3,0
  7766  0B3B  2B52               	goto	l4811
  7767  0B3C                     l4805:	
  7768                           
  7769                           ;lighting.c: 603: {
  7770                           ;lighting.c: 604: writespi(0xFF);
  7771  0B3C  30FF               	movlw	255
  7772  0B3D  3190  2097  318A   	fcall	_writespi
  7773  0B40  3001               	movlw	1
  7774  0B41  0021               	movlb	1	; select bank1
  7775  0B42  07A3               	addwf	led4_command@i_658^(0+128),f
  7776  0B43  3000               	movlw	0
  7777  0B44  3DA4               	addwfc	(led4_command@i_658+1)^(0+128),f
  7778  0B45  0824               	movf	(led4_command@i_658+1)^(0+128),w
  7779  0B46  3A80               	xorlw	128
  7780  0B47  0020               	movlb	0	; select bank0
  7781  0B48  00C6               	movwf	??_led4_command
  7782  0B49  3080               	movlw	128
  7783  0B4A  0246               	subwf	??_led4_command,w
  7784  0B4B  1D03               	skipz
  7785  0B4C  2B50               	goto	u4335
  7786  0B4D  3004               	movlw	4
  7787  0B4E  0021               	movlb	1	; select bank1
  7788  0B4F  0223               	subwf	led4_command@i_658^(0+128),w
  7789  0B50                     u4335:	
  7790  0B50  1C03               	skipc
  7791  0B51  2B3C               	goto	l4805
  7792  0B52                     l4811:	
  7793                           
  7794                           ;lighting.c: 605: }
  7795                           ;lighting.c: 606: _delay((unsigned long)((20)*(32000000/4000.0)));
  7796  0B52  30D0               	movlw	208
  7797  0B53  0020               	movlb	0	; select bank0
  7798  0B54  00C7               	movwf	??_led4_command+1
  7799  0B55  30C9               	movlw	201
  7800  0B56  00C6               	movwf	??_led4_command
  7801  0B57                     u5177:	
  7802  0B57  0BC6               	decfsz	??_led4_command,f
  7803  0B58  2B57               	goto	u5177
  7804  0B59  0BC7               	decfsz	??_led4_command+1,f
  7805  0B5A  2B57               	goto	u5177
  7806  0B5B  3200               	nop2
  7807  0B5C  0008               	return
  7808  0B5D                     __end_of_led4_command:	
  7809                           
  7810                           	psect	text13
  7811  0A05                     __ptext13:	
  7812 ;; *************** function _led3_command *****************
  7813 ;; Defined at:
  7814 ;;		line 523 in file "../../source/lighting.c"
  7815 ;; Parameters:    Size  Location     Type
  7816 ;;  brightness      1    wreg     unsigned char 
  7817 ;;  red             1   35[BANK0 ] unsigned char 
  7818 ;;  green           1   36[BANK0 ] unsigned char 
  7819 ;;  blue            1   37[BANK0 ] unsigned char 
  7820 ;; Auto vars:     Size  Location     Type
  7821 ;;  brightness      1    0[BANK1 ] unsigned char 
  7822 ;;  i               2    3[BANK1 ] int 
  7823 ;;  i               2    1[BANK1 ] int 
  7824 ;; Return value:  Size  Location     Type
  7825 ;;		None               void
  7826 ;; Registers used:
  7827 ;;		wreg, status,2, status,0, pclath, cstack
  7828 ;; Tracked objects:
  7829 ;;		On entry : 0/0
  7830 ;;		On exit  : 0/0
  7831 ;;		Unchanged: 0/0
  7832 ;; Data sizes:     COMMON   BANK0   BANK1   BANK2   BANK3   BANK4   BANK5   BANK6   BANK7   BANK8   BANK9  BANK10  BANK1
      +1  BANK12  BANK13  BANK14  BANK15  BANK16  BANK17  BANK18  BANK19  BANK20  BANK21  BANK22  BANK23  BANK24  BANK25
  7833 ;;      Params:         0       3       0       0       0       0       0       0       0       0       0       0       
      +0       0       0       0       0       0       0       0       0       0       0       0       0       0       0
  7834 ;;      Locals:         0       0       5       0       0       0       0       0       0       0       0       0       
      +0       0       0       0       0       0       0       0       0       0       0       0       0       0       0
  7835 ;;      Temps:          0       2       0       0       0       0       0       0       0       0       0       0       
      +0       0       0       0       0       0       0       0       0       0       0       0       0       0       0
  7836 ;;      Totals:         0       5       5       0       0       0       0       0       0       0       0       0       
      +0       0       0       0       0       0       0       0       0       0       0       0       0       0       0
  7837 ;;Total ram usage:       10 bytes
  7838 ;; Hardware stack levels used:    1
  7839 ;; Hardware stack levels required when called:    5
  7840 ;; This function calls:
  7841 ;;		_writespi
  7842 ;; This function is called by:
  7843 ;;		_display_blade_lights
  7844 ;; This function uses a non-reentrant model
  7845 ;;
  7846                           
  7847                           
  7848                           ;psect for function _led3_command
  7849  0A05                     _led3_command:	
  7850                           
  7851                           ;incstack = 0
  7852                           ; Regs used in _led3_command: [wreg+status,2+status,0+pclath+cstack]
  7853                           ;led3_command@brightness stored from wreg
  7854  0A05  0021               	movlb	1	; select bank1
  7855  0A06  00A0               	movwf	led3_command@brightness^(0+128)
  7856                           
  7857                           ;lighting.c: 529: for(int i = 0;i < 4; i++)
  7858  0A07  01A1               	clrf	led3_command@i^(0+128)
  7859  0A08  01A2               	clrf	(led3_command@i+1)^(0+128)
  7860  0A09  0822               	movf	(led3_command@i+1)^(0+128),w
  7861  0A0A  3A80               	xorlw	128
  7862  0A0B  0020               	movlb	0	; select bank0
  7863  0A0C  00C6               	movwf	??_led3_command
  7864  0A0D  3080               	movlw	128
  7865  0A0E  0246               	subwf	??_led3_command,w
  7866  0A0F  1D03               	skipz
  7867  0A10  2A14               	goto	u4265
  7868  0A11  3004               	movlw	4
  7869  0A12  0021               	movlb	1	; select bank1
  7870  0A13  0221               	subwf	led3_command@i^(0+128),w
  7871  0A14                     u4265:	
  7872  0A14  1803               	btfsc	3,0
  7873  0A15  2A2C               	goto	l4769
  7874  0A16                     l4763:	
  7875                           
  7876                           ;lighting.c: 530: {
  7877                           ;lighting.c: 531: writespi(0x00);
  7878  0A16  3000               	movlw	0
  7879  0A17  3190  2097  318A   	fcall	_writespi
  7880  0A1A  3001               	movlw	1
  7881  0A1B  0021               	movlb	1	; select bank1
  7882  0A1C  07A1               	addwf	led3_command@i^(0+128),f
  7883  0A1D  3000               	movlw	0
  7884  0A1E  3DA2               	addwfc	(led3_command@i+1)^(0+128),f
  7885  0A1F  0822               	movf	(led3_command@i+1)^(0+128),w
  7886  0A20  3A80               	xorlw	128
  7887  0A21  0020               	movlb	0	; select bank0
  7888  0A22  00C6               	movwf	??_led3_command
  7889  0A23  3080               	movlw	128
  7890  0A24  0246               	subwf	??_led3_command,w
  7891  0A25  1D03               	skipz
  7892  0A26  2A2A               	goto	u4275
  7893  0A27  3004               	movlw	4
  7894  0A28  0021               	movlb	1	; select bank1
  7895  0A29  0221               	subwf	led3_command@i^(0+128),w
  7896  0A2A                     u4275:	
  7897  0A2A  1C03               	skipc
  7898  0A2B  2A16               	goto	l4763
  7899  0A2C                     l4769:	
  7900                           
  7901                           ;lighting.c: 532: }
  7902                           ;lighting.c: 534: writespi(0xFF);
  7903  0A2C  30FF               	movlw	255
  7904  0A2D  3190  2097  318A   	fcall	_writespi
  7905                           
  7906                           ;lighting.c: 535: writespi(0);
  7907  0A30  3000               	movlw	0
  7908  0A31  3190  2097  318A   	fcall	_writespi
  7909                           
  7910                           ;lighting.c: 536: writespi(0);
  7911  0A34  3000               	movlw	0
  7912  0A35  3190  2097  318A   	fcall	_writespi
  7913                           
  7914                           ;lighting.c: 537: writespi(0);
  7915  0A38  3000               	movlw	0
  7916  0A39  3190  2097  318A   	fcall	_writespi
  7917                           
  7918                           ;lighting.c: 539: writespi(0xFF);
  7919  0A3C  30FF               	movlw	255
  7920  0A3D  3190  2097  318A   	fcall	_writespi
  7921                           
  7922                           ;lighting.c: 540: writespi(0);
  7923  0A40  3000               	movlw	0
  7924  0A41  3190  2097  318A   	fcall	_writespi
  7925                           
  7926                           ;lighting.c: 541: writespi(0);
  7927  0A44  3000               	movlw	0
  7928  0A45  3190  2097  318A   	fcall	_writespi
  7929                           
  7930                           ;lighting.c: 542: writespi(0);
  7931  0A48  3000               	movlw	0
  7932  0A49  3190  2097  318A   	fcall	_writespi
  7933                           
  7934                           ;lighting.c: 544: writespi(brightness);
  7935  0A4C  0021               	movlb	1	; select bank1
  7936  0A4D  0820               	movf	led3_command@brightness^(0+128),w
  7937  0A4E  3190  2097  318A   	fcall	_writespi
  7938                           
  7939                           ;lighting.c: 545: writespi(blue);
  7940  0A51  0020               	movlb	0	; select bank0
  7941  0A52  0845               	movf	led3_command@blue,w
  7942  0A53  3190  2097  318A   	fcall	_writespi
  7943                           
  7944                           ;lighting.c: 546: writespi(green);
  7945  0A56  0020               	movlb	0	; select bank0
  7946  0A57  0844               	movf	led3_command@green,w
  7947  0A58  3190  2097  318A   	fcall	_writespi
  7948                           
  7949                           ;lighting.c: 547: writespi(red);
  7950  0A5B  0020               	movlb	0	; select bank0
  7951  0A5C  0843               	movf	led3_command@red,w
  7952  0A5D  3190  2097  318A   	fcall	_writespi
  7953                           
  7954                           ;lighting.c: 549: writespi(0xFF);
  7955  0A60  30FF               	movlw	255
  7956  0A61  3190  2097  318A   	fcall	_writespi
  7957                           
  7958                           ;lighting.c: 550: writespi(0);
  7959  0A64  3000               	movlw	0
  7960  0A65  3190  2097  318A   	fcall	_writespi
  7961                           
  7962                           ;lighting.c: 551: writespi(0);
  7963  0A68  3000               	movlw	0
  7964  0A69  3190  2097  318A   	fcall	_writespi
  7965                           
  7966                           ;lighting.c: 552: writespi(0);
  7967  0A6C  3000               	movlw	0
  7968  0A6D  3190  2097  318A   	fcall	_writespi
  7969                           
  7970                           ;lighting.c: 554: writespi(0xFF);
  7971  0A70  30FF               	movlw	255
  7972  0A71  3190  2097  318A   	fcall	_writespi
  7973                           
  7974                           ;lighting.c: 555: writespi(0);
  7975  0A74  3000               	movlw	0
  7976  0A75  3190  2097  318A   	fcall	_writespi
  7977                           
  7978                           ;lighting.c: 556: writespi(0);
  7979  0A78  3000               	movlw	0
  7980  0A79  3190  2097  318A   	fcall	_writespi
  7981                           
  7982                           ;lighting.c: 557: writespi(0);
  7983  0A7C  3000               	movlw	0
  7984  0A7D  3190  2097  318A   	fcall	_writespi
  7985                           
  7986                           ;lighting.c: 559: for(int i = 0;i < 4; i++)
  7987  0A80  0021               	movlb	1	; select bank1
  7988  0A81  01A3               	clrf	led3_command@i_651^(0+128)
  7989  0A82  01A4               	clrf	(led3_command@i_651+1)^(0+128)
  7990  0A83  0824               	movf	(led3_command@i_651+1)^(0+128),w
  7991  0A84  3A80               	xorlw	128
  7992  0A85  0020               	movlb	0	; select bank0
  7993  0A86  00C6               	movwf	??_led3_command
  7994  0A87  3080               	movlw	128
  7995  0A88  0246               	subwf	??_led3_command,w
  7996  0A89  1D03               	skipz
  7997  0A8A  2A8E               	goto	u4285
  7998  0A8B  3004               	movlw	4
  7999  0A8C  0021               	movlb	1	; select bank1
  8000  0A8D  0223               	subwf	led3_command@i_651^(0+128),w
  8001  0A8E                     u4285:	
  8002  0A8E  1803               	btfsc	3,0
  8003  0A8F  2AA6               	goto	l4783
  8004  0A90                     l4777:	
  8005                           
  8006                           ;lighting.c: 560: {
  8007                           ;lighting.c: 561: writespi(0xFF);
  8008  0A90  30FF               	movlw	255
  8009  0A91  3190  2097  318A   	fcall	_writespi
  8010  0A94  3001               	movlw	1
  8011  0A95  0021               	movlb	1	; select bank1
  8012  0A96  07A3               	addwf	led3_command@i_651^(0+128),f
  8013  0A97  3000               	movlw	0
  8014  0A98  3DA4               	addwfc	(led3_command@i_651+1)^(0+128),f
  8015  0A99  0824               	movf	(led3_command@i_651+1)^(0+128),w
  8016  0A9A  3A80               	xorlw	128
  8017  0A9B  0020               	movlb	0	; select bank0
  8018  0A9C  00C6               	movwf	??_led3_command
  8019  0A9D  3080               	movlw	128
  8020  0A9E  0246               	subwf	??_led3_command,w
  8021  0A9F  1D03               	skipz
  8022  0AA0  2AA4               	goto	u4295
  8023  0AA1  3004               	movlw	4
  8024  0AA2  0021               	movlb	1	; select bank1
  8025  0AA3  0223               	subwf	led3_command@i_651^(0+128),w
  8026  0AA4                     u4295:	
  8027  0AA4  1C03               	skipc
  8028  0AA5  2A90               	goto	l4777
  8029  0AA6                     l4783:	
  8030                           
  8031                           ;lighting.c: 562: }
  8032                           ;lighting.c: 563: _delay((unsigned long)((20)*(32000000/4000.0)));
  8033  0AA6  30D0               	movlw	208
  8034  0AA7  0020               	movlb	0	; select bank0
  8035  0AA8  00C7               	movwf	??_led3_command+1
  8036  0AA9  30C9               	movlw	201
  8037  0AAA  00C6               	movwf	??_led3_command
  8038  0AAB                     u5187:	
  8039  0AAB  0BC6               	decfsz	??_led3_command,f
  8040  0AAC  2AAB               	goto	u5187
  8041  0AAD  0BC7               	decfsz	??_led3_command+1,f
  8042  0AAE  2AAB               	goto	u5187
  8043  0AAF  3200               	nop2
  8044  0AB0  0008               	return
  8045  0AB1                     __end_of_led3_command:	
  8046                           
  8047                           	psect	text14
  8048  0959                     __ptext14:	
  8049 ;; *************** function _led2_command *****************
  8050 ;; Defined at:
  8051 ;;		line 480 in file "../../source/lighting.c"
  8052 ;; Parameters:    Size  Location     Type
  8053 ;;  brightness      1    wreg     unsigned char 
  8054 ;;  red             1   35[BANK0 ] unsigned char 
  8055 ;;  green           1   36[BANK0 ] unsigned char 
  8056 ;;  blue            1   37[BANK0 ] unsigned char 
  8057 ;; Auto vars:     Size  Location     Type
  8058 ;;  brightness      1    0[BANK1 ] unsigned char 
  8059 ;;  i               2    3[BANK1 ] int 
  8060 ;;  i               2    1[BANK1 ] int 
  8061 ;; Return value:  Size  Location     Type
  8062 ;;		None               void
  8063 ;; Registers used:
  8064 ;;		wreg, status,2, status,0, pclath, cstack
  8065 ;; Tracked objects:
  8066 ;;		On entry : 0/0
  8067 ;;		On exit  : 0/0
  8068 ;;		Unchanged: 0/0
  8069 ;; Data sizes:     COMMON   BANK0   BANK1   BANK2   BANK3   BANK4   BANK5   BANK6   BANK7   BANK8   BANK9  BANK10  BANK1
      +1  BANK12  BANK13  BANK14  BANK15  BANK16  BANK17  BANK18  BANK19  BANK20  BANK21  BANK22  BANK23  BANK24  BANK25
  8070 ;;      Params:         0       3       0       0       0       0       0       0       0       0       0       0       
      +0       0       0       0       0       0       0       0       0       0       0       0       0       0       0
  8071 ;;      Locals:         0       0       5       0       0       0       0       0       0       0       0       0       
      +0       0       0       0       0       0       0       0       0       0       0       0       0       0       0
  8072 ;;      Temps:          0       2       0       0       0       0       0       0       0       0       0       0       
      +0       0       0       0       0       0       0       0       0       0       0       0       0       0       0
  8073 ;;      Totals:         0       5       5       0       0       0       0       0       0       0       0       0       
      +0       0       0       0       0       0       0       0       0       0       0       0       0       0       0
  8074 ;;Total ram usage:       10 bytes
  8075 ;; Hardware stack levels used:    1
  8076 ;; Hardware stack levels required when called:    5
  8077 ;; This function calls:
  8078 ;;		_writespi
  8079 ;; This function is called by:
  8080 ;;		_display_blade_lights
  8081 ;; This function uses a non-reentrant model
  8082 ;;
  8083                           
  8084                           
  8085                           ;psect for function _led2_command
  8086  0959                     _led2_command:	
  8087                           
  8088                           ;incstack = 0
  8089                           ; Regs used in _led2_command: [wreg+status,2+status,0+pclath+cstack]
  8090                           ;led2_command@brightness stored from wreg
  8091  0959  0021               	movlb	1	; select bank1
  8092  095A  00A0               	movwf	led2_command@brightness^(0+128)
  8093                           
  8094                           ;lighting.c: 486: for(int i = 0;i < 4; i++)
  8095  095B  01A1               	clrf	led2_command@i^(0+128)
  8096  095C  01A2               	clrf	(led2_command@i+1)^(0+128)
  8097  095D  0822               	movf	(led2_command@i+1)^(0+128),w
  8098  095E  3A80               	xorlw	128
  8099  095F  0020               	movlb	0	; select bank0
  8100  0960  00C6               	movwf	??_led2_command
  8101  0961  3080               	movlw	128
  8102  0962  0246               	subwf	??_led2_command,w
  8103  0963  1D03               	skipz
  8104  0964  2968               	goto	u4225
  8105  0965  3004               	movlw	4
  8106  0966  0021               	movlb	1	; select bank1
  8107  0967  0221               	subwf	led2_command@i^(0+128),w
  8108  0968                     u4225:	
  8109  0968  1803               	btfsc	3,0
  8110  0969  2980               	goto	l4741
  8111  096A                     l4735:	
  8112                           
  8113                           ;lighting.c: 487: {
  8114                           ;lighting.c: 488: writespi(0x00);
  8115  096A  3000               	movlw	0
  8116  096B  3190  2097  3189   	fcall	_writespi
  8117  096E  3001               	movlw	1
  8118  096F  0021               	movlb	1	; select bank1
  8119  0970  07A1               	addwf	led2_command@i^(0+128),f
  8120  0971  3000               	movlw	0
  8121  0972  3DA2               	addwfc	(led2_command@i+1)^(0+128),f
  8122  0973  0822               	movf	(led2_command@i+1)^(0+128),w
  8123  0974  3A80               	xorlw	128
  8124  0975  0020               	movlb	0	; select bank0
  8125  0976  00C6               	movwf	??_led2_command
  8126  0977  3080               	movlw	128
  8127  0978  0246               	subwf	??_led2_command,w
  8128  0979  1D03               	skipz
  8129  097A  297E               	goto	u4235
  8130  097B  3004               	movlw	4
  8131  097C  0021               	movlb	1	; select bank1
  8132  097D  0221               	subwf	led2_command@i^(0+128),w
  8133  097E                     u4235:	
  8134  097E  1C03               	skipc
  8135  097F  296A               	goto	l4735
  8136  0980                     l4741:	
  8137                           
  8138                           ;lighting.c: 489: }
  8139                           ;lighting.c: 491: writespi(0xFF);
  8140  0980  30FF               	movlw	255
  8141  0981  3190  2097  3189   	fcall	_writespi
  8142                           
  8143                           ;lighting.c: 492: writespi(0);
  8144  0984  3000               	movlw	0
  8145  0985  3190  2097  3189   	fcall	_writespi
  8146                           
  8147                           ;lighting.c: 493: writespi(0);
  8148  0988  3000               	movlw	0
  8149  0989  3190  2097  3189   	fcall	_writespi
  8150                           
  8151                           ;lighting.c: 494: writespi(0);
  8152  098C  3000               	movlw	0
  8153  098D  3190  2097  3189   	fcall	_writespi
  8154                           
  8155                           ;lighting.c: 496: writespi(brightness);
  8156  0990  0021               	movlb	1	; select bank1
  8157  0991  0820               	movf	led2_command@brightness^(0+128),w
  8158  0992  3190  2097  3189   	fcall	_writespi
  8159                           
  8160                           ;lighting.c: 497: writespi(blue);
  8161  0995  0020               	movlb	0	; select bank0
  8162  0996  0845               	movf	led2_command@blue,w
  8163  0997  3190  2097  3189   	fcall	_writespi
  8164                           
  8165                           ;lighting.c: 498: writespi(green);
  8166  099A  0020               	movlb	0	; select bank0
  8167  099B  0844               	movf	led2_command@green,w
  8168  099C  3190  2097  3189   	fcall	_writespi
  8169                           
  8170                           ;lighting.c: 499: writespi(red);
  8171  099F  0020               	movlb	0	; select bank0
  8172  09A0  0843               	movf	led2_command@red,w
  8173  09A1  3190  2097  3189   	fcall	_writespi
  8174                           
  8175                           ;lighting.c: 501: writespi(0xFF);
  8176  09A4  30FF               	movlw	255
  8177  09A5  3190  2097  3189   	fcall	_writespi
  8178                           
  8179                           ;lighting.c: 502: writespi(0);
  8180  09A8  3000               	movlw	0
  8181  09A9  3190  2097  3189   	fcall	_writespi
  8182                           
  8183                           ;lighting.c: 503: writespi(0);
  8184  09AC  3000               	movlw	0
  8185  09AD  3190  2097  3189   	fcall	_writespi
  8186                           
  8187                           ;lighting.c: 504: writespi(0);
  8188  09B0  3000               	movlw	0
  8189  09B1  3190  2097  3189   	fcall	_writespi
  8190                           
  8191                           ;lighting.c: 506: writespi(0xFF);
  8192  09B4  30FF               	movlw	255
  8193  09B5  3190  2097  3189   	fcall	_writespi
  8194                           
  8195                           ;lighting.c: 507: writespi(0);
  8196  09B8  3000               	movlw	0
  8197  09B9  3190  2097  3189   	fcall	_writespi
  8198                           
  8199                           ;lighting.c: 508: writespi(0);
  8200  09BC  3000               	movlw	0
  8201  09BD  3190  2097  3189   	fcall	_writespi
  8202                           
  8203                           ;lighting.c: 509: writespi(0);
  8204  09C0  3000               	movlw	0
  8205  09C1  3190  2097  3189   	fcall	_writespi
  8206                           
  8207                           ;lighting.c: 511: writespi(0xFF);
  8208  09C4  30FF               	movlw	255
  8209  09C5  3190  2097  3189   	fcall	_writespi
  8210                           
  8211                           ;lighting.c: 512: writespi(0);
  8212  09C8  3000               	movlw	0
  8213  09C9  3190  2097  3189   	fcall	_writespi
  8214                           
  8215                           ;lighting.c: 513: writespi(0);
  8216  09CC  3000               	movlw	0
  8217  09CD  3190  2097  3189   	fcall	_writespi
  8218                           
  8219                           ;lighting.c: 514: writespi(0);
  8220  09D0  3000               	movlw	0
  8221  09D1  3190  2097  3189   	fcall	_writespi
  8222                           
  8223                           ;lighting.c: 516: for(int i = 0;i < 4; i++)
  8224  09D4  0021               	movlb	1	; select bank1
  8225  09D5  01A3               	clrf	led2_command@i_644^(0+128)
  8226  09D6  01A4               	clrf	(led2_command@i_644+1)^(0+128)
  8227  09D7  0824               	movf	(led2_command@i_644+1)^(0+128),w
  8228  09D8  3A80               	xorlw	128
  8229  09D9  0020               	movlb	0	; select bank0
  8230  09DA  00C6               	movwf	??_led2_command
  8231  09DB  3080               	movlw	128
  8232  09DC  0246               	subwf	??_led2_command,w
  8233  09DD  1D03               	skipz
  8234  09DE  29E2               	goto	u4245
  8235  09DF  3004               	movlw	4
  8236  09E0  0021               	movlb	1	; select bank1
  8237  09E1  0223               	subwf	led2_command@i_644^(0+128),w
  8238  09E2                     u4245:	
  8239  09E2  1803               	btfsc	3,0
  8240  09E3  29FA               	goto	l4755
  8241  09E4                     l4749:	
  8242                           
  8243                           ;lighting.c: 517: {
  8244                           ;lighting.c: 518: writespi(0xFF);
  8245  09E4  30FF               	movlw	255
  8246  09E5  3190  2097  3189   	fcall	_writespi
  8247  09E8  3001               	movlw	1
  8248  09E9  0021               	movlb	1	; select bank1
  8249  09EA  07A3               	addwf	led2_command@i_644^(0+128),f
  8250  09EB  3000               	movlw	0
  8251  09EC  3DA4               	addwfc	(led2_command@i_644+1)^(0+128),f
  8252  09ED  0824               	movf	(led2_command@i_644+1)^(0+128),w
  8253  09EE  3A80               	xorlw	128
  8254  09EF  0020               	movlb	0	; select bank0
  8255  09F0  00C6               	movwf	??_led2_command
  8256  09F1  3080               	movlw	128
  8257  09F2  0246               	subwf	??_led2_command,w
  8258  09F3  1D03               	skipz
  8259  09F4  29F8               	goto	u4255
  8260  09F5  3004               	movlw	4
  8261  09F6  0021               	movlb	1	; select bank1
  8262  09F7  0223               	subwf	led2_command@i_644^(0+128),w
  8263  09F8                     u4255:	
  8264  09F8  1C03               	skipc
  8265  09F9  29E4               	goto	l4749
  8266  09FA                     l4755:	
  8267                           
  8268                           ;lighting.c: 519: }
  8269                           ;lighting.c: 520: _delay((unsigned long)((20)*(32000000/4000.0)));
  8270  09FA  30D0               	movlw	208
  8271  09FB  0020               	movlb	0	; select bank0
  8272  09FC  00C7               	movwf	??_led2_command+1
  8273  09FD  30C9               	movlw	201
  8274  09FE  00C6               	movwf	??_led2_command
  8275  09FF                     u5197:	
  8276  09FF  0BC6               	decfsz	??_led2_command,f
  8277  0A00  29FF               	goto	u5197
  8278  0A01  0BC7               	decfsz	??_led2_command+1,f
  8279  0A02  29FF               	goto	u5197
  8280  0A03  3200               	nop2
  8281  0A04  0008               	return
  8282  0A05                     __end_of_led2_command:	
  8283                           
  8284                           	psect	text15
  8285  08AD                     __ptext15:	
  8286 ;; *************** function _led1_command *****************
  8287 ;; Defined at:
  8288 ;;		line 437 in file "../../source/lighting.c"
  8289 ;; Parameters:    Size  Location     Type
  8290 ;;  brightness      1    wreg     unsigned char 
  8291 ;;  red             1   35[BANK0 ] unsigned char 
  8292 ;;  green           1   36[BANK0 ] unsigned char 
  8293 ;;  blue            1   37[BANK0 ] unsigned char 
  8294 ;; Auto vars:     Size  Location     Type
  8295 ;;  brightness      1    0[BANK1 ] unsigned char 
  8296 ;;  i               2    3[BANK1 ] int 
  8297 ;;  i               2    1[BANK1 ] int 
  8298 ;; Return value:  Size  Location     Type
  8299 ;;		None               void
  8300 ;; Registers used:
  8301 ;;		wreg, status,2, status,0, pclath, cstack
  8302 ;; Tracked objects:
  8303 ;;		On entry : 0/0
  8304 ;;		On exit  : 0/0
  8305 ;;		Unchanged: 0/0
  8306 ;; Data sizes:     COMMON   BANK0   BANK1   BANK2   BANK3   BANK4   BANK5   BANK6   BANK7   BANK8   BANK9  BANK10  BANK1
      +1  BANK12  BANK13  BANK14  BANK15  BANK16  BANK17  BANK18  BANK19  BANK20  BANK21  BANK22  BANK23  BANK24  BANK25
  8307 ;;      Params:         0       3       0       0       0       0       0       0       0       0       0       0       
      +0       0       0       0       0       0       0       0       0       0       0       0       0       0       0
  8308 ;;      Locals:         0       0       5       0       0       0       0       0       0       0       0       0       
      +0       0       0       0       0       0       0       0       0       0       0       0       0       0       0
  8309 ;;      Temps:          0       2       0       0       0       0       0       0       0       0       0       0       
      +0       0       0       0       0       0       0       0       0       0       0       0       0       0       0
  8310 ;;      Totals:         0       5       5       0       0       0       0       0       0       0       0       0       
      +0       0       0       0       0       0       0       0       0       0       0       0       0       0       0
  8311 ;;Total ram usage:       10 bytes
  8312 ;; Hardware stack levels used:    1
  8313 ;; Hardware stack levels required when called:    5
  8314 ;; This function calls:
  8315 ;;		_writespi
  8316 ;; This function is called by:
  8317 ;;		_display_blade_lights
  8318 ;; This function uses a non-reentrant model
  8319 ;;
  8320                           
  8321                           
  8322                           ;psect for function _led1_command
  8323  08AD                     _led1_command:	
  8324                           
  8325                           ;incstack = 0
  8326                           ; Regs used in _led1_command: [wreg+status,2+status,0+pclath+cstack]
  8327                           ;led1_command@brightness stored from wreg
  8328  08AD  0021               	movlb	1	; select bank1
  8329  08AE  00A0               	movwf	led1_command@brightness^(0+128)
  8330                           
  8331                           ;lighting.c: 443: for(int i = 0;i < 4; i++)
  8332  08AF  01A1               	clrf	led1_command@i^(0+128)
  8333  08B0  01A2               	clrf	(led1_command@i+1)^(0+128)
  8334  08B1  0822               	movf	(led1_command@i+1)^(0+128),w
  8335  08B2  3A80               	xorlw	128
  8336  08B3  0020               	movlb	0	; select bank0
  8337  08B4  00C6               	movwf	??_led1_command
  8338  08B5  3080               	movlw	128
  8339  08B6  0246               	subwf	??_led1_command,w
  8340  08B7  1D03               	skipz
  8341  08B8  28BC               	goto	u4185
  8342  08B9  3004               	movlw	4
  8343  08BA  0021               	movlb	1	; select bank1
  8344  08BB  0221               	subwf	led1_command@i^(0+128),w
  8345  08BC                     u4185:	
  8346  08BC  1803               	btfsc	3,0
  8347  08BD  28D4               	goto	l4713
  8348  08BE                     l4707:	
  8349                           
  8350                           ;lighting.c: 444: {
  8351                           ;lighting.c: 445: writespi(0x00);
  8352  08BE  3000               	movlw	0
  8353  08BF  3190  2097  3188   	fcall	_writespi
  8354  08C2  3001               	movlw	1
  8355  08C3  0021               	movlb	1	; select bank1
  8356  08C4  07A1               	addwf	led1_command@i^(0+128),f
  8357  08C5  3000               	movlw	0
  8358  08C6  3DA2               	addwfc	(led1_command@i+1)^(0+128),f
  8359  08C7  0822               	movf	(led1_command@i+1)^(0+128),w
  8360  08C8  3A80               	xorlw	128
  8361  08C9  0020               	movlb	0	; select bank0
  8362  08CA  00C6               	movwf	??_led1_command
  8363  08CB  3080               	movlw	128
  8364  08CC  0246               	subwf	??_led1_command,w
  8365  08CD  1D03               	skipz
  8366  08CE  28D2               	goto	u4195
  8367  08CF  3004               	movlw	4
  8368  08D0  0021               	movlb	1	; select bank1
  8369  08D1  0221               	subwf	led1_command@i^(0+128),w
  8370  08D2                     u4195:	
  8371  08D2  1C03               	skipc
  8372  08D3  28BE               	goto	l4707
  8373  08D4                     l4713:	
  8374                           
  8375                           ;lighting.c: 446: }
  8376                           ;lighting.c: 448: writespi(brightness);
  8377  08D4  0021               	movlb	1	; select bank1
  8378  08D5  0820               	movf	led1_command@brightness^(0+128),w
  8379  08D6  3190  2097  3188   	fcall	_writespi
  8380                           
  8381                           ;lighting.c: 449: writespi(blue);
  8382  08D9  0020               	movlb	0	; select bank0
  8383  08DA  0845               	movf	led1_command@blue,w
  8384  08DB  3190  2097  3188   	fcall	_writespi
  8385                           
  8386                           ;lighting.c: 450: writespi(green);
  8387  08DE  0020               	movlb	0	; select bank0
  8388  08DF  0844               	movf	led1_command@green,w
  8389  08E0  3190  2097  3188   	fcall	_writespi
  8390                           
  8391                           ;lighting.c: 451: writespi(red);
  8392  08E3  0020               	movlb	0	; select bank0
  8393  08E4  0843               	movf	led1_command@red,w
  8394  08E5  3190  2097  3188   	fcall	_writespi
  8395                           
  8396                           ;lighting.c: 453: writespi(0xFF);
  8397  08E8  30FF               	movlw	255
  8398  08E9  3190  2097  3188   	fcall	_writespi
  8399                           
  8400                           ;lighting.c: 454: writespi(0);
  8401  08EC  3000               	movlw	0
  8402  08ED  3190  2097  3188   	fcall	_writespi
  8403                           
  8404                           ;lighting.c: 455: writespi(0);
  8405  08F0  3000               	movlw	0
  8406  08F1  3190  2097  3188   	fcall	_writespi
  8407                           
  8408                           ;lighting.c: 456: writespi(0);
  8409  08F4  3000               	movlw	0
  8410  08F5  3190  2097  3188   	fcall	_writespi
  8411                           
  8412                           ;lighting.c: 458: writespi(0xFF);
  8413  08F8  30FF               	movlw	255
  8414  08F9  3190  2097  3188   	fcall	_writespi
  8415                           
  8416                           ;lighting.c: 459: writespi(0);
  8417  08FC  3000               	movlw	0
  8418  08FD  3190  2097  3188   	fcall	_writespi
  8419                           
  8420                           ;lighting.c: 460: writespi(0);
  8421  0900  3000               	movlw	0
  8422  0901  3190  2097  3188   	fcall	_writespi
  8423                           
  8424                           ;lighting.c: 461: writespi(0);
  8425  0904  3000               	movlw	0
  8426  0905  3190  2097  3188   	fcall	_writespi
  8427                           
  8428                           ;lighting.c: 463: writespi(0xFF);
  8429  0908  30FF               	movlw	255
  8430  0909  3190  2097  3188   	fcall	_writespi
  8431                           
  8432                           ;lighting.c: 464: writespi(0);
  8433  090C  3000               	movlw	0
  8434  090D  3190  2097  3188   	fcall	_writespi
  8435                           
  8436                           ;lighting.c: 465: writespi(0);
  8437  0910  3000               	movlw	0
  8438  0911  3190  2097  3188   	fcall	_writespi
  8439                           
  8440                           ;lighting.c: 466: writespi(0);
  8441  0914  3000               	movlw	0
  8442  0915  3190  2097  3188   	fcall	_writespi
  8443                           
  8444                           ;lighting.c: 468: writespi(0xFF);
  8445  0918  30FF               	movlw	255
  8446  0919  3190  2097  3188   	fcall	_writespi
  8447                           
  8448                           ;lighting.c: 469: writespi(0);
  8449  091C  3000               	movlw	0
  8450  091D  3190  2097  3188   	fcall	_writespi
  8451                           
  8452                           ;lighting.c: 470: writespi(0);
  8453  0920  3000               	movlw	0
  8454  0921  3190  2097  3188   	fcall	_writespi
  8455                           
  8456                           ;lighting.c: 471: writespi(0);
  8457  0924  3000               	movlw	0
  8458  0925  3190  2097  3188   	fcall	_writespi
  8459                           
  8460                           ;lighting.c: 473: for(int i = 0;i < 4; i++)
  8461  0928  0021               	movlb	1	; select bank1
  8462  0929  01A3               	clrf	led1_command@i_637^(0+128)
  8463  092A  01A4               	clrf	(led1_command@i_637+1)^(0+128)
  8464  092B  0824               	movf	(led1_command@i_637+1)^(0+128),w
  8465  092C  3A80               	xorlw	128
  8466  092D  0020               	movlb	0	; select bank0
  8467  092E  00C6               	movwf	??_led1_command
  8468  092F  3080               	movlw	128
  8469  0930  0246               	subwf	??_led1_command,w
  8470  0931  1D03               	skipz
  8471  0932  2936               	goto	u4205
  8472  0933  3004               	movlw	4
  8473  0934  0021               	movlb	1	; select bank1
  8474  0935  0223               	subwf	led1_command@i_637^(0+128),w
  8475  0936                     u4205:	
  8476  0936  1803               	btfsc	3,0
  8477  0937  294E               	goto	l4727
  8478  0938                     l4721:	
  8479                           
  8480                           ;lighting.c: 474: {
  8481                           ;lighting.c: 475: writespi(0xFF);
  8482  0938  30FF               	movlw	255
  8483  0939  3190  2097  3188   	fcall	_writespi
  8484  093C  3001               	movlw	1
  8485  093D  0021               	movlb	1	; select bank1
  8486  093E  07A3               	addwf	led1_command@i_637^(0+128),f
  8487  093F  3000               	movlw	0
  8488  0940  3DA4               	addwfc	(led1_command@i_637+1)^(0+128),f
  8489  0941  0824               	movf	(led1_command@i_637+1)^(0+128),w
  8490  0942  3A80               	xorlw	128
  8491  0943  0020               	movlb	0	; select bank0
  8492  0944  00C6               	movwf	??_led1_command
  8493  0945  3080               	movlw	128
  8494  0946  0246               	subwf	??_led1_command,w
  8495  0947  1D03               	skipz
  8496  0948  294C               	goto	u4215
  8497  0949  3004               	movlw	4
  8498  094A  0021               	movlb	1	; select bank1
  8499  094B  0223               	subwf	led1_command@i_637^(0+128),w
  8500  094C                     u4215:	
  8501  094C  1C03               	skipc
  8502  094D  2938               	goto	l4721
  8503  094E                     l4727:	
  8504                           
  8505                           ;lighting.c: 476: }
  8506                           ;lighting.c: 477: _delay((unsigned long)((20)*(32000000/4000.0)));
  8507  094E  30D0               	movlw	208
  8508  094F  0020               	movlb	0	; select bank0
  8509  0950  00C7               	movwf	??_led1_command+1
  8510  0951  30C9               	movlw	201
  8511  0952  00C6               	movwf	??_led1_command
  8512  0953                     u5207:	
  8513  0953  0BC6               	decfsz	??_led1_command,f
  8514  0954  2953               	goto	u5207
  8515  0955  0BC7               	decfsz	??_led1_command+1,f
  8516  0956  2953               	goto	u5207
  8517  0957  3200               	nop2
  8518  0958  0008               	return
  8519  0959                     __end_of_led1_command:	
  8520                           
  8521                           	psect	text16
  8522  1097                     __ptext16:	
  8523 ;; *************** function _writespi *****************
  8524 ;; Defined at:
  8525 ;;		line 422 in file "../../source/lighting.c"
  8526 ;; Parameters:    Size  Location     Type
  8527 ;;  data_out        1    wreg     unsigned char 
  8528 ;; Auto vars:     Size  Location     Type
  8529 ;;  data_out        1   34[BANK0 ] unsigned char 
  8530 ;;  TempVar         1   33[BANK0 ] unsigned char 
  8531 ;; Return value:  Size  Location     Type
  8532 ;;		None               void
  8533 ;; Registers used:
  8534 ;;		wreg
  8535 ;; Tracked objects:
  8536 ;;		On entry : 0/0
  8537 ;;		On exit  : 0/0
  8538 ;;		Unchanged: 0/0
  8539 ;; Data sizes:     COMMON   BANK0   BANK1   BANK2   BANK3   BANK4   BANK5   BANK6   BANK7   BANK8   BANK9  BANK10  BANK1
      +1  BANK12  BANK13  BANK14  BANK15  BANK16  BANK17  BANK18  BANK19  BANK20  BANK21  BANK22  BANK23  BANK24  BANK25
  8540 ;;      Params:         0       0       0       0       0       0       0       0       0       0       0       0       
      +0       0       0       0       0       0       0       0       0       0       0       0       0       0       0
  8541 ;;      Locals:         0       2       0       0       0       0       0       0       0       0       0       0       
      +0       0       0       0       0       0       0       0       0       0       0       0       0       0       0
  8542 ;;      Temps:          0       1       0       0       0       0       0       0       0       0       0       0       
      +0       0       0       0       0       0       0       0       0       0       0       0       0       0       0
  8543 ;;      Totals:         0       3       0       0       0       0       0       0       0       0       0       0       
      +0       0       0       0       0       0       0       0       0       0       0       0       0       0       0
  8544 ;;Total ram usage:        3 bytes
  8545 ;; Hardware stack levels used:    1
  8546 ;; Hardware stack levels required when called:    4
  8547 ;; This function calls:
  8548 ;;		Nothing
  8549 ;; This function is called by:
  8550 ;;		_display_blade_lights
  8551 ;;		_led1_command
  8552 ;;		_led2_command
  8553 ;;		_led3_command
  8554 ;;		_led4_command
  8555 ;;		_led5_command
  8556 ;;		_leds_off
  8557 ;; This function uses a non-reentrant model
  8558 ;;
  8559                           
  8560                           
  8561                           ;psect for function _writespi
  8562  1097                     _writespi:	
  8563                           
  8564                           ;incstack = 0
  8565                           ; Regs used in _writespi: [wreg]
  8566                           ;writespi@data_out stored from wreg
  8567  1097  0020               	movlb	0	; select bank0
  8568  1098  00C2               	movwf	writespi@data_out
  8569                           
  8570                           ;lighting.c: 424: unsigned char TempVar;
  8571                           ;lighting.c: 425: TempVar = SSPBUF;
  8572  1099  0024               	movlb	4	; select bank4
  8573  109A  0811               	movf	17,w	;volatile
  8574  109B  0020               	movlb	0	; select bank0
  8575  109C  00C0               	movwf	??_writespi
  8576  109D  0840               	movf	??_writespi,w
  8577  109E  00C1               	movwf	writespi@TempVar
  8578                           
  8579                           ;lighting.c: 426: PIR1bits.SSP1IF = 0;
  8580  109F  1191               	bcf	17,3	;volatile
  8581                           
  8582                           ;lighting.c: 427: SSPCON1bits.WCOL = 0;
  8583  10A0  0024               	movlb	4	; select bank4
  8584  10A1  1395               	bcf	21,7	;volatile
  8585                           
  8586                           ;lighting.c: 428: SSPBUF = data_out;
  8587  10A2  0020               	movlb	0	; select bank0
  8588  10A3  0842               	movf	writespi@data_out,w
  8589  10A4  0024               	movlb	4	; select bank4
  8590  10A5  0091               	movwf	17	;volatile
  8591  10A6                     l662:	
  8592                           ;lighting.c: 433: while( !PIR1bits.SSP1IF );
  8593                           
  8594  10A6  0020               	movlb	0	; select bank0
  8595  10A7  1991               	btfsc	17,3	;volatile
  8596  10A8  0008               	return
  8597  10A9  28A6               	goto	l662
  8598  10AA                     __end_of_writespi:	
  8599                           
  8600                           	psect	text17
  8601  0D8F                     __ptext17:	
  8602 ;; *************** function _determine_sword_was_swung *****************
  8603 ;; Defined at:
  8604 ;;		line 13 in file "../../source/accelerometer.c"
  8605 ;; Parameters:    Size  Location     Type
  8606 ;;		None
  8607 ;; Auto vars:     Size  Location     Type
  8608 ;;  i               2    2[BANK1 ] int 
  8609 ;;  i               2    0[BANK1 ] int 
  8610 ;;  count           2   17[BANK1 ] int 
  8611 ;;  y               2   15[BANK1 ] int 
  8612 ;;  x               2   13[BANK1 ] int 
  8613 ;;  highAdl         2   11[BANK1 ] int 
  8614 ;;  highAdh         2    9[BANK1 ] int 
  8615 ;;  lowAdl          2    7[BANK1 ] int 
  8616 ;;  lowAdh          2    5[BANK1 ] int 
  8617 ;;  swung           1    4[BANK1 ] unsigned char 
  8618 ;; Return value:  Size  Location     Type
  8619 ;;                  1    wreg      unsigned char 
  8620 ;; Registers used:
  8621 ;;		wreg, status,2, status,0, pclath, cstack
  8622 ;; Tracked objects:
  8623 ;;		On entry : 0/0
  8624 ;;		On exit  : 0/0
  8625 ;;		Unchanged: 0/0
  8626 ;; Data sizes:     COMMON   BANK0   BANK1   BANK2   BANK3   BANK4   BANK5   BANK6   BANK7   BANK8   BANK9  BANK10  BANK1
      +1  BANK12  BANK13  BANK14  BANK15  BANK16  BANK17  BANK18  BANK19  BANK20  BANK21  BANK22  BANK23  BANK24  BANK25
  8627 ;;      Params:         0       0       0       0       0       0       0       0       0       0       0       0       
      +0       0       0       0       0       0       0       0       0       0       0       0       0       0       0
  8628 ;;      Locals:         0       0      19       0       0       0       0       0       0       0       0       0       
      +0       0       0       0       0       0       0       0       0       0       0       0       0       0       0
  8629 ;;      Temps:          0       1       0       0       0       0       0       0       0       0       0       0       
      +0       0       0       0       0       0       0       0       0       0       0       0       0       0       0
  8630 ;;      Totals:         0       1      19       0       0       0       0       0       0       0       0       0       
      +0       0       0       0       0       0       0       0       0       0       0       0       0       0       0
  8631 ;;Total ram usage:       20 bytes
  8632 ;; Hardware stack levels used:    1
  8633 ;; Hardware stack levels required when called:    5
  8634 ;; This function calls:
  8635 ;;		_determine_omega_mode_active
  8636 ;; This function is called by:
  8637 ;;		_main
  8638 ;; This function uses a non-reentrant model
  8639 ;;
  8640                           
  8641                           
  8642                           ;psect for function _determine_sword_was_swung
  8643  0D8F                     _determine_sword_was_swung:	
  8644                           
  8645                           ;accelerometer.c: 15: if(RC7 == 1)
  8646                           
  8647                           ;incstack = 0
  8648                           ; Regs used in _determine_sword_was_swung: [wreg+status,2+status,0+pclath+cstack]
  8649  0D8F  0020               	movlb	0	; select bank0
  8650  0D90  1F8E               	btfss	14,7	;volatile
  8651  0D91  2D94               	goto	l3891
  8652                           
  8653                           ;accelerometer.c: 16: {
  8654                           ;accelerometer.c: 17: return 1;
  8655  0D92  3001               	movlw	1
  8656  0D93  0008               	return
  8657  0D94                     l3891:	
  8658                           
  8659                           ;accelerometer.c: 18: }
  8660                           ;accelerometer.c: 21: int lowAdh;
  8661                           ;accelerometer.c: 22: int lowAdl;
  8662                           ;accelerometer.c: 23: int highAdh;
  8663                           ;accelerometer.c: 24: int highAdl;
  8664                           ;accelerometer.c: 26: int x = 0;
  8665  0D94  0021               	movlb	1	; select bank1
  8666  0D95  01AD               	clrf	determine_sword_was_swung@x^(0+128)
  8667  0D96  01AE               	clrf	(determine_sword_was_swung@x+1)^(0+128)
  8668                           
  8669                           ;accelerometer.c: 27: int y = 0;
  8670  0D97  01AF               	clrf	determine_sword_was_swung@y^(0+128)
  8671  0D98  01B0               	clrf	(determine_sword_was_swung@y+1)^(0+128)
  8672                           
  8673                           ;accelerometer.c: 28: int count = 2;
  8674  0D99  3002               	movlw	2
  8675  0D9A  00B1               	movwf	determine_sword_was_swung@count^(0+128)
  8676  0D9B  3000               	movlw	0
  8677  0D9C  00B2               	movwf	(determine_sword_was_swung@count^(0+128)+1)
  8678                           
  8679                           ;accelerometer.c: 30: char swung = 0;
  8680  0D9D  01A4               	clrf	determine_sword_was_swung@swung^(0+128)
  8681                           
  8682                           ;accelerometer.c: 33: if(determine_omega_mode_active())
  8683  0D9E  3187  27FA  318D   	fcall	_determine_omega_mode_active
  8684  0DA1  3A00               	xorlw	0
  8685  0DA2  1903               	skipnz
  8686  0DA3  2DB3               	goto	l3901
  8687                           
  8688                           ;accelerometer.c: 34: {
  8689                           ;accelerometer.c: 36: lowAdh = 1;
  8690  0DA4  3001               	movlw	1
  8691  0DA5  0021               	movlb	1	; select bank1
  8692  0DA6  00A5               	movwf	determine_sword_was_swung@lowAdh^(0+128)
  8693  0DA7  3000               	movlw	0
  8694  0DA8  00A6               	movwf	(determine_sword_was_swung@lowAdh^(0+128)+1)
  8695                           
  8696                           ;accelerometer.c: 37: lowAdl = 80;
  8697  0DA9  3050               	movlw	80
  8698  0DAA  00A7               	movwf	determine_sword_was_swung@lowAdl^(0+128)
  8699  0DAB  3000               	movlw	0
  8700  0DAC  00A8               	movwf	(determine_sword_was_swung@lowAdl^(0+128)+1)
  8701                           
  8702                           ;accelerometer.c: 38: highAdh = 1;
  8703  0DAD  3001               	movlw	1
  8704  0DAE  00A9               	movwf	determine_sword_was_swung@highAdh^(0+128)
  8705  0DAF  3000               	movlw	0
  8706  0DB0  00AA               	movwf	(determine_sword_was_swung@highAdh^(0+128)+1)
  8707                           
  8708                           ;accelerometer.c: 39: highAdl = 170;
  8709  0DB1  30AA               	movlw	170
  8710  0DB2  2DC1               	goto	L5
  8711  0DB3                     l3901:	
  8712                           ;accelerometer.c: 40: }
  8713                           
  8714                           
  8715                           ;accelerometer.c: 41: else
  8716                           ;accelerometer.c: 42: {
  8717                           ;accelerometer.c: 57: lowAdh = 1;
  8718  0DB3  3001               	movlw	1
  8719  0DB4  0021               	movlb	1	; select bank1
  8720  0DB5  00A5               	movwf	determine_sword_was_swung@lowAdh^(0+128)
  8721  0DB6  3000               	movlw	0
  8722  0DB7  00A6               	movwf	(determine_sword_was_swung@lowAdh^(0+128)+1)
  8723                           
  8724                           ;accelerometer.c: 58: lowAdl = 75;
  8725  0DB8  304B               	movlw	75
  8726  0DB9  00A7               	movwf	determine_sword_was_swung@lowAdl^(0+128)
  8727  0DBA  3000               	movlw	0
  8728  0DBB  00A8               	movwf	(determine_sword_was_swung@lowAdl^(0+128)+1)
  8729                           
  8730                           ;accelerometer.c: 59: highAdh = 1;
  8731  0DBC  3001               	movlw	1
  8732  0DBD  00A9               	movwf	determine_sword_was_swung@highAdh^(0+128)
  8733  0DBE  3000               	movlw	0
  8734  0DBF  00AA               	movwf	(determine_sword_was_swung@highAdh^(0+128)+1)
  8735                           
  8736                           ;accelerometer.c: 60: highAdl = 175;
  8737  0DC0  30AF               	movlw	175
  8738  0DC1                     L5:	
  8739  0DC1  00AB               	movwf	determine_sword_was_swung@highAdl^(0+128)
  8740  0DC2  3000               	movlw	0
  8741  0DC3  00AC               	movwf	(determine_sword_was_swung@highAdl^(0+128)+1)
  8742                           
  8743                           ;accelerometer.c: 63: }
  8744                           ;accelerometer.c: 65: ADCON0 = 0b10001111;
  8745  0DC4  308F               	movlw	143
  8746  0DC5  009D               	movwf	29	;volatile
  8747                           
  8748                           ;accelerometer.c: 68: for(int i = 0; i< 1000 && y < count ; i++)
  8749  0DC6  01A0               	clrf	determine_sword_was_swung@i^(0+128)
  8750  0DC7  01A1               	clrf	(determine_sword_was_swung@i+1)^(0+128)
  8751  0DC8  2E0B               	goto	l3921
  8752  0DC9                     l348:	
  8753                           
  8754                           ;accelerometer.c: 69: {
  8755                           ;accelerometer.c: 72: if(ADGO)
  8756  0DC9  0021               	movlb	1	; select bank1
  8757  0DCA  189D               	btfsc	29,1	;volatile
  8758  0DCB  2E07               	goto	l3919
  8759                           
  8760                           ;accelerometer.c: 76: else
  8761                           ;accelerometer.c: 77: {
  8762                           ;accelerometer.c: 79: ADGO = 1;
  8763                           
  8764                           ;accelerometer.c: 73: {
  8765                           ;accelerometer.c: 75: }
  8766  0DCC  149D               	bsf	29,1	;volatile
  8767                           
  8768                           ;accelerometer.c: 84: if((ADRESH >= highAdh && ADRESL >= highAdl ) || (ADRESH <= lowAdh 
      +                          && ADRESL <= lowAdl))
  8769  0DCD  082A               	movf	(determine_sword_was_swung@highAdh+1)^(0+128),w
  8770  0DCE  3A80               	xorlw	128
  8771  0DCF  3C80               	sublw	128
  8772  0DD0  1D03               	skipz
  8773  0DD1  2DD4               	goto	u2995
  8774  0DD2  0829               	movf	determine_sword_was_swung@highAdh^(0+128),w
  8775  0DD3  021C               	subwf	28,w	;volatile
  8776  0DD4                     u2995:	
  8777  0DD4  1C03               	skipc
  8778  0DD5  2DE0               	goto	l3911
  8779  0DD6  0021               	movlb	1	; select bank1
  8780  0DD7  082C               	movf	(determine_sword_was_swung@highAdl+1)^(0+128),w
  8781  0DD8  3A80               	xorlw	128
  8782  0DD9  3C80               	sublw	128
  8783  0DDA  1D03               	skipz
  8784  0DDB  2DDE               	goto	u3005
  8785  0DDC  082B               	movf	determine_sword_was_swung@highAdl^(0+128),w
  8786  0DDD  021B               	subwf	27,w	;volatile
  8787  0DDE                     u3005:	
  8788  0DDE  1803               	skipnc
  8789  0DDF  2DFC               	goto	l3915
  8790  0DE0                     l3911:	
  8791  0DE0  0021               	movlb	1	; select bank1
  8792  0DE1  0826               	movf	(determine_sword_was_swung@lowAdh+1)^(0+128),w
  8793  0DE2  3A80               	xorlw	128
  8794  0DE3  0020               	movlb	0	; select bank0
  8795  0DE4  00C0               	movwf	??_determine_sword_was_swung
  8796  0DE5  3080               	movlw	128
  8797  0DE6  0240               	subwf	??_determine_sword_was_swung,w
  8798  0DE7  1D03               	skipz
  8799  0DE8  2DEC               	goto	u3015
  8800  0DE9  0021               	movlb	1	; select bank1
  8801  0DEA  081C               	movf	28,w	;volatile
  8802  0DEB  0225               	subwf	determine_sword_was_swung@lowAdh^(0+128),w
  8803  0DEC                     u3015:	
  8804  0DEC  1C03               	skipc
  8805  0DED  2E04               	goto	l3917
  8806  0DEE  0021               	movlb	1	; select bank1
  8807  0DEF  0828               	movf	(determine_sword_was_swung@lowAdl+1)^(0+128),w
  8808  0DF0  3A80               	xorlw	128
  8809  0DF1  0020               	movlb	0	; select bank0
  8810  0DF2  00C0               	movwf	??_determine_sword_was_swung
  8811  0DF3  3080               	movlw	128
  8812  0DF4  0240               	subwf	??_determine_sword_was_swung,w
  8813  0DF5  1D03               	skipz
  8814  0DF6  2DFA               	goto	u3025
  8815  0DF7  0021               	movlb	1	; select bank1
  8816  0DF8  081B               	movf	27,w	;volatile
  8817  0DF9  0227               	subwf	determine_sword_was_swung@lowAdl^(0+128),w
  8818  0DFA                     u3025:	
  8819  0DFA  1C03               	skipc
  8820  0DFB  2E04               	goto	l3917
  8821  0DFC                     l3915:	
  8822                           
  8823                           ;accelerometer.c: 85: {
  8824                           ;accelerometer.c: 86: y = y + 1;
  8825  0DFC  0021               	movlb	1	; select bank1
  8826  0DFD  082F               	movf	determine_sword_was_swung@y^(0+128),w
  8827  0DFE  3E01               	addlw	1
  8828  0DFF  00AF               	movwf	determine_sword_was_swung@y^(0+128)
  8829  0E00  3000               	movlw	0
  8830  0E01  3D30               	addwfc	(determine_sword_was_swung@y+1)^(0+128),w
  8831  0E02  00B0               	movwf	(determine_sword_was_swung@y+1)^(0+128)
  8832                           
  8833                           ;accelerometer.c: 87: }
  8834  0E03  2E07               	goto	l3919
  8835  0E04                     l3917:	
  8836                           
  8837                           ;accelerometer.c: 88: else
  8838                           ;accelerometer.c: 89: {
  8839                           ;accelerometer.c: 91: y = 0;
  8840  0E04  0021               	movlb	1	; select bank1
  8841  0E05  01AF               	clrf	determine_sword_was_swung@y^(0+128)
  8842  0E06  01B0               	clrf	(determine_sword_was_swung@y+1)^(0+128)
  8843  0E07                     l3919:	
  8844  0E07  3001               	movlw	1
  8845  0E08  07A0               	addwf	determine_sword_was_swung@i^(0+128),f
  8846  0E09  3000               	movlw	0
  8847  0E0A  3DA1               	addwfc	(determine_sword_was_swung@i+1)^(0+128),f
  8848  0E0B                     l3921:	
  8849  0E0B  0821               	movf	(determine_sword_was_swung@i+1)^(0+128),w
  8850  0E0C  3A80               	xorlw	128
  8851  0E0D  0020               	movlb	0	; select bank0
  8852  0E0E  00C0               	movwf	??_determine_sword_was_swung
  8853  0E0F  3083               	movlw	131
  8854  0E10  0240               	subwf	??_determine_sword_was_swung,w
  8855  0E11  1D03               	skipz
  8856  0E12  2E16               	goto	u3035
  8857  0E13  30E8               	movlw	232
  8858  0E14  0021               	movlb	1	; select bank1
  8859  0E15  0220               	subwf	determine_sword_was_swung@i^(0+128),w
  8860  0E16                     u3035:	
  8861  0E16  1803               	skipnc
  8862  0E17  2E29               	goto	l3925
  8863  0E18  0021               	movlb	1	; select bank1
  8864  0E19  0830               	movf	(determine_sword_was_swung@y+1)^(0+128),w
  8865  0E1A  3A80               	xorlw	128
  8866  0E1B  0020               	movlb	0	; select bank0
  8867  0E1C  00C0               	movwf	??_determine_sword_was_swung
  8868  0E1D  0021               	movlb	1	; select bank1
  8869  0E1E  0832               	movf	(determine_sword_was_swung@count+1)^(0+128),w
  8870  0E1F  3A80               	xorlw	128
  8871  0E20  0020               	movlb	0	; select bank0
  8872  0E21  0240               	subwf	??_determine_sword_was_swung,w
  8873  0E22  1D03               	skipz
  8874  0E23  2E27               	goto	u3045
  8875  0E24  0021               	movlb	1	; select bank1
  8876  0E25  0831               	movf	determine_sword_was_swung@count^(0+128),w
  8877  0E26  022F               	subwf	determine_sword_was_swung@y^(0+128),w
  8878  0E27                     u3045:	
  8879  0E27  1C03               	skipc
  8880  0E28  2DC9               	goto	l348
  8881  0E29                     l3925:	
  8882                           
  8883                           ;accelerometer.c: 92: }
  8884                           ;accelerometer.c: 93: }
  8885                           ;accelerometer.c: 94: }
  8886                           ;accelerometer.c: 97: ADCON0 = 0b10001011;
  8887  0E29  308B               	movlw	139
  8888  0E2A  0021               	movlb	1	; select bank1
  8889  0E2B  009D               	movwf	29	;volatile
  8890                           
  8891                           ;accelerometer.c: 98: for(int i = 0; i < 1000 && x < count; i++)
  8892  0E2C  01A2               	clrf	determine_sword_was_swung@i_355^(0+128)
  8893  0E2D  01A3               	clrf	(determine_sword_was_swung@i_355+1)^(0+128)
  8894  0E2E  2E71               	goto	l3947
  8895  0E2F                     l361:	
  8896                           
  8897                           ;accelerometer.c: 99: {
  8898                           ;accelerometer.c: 101: if(ADGO)
  8899  0E2F  0021               	movlb	1	; select bank1
  8900  0E30  189D               	btfsc	29,1	;volatile
  8901  0E31  2E6D               	goto	l3945
  8902                           
  8903                           ;accelerometer.c: 105: else
  8904                           ;accelerometer.c: 106: {
  8905                           ;accelerometer.c: 109: if((ADRESH >= highAdh && ADRESL >= highAdl ) || (ADRESH <= lowAdh
      +                           && ADRESL <= lowAdl))
  8906                           
  8907                           ;accelerometer.c: 102: {
  8908                           ;accelerometer.c: 104: }
  8909  0E32  082A               	movf	(determine_sword_was_swung@highAdh+1)^(0+128),w
  8910  0E33  3A80               	xorlw	128
  8911  0E34  3C80               	sublw	128
  8912  0E35  1D03               	skipz
  8913  0E36  2E39               	goto	u3065
  8914  0E37  0829               	movf	determine_sword_was_swung@highAdh^(0+128),w
  8915  0E38  021C               	subwf	28,w	;volatile
  8916  0E39                     u3065:	
  8917  0E39  1C03               	skipc
  8918  0E3A  2E45               	goto	l3935
  8919  0E3B  0021               	movlb	1	; select bank1
  8920  0E3C  082C               	movf	(determine_sword_was_swung@highAdl+1)^(0+128),w
  8921  0E3D  3A80               	xorlw	128
  8922  0E3E  3C80               	sublw	128
  8923  0E3F  1D03               	skipz
  8924  0E40  2E43               	goto	u3075
  8925  0E41  082B               	movf	determine_sword_was_swung@highAdl^(0+128),w
  8926  0E42  021B               	subwf	27,w	;volatile
  8927  0E43                     u3075:	
  8928  0E43  1803               	skipnc
  8929  0E44  2E61               	goto	l3939
  8930  0E45                     l3935:	
  8931  0E45  0021               	movlb	1	; select bank1
  8932  0E46  0826               	movf	(determine_sword_was_swung@lowAdh+1)^(0+128),w
  8933  0E47  3A80               	xorlw	128
  8934  0E48  0020               	movlb	0	; select bank0
  8935  0E49  00C0               	movwf	??_determine_sword_was_swung
  8936  0E4A  3080               	movlw	128
  8937  0E4B  0240               	subwf	??_determine_sword_was_swung,w
  8938  0E4C  1D03               	skipz
  8939  0E4D  2E51               	goto	u3085
  8940  0E4E  0021               	movlb	1	; select bank1
  8941  0E4F  081C               	movf	28,w	;volatile
  8942  0E50  0225               	subwf	determine_sword_was_swung@lowAdh^(0+128),w
  8943  0E51                     u3085:	
  8944  0E51  1C03               	skipc
  8945  0E52  2E69               	goto	l3941
  8946  0E53  0021               	movlb	1	; select bank1
  8947  0E54  0828               	movf	(determine_sword_was_swung@lowAdl+1)^(0+128),w
  8948  0E55  3A80               	xorlw	128
  8949  0E56  0020               	movlb	0	; select bank0
  8950  0E57  00C0               	movwf	??_determine_sword_was_swung
  8951  0E58  3080               	movlw	128
  8952  0E59  0240               	subwf	??_determine_sword_was_swung,w
  8953  0E5A  1D03               	skipz
  8954  0E5B  2E5F               	goto	u3095
  8955  0E5C  0021               	movlb	1	; select bank1
  8956  0E5D  081B               	movf	27,w	;volatile
  8957  0E5E  0227               	subwf	determine_sword_was_swung@lowAdl^(0+128),w
  8958  0E5F                     u3095:	
  8959  0E5F  1C03               	skipc
  8960  0E60  2E69               	goto	l3941
  8961  0E61                     l3939:	
  8962                           
  8963                           ;accelerometer.c: 110: {
  8964                           ;accelerometer.c: 111: x = x+1;
  8965  0E61  0021               	movlb	1	; select bank1
  8966  0E62  082D               	movf	determine_sword_was_swung@x^(0+128),w
  8967  0E63  3E01               	addlw	1
  8968  0E64  00AD               	movwf	determine_sword_was_swung@x^(0+128)
  8969  0E65  3000               	movlw	0
  8970  0E66  3D2E               	addwfc	(determine_sword_was_swung@x+1)^(0+128),w
  8971  0E67  00AE               	movwf	(determine_sword_was_swung@x+1)^(0+128)
  8972                           
  8973                           ;accelerometer.c: 112: }
  8974  0E68  2E6C               	goto	l3943
  8975  0E69                     l3941:	
  8976                           
  8977                           ;accelerometer.c: 113: else
  8978                           ;accelerometer.c: 114: {
  8979                           ;accelerometer.c: 115: x = 0;
  8980  0E69  0021               	movlb	1	; select bank1
  8981  0E6A  01AD               	clrf	determine_sword_was_swung@x^(0+128)
  8982  0E6B  01AE               	clrf	(determine_sword_was_swung@x+1)^(0+128)
  8983  0E6C                     l3943:	
  8984                           
  8985                           ;accelerometer.c: 116: }
  8986                           ;accelerometer.c: 118: ADGO = 1;
  8987  0E6C  149D               	bsf	29,1	;volatile
  8988  0E6D                     l3945:	
  8989  0E6D  3001               	movlw	1
  8990  0E6E  07A2               	addwf	determine_sword_was_swung@i_355^(0+128),f
  8991  0E6F  3000               	movlw	0
  8992  0E70  3DA3               	addwfc	(determine_sword_was_swung@i_355+1)^(0+128),f
  8993  0E71                     l3947:	
  8994  0E71  0823               	movf	(determine_sword_was_swung@i_355+1)^(0+128),w
  8995  0E72  3A80               	xorlw	128
  8996  0E73  0020               	movlb	0	; select bank0
  8997  0E74  00C0               	movwf	??_determine_sword_was_swung
  8998  0E75  3083               	movlw	131
  8999  0E76  0240               	subwf	??_determine_sword_was_swung,w
  9000  0E77  1D03               	skipz
  9001  0E78  2E7C               	goto	u3105
  9002  0E79  30E8               	movlw	232
  9003  0E7A  0021               	movlb	1	; select bank1
  9004  0E7B  0222               	subwf	determine_sword_was_swung@i_355^(0+128),w
  9005  0E7C                     u3105:	
  9006  0E7C  1803               	skipnc
  9007  0E7D  2E8F               	goto	l3951
  9008  0E7E  0021               	movlb	1	; select bank1
  9009  0E7F  082E               	movf	(determine_sword_was_swung@x+1)^(0+128),w
  9010  0E80  3A80               	xorlw	128
  9011  0E81  0020               	movlb	0	; select bank0
  9012  0E82  00C0               	movwf	??_determine_sword_was_swung
  9013  0E83  0021               	movlb	1	; select bank1
  9014  0E84  0832               	movf	(determine_sword_was_swung@count+1)^(0+128),w
  9015  0E85  3A80               	xorlw	128
  9016  0E86  0020               	movlb	0	; select bank0
  9017  0E87  0240               	subwf	??_determine_sword_was_swung,w
  9018  0E88  1D03               	skipz
  9019  0E89  2E8D               	goto	u3115
  9020  0E8A  0021               	movlb	1	; select bank1
  9021  0E8B  0831               	movf	determine_sword_was_swung@count^(0+128),w
  9022  0E8C  022D               	subwf	determine_sword_was_swung@x^(0+128),w
  9023  0E8D                     u3115:	
  9024  0E8D  1C03               	skipc
  9025  0E8E  2E2F               	goto	l361
  9026  0E8F                     l3951:	
  9027                           
  9028                           ;accelerometer.c: 119: }
  9029                           ;accelerometer.c: 120: }
  9030                           ;accelerometer.c: 124: if(x >= count && y >= count)
  9031  0E8F  0021               	movlb	1	; select bank1
  9032  0E90  082E               	movf	(determine_sword_was_swung@x+1)^(0+128),w
  9033  0E91  3A80               	xorlw	128
  9034  0E92  0020               	movlb	0	; select bank0
  9035  0E93  00C0               	movwf	??_determine_sword_was_swung
  9036  0E94  0021               	movlb	1	; select bank1
  9037  0E95  0832               	movf	(determine_sword_was_swung@count+1)^(0+128),w
  9038  0E96  3A80               	xorlw	128
  9039  0E97  0020               	movlb	0	; select bank0
  9040  0E98  0240               	subwf	??_determine_sword_was_swung,w
  9041  0E99  1D03               	skipz
  9042  0E9A  2E9E               	goto	u3125
  9043  0E9B  0021               	movlb	1	; select bank1
  9044  0E9C  0831               	movf	determine_sword_was_swung@count^(0+128),w
  9045  0E9D  022D               	subwf	determine_sword_was_swung@x^(0+128),w
  9046  0E9E                     u3125:	
  9047  0E9E  1C03               	skipc
  9048  0E9F  2EB8               	goto	l3959
  9049  0EA0  0021               	movlb	1	; select bank1
  9050  0EA1  0830               	movf	(determine_sword_was_swung@y+1)^(0+128),w
  9051  0EA2  3A80               	xorlw	128
  9052  0EA3  0020               	movlb	0	; select bank0
  9053  0EA4  00C0               	movwf	??_determine_sword_was_swung
  9054  0EA5  0021               	movlb	1	; select bank1
  9055  0EA6  0832               	movf	(determine_sword_was_swung@count+1)^(0+128),w
  9056  0EA7  3A80               	xorlw	128
  9057  0EA8  0020               	movlb	0	; select bank0
  9058  0EA9  0240               	subwf	??_determine_sword_was_swung,w
  9059  0EAA  1D03               	skipz
  9060  0EAB  2EAF               	goto	u3135
  9061  0EAC  0021               	movlb	1	; select bank1
  9062  0EAD  0831               	movf	determine_sword_was_swung@count^(0+128),w
  9063  0EAE  022F               	subwf	determine_sword_was_swung@y^(0+128),w
  9064  0EAF                     u3135:	
  9065  0EAF  1C03               	skipc
  9066  0EB0  2EB8               	goto	l3959
  9067                           
  9068                           ;accelerometer.c: 125: {
  9069                           ;accelerometer.c: 126: swung = 1;
  9070  0EB1  0021               	movlb	1	; select bank1
  9071  0EB2  01A4               	clrf	determine_sword_was_swung@swung^(0+128)
  9072  0EB3  0AA4               	incf	determine_sword_was_swung@swung^(0+128),f
  9073                           
  9074                           ;accelerometer.c: 127: x = 0;
  9075  0EB4  01AD               	clrf	determine_sword_was_swung@x^(0+128)
  9076  0EB5  01AE               	clrf	(determine_sword_was_swung@x+1)^(0+128)
  9077                           
  9078                           ;accelerometer.c: 128: y = 0;
  9079  0EB6  01AF               	clrf	determine_sword_was_swung@y^(0+128)
  9080  0EB7  01B0               	clrf	(determine_sword_was_swung@y+1)^(0+128)
  9081  0EB8                     l3959:	
  9082                           
  9083                           ;accelerometer.c: 129: }
  9084                           ;accelerometer.c: 131: return swung;
  9085  0EB8  0021               	movlb	1	; select bank1
  9086  0EB9  0824               	movf	determine_sword_was_swung@swung^(0+128),w
  9087  0EBA  0008               	return
  9088  0EBB                     __end_of_determine_sword_was_swung:	
  9089                           
  9090                           	psect	text18
  9091  07C8                     __ptext18:	
  9092 ;; *************** function _determine_packets_to_send *****************
  9093 ;; Defined at:
  9094 ;;		line 14 in file "../../source/blade_connection.c"
  9095 ;; Parameters:    Size  Location     Type
  9096 ;;  packets         1    wreg     PTR unsigned char 
  9097 ;;		 -> main@pkt_arr(3), 
  9098 ;; Auto vars:     Size  Location     Type
  9099 ;;  packets         1   33[BANK0 ] PTR unsigned char 
  9100 ;;		 -> main@pkt_arr(3), 
  9101 ;; Return value:  Size  Location     Type
  9102 ;;		None               void
  9103 ;; Registers used:
  9104 ;;		wreg, fsr1l, fsr1h, status,2, status,0, pclath, cstack
  9105 ;; Tracked objects:
  9106 ;;		On entry : 0/0
  9107 ;;		On exit  : 0/0
  9108 ;;		Unchanged: 0/0
  9109 ;; Data sizes:     COMMON   BANK0   BANK1   BANK2   BANK3   BANK4   BANK5   BANK6   BANK7   BANK8   BANK9  BANK10  BANK1
      +1  BANK12  BANK13  BANK14  BANK15  BANK16  BANK17  BANK18  BANK19  BANK20  BANK21  BANK22  BANK23  BANK24  BANK25
  9110 ;;      Params:         0       0       0       0       0       0       0       0       0       0       0       0       
      +0       0       0       0       0       0       0       0       0       0       0       0       0       0       0
  9111 ;;      Locals:         0       1       0       0       0       0       0       0       0       0       0       0       
      +0       0       0       0       0       0       0       0       0       0       0       0       0       0       0
  9112 ;;      Temps:          0       1       0       0       0       0       0       0       0       0       0       0       
      +0       0       0       0       0       0       0       0       0       0       0       0       0       0       0
  9113 ;;      Totals:         0       2       0       0       0       0       0       0       0       0       0       0       
      +0       0       0       0       0       0       0       0       0       0       0       0       0       0       0
  9114 ;;Total ram usage:        2 bytes
  9115 ;; Hardware stack levels used:    1
  9116 ;; Hardware stack levels required when called:    5
  9117 ;; This function calls:
  9118 ;;		_determine_omega_mode_active
  9119 ;; This function is called by:
  9120 ;;		_main
  9121 ;; This function uses a non-reentrant model
  9122 ;;
  9123                           
  9124                           
  9125                           ;psect for function _determine_packets_to_send
  9126  07C8                     _determine_packets_to_send:	
  9127                           
  9128                           ;incstack = 0
  9129                           ; Regs used in _determine_packets_to_send: [wreg+fsr1l+fsr1h+status,2+status,0+pclath+cs
      +                          tack]
  9130                           ;determine_packets_to_send@packets stored from wreg
  9131  07C8  0020               	movlb	0	; select bank0
  9132  07C9  00C1               	movwf	determine_packets_to_send@packets
  9133                           
  9134                           ;blade_connection.c: 16: if(determine_omega_mode_active())
  9135  07CA  3187  27FA  3187   	fcall	_determine_omega_mode_active
  9136  07CD  3A00               	xorlw	0
  9137  07CE  1903               	skipnz
  9138  07CF  2FE5               	goto	l3971
  9139                           
  9140                           ;blade_connection.c: 17: {
  9141                           ;blade_connection.c: 28: packets[0] = 22;
  9142  07D0  3016               	movlw	22
  9143  07D1  0020               	movlb	0	; select bank0
  9144  07D2  00C0               	movwf	??_determine_packets_to_send
  9145  07D3  0841               	movf	determine_packets_to_send@packets,w
  9146  07D4  0086               	movwf	6
  9147  07D5  0187               	clrf	7
  9148  07D6  0840               	movf	??_determine_packets_to_send,w
  9149  07D7  0081               	movwf	1
  9150                           
  9151                           ;blade_connection.c: 29: packets[1] = 0;
  9152  07D8  0A41               	incf	determine_packets_to_send@packets,w
  9153  07D9  0086               	movwf	6
  9154  07DA  0187               	clrf	7
  9155  07DB  0181               	clrf	1
  9156                           
  9157                           ;blade_connection.c: 30: packets[2] = 15;
  9158  07DC  300F               	movlw	15
  9159  07DD  00C0               	movwf	??_determine_packets_to_send
  9160  07DE  0841               	movf	determine_packets_to_send@packets,w
  9161  07DF  3E02               	addlw	2
  9162  07E0  0086               	movwf	6
  9163  07E1  0187               	clrf	7
  9164  07E2  0840               	movf	??_determine_packets_to_send,w
  9165  07E3  0081               	movwf	1
  9166                           
  9167                           ;blade_connection.c: 37: }
  9168  07E4  0008               	return
  9169  07E5                     l3971:	
  9170                           
  9171                           ;blade_connection.c: 38: else
  9172                           ;blade_connection.c: 39: {
  9173                           ;blade_connection.c: 50: packets[0] = 5;
  9174  07E5  3005               	movlw	5
  9175  07E6  0020               	movlb	0	; select bank0
  9176  07E7  00C0               	movwf	??_determine_packets_to_send
  9177  07E8  0841               	movf	determine_packets_to_send@packets,w
  9178  07E9  0086               	movwf	6
  9179  07EA  0187               	clrf	7
  9180  07EB  0840               	movf	??_determine_packets_to_send,w
  9181  07EC  0081               	movwf	1
  9182                           
  9183                           ;blade_connection.c: 51: packets[1] = 0;
  9184  07ED  0A41               	incf	determine_packets_to_send@packets,w
  9185  07EE  0086               	movwf	6
  9186  07EF  0187               	clrf	7
  9187  07F0  0181               	clrf	1
  9188                           
  9189                           ;blade_connection.c: 52: packets[2] = 5;
  9190  07F1  3005               	movlw	5
  9191  07F2  00C0               	movwf	??_determine_packets_to_send
  9192  07F3  0841               	movf	determine_packets_to_send@packets,w
  9193  07F4  3E02               	addlw	2
  9194  07F5  0086               	movwf	6
  9195  07F6  0187               	clrf	7
  9196  07F7  0840               	movf	??_determine_packets_to_send,w
  9197  07F8  0081               	movwf	1
  9198  07F9  0008               	return
  9199  07FA                     __end_of_determine_packets_to_send:	
  9200                           ;blade_connection.c: 59: }
  9201                           ;blade_connection.c: 61: return;
  9202                           
  9203                           
  9204                           	psect	text19
  9205  07FA                     __ptext19:	
  9206 ;; *************** function _determine_omega_mode_active *****************
  9207 ;; Defined at:
  9208 ;;		line 9 in file "../../source/blade_connection.c"
  9209 ;; Parameters:    Size  Location     Type
  9210 ;;		None
  9211 ;; Auto vars:     Size  Location     Type
  9212 ;;		None
  9213 ;; Return value:  Size  Location     Type
  9214 ;;                  1    wreg      unsigned char 
  9215 ;; Registers used:
  9216 ;;		wreg
  9217 ;; Tracked objects:
  9218 ;;		On entry : 0/0
  9219 ;;		On exit  : 0/0
  9220 ;;		Unchanged: 0/0
  9221 ;; Data sizes:     COMMON   BANK0   BANK1   BANK2   BANK3   BANK4   BANK5   BANK6   BANK7   BANK8   BANK9  BANK10  BANK1
      +1  BANK12  BANK13  BANK14  BANK15  BANK16  BANK17  BANK18  BANK19  BANK20  BANK21  BANK22  BANK23  BANK24  BANK25
  9222 ;;      Params:         0       0       0       0       0       0       0       0       0       0       0       0       
      +0       0       0       0       0       0       0       0       0       0       0       0       0       0       0
  9223 ;;      Locals:         0       0       0       0       0       0       0       0       0       0       0       0       
      +0       0       0       0       0       0       0       0       0       0       0       0       0       0       0
  9224 ;;      Temps:          0       0       0       0       0       0       0       0       0       0       0       0       
      +0       0       0       0       0       0       0       0       0       0       0       0       0       0       0
  9225 ;;      Totals:         0       0       0       0       0       0       0       0       0       0       0       0       
      +0       0       0       0       0       0       0       0       0       0       0       0       0       0       0
  9226 ;;Total ram usage:        0 bytes
  9227 ;; Hardware stack levels used:    1
  9228 ;; Hardware stack levels required when called:    4
  9229 ;; This function calls:
  9230 ;;		Nothing
  9231 ;; This function is called by:
  9232 ;;		_main
  9233 ;;		_determine_sword_was_swung
  9234 ;;		_determine_packets_to_send
  9235 ;; This function uses a non-reentrant model
  9236 ;;
  9237                           
  9238                           
  9239                           ;psect for function _determine_omega_mode_active
  9240  07FA                     _determine_omega_mode_active:	
  9241                           
  9242                           ;blade_connection.c: 11: return RA1;
  9243                           
  9244                           ;incstack = 0
  9245                           ; Regs used in _determine_omega_mode_active: [wreg]
  9246  07FA  3000               	movlw	0
  9247  07FB  0020               	movlb	0	; select bank0
  9248  07FC  188C               	btfsc	12,1	;volatile
  9249  07FD  3001               	movlw	1
  9250  07FE  0008               	return
  9251  07FF                     __end_of_determine_omega_mode_active:	
  9252                           
  9253                           	psect	intentry
  9254  0004                     __pintentry:	
  9255 ;; *************** function _isr *****************
  9256 ;; Defined at:
  9257 ;;		line 37 in file "../../source/interrupt.c"
  9258 ;; Parameters:    Size  Location     Type
  9259 ;;		None
  9260 ;; Auto vars:     Size  Location     Type
  9261 ;;		None
  9262 ;; Return value:  Size  Location     Type
  9263 ;;		None               void
  9264 ;; Registers used:
  9265 ;;		wreg, status,2, status,0, pclath, cstack
  9266 ;; Tracked objects:
  9267 ;;		On entry : 0/0
  9268 ;;		On exit  : 0/0
  9269 ;;		Unchanged: 0/0
  9270 ;; Data sizes:     COMMON   BANK0   BANK1   BANK2   BANK3   BANK4   BANK5   BANK6   BANK7   BANK8   BANK9  BANK10  BANK1
      +1  BANK12  BANK13  BANK14  BANK15  BANK16  BANK17  BANK18  BANK19  BANK20  BANK21  BANK22  BANK23  BANK24  BANK25
  9271 ;;      Params:         0       0       0       0       0       0       0       0       0       0       0       0       
      +0       0       0       0       0       0       0       0       0       0       0       0       0       0       0
  9272 ;;      Locals:         0       0       0       0       0       0       0       0       0       0       0       0       
      +0       0       0       0       0       0       0       0       0       0       0       0       0       0       0
  9273 ;;      Temps:          0       2       0       0       0       0       0       0       0       0       0       0       
      +0       0       0       0       0       0       0       0       0       0       0       0       0       0       0
  9274 ;;      Totals:         0       2       0       0       0       0       0       0       0       0       0       0       
      +0       0       0       0       0       0       0       0       0       0       0       0       0       0       0
  9275 ;;Total ram usage:        2 bytes
  9276 ;; Hardware stack levels used:    1
  9277 ;; Hardware stack levels required when called:    3
  9278 ;; This function calls:
  9279 ;;		___awdiv
  9280 ;;		___awtoft
  9281 ;;		___ftge
  9282 ;;		___ftmul
  9283 ;;		___fttol
  9284 ;;		i1_determine_omega_mode_active
  9285 ;;		i1_display_blade_lights
  9286 ;;		i1_display_health
  9287 ;; This function is called by:
  9288 ;;		Interrupt level 1
  9289 ;; This function uses a non-reentrant model
  9290 ;;
  9291                           
  9292  0004                     _isr:	
  9293                           
  9294                           ;incstack = 0
  9295                           ; Regs used in _isr: [wreg+status,2+status,0+pclath+cstack]
  9296  0004  147E               	bsf	126,0	;set compiler interrupt flag (level 1)
  9297  0005  3180               	pagesel	$
  9298  0006  0020               	movlb	0	; select bank0
  9299  0007  087F               	movf	127,w
  9300  0008  00BF               	movwf	??_isr+1
  9301                           
  9302                           ;interrupt.c: 39: TMR1 = 0;
  9303  0009  0196               	clrf	22	;volatile
  9304  000A  0197               	clrf	23	;volatile
  9305                           
  9306                           ;interrupt.c: 42: if (IOCAF1)
  9307  000B  0027               	movlb	7	; select bank7
  9308  000C  1C93               	btfss	19,1	;volatile
  9309  000D  281D               	goto	i1l199
  9310                           
  9311                           ;interrupt.c: 43: {
  9312                           ;interrupt.c: 45: IOCAF1 = 0;
  9313  000E  1093               	bcf	19,1	;volatile
  9314                           
  9315                           ;interrupt.c: 47: health = 50;
  9316  000F  3032               	movlw	50
  9317  0010  0020               	movlb	0	; select bank0
  9318  0011  00BE               	movwf	??_isr
  9319  0012  083E               	movf	??_isr,w
  9320  0013  0021               	movlb	1	; select bank1
  9321  0014  00C5               	movwf	_health^(0+128)
  9322                           
  9323                           ;interrupt.c: 48: display_health();
  9324  0015  3192  228E  3180   	fcall	i1_display_health
  9325                           
  9326                           ;interrupt.c: 49: display_blade_lights(2);
  9327  0018  3002               	movlw	2
  9328  0019  3184  24BF  3180   	fcall	i1_display_blade_lights
  9329                           
  9330                           ;interrupt.c: 50: }
  9331  001C  296E               	goto	i1l205
  9332  001D                     i1l199:	
  9333                           
  9334                           ;interrupt.c: 52: else if (IOCAFbits.IOCAF4)
  9335  001D  1E13               	btfss	19,4	;volatile
  9336  001E  296E               	goto	i1l205
  9337                           
  9338                           ;interrupt.c: 53: {
  9339                           ;interrupt.c: 54: IOCAF &= 0b11101111;
  9340  001F  30EF               	movlw	239
  9341  0020  0020               	movlb	0	; select bank0
  9342  0021  00BE               	movwf	??_isr
  9343  0022  083E               	movf	??_isr,w
  9344  0023  0027               	movlb	7	; select bank7
  9345  0024  0593               	andwf	19,f	;volatile
  9346  0025                     i1l202:	
  9347                           ;interrupt.c: 56: while(PORTAbits.RA4)
  9348                           
  9349  0025  0020               	movlb	0	; select bank0
  9350  0026  1E0C               	btfss	12,4	;volatile
  9351  0027  2831               	goto	i1l4597
  9352                           
  9353                           ;interrupt.c: 57: {
  9354                           ;interrupt.c: 58: if(TMR1 >= 2678)
  9355  0028  300A               	movlw	10
  9356  0029  0020               	movlb	0	; select bank0
  9357  002A  0217               	subwf	23,w	;volatile
  9358  002B  3076               	movlw	118
  9359  002C  1903               	skipnz
  9360  002D  0216               	subwf	22,w	;volatile
  9361  002E  1803               	btfsc	3,0
  9362  002F  296E               	goto	i1l205
  9363  0030  2825               	goto	i1l202
  9364  0031                     i1l4597:	
  9365                           ;interrupt.c: 59: {
  9366                           ;interrupt.c: 60: return;
  9367                           
  9368                           
  9369                           ;interrupt.c: 61: }
  9370                           ;interrupt.c: 62: }
  9371                           ;interrupt.c: 63: TMR1 = 0;
  9372  0031  0196               	clrf	22	;volatile
  9373  0032  0197               	clrf	23	;volatile
  9374  0033                     i1l207:	
  9375                           ;interrupt.c: 64: while(!PORTAbits.RA4)
  9376                           
  9377  0033  1A0C               	btfsc	12,4	;volatile
  9378  0034  283D               	goto	i1l4603
  9379                           
  9380                           ;interrupt.c: 65: {
  9381                           ;interrupt.c: 66: if(TMR1 >= 2678)
  9382  0035  300A               	movlw	10
  9383  0036  0217               	subwf	23,w	;volatile
  9384  0037  3076               	movlw	118
  9385  0038  1903               	skipnz
  9386  0039  0216               	subwf	22,w	;volatile
  9387  003A  1803               	btfsc	3,0
  9388  003B  296E               	goto	i1l205
  9389  003C  2833               	goto	i1l207
  9390  003D                     i1l4603:	
  9391                           ;interrupt.c: 67: {
  9392                           ;interrupt.c: 68: return;
  9393                           
  9394                           
  9395                           ;interrupt.c: 69: }
  9396                           ;interrupt.c: 70: }
  9397                           ;interrupt.c: 71: TMR1 = 0;
  9398  003D  0196               	clrf	22	;volatile
  9399  003E  0197               	clrf	23	;volatile
  9400  003F                     i1l211:	
  9401                           ;interrupt.c: 72: while(PORTAbits.RA4)
  9402                           
  9403  003F  1E0C               	btfss	12,4	;volatile
  9404  0040  2849               	goto	i1l4609
  9405                           
  9406                           ;interrupt.c: 73: {
  9407                           ;interrupt.c: 74: if(TMR1 >= 2678)
  9408  0041  300A               	movlw	10
  9409  0042  0217               	subwf	23,w	;volatile
  9410  0043  3076               	movlw	118
  9411  0044  1903               	skipnz
  9412  0045  0216               	subwf	22,w	;volatile
  9413  0046  1803               	btfsc	3,0
  9414  0047  296E               	goto	i1l205
  9415  0048  283F               	goto	i1l211
  9416  0049                     i1l4609:	
  9417                           ;interrupt.c: 75: {
  9418                           ;interrupt.c: 76: return;
  9419                           
  9420                           
  9421                           ;interrupt.c: 77: }
  9422                           ;interrupt.c: 78: }
  9423                           ;interrupt.c: 79: D1cycles = TMR1;
  9424  0049  0817               	movf	23,w	;volatile
  9425  004A  00C9               	movwf	_D1cycles+1	;volatile
  9426  004B  0816               	movf	22,w	;volatile
  9427  004C  00C8               	movwf	_D1cycles	;volatile
  9428                           
  9429                           ;interrupt.c: 80: TMR1 = 0;
  9430  004D  0196               	clrf	22	;volatile
  9431  004E  0197               	clrf	23	;volatile
  9432  004F                     i1l215:	
  9433                           ;interrupt.c: 81: while(!PORTAbits.RA4)
  9434                           
  9435  004F  1A0C               	btfsc	12,4	;volatile
  9436  0050  2859               	goto	i1l4617
  9437                           
  9438                           ;interrupt.c: 82: {
  9439                           ;interrupt.c: 83: if(TMR1 >= 2678)
  9440  0051  300A               	movlw	10
  9441  0052  0217               	subwf	23,w	;volatile
  9442  0053  3076               	movlw	118
  9443  0054  1903               	skipnz
  9444  0055  0216               	subwf	22,w	;volatile
  9445  0056  1803               	btfsc	3,0
  9446  0057  296E               	goto	i1l205
  9447  0058  284F               	goto	i1l215
  9448  0059                     i1l4617:	
  9449                           ;interrupt.c: 84: {
  9450                           ;interrupt.c: 85: return;
  9451                           
  9452                           
  9453                           ;interrupt.c: 86: }
  9454                           ;interrupt.c: 87: }
  9455                           ;interrupt.c: 88: TMR1 = 0;
  9456  0059  0196               	clrf	22	;volatile
  9457  005A  0197               	clrf	23	;volatile
  9458  005B                     i1l219:	
  9459                           ;interrupt.c: 89: while(PORTAbits.RA4)
  9460                           
  9461  005B  1E0C               	btfss	12,4	;volatile
  9462  005C  2865               	goto	i1l4623
  9463                           
  9464                           ;interrupt.c: 90: {
  9465                           ;interrupt.c: 91: if(TMR1 >= 2678)
  9466  005D  300A               	movlw	10
  9467  005E  0217               	subwf	23,w	;volatile
  9468  005F  3076               	movlw	118
  9469  0060  1903               	skipnz
  9470  0061  0216               	subwf	22,w	;volatile
  9471  0062  1803               	btfsc	3,0
  9472  0063  296E               	goto	i1l205
  9473  0064  285B               	goto	i1l219
  9474  0065                     i1l4623:	
  9475                           ;interrupt.c: 92: {
  9476                           ;interrupt.c: 93: return;
  9477                           
  9478                           
  9479                           ;interrupt.c: 94: }
  9480                           ;interrupt.c: 95: }
  9481                           ;interrupt.c: 97: D2cycles = TMR1;
  9482  0065  0817               	movf	23,w	;volatile
  9483  0066  00CB               	movwf	_D2cycles+1	;volatile
  9484  0067  0816               	movf	22,w	;volatile
  9485  0068  00CA               	movwf	_D2cycles	;volatile
  9486                           
  9487                           ;interrupt.c: 101: if((D1cycles > (D2cycles * 1.1)) || (D2cycles > (D1cycles * 1.1)))
  9488  0069  30CD               	movlw	205
  9489  006A  00A0               	movwf	___ftmul@f1
  9490  006B  308C               	movlw	140
  9491  006C  00A1               	movwf	___ftmul@f1+1
  9492  006D  303F               	movlw	63
  9493  006E  00A2               	movwf	___ftmul@f1+2
  9494  006F  084B               	movf	_D2cycles+1,w	;volatile
  9495  0070  00F9               	movwf	___awtoft@c+1
  9496  0071  084A               	movf	_D2cycles,w	;volatile
  9497  0072  00F8               	movwf	___awtoft@c
  9498  0073  3190  20BD  3180   	fcall	___awtoft
  9499  0076  0878               	movf	?___awtoft,w
  9500  0077  0020               	movlb	0	; select bank0
  9501  0078  00A3               	movwf	___ftmul@f2
  9502  0079  0879               	movf	?___awtoft+1,w
  9503  007A  00A4               	movwf	___ftmul@f2+1
  9504  007B  087A               	movf	?___awtoft+2,w
  9505  007C  00A5               	movwf	___ftmul@f2+2
  9506  007D  318C  2409  3180   	fcall	___ftmul
  9507  0080  0020               	movlb	0	; select bank0
  9508  0081  0820               	movf	?___ftmul,w
  9509  0082  00B0               	movwf	___ftge@ff1
  9510  0083  0821               	movf	?___ftmul+1,w
  9511  0084  00B1               	movwf	___ftge@ff1+1
  9512  0085  0822               	movf	?___ftmul+2,w
  9513  0086  00B2               	movwf	___ftge@ff1+2
  9514  0087  0849               	movf	_D1cycles+1,w	;volatile
  9515  0088  00F9               	movwf	___awtoft@c+1
  9516  0089  0848               	movf	_D1cycles,w	;volatile
  9517  008A  00F8               	movwf	___awtoft@c
  9518  008B  3190  20BD  3180   	fcall	___awtoft
  9519  008E  0878               	movf	?___awtoft,w
  9520  008F  0020               	movlb	0	; select bank0
  9521  0090  00B3               	movwf	___ftge@ff2
  9522  0091  0879               	movf	?___awtoft+1,w
  9523  0092  00B4               	movwf	___ftge@ff2+1
  9524  0093  087A               	movf	?___awtoft+2,w
  9525  0094  00B5               	movwf	___ftge@ff2+2
  9526  0095  3191  2116  3180   	fcall	___ftge
  9527  0098  1C03               	btfss	3,0
  9528  0099  296E               	goto	i1l205
  9529  009A  30CD               	movlw	205
  9530  009B  0020               	movlb	0	; select bank0
  9531  009C  00A0               	movwf	___ftmul@f1
  9532  009D  308C               	movlw	140
  9533  009E  00A1               	movwf	___ftmul@f1+1
  9534  009F  303F               	movlw	63
  9535  00A0  00A2               	movwf	___ftmul@f1+2
  9536  00A1  0849               	movf	_D1cycles+1,w	;volatile
  9537  00A2  00F9               	movwf	___awtoft@c+1
  9538  00A3  0848               	movf	_D1cycles,w	;volatile
  9539  00A4  00F8               	movwf	___awtoft@c
  9540  00A5  3190  20BD  3180   	fcall	___awtoft
  9541  00A8  0878               	movf	?___awtoft,w
  9542  00A9  0020               	movlb	0	; select bank0
  9543  00AA  00A3               	movwf	___ftmul@f2
  9544  00AB  0879               	movf	?___awtoft+1,w
  9545  00AC  00A4               	movwf	___ftmul@f2+1
  9546  00AD  087A               	movf	?___awtoft+2,w
  9547  00AE  00A5               	movwf	___ftmul@f2+2
  9548  00AF  318C  2409  3180   	fcall	___ftmul
  9549  00B2  0020               	movlb	0	; select bank0
  9550  00B3  0820               	movf	?___ftmul,w
  9551  00B4  00B0               	movwf	___ftge@ff1
  9552  00B5  0821               	movf	?___ftmul+1,w
  9553  00B6  00B1               	movwf	___ftge@ff1+1
  9554  00B7  0822               	movf	?___ftmul+2,w
  9555  00B8  00B2               	movwf	___ftge@ff1+2
  9556  00B9  084B               	movf	_D2cycles+1,w	;volatile
  9557  00BA  00F9               	movwf	___awtoft@c+1
  9558  00BB  084A               	movf	_D2cycles,w	;volatile
  9559  00BC  00F8               	movwf	___awtoft@c
  9560  00BD  3190  20BD  3180   	fcall	___awtoft
  9561  00C0  0878               	movf	?___awtoft,w
  9562  00C1  0020               	movlb	0	; select bank0
  9563  00C2  00B3               	movwf	___ftge@ff2
  9564  00C3  0879               	movf	?___awtoft+1,w
  9565  00C4  00B4               	movwf	___ftge@ff2+1
  9566  00C5  087A               	movf	?___awtoft+2,w
  9567  00C6  00B5               	movwf	___ftge@ff2+2
  9568  00C7  3191  2116  3180   	fcall	___ftge
  9569  00CA  1C03               	btfss	3,0
  9570  00CB  296E               	goto	i1l205
  9571                           
  9572                           ;interrupt.c: 104: }
  9573                           ;interrupt.c: 106: Davgcycles = (D1cycles + D2cycles) / 2;
  9574                           
  9575                           ;interrupt.c: 102: {
  9576                           ;interrupt.c: 103: return;
  9577  00CC  3002               	movlw	2
  9578  00CD  00F0               	movwf	___awdiv@divisor
  9579  00CE  3000               	movlw	0
  9580  00CF  00F1               	movwf	___awdiv@divisor+1
  9581  00D0  0020               	movlb	0	; select bank0
  9582  00D1  084A               	movf	_D2cycles,w	;volatile
  9583  00D2  0748               	addwf	_D1cycles,w	;volatile
  9584  00D3  00F2               	movwf	___awdiv@dividend
  9585  00D4  084B               	movf	_D2cycles+1,w	;volatile
  9586  00D5  3D49               	addwfc	_D1cycles+1,w	;volatile
  9587  00D6  00F3               	movwf	___awdiv@dividend+1
  9588  00D7  3191  2152  3180   	fcall	___awdiv
  9589  00DA  0871               	movf	?___awdiv+1,w
  9590  00DB  0020               	movlb	0	; select bank0
  9591  00DC  00CD               	movwf	_Davgcycles+1	;volatile
  9592  00DD  0870               	movf	?___awdiv,w
  9593  00DE  00CC               	movwf	_Davgcycles	;volatile
  9594                           
  9595                           ;interrupt.c: 107: numPackets = Davgcycles * 17.85;
  9596  00DF  084D               	movf	_Davgcycles+1,w	;volatile
  9597  00E0  00F9               	movwf	___awtoft@c+1
  9598  00E1  084C               	movf	_Davgcycles,w	;volatile
  9599  00E2  00F8               	movwf	___awtoft@c
  9600  00E3  3190  20BD  3180   	fcall	___awtoft
  9601  00E6  0878               	movf	?___awtoft,w
  9602  00E7  0020               	movlb	0	; select bank0
  9603  00E8  00A3               	movwf	___ftmul@f2
  9604  00E9  0879               	movf	?___awtoft+1,w
  9605  00EA  00A4               	movwf	___ftmul@f2+1
  9606  00EB  087A               	movf	?___awtoft+2,w
  9607  00EC  00A5               	movwf	___ftmul@f2+2
  9608  00ED  30CD               	movlw	205
  9609  00EE  00A0               	movwf	___ftmul@f1
  9610  00EF  308E               	movlw	142
  9611  00F0  00A1               	movwf	___ftmul@f1+1
  9612  00F1  3041               	movlw	65
  9613  00F2  00A2               	movwf	___ftmul@f1+2
  9614  00F3  318C  2409  3180   	fcall	___ftmul
  9615  00F6  0020               	movlb	0	; select bank0
  9616  00F7  0820               	movf	?___ftmul,w
  9617  00F8  00B0               	movwf	___fttol@f1
  9618  00F9  0821               	movf	?___ftmul+1,w
  9619  00FA  00B1               	movwf	___fttol@f1+1
  9620  00FB  0822               	movf	?___ftmul+2,w
  9621  00FC  00B2               	movwf	___fttol@f1+2
  9622  00FD  3192  2207  3180   	fcall	___fttol
  9623  0100  0020               	movlb	0	; select bank0
  9624  0101  0831               	movf	?___fttol+1,w
  9625  0102  00CF               	movwf	_numPackets+1	;volatile
  9626  0103  0830               	movf	?___fttol,w
  9627  0104  00CE               	movwf	_numPackets	;volatile
  9628                           
  9629                           ;interrupt.c: 109: if(numPackets >= 6000 && numPackets <7500)
  9630  0105  084F               	movf	_numPackets+1,w	;volatile
  9631  0106  3A80               	xorlw	128
  9632  0107  00BE               	movwf	??_isr
  9633  0108  3097               	movlw	151
  9634  0109  023E               	subwf	??_isr,w
  9635  010A  1D03               	skipz
  9636  010B  290E               	goto	u404_25
  9637  010C  3070               	movlw	112
  9638  010D  024E               	subwf	_numPackets,w	;volatile
  9639  010E                     u404_25:	
  9640  010E  1C03               	skipc
  9641  010F  292C               	goto	i1l4647
  9642  0110  0020               	movlb	0	; select bank0
  9643  0111  084F               	movf	_numPackets+1,w	;volatile
  9644  0112  3A80               	xorlw	128
  9645  0113  00BE               	movwf	??_isr
  9646  0114  309D               	movlw	157
  9647  0115  023E               	subwf	??_isr,w
  9648  0116  1D03               	skipz
  9649  0117  291A               	goto	u405_25
  9650  0118  304C               	movlw	76
  9651  0119  024E               	subwf	_numPackets,w	;volatile
  9652  011A                     u405_25:	
  9653  011A  1803               	skipnc
  9654  011B  292C               	goto	i1l4647
  9655                           
  9656                           ;interrupt.c: 110: {
  9657                           ;interrupt.c: 111: if( (health > 0) && (!determine_omega_mode_active()) )
  9658  011C  0021               	movlb	1	; select bank1
  9659  011D  0845               	movf	_health^(0+128),w
  9660  011E  1903               	btfsc	3,2
  9661  011F  296E               	goto	i1l205
  9662  0120  3190  2067  3180   	fcall	i1_determine_omega_mode_active
  9663  0123  3A00               	xorlw	0
  9664  0124  1D03               	skipz
  9665  0125  296E               	goto	i1l205
  9666                           
  9667                           ;interrupt.c: 112: {
  9668                           ;interrupt.c: 113: health--;
  9669  0126  3001               	movlw	1
  9670  0127  0021               	movlb	1	; select bank1
  9671  0128  02C5               	subwf	_health^(0+128),f
  9672                           
  9673                           ;interrupt.c: 114: damage_received = 1;
  9674  0129  01C3               	clrf	_damage_received^(0+128)
  9675  012A  0AC3               	incf	_damage_received^(0+128),f
  9676                           
  9677                           ;interrupt.c: 117: }
  9678                           
  9679                           ;interrupt.c: 115: }
  9680                           ;interrupt.c: 116: return;
  9681  012B  296E               	goto	i1l205
  9682  012C                     i1l4647:	
  9683                           
  9684                           ;interrupt.c: 118: else if(numPackets >= 10000 && numPackets < 12000)
  9685  012C  0020               	movlb	0	; select bank0
  9686  012D  084F               	movf	_numPackets+1,w	;volatile
  9687  012E  3A80               	xorlw	128
  9688  012F  00BE               	movwf	??_isr
  9689  0130  30A7               	movlw	167
  9690  0131  023E               	subwf	??_isr,w
  9691  0132  1D03               	skipz
  9692  0133  2936               	goto	u408_25
  9693  0134  3010               	movlw	16
  9694  0135  024E               	subwf	_numPackets,w	;volatile
  9695  0136                     u408_25:	
  9696  0136  1C03               	skipc
  9697  0137  2950               	goto	i1l4659
  9698  0138  0020               	movlb	0	; select bank0
  9699  0139  084F               	movf	_numPackets+1,w	;volatile
  9700  013A  3A80               	xorlw	128
  9701  013B  00BE               	movwf	??_isr
  9702  013C  30AE               	movlw	174
  9703  013D  023E               	subwf	??_isr,w
  9704  013E  1D03               	skipz
  9705  013F  2942               	goto	u409_25
  9706  0140  30E0               	movlw	224
  9707  0141  024E               	subwf	_numPackets,w	;volatile
  9708  0142                     u409_25:	
  9709  0142  1803               	skipnc
  9710  0143  2950               	goto	i1l4659
  9711                           
  9712                           ;interrupt.c: 119: {
  9713                           ;interrupt.c: 120: if(health < 50)
  9714  0144  3032               	movlw	50
  9715  0145  0021               	movlb	1	; select bank1
  9716  0146  0245               	subwf	_health^(0+128),w
  9717  0147  1803               	skipnc
  9718  0148  296E               	goto	i1l205
  9719                           
  9720                           ;interrupt.c: 121: {
  9721                           ;interrupt.c: 122: health++;
  9722  0149  3001               	movlw	1
  9723  014A  0020               	movlb	0	; select bank0
  9724  014B  00BE               	movwf	??_isr
  9725  014C  083E               	movf	??_isr,w
  9726  014D  0021               	movlb	1	; select bank1
  9727  014E  07C5               	addwf	_health^(0+128),f
  9728                           
  9729                           ;interrupt.c: 125: }
  9730                           
  9731                           ;interrupt.c: 123: }
  9732                           ;interrupt.c: 124: return;
  9733  014F  296E               	goto	i1l205
  9734  0150                     i1l4659:	
  9735                           
  9736                           ;interrupt.c: 126: else if(numPackets >= 13000 && numPackets < 15000)
  9737  0150  0020               	movlb	0	; select bank0
  9738  0151  084F               	movf	_numPackets+1,w	;volatile
  9739  0152  3A80               	xorlw	128
  9740  0153  00BE               	movwf	??_isr
  9741  0154  30B2               	movlw	178
  9742  0155  023E               	subwf	??_isr,w
  9743  0156  1D03               	skipz
  9744  0157  295A               	goto	u411_25
  9745  0158  30C8               	movlw	200
  9746  0159  024E               	subwf	_numPackets,w	;volatile
  9747  015A                     u411_25:	
  9748  015A  1C03               	skipc
  9749  015B  296E               	goto	i1l205
  9750  015C  0020               	movlb	0	; select bank0
  9751  015D  084F               	movf	_numPackets+1,w	;volatile
  9752  015E  3A80               	xorlw	128
  9753  015F  00BE               	movwf	??_isr
  9754  0160  30BA               	movlw	186
  9755  0161  023E               	subwf	??_isr,w
  9756  0162  1D03               	skipz
  9757  0163  2966               	goto	u412_25
  9758  0164  3098               	movlw	152
  9759  0165  024E               	subwf	_numPackets,w	;volatile
  9760  0166                     u412_25:	
  9761  0166  1803               	skipnc
  9762  0167  296E               	goto	i1l205
  9763                           
  9764                           ;interrupt.c: 127: {
  9765                           ;interrupt.c: 128: stun_counter++;
  9766  0168  3001               	movlw	1
  9767  0169  0020               	movlb	0	; select bank0
  9768  016A  00BE               	movwf	??_isr
  9769  016B  083E               	movf	??_isr,w
  9770  016C  0021               	movlb	1	; select bank1
  9771  016D  07C4               	addwf	_stun_counter^(0+128),f
  9772  016E                     i1l205:	
  9773                           ;interrupt.c: 130: }
  9774                           ;interrupt.c: 131: return;
  9775                           
  9776                           ;interrupt.c: 129: return;
  9777                           
  9778  016E  0020               	movlb	0	; select bank0
  9779  016F  083F               	movf	??_isr+1,w
  9780  0170  00FF               	movwf	127
  9781  0171  107E               	bcf	126,0	;clear compiler interrupt flag (level 1)
  9782  0172  0009               	retfie
  9783  0173                     __end_of_isr:	
  9784                           
  9785                           	psect	text21
  9786  128E                     __ptext21:	
  9787 ;; *************** function i1_display_health *****************
  9788 ;; Defined at:
  9789 ;;		line 152 in file "../../source/lighting.c"
  9790 ;; Parameters:    Size  Location     Type
  9791 ;;		None
  9792 ;; Auto vars:     Size  Location     Type
  9793 ;;		None
  9794 ;; Return value:  Size  Location     Type
  9795 ;;		None               void
  9796 ;; Registers used:
  9797 ;;		wreg, status,2, status,0
  9798 ;; Tracked objects:
  9799 ;;		On entry : 0/0
  9800 ;;		On exit  : 0/0
  9801 ;;		Unchanged: 0/0
  9802 ;; Data sizes:     COMMON   BANK0   BANK1   BANK2   BANK3   BANK4   BANK5   BANK6   BANK7   BANK8   BANK9  BANK10  BANK1
      +1  BANK12  BANK13  BANK14  BANK15  BANK16  BANK17  BANK18  BANK19  BANK20  BANK21  BANK22  BANK23  BANK24  BANK25
  9803 ;;      Params:         0       0       0       0       0       0       0       0       0       0       0       0       
      +0       0       0       0       0       0       0       0       0       0       0       0       0       0       0
  9804 ;;      Locals:         0       0       0       0       0       0       0       0       0       0       0       0       
      +0       0       0       0       0       0       0       0       0       0       0       0       0       0       0
  9805 ;;      Temps:          3       0       0       0       0       0       0       0       0       0       0       0       
      +0       0       0       0       0       0       0       0       0       0       0       0       0       0       0
  9806 ;;      Totals:         3       0       0       0       0       0       0       0       0       0       0       0       
      +0       0       0       0       0       0       0       0       0       0       0       0       0       0       0
  9807 ;;Total ram usage:        3 bytes
  9808 ;; Hardware stack levels used:    1
  9809 ;; This function calls:
  9810 ;;		Nothing
  9811 ;; This function is called by:
  9812 ;;		_isr
  9813 ;; This function uses a non-reentrant model
  9814 ;;
  9815                           
  9816                           
  9817                           ;psect for function i1_display_health
  9818  128E                     i1_display_health:	
  9819  128E                     i1l4241:	
  9820                           ;lighting.c: 154: while(health == 0)
  9821                           
  9822                           ;incstack = 0
  9823                           ; Regs used in i1_display_health: [wreg+status,2+status,0]
  9824                           
  9825  128E  0021               	movlb	1	; select bank1
  9826  128F  0845               	movf	_health^(0+128),w
  9827  1290  1D03               	btfss	3,2
  9828  1291  2AD7               	goto	i1l4243
  9829                           
  9830                           ;lighting.c: 155: {
  9831                           ;lighting.c: 158: PSMC2DCH = 0xFF;
  9832  1292  30FF               	movlw	255
  9833  1293  003D               	movlb	29	; select bank29
  9834  1294  00C4               	movwf	68	;volatile
  9835                           
  9836                           ;lighting.c: 159: PSMC2DCL = 0xFF;
  9837  1295  30FF               	movlw	255
  9838  1296  00C3               	movwf	67	;volatile
  9839                           
  9840                           ;lighting.c: 160: PSMC2LD = 1;
  9841  1297  1731               	bsf	49,6	;volatile
  9842                           
  9843                           ;lighting.c: 162: PSMC3DCH = 0xFF;
  9844  1298  30FF               	movlw	255
  9845  1299  00E4               	movwf	100	;volatile
  9846                           
  9847                           ;lighting.c: 163: PSMC3DCL = 0xFF;
  9848  129A  30FF               	movlw	255
  9849  129B  00E3               	movwf	99	;volatile
  9850                           
  9851                           ;lighting.c: 164: PSMC3LD = 1;
  9852  129C  1751               	bsf	81,6	;volatile
  9853                           
  9854                           ;lighting.c: 166: PSMC4DCH = 0x00;
  9855  129D  003E               	movlb	30	; select bank30
  9856  129E  01A4               	clrf	36	;volatile
  9857                           
  9858                           ;lighting.c: 167: PSMC4DCL = 0x00;
  9859  129F  01A3               	clrf	35	;volatile
  9860                           
  9861                           ;lighting.c: 168: PSMC4LD = 1;
  9862  12A0  1711               	bsf	17,6	;volatile
  9863                           
  9864                           ;lighting.c: 170: PSMC2LD = 1;
  9865  12A1  003D               	movlb	29	; select bank29
  9866  12A2  1731               	bsf	49,6	;volatile
  9867                           
  9868                           ;lighting.c: 171: PSMC3LD = 1;
  9869  12A3  1751               	bsf	81,6	;volatile
  9870                           
  9871                           ;lighting.c: 172: PSMC4LD = 1;
  9872  12A4  003E               	movlb	30	; select bank30
  9873  12A5  1711               	bsf	17,6	;volatile
  9874                           
  9875                           ;lighting.c: 174: _delay((unsigned long)((500)*(32000000/4000.0)));
  9876  12A6  3015               	movlw	21
  9877  12A7  00F2               	movwf	??i1_display_health+2
  9878  12A8  304B               	movlw	75
  9879  12A9  00F1               	movwf	??i1_display_health+1
  9880  12AA  30D1               	movlw	209
  9881  12AB  00F0               	movwf	??i1_display_health
  9882  12AC                     u521_27:	
  9883  12AC  0BF0               	decfsz	??i1_display_health,f
  9884  12AD  2AAC               	goto	u521_27
  9885  12AE  0BF1               	decfsz	??i1_display_health+1,f
  9886  12AF  2AAC               	goto	u521_27
  9887  12B0  0BF2               	decfsz	??i1_display_health+2,f
  9888  12B1  2AAC               	goto	u521_27
  9889  12B2  0000               	nop
  9890                           
  9891                           ;lighting.c: 178: PSMC2DCH = 0xFF;
  9892  12B3  30FF               	movlw	255
  9893  12B4  003D               	movlb	29	; select bank29
  9894  12B5  00C4               	movwf	68	;volatile
  9895                           
  9896                           ;lighting.c: 179: PSMC2DCL = 0xFF;
  9897  12B6  30FF               	movlw	255
  9898  12B7  00C3               	movwf	67	;volatile
  9899                           
  9900                           ;lighting.c: 180: PSMC2LD = 1;
  9901  12B8  1731               	bsf	49,6	;volatile
  9902                           
  9903                           ;lighting.c: 182: PSMC3DCH = 0xFF;
  9904  12B9  30FF               	movlw	255
  9905  12BA  00E4               	movwf	100	;volatile
  9906                           
  9907                           ;lighting.c: 183: PSMC3DCL = 0xFF;
  9908  12BB  30FF               	movlw	255
  9909  12BC  00E3               	movwf	99	;volatile
  9910                           
  9911                           ;lighting.c: 184: PSMC3LD = 1;
  9912  12BD  1751               	bsf	81,6	;volatile
  9913                           
  9914                           ;lighting.c: 186: PSMC4DCH = 0xFF;
  9915  12BE  30FF               	movlw	255
  9916  12BF  003E               	movlb	30	; select bank30
  9917  12C0  00A4               	movwf	36	;volatile
  9918                           
  9919                           ;lighting.c: 187: PSMC4DCL = 0xFF;
  9920  12C1  30FF               	movlw	255
  9921  12C2  00A3               	movwf	35	;volatile
  9922                           
  9923                           ;lighting.c: 188: PSMC4LD = 1;
  9924  12C3  1711               	bsf	17,6	;volatile
  9925                           
  9926                           ;lighting.c: 190: PSMC2LD = 1;
  9927  12C4  003D               	movlb	29	; select bank29
  9928  12C5  1731               	bsf	49,6	;volatile
  9929                           
  9930                           ;lighting.c: 191: PSMC3LD = 1;
  9931  12C6  1751               	bsf	81,6	;volatile
  9932                           
  9933                           ;lighting.c: 192: PSMC4LD = 1;
  9934  12C7  003E               	movlb	30	; select bank30
  9935  12C8  1711               	bsf	17,6	;volatile
  9936                           
  9937                           ;lighting.c: 194: _delay((unsigned long)((500)*(32000000/4000.0)));
  9938  12C9  3015               	movlw	21
  9939  12CA  00F2               	movwf	??i1_display_health+2
  9940  12CB  304B               	movlw	75
  9941  12CC  00F1               	movwf	??i1_display_health+1
  9942  12CD  30D1               	movlw	209
  9943  12CE  00F0               	movwf	??i1_display_health
  9944  12CF                     u522_27:	
  9945  12CF  0BF0               	decfsz	??i1_display_health,f
  9946  12D0  2ACF               	goto	u522_27
  9947  12D1  0BF1               	decfsz	??i1_display_health+1,f
  9948  12D2  2ACF               	goto	u522_27
  9949  12D3  0BF2               	decfsz	??i1_display_health+2,f
  9950  12D4  2ACF               	goto	u522_27
  9951  12D5  0000               	nop
  9952  12D6  2A8E               	goto	i1l4241
  9953  12D7                     i1l4243:	
  9954                           
  9955                           ;lighting.c: 195: }
  9956                           ;lighting.c: 197: if(health <= 10)
  9957  12D7  300B               	movlw	11
  9958  12D8  0245               	subwf	_health^(0+128),w
  9959  12D9  1803               	skipnc
  9960  12DA  2AF0               	goto	i1l4263
  9961                           
  9962                           ;lighting.c: 198: {
  9963                           ;lighting.c: 201: PSMC2DCH = 0xFF;
  9964  12DB  30FF               	movlw	255
  9965  12DC  003D               	movlb	29	; select bank29
  9966  12DD  00C4               	movwf	68	;volatile
  9967                           
  9968                           ;lighting.c: 202: PSMC2DCL = 0xFF;
  9969  12DE  30FF               	movlw	255
  9970  12DF  00C3               	movwf	67	;volatile
  9971                           
  9972                           ;lighting.c: 203: PSMC2LD = 1;
  9973  12E0  1731               	bsf	49,6	;volatile
  9974                           
  9975                           ;lighting.c: 205: PSMC3DCH = 0xFF;
  9976  12E1  30FF               	movlw	255
  9977  12E2  00E4               	movwf	100	;volatile
  9978                           
  9979                           ;lighting.c: 206: PSMC3DCL = 0xFF;
  9980  12E3  30FF               	movlw	255
  9981  12E4  00E3               	movwf	99	;volatile
  9982                           
  9983                           ;lighting.c: 207: PSMC3LD = 1;
  9984  12E5  1751               	bsf	81,6	;volatile
  9985                           
  9986                           ;lighting.c: 209: PSMC4DCH = 0x00;
  9987  12E6  003E               	movlb	30	; select bank30
  9988  12E7  01A4               	clrf	36	;volatile
  9989                           
  9990                           ;lighting.c: 210: PSMC4DCL = 0x00;
  9991  12E8  01A3               	clrf	35	;volatile
  9992                           
  9993                           ;lighting.c: 211: PSMC4LD = 1;
  9994  12E9  1711               	bsf	17,6	;volatile
  9995                           
  9996                           ;lighting.c: 213: PSMC2LD = 1;
  9997  12EA  003D               	movlb	29	; select bank29
  9998  12EB  1731               	bsf	49,6	;volatile
  9999                           
 10000                           ;lighting.c: 214: PSMC3LD = 1;
 10001  12EC  1751               	bsf	81,6	;volatile
 10002                           
 10003                           ;lighting.c: 215: PSMC4LD = 1;
 10004  12ED  003E               	movlb	30	; select bank30
 10005  12EE  1711               	bsf	17,6	;volatile
 10006                           
 10007                           ;lighting.c: 216: }
 10008  12EF  0008               	return
 10009  12F0                     i1l4263:	
 10010                           
 10011                           ;lighting.c: 217: else if(10 < health && health < 35)
 10012  12F0  300B               	movlw	11
 10013  12F1  0021               	movlb	1	; select bank1
 10014  12F2  0245               	subwf	_health^(0+128),w
 10015  12F3  1C03               	skipc
 10016  12F4  2B0D               	goto	i1l4287
 10017  12F5  3023               	movlw	35
 10018  12F6  0245               	subwf	_health^(0+128),w
 10019  12F7  1803               	skipnc
 10020  12F8  2B0D               	goto	i1l4287
 10021                           
 10022                           ;lighting.c: 218: {
 10023                           ;lighting.c: 221: PSMC2DCH = 0x00;
 10024  12F9  003D               	movlb	29	; select bank29
 10025  12FA  01C4               	clrf	68	;volatile
 10026                           
 10027                           ;lighting.c: 222: PSMC2DCL = 0x00;
 10028  12FB  01C3               	clrf	67	;volatile
 10029                           
 10030                           ;lighting.c: 223: PSMC2LD = 1;
 10031  12FC  1731               	bsf	49,6	;volatile
 10032                           
 10033                           ;lighting.c: 225: PSMC3DCH = 0xFF;
 10034  12FD  30FF               	movlw	255
 10035  12FE  00E4               	movwf	100	;volatile
 10036                           
 10037                           ;lighting.c: 226: PSMC3DCL = 0xFF;
 10038  12FF  30FF               	movlw	255
 10039  1300  00E3               	movwf	99	;volatile
 10040                           
 10041                           ;lighting.c: 227: PSMC3LD = 1;
 10042  1301  1751               	bsf	81,6	;volatile
 10043                           
 10044                           ;lighting.c: 229: PSMC4DCH = 0x00;
 10045  1302  003E               	movlb	30	; select bank30
 10046  1303  01A4               	clrf	36	;volatile
 10047                           
 10048                           ;lighting.c: 230: PSMC4DCL = 0xFF;
 10049  1304  30FF               	movlw	255
 10050  1305  00A3               	movwf	35	;volatile
 10051                           
 10052                           ;lighting.c: 231: PSMC4LD = 1;
 10053  1306  1711               	bsf	17,6	;volatile
 10054                           
 10055                           ;lighting.c: 233: PSMC2LD = 1;
 10056  1307  003D               	movlb	29	; select bank29
 10057  1308  1731               	bsf	49,6	;volatile
 10058                           
 10059                           ;lighting.c: 234: PSMC3LD = 1;
 10060  1309  1751               	bsf	81,6	;volatile
 10061                           
 10062                           ;lighting.c: 235: PSMC4LD = 1;
 10063  130A  003E               	movlb	30	; select bank30
 10064  130B  1711               	bsf	17,6	;volatile
 10065                           
 10066                           ;lighting.c: 236: }
 10067  130C  0008               	return
 10068  130D                     i1l4287:	
 10069                           
 10070                           ;lighting.c: 237: else
 10071                           ;lighting.c: 238: {
 10072                           ;lighting.c: 241: PSMC2DCH = 0x00;
 10073  130D  003D               	movlb	29	; select bank29
 10074  130E  01C4               	clrf	68	;volatile
 10075                           
 10076                           ;lighting.c: 242: PSMC2DCL = 0x00;
 10077  130F  01C3               	clrf	67	;volatile
 10078                           
 10079                           ;lighting.c: 243: PSMC2LD = 1;
 10080  1310  1731               	bsf	49,6	;volatile
 10081                           
 10082                           ;lighting.c: 245: PSMC3DCH = 0xFF;
 10083  1311  30FF               	movlw	255
 10084  1312  00E4               	movwf	100	;volatile
 10085                           
 10086                           ;lighting.c: 246: PSMC3DCL = 0xFF;
 10087  1313  30FF               	movlw	255
 10088  1314  00E3               	movwf	99	;volatile
 10089                           
 10090                           ;lighting.c: 247: PSMC3LD = 1;
 10091  1315  1751               	bsf	81,6	;volatile
 10092                           
 10093                           ;lighting.c: 249: PSMC4DCH = 0xFF;
 10094  1316  30FF               	movlw	255
 10095  1317  003E               	movlb	30	; select bank30
 10096  1318  00A4               	movwf	36	;volatile
 10097                           
 10098                           ;lighting.c: 250: PSMC4DCL = 0xFF;
 10099  1319  30FF               	movlw	255
 10100  131A  00A3               	movwf	35	;volatile
 10101                           
 10102                           ;lighting.c: 251: PSMC4LD = 1;
 10103  131B  1711               	bsf	17,6	;volatile
 10104                           
 10105                           ;lighting.c: 253: PSMC2LD = 1;
 10106  131C  003D               	movlb	29	; select bank29
 10107  131D  1731               	bsf	49,6	;volatile
 10108                           
 10109                           ;lighting.c: 254: PSMC3LD = 1;
 10110  131E  1751               	bsf	81,6	;volatile
 10111                           
 10112                           ;lighting.c: 255: PSMC4LD = 1;
 10113  131F  003E               	movlb	30	; select bank30
 10114  1320  1711               	bsf	17,6	;volatile
 10115  1321  0008               	return
 10116  1322                     __end_ofi1_display_health:	
 10117                           
 10118                           	psect	text22
 10119  04BF                     __ptext22:	
 10120 ;; *************** function i1_display_blade_lights *****************
 10121 ;; Defined at:
 10122 ;;		line 259 in file "../../source/lighting.c"
 10123 ;; Parameters:    Size  Location     Type
 10124 ;;  mode            1    wreg     unsigned char 
 10125 ;; Auto vars:     Size  Location     Type
 10126 ;;  mode            1    3[BANK0 ] unsigned char 
 10127 ;;  display_blad    2   10[BANK0 ] int 
 10128 ;;  display_blad    2    8[BANK0 ] int 
 10129 ;;  display_blad    2    6[BANK0 ] int 
 10130 ;;  display_blad    2    4[BANK0 ] int 
 10131 ;;  display_blad    1   19[BANK0 ] unsigned char 
 10132 ;;  display_blad    1   18[BANK0 ] unsigned char 
 10133 ;;  display_blad    1   17[BANK0 ] unsigned char 
 10134 ;;  display_blad    1   16[BANK0 ] unsigned char 
 10135 ;;  display_blad    1   15[BANK0 ] unsigned char 
 10136 ;;  display_blad    1   14[BANK0 ] unsigned char 
 10137 ;;  display_blad    1   13[BANK0 ] unsigned char 
 10138 ;;  display_blad    1   12[BANK0 ] unsigned char 
 10139 ;; Return value:  Size  Location     Type
 10140 ;;		None               void
 10141 ;; Registers used:
 10142 ;;		wreg, status,2, status,0, pclath, cstack
 10143 ;; Tracked objects:
 10144 ;;		On entry : 0/0
 10145 ;;		On exit  : 0/0
 10146 ;;		Unchanged: 0/0
 10147 ;; Data sizes:     COMMON   BANK0   BANK1   BANK2   BANK3   BANK4   BANK5   BANK6   BANK7   BANK8   BANK9  BANK10  BANK1
      +1  BANK12  BANK13  BANK14  BANK15  BANK16  BANK17  BANK18  BANK19  BANK20  BANK21  BANK22  BANK23  BANK24  BANK25
 10148 ;;      Params:         0       0       0       0       0       0       0       0       0       0       0       0       
      +0       0       0       0       0       0       0       0       0       0       0       0       0       0       0
 10149 ;;      Locals:         0      17       0       0       0       0       0       0       0       0       0       0       
      +0       0       0       0       0       0       0       0       0       0       0       0       0       0       0
 10150 ;;      Temps:          0       3       0       0       0       0       0       0       0       0       0       0       
      +0       0       0       0       0       0       0       0       0       0       0       0       0       0       0
 10151 ;;      Totals:         0      20       0       0       0       0       0       0       0       0       0       0       
      +0       0       0       0       0       0       0       0       0       0       0       0       0       0       0
 10152 ;;Total ram usage:       20 bytes
 10153 ;; Hardware stack levels used:    1
 10154 ;; Hardware stack levels required when called:    2
 10155 ;; This function calls:
 10156 ;;		i1_led1_command
 10157 ;;		i1_led2_command
 10158 ;;		i1_led3_command
 10159 ;;		i1_led4_command
 10160 ;;		i1_led5_command
 10161 ;;		i1_leds_off
 10162 ;;		i1_writespi
 10163 ;; This function is called by:
 10164 ;;		_isr
 10165 ;; This function uses a non-reentrant model
 10166 ;;
 10167                           
 10168                           
 10169                           ;psect for function i1_display_blade_lights
 10170  04BF                     i1_display_blade_lights:	
 10171                           
 10172                           ;incstack = 0
 10173                           ; Regs used in i1_display_blade_lights: [wreg+status,2+status,0+pclath+cstack]
 10174                           ;i1display_blade_lights@mode stored from wreg
 10175  04BF  0020               	movlb	0	; select bank0
 10176  04C0  00A3               	movwf	i1display_blade_lights@mode
 10177                           
 10178                           ;lighting.c: 261: unsigned char red = 0;
 10179  04C1  01AF               	clrf	i1display_blade_lights@red
 10180                           
 10181                           ;lighting.c: 262: unsigned char green = 0;
 10182  04C2  01B0               	clrf	i1display_blade_lights@green
 10183                           
 10184                           ;lighting.c: 263: unsigned char blue = 0;
 10185  04C3  01B1               	clrf	i1display_blade_lights@blue
 10186                           
 10187                           ;lighting.c: 264: unsigned char brightness = 0xFF;
 10188  04C4  30FF               	movlw	255
 10189  04C5  00A0               	movwf	??i1_display_blade_lights
 10190  04C6  0820               	movf	??i1_display_blade_lights,w
 10191  04C7  00AE               	movwf	i1display_blade_lights@brightness
 10192                           
 10193                           ;lighting.c: 275: red = 0x00;
 10194  04C8  01AF               	clrf	i1display_blade_lights@red
 10195                           
 10196                           ;lighting.c: 276: green = 0x00;
 10197  04C9  01B0               	clrf	i1display_blade_lights@green
 10198                           
 10199                           ;lighting.c: 277: blue = 0xFF;
 10200  04CA  30FF               	movlw	255
 10201  04CB  00A0               	movwf	??i1_display_blade_lights
 10202  04CC  0820               	movf	??i1_display_blade_lights,w
 10203  04CD  00B1               	movwf	i1display_blade_lights@blue
 10204                           
 10205                           ;lighting.c: 284: if( (mode == 0)
 10206                           ;lighting.c: 285: || (mode == 1) )
 10207  04CE  0823               	movf	i1display_blade_lights@mode,w
 10208  04CF  1D03               	btfss	3,2
 10209  04D0  0323               	decf	i1display_blade_lights@mode,w
 10210  04D1  1D03               	btfss	3,2
 10211  04D2  2DA7               	goto	i1l4353
 10212                           
 10213                           ;lighting.c: 286: {
 10214                           ;lighting.c: 288: led1_command(brightness, red, green, blue);
 10215  04D3  082F               	movf	i1display_blade_lights@red,w
 10216  04D4  00A0               	movwf	??i1_display_blade_lights
 10217  04D5  0820               	movf	??i1_display_blade_lights,w
 10218  04D6  00F3               	movwf	i1led1_command@red
 10219  04D7  0830               	movf	i1display_blade_lights@green,w
 10220  04D8  00A1               	movwf	??i1_display_blade_lights+1
 10221  04D9  0821               	movf	??i1_display_blade_lights+1,w
 10222  04DA  00F4               	movwf	i1led1_command@green
 10223  04DB  0831               	movf	i1display_blade_lights@blue,w
 10224  04DC  00A2               	movwf	??i1_display_blade_lights+2
 10225  04DD  0822               	movf	??i1_display_blade_lights+2,w
 10226  04DE  00F5               	movwf	i1led1_command@blue
 10227  04DF  082E               	movf	i1display_blade_lights@brightness,w
 10228  04E0  3194  2452  3184   	fcall	i1_led1_command
 10229                           
 10230                           ;lighting.c: 289: _delay((unsigned long)((50)*(32000000/4000.0)));
 10231  04E3  3003               	movlw	3
 10232  04E4  0020               	movlb	0	; select bank0
 10233  04E5  00A2               	movwf	??i1_display_blade_lights+2
 10234  04E6  3008               	movlw	8
 10235  04E7  00A1               	movwf	??i1_display_blade_lights+1
 10236  04E8  3078               	movlw	120
 10237  04E9  00A0               	movwf	??i1_display_blade_lights
 10238  04EA                     u523_27:	
 10239  04EA  0BA0               	decfsz	??i1_display_blade_lights,f
 10240  04EB  2CEA               	goto	u523_27
 10241  04EC  0BA1               	decfsz	??i1_display_blade_lights+1,f
 10242  04ED  2CEA               	goto	u523_27
 10243  04EE  0BA2               	decfsz	??i1_display_blade_lights+2,f
 10244  04EF  2CEA               	goto	u523_27
 10245                           
 10246                           ;lighting.c: 291: led2_command(brightness, red, green, blue);
 10247  04F0  0020               	movlb	0	; select bank0
 10248  04F1  082F               	movf	i1display_blade_lights@red,w
 10249  04F2  00A0               	movwf	??i1_display_blade_lights
 10250  04F3  0820               	movf	??i1_display_blade_lights,w
 10251  04F4  00F3               	movwf	i1led2_command@red
 10252  04F5  0830               	movf	i1display_blade_lights@green,w
 10253  04F6  00A1               	movwf	??i1_display_blade_lights+1
 10254  04F7  0821               	movf	??i1_display_blade_lights+1,w
 10255  04F8  00F4               	movwf	i1led2_command@green
 10256  04F9  0831               	movf	i1display_blade_lights@blue,w
 10257  04FA  00A2               	movwf	??i1_display_blade_lights+2
 10258  04FB  0822               	movf	??i1_display_blade_lights+2,w
 10259  04FC  00F5               	movwf	i1led2_command@blue
 10260  04FD  082E               	movf	i1display_blade_lights@brightness,w
 10261  04FE  3194  24ED  3184   	fcall	i1_led2_command
 10262                           
 10263                           ;lighting.c: 292: _delay((unsigned long)((50)*(32000000/4000.0)));
 10264  0501  3003               	movlw	3
 10265  0502  0020               	movlb	0	; select bank0
 10266  0503  00A2               	movwf	??i1_display_blade_lights+2
 10267  0504  3008               	movlw	8
 10268  0505  00A1               	movwf	??i1_display_blade_lights+1
 10269  0506  3078               	movlw	120
 10270  0507  00A0               	movwf	??i1_display_blade_lights
 10271  0508                     u524_27:	
 10272  0508  0BA0               	decfsz	??i1_display_blade_lights,f
 10273  0509  2D08               	goto	u524_27
 10274  050A  0BA1               	decfsz	??i1_display_blade_lights+1,f
 10275  050B  2D08               	goto	u524_27
 10276  050C  0BA2               	decfsz	??i1_display_blade_lights+2,f
 10277  050D  2D08               	goto	u524_27
 10278                           
 10279                           ;lighting.c: 294: led3_command(brightness, red, green, blue);
 10280  050E  0020               	movlb	0	; select bank0
 10281  050F  082F               	movf	i1display_blade_lights@red,w
 10282  0510  00A0               	movwf	??i1_display_blade_lights
 10283  0511  0820               	movf	??i1_display_blade_lights,w
 10284  0512  00F3               	movwf	i1led3_command@red
 10285  0513  0830               	movf	i1display_blade_lights@green,w
 10286  0514  00A1               	movwf	??i1_display_blade_lights+1
 10287  0515  0821               	movf	??i1_display_blade_lights+1,w
 10288  0516  00F4               	movwf	i1led3_command@green
 10289  0517  0831               	movf	i1display_blade_lights@blue,w
 10290  0518  00A2               	movwf	??i1_display_blade_lights+2
 10291  0519  0822               	movf	??i1_display_blade_lights+2,w
 10292  051A  00F5               	movwf	i1led3_command@blue
 10293  051B  082E               	movf	i1display_blade_lights@brightness,w
 10294  051C  3195  2588  3184   	fcall	i1_led3_command
 10295                           
 10296                           ;lighting.c: 295: _delay((unsigned long)((50)*(32000000/4000.0)));
 10297  051F  3003               	movlw	3
 10298  0520  0020               	movlb	0	; select bank0
 10299  0521  00A2               	movwf	??i1_display_blade_lights+2
 10300  0522  3008               	movlw	8
 10301  0523  00A1               	movwf	??i1_display_blade_lights+1
 10302  0524  3078               	movlw	120
 10303  0525  00A0               	movwf	??i1_display_blade_lights
 10304  0526                     u525_27:	
 10305  0526  0BA0               	decfsz	??i1_display_blade_lights,f
 10306  0527  2D26               	goto	u525_27
 10307  0528  0BA1               	decfsz	??i1_display_blade_lights+1,f
 10308  0529  2D26               	goto	u525_27
 10309  052A  0BA2               	decfsz	??i1_display_blade_lights+2,f
 10310  052B  2D26               	goto	u525_27
 10311                           
 10312                           ;lighting.c: 297: led4_command(brightness, red, green, blue);
 10313  052C  0020               	movlb	0	; select bank0
 10314  052D  082F               	movf	i1display_blade_lights@red,w
 10315  052E  00A0               	movwf	??i1_display_blade_lights
 10316  052F  0820               	movf	??i1_display_blade_lights,w
 10317  0530  00F3               	movwf	i1led4_command@red
 10318  0531  0830               	movf	i1display_blade_lights@green,w
 10319  0532  00A1               	movwf	??i1_display_blade_lights+1
 10320  0533  0821               	movf	??i1_display_blade_lights+1,w
 10321  0534  00F4               	movwf	i1led4_command@green
 10322  0535  0831               	movf	i1display_blade_lights@blue,w
 10323  0536  00A2               	movwf	??i1_display_blade_lights+2
 10324  0537  0822               	movf	??i1_display_blade_lights+2,w
 10325  0538  00F5               	movwf	i1led4_command@blue
 10326  0539  082E               	movf	i1display_blade_lights@brightness,w
 10327  053A  3196  2623  3184   	fcall	i1_led4_command
 10328                           
 10329                           ;lighting.c: 298: _delay((unsigned long)((50)*(32000000/4000.0)));
 10330  053D  3003               	movlw	3
 10331  053E  0020               	movlb	0	; select bank0
 10332  053F  00A2               	movwf	??i1_display_blade_lights+2
 10333  0540  3008               	movlw	8
 10334  0541  00A1               	movwf	??i1_display_blade_lights+1
 10335  0542  3078               	movlw	120
 10336  0543  00A0               	movwf	??i1_display_blade_lights
 10337  0544                     u526_27:	
 10338  0544  0BA0               	decfsz	??i1_display_blade_lights,f
 10339  0545  2D44               	goto	u526_27
 10340  0546  0BA1               	decfsz	??i1_display_blade_lights+1,f
 10341  0547  2D44               	goto	u526_27
 10342  0548  0BA2               	decfsz	??i1_display_blade_lights+2,f
 10343  0549  2D44               	goto	u526_27
 10344                           
 10345                           ;lighting.c: 300: led5_command(brightness, red, green, blue);
 10346  054A  0020               	movlb	0	; select bank0
 10347  054B  082F               	movf	i1display_blade_lights@red,w
 10348  054C  00A0               	movwf	??i1_display_blade_lights
 10349  054D  0820               	movf	??i1_display_blade_lights,w
 10350  054E  00F3               	movwf	i1led5_command@red
 10351  054F  0830               	movf	i1display_blade_lights@green,w
 10352  0550  00A1               	movwf	??i1_display_blade_lights+1
 10353  0551  0821               	movf	??i1_display_blade_lights+1,w
 10354  0552  00F4               	movwf	i1led5_command@green
 10355  0553  0831               	movf	i1display_blade_lights@blue,w
 10356  0554  00A2               	movwf	??i1_display_blade_lights+2
 10357  0555  0822               	movf	??i1_display_blade_lights+2,w
 10358  0556  00F5               	movwf	i1led5_command@blue
 10359  0557  082E               	movf	i1display_blade_lights@brightness,w
 10360  0558  3196  26BE  3184   	fcall	i1_led5_command
 10361                           
 10362                           ;lighting.c: 301: _delay((unsigned long)((50)*(32000000/4000.0)));
 10363  055B  3003               	movlw	3
 10364  055C  0020               	movlb	0	; select bank0
 10365  055D  00A2               	movwf	??i1_display_blade_lights+2
 10366  055E  3008               	movlw	8
 10367  055F  00A1               	movwf	??i1_display_blade_lights+1
 10368  0560  3078               	movlw	120
 10369  0561  00A0               	movwf	??i1_display_blade_lights
 10370  0562                     u527_27:	
 10371  0562  0BA0               	decfsz	??i1_display_blade_lights,f
 10372  0563  2D62               	goto	u527_27
 10373  0564  0BA1               	decfsz	??i1_display_blade_lights+1,f
 10374  0565  2D62               	goto	u527_27
 10375  0566  0BA2               	decfsz	??i1_display_blade_lights+2,f
 10376  0567  2D62               	goto	u527_27
 10377                           
 10378                           ;lighting.c: 303: for(unsigned char i = 0; i < 4; ++i)
 10379  0568  0020               	movlb	0	; select bank0
 10380  0569  01AC               	clrf	i1display_blade_lights@i
 10381  056A                     L6:	
 10382  056A  3004               	movlw	4
 10383  056B  022C               	subwf	i1display_blade_lights@i,w
 10384  056C  1803               	btfsc	3,0
 10385  056D  2FC5               	goto	i1l4463
 10386                           
 10387                           ;lighting.c: 304: {
 10388                           ;lighting.c: 306: led5_command(brightness, red, green, blue);
 10389  056E  082F               	movf	i1display_blade_lights@red,w
 10390  056F  00A0               	movwf	??i1_display_blade_lights
 10391  0570  0820               	movf	??i1_display_blade_lights,w
 10392  0571  00F3               	movwf	i1led5_command@red
 10393  0572  0830               	movf	i1display_blade_lights@green,w
 10394  0573  00A1               	movwf	??i1_display_blade_lights+1
 10395  0574  0821               	movf	??i1_display_blade_lights+1,w
 10396  0575  00F4               	movwf	i1led5_command@green
 10397  0576  0831               	movf	i1display_blade_lights@blue,w
 10398  0577  00A2               	movwf	??i1_display_blade_lights+2
 10399  0578  0822               	movf	??i1_display_blade_lights+2,w
 10400  0579  00F5               	movwf	i1led5_command@blue
 10401  057A  082E               	movf	i1display_blade_lights@brightness,w
 10402  057B  3196  26BE  3184   	fcall	i1_led5_command
 10403                           
 10404                           ;lighting.c: 307: _delay((unsigned long)((25)*(32000000/4000.0)));
 10405  057E  3002               	movlw	2
 10406  057F  0020               	movlb	0	; select bank0
 10407  0580  00A2               	movwf	??i1_display_blade_lights+2
 10408  0581  3004               	movlw	4
 10409  0582  00A1               	movwf	??i1_display_blade_lights+1
 10410  0583  30BA               	movlw	186
 10411  0584  00A0               	movwf	??i1_display_blade_lights
 10412  0585                     u528_27:	
 10413  0585  0BA0               	decfsz	??i1_display_blade_lights,f
 10414  0586  2D85               	goto	u528_27
 10415  0587  0BA1               	decfsz	??i1_display_blade_lights+1,f
 10416  0588  2D85               	goto	u528_27
 10417  0589  0BA2               	decfsz	??i1_display_blade_lights+2,f
 10418  058A  2D85               	goto	u528_27
 10419  058B  0000               	nop
 10420                           
 10421                           ;lighting.c: 309: led5_command(0xFF, 0, 0, 0);
 10422  058C  01F3               	clrf	i1led5_command@red
 10423  058D  01F4               	clrf	i1led5_command@green
 10424  058E  01F5               	clrf	i1led5_command@blue
 10425  058F  30FF               	movlw	255
 10426  0590  3196  26BE  3184   	fcall	i1_led5_command
 10427                           
 10428                           ;lighting.c: 310: _delay((unsigned long)((25)*(32000000/4000.0)));
 10429  0593  3002               	movlw	2
 10430  0594  0020               	movlb	0	; select bank0
 10431  0595  00A2               	movwf	??i1_display_blade_lights+2
 10432  0596  3004               	movlw	4
 10433  0597  00A1               	movwf	??i1_display_blade_lights+1
 10434  0598  30BA               	movlw	186
 10435  0599  00A0               	movwf	??i1_display_blade_lights
 10436  059A                     u529_27:	
 10437  059A  0BA0               	decfsz	??i1_display_blade_lights,f
 10438  059B  2D9A               	goto	u529_27
 10439  059C  0BA1               	decfsz	??i1_display_blade_lights+1,f
 10440  059D  2D9A               	goto	u529_27
 10441  059E  0BA2               	decfsz	??i1_display_blade_lights+2,f
 10442  059F  2D9A               	goto	u529_27
 10443  05A0  0000               	nop
 10444  05A1  3001               	movlw	1
 10445  05A2  0020               	movlb	0	; select bank0
 10446  05A3  00A0               	movwf	??i1_display_blade_lights
 10447  05A4  0820               	movf	??i1_display_blade_lights,w
 10448  05A5  07AC               	addwf	i1display_blade_lights@i,f
 10449  05A6  2D6A               	goto	L6
 10450  05A7                     i1l4353:	
 10451                           ;lighting.c: 311: }
 10452                           ;lighting.c: 312: }
 10453                           
 10454                           
 10455                           ;lighting.c: 313: else if( mode == 2 )
 10456  05A7  3002               	movlw	2
 10457  05A8  0623               	xorwf	i1display_blade_lights@mode,w
 10458  05A9  1D03               	btfss	3,2
 10459  05AA  2F0E               	goto	i1l4431
 10460                           
 10461                           ;lighting.c: 314: {
 10462                           ;lighting.c: 315: for(unsigned char r = 0;r < 255; r+=5)
 10463  05AB  01B2               	clrf	i1display_blade_lights@r
 10464  05AC  0A32               	incf	i1display_blade_lights@r,w
 10465  05AD  1903               	btfsc	3,2
 10466  05AE  2E5D               	goto	i1l4393
 10467  05AF                     i1l4361:	
 10468                           
 10469                           ;lighting.c: 316: {
 10470                           ;lighting.c: 318: for(int i = 0;i < 4; i++){
 10471  05AF  01A4               	clrf	i1display_blade_lights@i_609
 10472  05B0  01A5               	clrf	i1display_blade_lights@i_609+1
 10473  05B1  0825               	movf	i1display_blade_lights@i_609+1,w
 10474  05B2  3A80               	xorlw	128
 10475  05B3  00A0               	movwf	??i1_display_blade_lights
 10476  05B4  3080               	movlw	128
 10477  05B5  0220               	subwf	??i1_display_blade_lights,w
 10478  05B6  1D03               	skipz
 10479  05B7  2DBA               	goto	u366_25
 10480  05B8  3004               	movlw	4
 10481  05B9  0224               	subwf	i1display_blade_lights@i_609,w
 10482  05BA                     u366_25:	
 10483  05BA  1803               	btfsc	3,0
 10484  05BB  2DD0               	goto	i1l4373
 10485  05BC                     i1l4367:	
 10486                           
 10487                           ;lighting.c: 319: writespi(0x00);
 10488  05BC  3000               	movlw	0
 10489  05BD  3190  2087  3184   	fcall	i1_writespi
 10490  05C0  3001               	movlw	1
 10491  05C1  0020               	movlb	0	; select bank0
 10492  05C2  07A4               	addwf	i1display_blade_lights@i_609,f
 10493  05C3  3000               	movlw	0
 10494  05C4  3DA5               	addwfc	i1display_blade_lights@i_609+1,f
 10495  05C5  0825               	movf	i1display_blade_lights@i_609+1,w
 10496  05C6  3A80               	xorlw	128
 10497  05C7  00A0               	movwf	??i1_display_blade_lights
 10498  05C8  3080               	movlw	128
 10499  05C9  0220               	subwf	??i1_display_blade_lights,w
 10500  05CA  1D03               	skipz
 10501  05CB  2DCE               	goto	u367_25
 10502  05CC  3004               	movlw	4
 10503  05CD  0224               	subwf	i1display_blade_lights@i_609,w
 10504  05CE                     u367_25:	
 10505  05CE  1C03               	skipc
 10506  05CF  2DBC               	goto	i1l4367
 10507  05D0                     i1l4373:	
 10508                           
 10509                           ;lighting.c: 320: }
 10510                           ;lighting.c: 322: writespi(0xFF);
 10511  05D0  30FF               	movlw	255
 10512  05D1  3190  2087  3184   	fcall	i1_writespi
 10513                           
 10514                           ;lighting.c: 323: writespi(0x00);
 10515  05D4  3000               	movlw	0
 10516  05D5  3190  2087  3184   	fcall	i1_writespi
 10517                           
 10518                           ;lighting.c: 324: writespi(0x00);
 10519  05D8  3000               	movlw	0
 10520  05D9  3190  2087  3184   	fcall	i1_writespi
 10521                           
 10522                           ;lighting.c: 325: writespi(r);
 10523  05DC  0020               	movlb	0	; select bank0
 10524  05DD  0832               	movf	i1display_blade_lights@r,w
 10525  05DE  3190  2087  3184   	fcall	i1_writespi
 10526                           
 10527                           ;lighting.c: 327: writespi(0xFF);
 10528  05E1  30FF               	movlw	255
 10529  05E2  3190  2087  3184   	fcall	i1_writespi
 10530                           
 10531                           ;lighting.c: 328: writespi(0x00);
 10532  05E5  3000               	movlw	0
 10533  05E6  3190  2087  3184   	fcall	i1_writespi
 10534                           
 10535                           ;lighting.c: 329: writespi(0x00);
 10536  05E9  3000               	movlw	0
 10537  05EA  3190  2087  3184   	fcall	i1_writespi
 10538                           
 10539                           ;lighting.c: 330: writespi(255 - r);
 10540  05ED  0020               	movlb	0	; select bank0
 10541  05EE  0332               	decf	i1display_blade_lights@r,w
 10542  05EF  3AFF               	xorlw	255
 10543  05F0  3EFF               	addlw	255
 10544  05F1  3190  2087  3184   	fcall	i1_writespi
 10545                           
 10546                           ;lighting.c: 332: writespi(0xFF);
 10547  05F4  30FF               	movlw	255
 10548  05F5  3190  2087  3184   	fcall	i1_writespi
 10549                           
 10550                           ;lighting.c: 333: writespi(0x00);
 10551  05F8  3000               	movlw	0
 10552  05F9  3190  2087  3184   	fcall	i1_writespi
 10553                           
 10554                           ;lighting.c: 334: writespi(0x00);
 10555  05FC  3000               	movlw	0
 10556  05FD  3190  2087  3184   	fcall	i1_writespi
 10557                           
 10558                           ;lighting.c: 335: writespi(r);
 10559  0600  0020               	movlb	0	; select bank0
 10560  0601  0832               	movf	i1display_blade_lights@r,w
 10561  0602  3190  2087  3184   	fcall	i1_writespi
 10562                           
 10563                           ;lighting.c: 337: writespi(0xFF);
 10564  0605  30FF               	movlw	255
 10565  0606  3190  2087  3184   	fcall	i1_writespi
 10566                           
 10567                           ;lighting.c: 338: writespi(0x00);
 10568  0609  3000               	movlw	0
 10569  060A  3190  2087  3184   	fcall	i1_writespi
 10570                           
 10571                           ;lighting.c: 339: writespi(0x00);
 10572  060D  3000               	movlw	0
 10573  060E  3190  2087  3184   	fcall	i1_writespi
 10574                           
 10575                           ;lighting.c: 340: writespi(255-r);
 10576  0611  0020               	movlb	0	; select bank0
 10577  0612  0332               	decf	i1display_blade_lights@r,w
 10578  0613  3AFF               	xorlw	255
 10579  0614  3EFF               	addlw	255
 10580  0615  3190  2087  3184   	fcall	i1_writespi
 10581                           
 10582                           ;lighting.c: 342: writespi(0xFF);
 10583  0618  30FF               	movlw	255
 10584  0619  3190  2087  3184   	fcall	i1_writespi
 10585                           
 10586                           ;lighting.c: 343: writespi(0x00);
 10587  061C  3000               	movlw	0
 10588  061D  3190  2087  3184   	fcall	i1_writespi
 10589                           
 10590                           ;lighting.c: 344: writespi(0x00);
 10591  0620  3000               	movlw	0
 10592  0621  3190  2087  3184   	fcall	i1_writespi
 10593                           
 10594                           ;lighting.c: 345: writespi(r);
 10595  0624  0020               	movlb	0	; select bank0
 10596  0625  0832               	movf	i1display_blade_lights@r,w
 10597  0626  3190  2087  3184   	fcall	i1_writespi
 10598                           
 10599                           ;lighting.c: 347: for(int i = 0;i < 4; i++){
 10600  0629  0020               	movlb	0	; select bank0
 10601  062A  01A6               	clrf	i1display_blade_lights@i_610
 10602  062B  01A7               	clrf	i1display_blade_lights@i_610+1
 10603  062C  0827               	movf	i1display_blade_lights@i_610+1,w
 10604  062D  3A80               	xorlw	128
 10605  062E  00A0               	movwf	??i1_display_blade_lights
 10606  062F  3080               	movlw	128
 10607  0630  0220               	subwf	??i1_display_blade_lights,w
 10608  0631  1D03               	skipz
 10609  0632  2E35               	goto	u368_25
 10610  0633  3004               	movlw	4
 10611  0634  0226               	subwf	i1display_blade_lights@i_610,w
 10612  0635                     u368_25:	
 10613  0635  1803               	btfsc	3,0
 10614  0636  2E4B               	goto	i1l4387
 10615  0637                     i1l4381:	
 10616                           
 10617                           ;lighting.c: 348: writespi(0xFF);
 10618  0637  30FF               	movlw	255
 10619  0638  3190  2087  3184   	fcall	i1_writespi
 10620  063B  3001               	movlw	1
 10621  063C  0020               	movlb	0	; select bank0
 10622  063D  07A6               	addwf	i1display_blade_lights@i_610,f
 10623  063E  3000               	movlw	0
 10624  063F  3DA7               	addwfc	i1display_blade_lights@i_610+1,f
 10625  0640  0827               	movf	i1display_blade_lights@i_610+1,w
 10626  0641  3A80               	xorlw	128
 10627  0642  00A0               	movwf	??i1_display_blade_lights
 10628  0643  3080               	movlw	128
 10629  0644  0220               	subwf	??i1_display_blade_lights,w
 10630  0645  1D03               	skipz
 10631  0646  2E49               	goto	u369_25
 10632  0647  3004               	movlw	4
 10633  0648  0226               	subwf	i1display_blade_lights@i_610,w
 10634  0649                     u369_25:	
 10635  0649  1C03               	skipc
 10636  064A  2E37               	goto	i1l4381
 10637  064B                     i1l4387:	
 10638                           
 10639                           ;lighting.c: 349: }
 10640                           ;lighting.c: 350: _delay((unsigned long)((20)*(32000000/4000.0)));
 10641  064B  30D0               	movlw	208
 10642  064C  0020               	movlb	0	; select bank0
 10643  064D  00A1               	movwf	??i1_display_blade_lights+1
 10644  064E  30C9               	movlw	201
 10645  064F  00A0               	movwf	??i1_display_blade_lights
 10646  0650                     u530_27:	
 10647  0650  0BA0               	decfsz	??i1_display_blade_lights,f
 10648  0651  2E50               	goto	u530_27
 10649  0652  0BA1               	decfsz	??i1_display_blade_lights+1,f
 10650  0653  2E50               	goto	u530_27
 10651  0654  3200               	nop2
 10652  0655  3005               	movlw	5
 10653  0656  0020               	movlb	0	; select bank0
 10654  0657  00A0               	movwf	??i1_display_blade_lights
 10655  0658  0820               	movf	??i1_display_blade_lights,w
 10656  0659  07B2               	addwf	i1display_blade_lights@r,f
 10657  065A  0A32               	incf	i1display_blade_lights@r,w
 10658  065B  1D03               	btfss	3,2
 10659  065C  2DAF               	goto	i1l4361
 10660  065D                     i1l4393:	
 10661                           
 10662                           ;lighting.c: 351: }
 10663                           ;lighting.c: 353: for(unsigned char r = 255;r > 0; r-=5)
 10664  065D  30FF               	movlw	255
 10665  065E  00A0               	movwf	??i1_display_blade_lights
 10666  065F  0820               	movf	??i1_display_blade_lights,w
 10667  0660  00B3               	movwf	i1display_blade_lights@r_611
 10668  0661                     L7:	
 10669  0661  0833               	movf	i1display_blade_lights@r_611,w
 10670  0662  1903               	btfsc	3,2
 10671  0663  2FC5               	goto	i1l4463
 10672                           
 10673                           ;lighting.c: 354: {
 10674                           ;lighting.c: 356: for(int i = 0;i < 4; i++){
 10675  0664  01A8               	clrf	i1display_blade_lights@i_612
 10676  0665  01A9               	clrf	i1display_blade_lights@i_612+1
 10677  0666  0829               	movf	i1display_blade_lights@i_612+1,w
 10678  0667  3A80               	xorlw	128
 10679  0668  00A0               	movwf	??i1_display_blade_lights
 10680  0669  3080               	movlw	128
 10681  066A  0220               	subwf	??i1_display_blade_lights,w
 10682  066B  1D03               	skipz
 10683  066C  2E6F               	goto	u372_25
 10684  066D  3004               	movlw	4
 10685  066E  0228               	subwf	i1display_blade_lights@i_612,w
 10686  066F                     u372_25:	
 10687  066F  1803               	btfsc	3,0
 10688  0670  2E85               	goto	i1l4411
 10689  0671                     i1l4405:	
 10690                           
 10691                           ;lighting.c: 357: writespi(0x00);
 10692  0671  3000               	movlw	0
 10693  0672  3190  2087  3184   	fcall	i1_writespi
 10694  0675  3001               	movlw	1
 10695  0676  0020               	movlb	0	; select bank0
 10696  0677  07A8               	addwf	i1display_blade_lights@i_612,f
 10697  0678  3000               	movlw	0
 10698  0679  3DA9               	addwfc	i1display_blade_lights@i_612+1,f
 10699  067A  0829               	movf	i1display_blade_lights@i_612+1,w
 10700  067B  3A80               	xorlw	128
 10701  067C  00A0               	movwf	??i1_display_blade_lights
 10702  067D  3080               	movlw	128
 10703  067E  0220               	subwf	??i1_display_blade_lights,w
 10704  067F  1D03               	skipz
 10705  0680  2E83               	goto	u373_25
 10706  0681  3004               	movlw	4
 10707  0682  0228               	subwf	i1display_blade_lights@i_612,w
 10708  0683                     u373_25:	
 10709  0683  1C03               	skipc
 10710  0684  2E71               	goto	i1l4405
 10711  0685                     i1l4411:	
 10712                           
 10713                           ;lighting.c: 358: }
 10714                           ;lighting.c: 360: writespi(0xFF);
 10715  0685  30FF               	movlw	255
 10716  0686  3190  2087  3184   	fcall	i1_writespi
 10717                           
 10718                           ;lighting.c: 361: writespi(0x00);
 10719  0689  3000               	movlw	0
 10720  068A  3190  2087  3184   	fcall	i1_writespi
 10721                           
 10722                           ;lighting.c: 362: writespi(0x00);
 10723  068D  3000               	movlw	0
 10724  068E  3190  2087  3184   	fcall	i1_writespi
 10725                           
 10726                           ;lighting.c: 363: writespi(r);
 10727  0691  0020               	movlb	0	; select bank0
 10728  0692  0833               	movf	i1display_blade_lights@r_611,w
 10729  0693  3190  2087  3184   	fcall	i1_writespi
 10730                           
 10731                           ;lighting.c: 365: writespi(0xFF);
 10732  0696  30FF               	movlw	255
 10733  0697  3190  2087  3184   	fcall	i1_writespi
 10734                           
 10735                           ;lighting.c: 366: writespi(0x00);
 10736  069A  3000               	movlw	0
 10737  069B  3190  2087  3184   	fcall	i1_writespi
 10738                           
 10739                           ;lighting.c: 367: writespi(0x00);
 10740  069E  3000               	movlw	0
 10741  069F  3190  2087  3184   	fcall	i1_writespi
 10742                           
 10743                           ;lighting.c: 368: writespi(255 - r);
 10744  06A2  0020               	movlb	0	; select bank0
 10745  06A3  0333               	decf	i1display_blade_lights@r_611,w
 10746  06A4  3AFF               	xorlw	255
 10747  06A5  3EFF               	addlw	255
 10748  06A6  3190  2087  3184   	fcall	i1_writespi
 10749                           
 10750                           ;lighting.c: 370: writespi(0xFF);
 10751  06A9  30FF               	movlw	255
 10752  06AA  3190  2087  3184   	fcall	i1_writespi
 10753                           
 10754                           ;lighting.c: 371: writespi(0x00);
 10755  06AD  3000               	movlw	0
 10756  06AE  3190  2087  3184   	fcall	i1_writespi
 10757                           
 10758                           ;lighting.c: 372: writespi(0x00);
 10759  06B1  3000               	movlw	0
 10760  06B2  3190  2087  3184   	fcall	i1_writespi
 10761                           
 10762                           ;lighting.c: 373: writespi(r);
 10763  06B5  0020               	movlb	0	; select bank0
 10764  06B6  0833               	movf	i1display_blade_lights@r_611,w
 10765  06B7  3190  2087  3184   	fcall	i1_writespi
 10766                           
 10767                           ;lighting.c: 375: writespi(0xFF);
 10768  06BA  30FF               	movlw	255
 10769  06BB  3190  2087  3184   	fcall	i1_writespi
 10770                           
 10771                           ;lighting.c: 376: writespi(0x00);
 10772  06BE  3000               	movlw	0
 10773  06BF  3190  2087  3184   	fcall	i1_writespi
 10774                           
 10775                           ;lighting.c: 377: writespi(0x00);
 10776  06C2  3000               	movlw	0
 10777  06C3  3190  2087  3184   	fcall	i1_writespi
 10778                           
 10779                           ;lighting.c: 378: writespi(255-r);
 10780  06C6  0020               	movlb	0	; select bank0
 10781  06C7  0333               	decf	i1display_blade_lights@r_611,w
 10782  06C8  3AFF               	xorlw	255
 10783  06C9  3EFF               	addlw	255
 10784  06CA  3190  2087  3184   	fcall	i1_writespi
 10785                           
 10786                           ;lighting.c: 380: writespi(0xFF);
 10787  06CD  30FF               	movlw	255
 10788  06CE  3190  2087  3184   	fcall	i1_writespi
 10789                           
 10790                           ;lighting.c: 381: writespi(0x00);
 10791  06D1  3000               	movlw	0
 10792  06D2  3190  2087  3184   	fcall	i1_writespi
 10793                           
 10794                           ;lighting.c: 382: writespi(0x00);
 10795  06D5  3000               	movlw	0
 10796  06D6  3190  2087  3184   	fcall	i1_writespi
 10797                           
 10798                           ;lighting.c: 383: writespi(r);
 10799  06D9  0020               	movlb	0	; select bank0
 10800  06DA  0833               	movf	i1display_blade_lights@r_611,w
 10801  06DB  3190  2087  3184   	fcall	i1_writespi
 10802                           
 10803                           ;lighting.c: 385: for(int i = 0;i < 4; i++){
 10804  06DE  0020               	movlb	0	; select bank0
 10805  06DF  01AA               	clrf	i1display_blade_lights@i_613
 10806  06E0  01AB               	clrf	i1display_blade_lights@i_613+1
 10807  06E1  082B               	movf	i1display_blade_lights@i_613+1,w
 10808  06E2  3A80               	xorlw	128
 10809  06E3  00A0               	movwf	??i1_display_blade_lights
 10810  06E4  3080               	movlw	128
 10811  06E5  0220               	subwf	??i1_display_blade_lights,w
 10812  06E6  1D03               	skipz
 10813  06E7  2EEA               	goto	u374_25
 10814  06E8  3004               	movlw	4
 10815  06E9  022A               	subwf	i1display_blade_lights@i_613,w
 10816  06EA                     u374_25:	
 10817  06EA  1803               	btfsc	3,0
 10818  06EB  2F00               	goto	i1l4425
 10819  06EC                     i1l4419:	
 10820                           
 10821                           ;lighting.c: 386: writespi(0xFF);
 10822  06EC  30FF               	movlw	255
 10823  06ED  3190  2087  3184   	fcall	i1_writespi
 10824  06F0  3001               	movlw	1
 10825  06F1  0020               	movlb	0	; select bank0
 10826  06F2  07AA               	addwf	i1display_blade_lights@i_613,f
 10827  06F3  3000               	movlw	0
 10828  06F4  3DAB               	addwfc	i1display_blade_lights@i_613+1,f
 10829  06F5  082B               	movf	i1display_blade_lights@i_613+1,w
 10830  06F6  3A80               	xorlw	128
 10831  06F7  00A0               	movwf	??i1_display_blade_lights
 10832  06F8  3080               	movlw	128
 10833  06F9  0220               	subwf	??i1_display_blade_lights,w
 10834  06FA  1D03               	skipz
 10835  06FB  2EFE               	goto	u375_25
 10836  06FC  3004               	movlw	4
 10837  06FD  022A               	subwf	i1display_blade_lights@i_613,w
 10838  06FE                     u375_25:	
 10839  06FE  1C03               	skipc
 10840  06FF  2EEC               	goto	i1l4419
 10841  0700                     i1l4425:	
 10842                           
 10843                           ;lighting.c: 387: }
 10844                           ;lighting.c: 388: _delay((unsigned long)((20)*(32000000/4000.0)));
 10845  0700  30D0               	movlw	208
 10846  0701  0020               	movlb	0	; select bank0
 10847  0702  00A1               	movwf	??i1_display_blade_lights+1
 10848  0703  30C9               	movlw	201
 10849  0704  00A0               	movwf	??i1_display_blade_lights
 10850  0705                     u531_27:	
 10851  0705  0BA0               	decfsz	??i1_display_blade_lights,f
 10852  0706  2F05               	goto	u531_27
 10853  0707  0BA1               	decfsz	??i1_display_blade_lights+1,f
 10854  0708  2F05               	goto	u531_27
 10855  0709  3200               	nop2
 10856  070A  3005               	movlw	5
 10857  070B  0020               	movlb	0	; select bank0
 10858  070C  02B3               	subwf	i1display_blade_lights@r_611,f
 10859  070D  2E61               	goto	L7
 10860  070E                     i1l4431:	
 10861                           ;lighting.c: 389: }
 10862                           ;lighting.c: 390: }
 10863                           
 10864                           
 10865                           ;lighting.c: 391: else if( mode == 3 )
 10866  070E  3003               	movlw	3
 10867  070F  0623               	xorwf	i1display_blade_lights@mode,w
 10868  0710  1D03               	btfss	3,2
 10869  0711  2FC5               	goto	i1l4463
 10870                           
 10871                           ;lighting.c: 392: {
 10872                           ;lighting.c: 394: led5_command(0xFF, 0xFF, 0, 0);
 10873  0712  30FF               	movlw	255
 10874  0713  00A0               	movwf	??i1_display_blade_lights
 10875  0714  0820               	movf	??i1_display_blade_lights,w
 10876  0715  00F3               	movwf	i1led5_command@red
 10877  0716  01F4               	clrf	i1led5_command@green
 10878  0717  01F5               	clrf	i1led5_command@blue
 10879  0718  30FF               	movlw	255
 10880  0719  3196  26BE  3184   	fcall	i1_led5_command
 10881                           
 10882                           ;lighting.c: 395: _delay((unsigned long)((50)*(32000000/4000.0)));
 10883  071C  3003               	movlw	3
 10884  071D  0020               	movlb	0	; select bank0
 10885  071E  00A2               	movwf	??i1_display_blade_lights+2
 10886  071F  3008               	movlw	8
 10887  0720  00A1               	movwf	??i1_display_blade_lights+1
 10888  0721  3078               	movlw	120
 10889  0722  00A0               	movwf	??i1_display_blade_lights
 10890  0723                     u532_27:	
 10891  0723  0BA0               	decfsz	??i1_display_blade_lights,f
 10892  0724  2F23               	goto	u532_27
 10893  0725  0BA1               	decfsz	??i1_display_blade_lights+1,f
 10894  0726  2F23               	goto	u532_27
 10895  0727  0BA2               	decfsz	??i1_display_blade_lights+2,f
 10896  0728  2F23               	goto	u532_27
 10897                           
 10898                           ;lighting.c: 397: led4_command(0xFF, 0xFF, 0, 0);
 10899  0729  30FF               	movlw	255
 10900  072A  0020               	movlb	0	; select bank0
 10901  072B  00A0               	movwf	??i1_display_blade_lights
 10902  072C  0820               	movf	??i1_display_blade_lights,w
 10903  072D  00F3               	movwf	i1led4_command@red
 10904  072E  01F4               	clrf	i1led4_command@green
 10905  072F  01F5               	clrf	i1led4_command@blue
 10906  0730  30FF               	movlw	255
 10907  0731  3196  2623  3184   	fcall	i1_led4_command
 10908                           
 10909                           ;lighting.c: 398: _delay((unsigned long)((50)*(32000000/4000.0)));
 10910  0734  3003               	movlw	3
 10911  0735  0020               	movlb	0	; select bank0
 10912  0736  00A2               	movwf	??i1_display_blade_lights+2
 10913  0737  3008               	movlw	8
 10914  0738  00A1               	movwf	??i1_display_blade_lights+1
 10915  0739  3078               	movlw	120
 10916  073A  00A0               	movwf	??i1_display_blade_lights
 10917  073B                     u533_27:	
 10918  073B  0BA0               	decfsz	??i1_display_blade_lights,f
 10919  073C  2F3B               	goto	u533_27
 10920  073D  0BA1               	decfsz	??i1_display_blade_lights+1,f
 10921  073E  2F3B               	goto	u533_27
 10922  073F  0BA2               	decfsz	??i1_display_blade_lights+2,f
 10923  0740  2F3B               	goto	u533_27
 10924                           
 10925                           ;lighting.c: 400: led3_command(0xFF, 0xFF, 0, 0);
 10926  0741  30FF               	movlw	255
 10927  0742  0020               	movlb	0	; select bank0
 10928  0743  00A0               	movwf	??i1_display_blade_lights
 10929  0744  0820               	movf	??i1_display_blade_lights,w
 10930  0745  00F3               	movwf	i1led3_command@red
 10931  0746  01F4               	clrf	i1led3_command@green
 10932  0747  01F5               	clrf	i1led3_command@blue
 10933  0748  30FF               	movlw	255
 10934  0749  3195  2588  3184   	fcall	i1_led3_command
 10935                           
 10936                           ;lighting.c: 401: _delay((unsigned long)((50)*(32000000/4000.0)));
 10937  074C  3003               	movlw	3
 10938  074D  0020               	movlb	0	; select bank0
 10939  074E  00A2               	movwf	??i1_display_blade_lights+2
 10940  074F  3008               	movlw	8
 10941  0750  00A1               	movwf	??i1_display_blade_lights+1
 10942  0751  3078               	movlw	120
 10943  0752  00A0               	movwf	??i1_display_blade_lights
 10944  0753                     u534_27:	
 10945  0753  0BA0               	decfsz	??i1_display_blade_lights,f
 10946  0754  2F53               	goto	u534_27
 10947  0755  0BA1               	decfsz	??i1_display_blade_lights+1,f
 10948  0756  2F53               	goto	u534_27
 10949  0757  0BA2               	decfsz	??i1_display_blade_lights+2,f
 10950  0758  2F53               	goto	u534_27
 10951                           
 10952                           ;lighting.c: 403: led2_command(0xFF, 0xFF, 0, 0);
 10953  0759  30FF               	movlw	255
 10954  075A  0020               	movlb	0	; select bank0
 10955  075B  00A0               	movwf	??i1_display_blade_lights
 10956  075C  0820               	movf	??i1_display_blade_lights,w
 10957  075D  00F3               	movwf	i1led2_command@red
 10958  075E  01F4               	clrf	i1led2_command@green
 10959  075F  01F5               	clrf	i1led2_command@blue
 10960  0760  30FF               	movlw	255
 10961  0761  3194  24ED  3184   	fcall	i1_led2_command
 10962                           
 10963                           ;lighting.c: 404: _delay((unsigned long)((50)*(32000000/4000.0)));
 10964  0764  3003               	movlw	3
 10965  0765  0020               	movlb	0	; select bank0
 10966  0766  00A2               	movwf	??i1_display_blade_lights+2
 10967  0767  3008               	movlw	8
 10968  0768  00A1               	movwf	??i1_display_blade_lights+1
 10969  0769  3078               	movlw	120
 10970  076A  00A0               	movwf	??i1_display_blade_lights
 10971  076B                     u535_27:	
 10972  076B  0BA0               	decfsz	??i1_display_blade_lights,f
 10973  076C  2F6B               	goto	u535_27
 10974  076D  0BA1               	decfsz	??i1_display_blade_lights+1,f
 10975  076E  2F6B               	goto	u535_27
 10976  076F  0BA2               	decfsz	??i1_display_blade_lights+2,f
 10977  0770  2F6B               	goto	u535_27
 10978                           
 10979                           ;lighting.c: 406: led1_command(0xFF, 0xFF, 0, 0);
 10980  0771  30FF               	movlw	255
 10981  0772  0020               	movlb	0	; select bank0
 10982  0773  00A0               	movwf	??i1_display_blade_lights
 10983  0774  0820               	movf	??i1_display_blade_lights,w
 10984  0775  00F3               	movwf	i1led1_command@red
 10985  0776  01F4               	clrf	i1led1_command@green
 10986  0777  01F5               	clrf	i1led1_command@blue
 10987  0778  30FF               	movlw	255
 10988  0779  3194  2452  3184   	fcall	i1_led1_command
 10989                           
 10990                           ;lighting.c: 407: _delay((unsigned long)((50)*(32000000/4000.0)));
 10991  077C  3003               	movlw	3
 10992  077D  0020               	movlb	0	; select bank0
 10993  077E  00A2               	movwf	??i1_display_blade_lights+2
 10994  077F  3008               	movlw	8
 10995  0780  00A1               	movwf	??i1_display_blade_lights+1
 10996  0781  3078               	movlw	120
 10997  0782  00A0               	movwf	??i1_display_blade_lights
 10998  0783                     u536_27:	
 10999  0783  0BA0               	decfsz	??i1_display_blade_lights,f
 11000  0784  2F83               	goto	u536_27
 11001  0785  0BA1               	decfsz	??i1_display_blade_lights+1,f
 11002  0786  2F83               	goto	u536_27
 11003  0787  0BA2               	decfsz	??i1_display_blade_lights+2,f
 11004  0788  2F83               	goto	u536_27
 11005                           
 11006                           ;lighting.c: 409: for(unsigned char i = 0; i < 4; ++i)
 11007  0789  0020               	movlb	0	; select bank0
 11008  078A  01AD               	clrf	i1display_blade_lights@i_614
 11009  078B  3004               	movlw	4
 11010  078C  022D               	subwf	i1display_blade_lights@i_614,w
 11011  078D  1803               	btfsc	3,0
 11012  078E  2FC5               	goto	i1l4463
 11013  078F                     i1l4453:	
 11014                           
 11015                           ;lighting.c: 410: {
 11016                           ;lighting.c: 412: led1_command(0xFF, 0xFF, 0, 0);
 11017  078F  30FF               	movlw	255
 11018  0790  00A0               	movwf	??i1_display_blade_lights
 11019  0791  0820               	movf	??i1_display_blade_lights,w
 11020  0792  00F3               	movwf	i1led1_command@red
 11021  0793  01F4               	clrf	i1led1_command@green
 11022  0794  01F5               	clrf	i1led1_command@blue
 11023  0795  30FF               	movlw	255
 11024  0796  3194  2452  3184   	fcall	i1_led1_command
 11025                           
 11026                           ;lighting.c: 413: _delay((unsigned long)((25)*(32000000/4000.0)));
 11027  0799  3002               	movlw	2
 11028  079A  0020               	movlb	0	; select bank0
 11029  079B  00A2               	movwf	??i1_display_blade_lights+2
 11030  079C  3004               	movlw	4
 11031  079D  00A1               	movwf	??i1_display_blade_lights+1
 11032  079E  30BA               	movlw	186
 11033  079F  00A0               	movwf	??i1_display_blade_lights
 11034  07A0                     u537_27:	
 11035  07A0  0BA0               	decfsz	??i1_display_blade_lights,f
 11036  07A1  2FA0               	goto	u537_27
 11037  07A2  0BA1               	decfsz	??i1_display_blade_lights+1,f
 11038  07A3  2FA0               	goto	u537_27
 11039  07A4  0BA2               	decfsz	??i1_display_blade_lights+2,f
 11040  07A5  2FA0               	goto	u537_27
 11041  07A6  0000               	nop
 11042                           
 11043                           ;lighting.c: 415: led1_command(0xFF, 0, 0, 0);
 11044  07A7  01F3               	clrf	i1led1_command@red
 11045  07A8  01F4               	clrf	i1led1_command@green
 11046  07A9  01F5               	clrf	i1led1_command@blue
 11047  07AA  30FF               	movlw	255
 11048  07AB  3194  2452  3184   	fcall	i1_led1_command
 11049                           
 11050                           ;lighting.c: 416: _delay((unsigned long)((25)*(32000000/4000.0)));
 11051  07AE  3002               	movlw	2
 11052  07AF  0020               	movlb	0	; select bank0
 11053  07B0  00A2               	movwf	??i1_display_blade_lights+2
 11054  07B1  3004               	movlw	4
 11055  07B2  00A1               	movwf	??i1_display_blade_lights+1
 11056  07B3  30BA               	movlw	186
 11057  07B4  00A0               	movwf	??i1_display_blade_lights
 11058  07B5                     u538_27:	
 11059  07B5  0BA0               	decfsz	??i1_display_blade_lights,f
 11060  07B6  2FB5               	goto	u538_27
 11061  07B7  0BA1               	decfsz	??i1_display_blade_lights+1,f
 11062  07B8  2FB5               	goto	u538_27
 11063  07B9  0BA2               	decfsz	??i1_display_blade_lights+2,f
 11064  07BA  2FB5               	goto	u538_27
 11065  07BB  0000               	nop
 11066  07BC  3001               	movlw	1
 11067  07BD  0020               	movlb	0	; select bank0
 11068  07BE  00A0               	movwf	??i1_display_blade_lights
 11069  07BF  0820               	movf	??i1_display_blade_lights,w
 11070  07C0  07AD               	addwf	i1display_blade_lights@i_614,f
 11071  07C1  3004               	movlw	4
 11072  07C2  022D               	subwf	i1display_blade_lights@i_614,w
 11073  07C3  1C03               	skipc
 11074  07C4  2F8F               	goto	i1l4453
 11075  07C5                     i1l4463:	
 11076                           
 11077                           ;lighting.c: 417: }
 11078                           ;lighting.c: 418: }
 11079                           ;lighting.c: 419: leds_off();
 11080  07C5  3193  23B8         	fcall	i1_leds_off
 11081  07C7  0008               	return
 11082  07C8                     __end_ofi1_display_blade_lights:	
 11083                           
 11084                           	psect	text23
 11085  13B8                     __ptext23:	
 11086 ;; *************** function i1_leds_off *****************
 11087 ;; Defined at:
 11088 ;;		line 652 in file "../../source/lighting.c"
 11089 ;; Parameters:    Size  Location     Type
 11090 ;;		None
 11091 ;; Auto vars:     Size  Location     Type
 11092 ;;  leds_off        2    7[COMMON] int 
 11093 ;;  leds_off        2    5[COMMON] int 
 11094 ;; Return value:  Size  Location     Type
 11095 ;;		None               void
 11096 ;; Registers used:
 11097 ;;		wreg, status,2, status,0, pclath, cstack
 11098 ;; Tracked objects:
 11099 ;;		On entry : 0/0
 11100 ;;		On exit  : 0/0
 11101 ;;		Unchanged: 0/0
 11102 ;; Data sizes:     COMMON   BANK0   BANK1   BANK2   BANK3   BANK4   BANK5   BANK6   BANK7   BANK8   BANK9  BANK10  BANK1
      +1  BANK12  BANK13  BANK14  BANK15  BANK16  BANK17  BANK18  BANK19  BANK20  BANK21  BANK22  BANK23  BANK24  BANK25
 11103 ;;      Params:         0       0       0       0       0       0       0       0       0       0       0       0       
      +0       0       0       0       0       0       0       0       0       0       0       0       0       0       0
 11104 ;;      Locals:         4       0       0       0       0       0       0       0       0       0       0       0       
      +0       0       0       0       0       0       0       0       0       0       0       0       0       0       0
 11105 ;;      Temps:          2       0       0       0       0       0       0       0       0       0       0       0       
      +0       0       0       0       0       0       0       0       0       0       0       0       0       0       0
 11106 ;;      Totals:         6       0       0       0       0       0       0       0       0       0       0       0       
      +0       0       0       0       0       0       0       0       0       0       0       0       0       0       0
 11107 ;;Total ram usage:        6 bytes
 11108 ;; Hardware stack levels used:    1
 11109 ;; Hardware stack levels required when called:    1
 11110 ;; This function calls:
 11111 ;;		i1_writespi
 11112 ;; This function is called by:
 11113 ;;		i1_display_blade_lights
 11114 ;; This function uses a non-reentrant model
 11115 ;;
 11116                           
 11117                           
 11118                           ;psect for function i1_leds_off
 11119  13B8                     i1_leds_off:	
 11120                           
 11121                           ;lighting.c: 655: for(int i = 0;i < 4; i++)
 11122                           
 11123                           ;incstack = 0
 11124                           ; Regs used in i1_leds_off: [wreg+status,2+status,0+pclath+cstack]
 11125  13B8  01F5               	clrf	i1leds_off@i
 11126  13B9  01F6               	clrf	i1leds_off@i+1
 11127  13BA  0876               	movf	i1leds_off@i+1,w
 11128  13BB  3A80               	xorlw	128
 11129  13BC  00F3               	movwf	??i1_leds_off
 11130  13BD  3080               	movlw	128
 11131  13BE  0273               	subwf	??i1_leds_off,w
 11132  13BF  1D03               	skipz
 11133  13C0  2BC3               	goto	u268_25
 11134  13C1  3004               	movlw	4
 11135  13C2  0275               	subwf	i1leds_off@i,w
 11136  13C3                     u268_25:	
 11137  13C3  1803               	btfsc	3,0
 11138  13C4  2BD8               	goto	i1l3337
 11139  13C5                     i1l3331:	
 11140                           
 11141                           ;lighting.c: 656: {
 11142                           ;lighting.c: 657: writespi(0x00);
 11143  13C5  3000               	movlw	0
 11144  13C6  3190  2087  3193   	fcall	i1_writespi
 11145  13C9  3001               	movlw	1
 11146  13CA  07F5               	addwf	i1leds_off@i,f
 11147  13CB  3000               	movlw	0
 11148  13CC  3DF6               	addwfc	i1leds_off@i+1,f
 11149  13CD  0876               	movf	i1leds_off@i+1,w
 11150  13CE  3A80               	xorlw	128
 11151  13CF  00F3               	movwf	??i1_leds_off
 11152  13D0  3080               	movlw	128
 11153  13D1  0273               	subwf	??i1_leds_off,w
 11154  13D2  1D03               	skipz
 11155  13D3  2BD6               	goto	u269_25
 11156  13D4  3004               	movlw	4
 11157  13D5  0275               	subwf	i1leds_off@i,w
 11158  13D6                     u269_25:	
 11159  13D6  1C03               	skipc
 11160  13D7  2BC5               	goto	i1l3331
 11161  13D8                     i1l3337:	
 11162                           
 11163                           ;lighting.c: 658: }
 11164                           ;lighting.c: 660: writespi(0xFF);
 11165  13D8  30FF               	movlw	255
 11166  13D9  3190  2087  3193   	fcall	i1_writespi
 11167                           
 11168                           ;lighting.c: 661: writespi(0);
 11169  13DC  3000               	movlw	0
 11170  13DD  3190  2087  3193   	fcall	i1_writespi
 11171                           
 11172                           ;lighting.c: 662: writespi(0);
 11173  13E0  3000               	movlw	0
 11174  13E1  3190  2087  3193   	fcall	i1_writespi
 11175                           
 11176                           ;lighting.c: 663: writespi(0);
 11177  13E4  3000               	movlw	0
 11178  13E5  3190  2087  3193   	fcall	i1_writespi
 11179                           
 11180                           ;lighting.c: 665: writespi(0xFF);
 11181  13E8  30FF               	movlw	255
 11182  13E9  3190  2087  3193   	fcall	i1_writespi
 11183                           
 11184                           ;lighting.c: 666: writespi(0);
 11185  13EC  3000               	movlw	0
 11186  13ED  3190  2087  3193   	fcall	i1_writespi
 11187                           
 11188                           ;lighting.c: 667: writespi(0);
 11189  13F0  3000               	movlw	0
 11190  13F1  3190  2087  3193   	fcall	i1_writespi
 11191                           
 11192                           ;lighting.c: 668: writespi(0);
 11193  13F4  3000               	movlw	0
 11194  13F5  3190  2087  3193   	fcall	i1_writespi
 11195                           
 11196                           ;lighting.c: 670: writespi(0xFF);
 11197  13F8  30FF               	movlw	255
 11198  13F9  3190  2087  3193   	fcall	i1_writespi
 11199                           
 11200                           ;lighting.c: 671: writespi(0);
 11201  13FC  3000               	movlw	0
 11202  13FD  3190  2087  3193   	fcall	i1_writespi
 11203                           
 11204                           ;lighting.c: 672: writespi(0);
 11205  1400  3000               	movlw	0
 11206  1401  3190  2087  3193   	fcall	i1_writespi
 11207                           
 11208                           ;lighting.c: 673: writespi(0);
 11209  1404  3000               	movlw	0
 11210  1405  3190  2087  3193   	fcall	i1_writespi
 11211                           
 11212                           ;lighting.c: 675: writespi(0xFF);
 11213  1408  30FF               	movlw	255
 11214  1409  3190  2087  3193   	fcall	i1_writespi
 11215                           
 11216                           ;lighting.c: 676: writespi(0);
 11217  140C  3000               	movlw	0
 11218  140D  3190  2087  3193   	fcall	i1_writespi
 11219                           
 11220                           ;lighting.c: 677: writespi(0);
 11221  1410  3000               	movlw	0
 11222  1411  3190  2087  3193   	fcall	i1_writespi
 11223                           
 11224                           ;lighting.c: 678: writespi(0);
 11225  1414  3000               	movlw	0
 11226  1415  3190  2087  3193   	fcall	i1_writespi
 11227                           
 11228                           ;lighting.c: 680: writespi(0xFF);
 11229  1418  30FF               	movlw	255
 11230  1419  3190  2087  3193   	fcall	i1_writespi
 11231                           
 11232                           ;lighting.c: 681: writespi(0);
 11233  141C  3000               	movlw	0
 11234  141D  3190  2087  3193   	fcall	i1_writespi
 11235                           
 11236                           ;lighting.c: 682: writespi(0);
 11237  1420  3000               	movlw	0
 11238  1421  3190  2087  3193   	fcall	i1_writespi
 11239                           
 11240                           ;lighting.c: 683: writespi(0);
 11241  1424  3000               	movlw	0
 11242  1425  3190  2087  3193   	fcall	i1_writespi
 11243                           
 11244                           ;lighting.c: 685: for(int i = 0;i < 4; i++)
 11245  1428  01F7               	clrf	i1leds_off@i_668
 11246  1429  01F8               	clrf	i1leds_off@i_668+1
 11247  142A  0878               	movf	i1leds_off@i_668+1,w
 11248  142B  3A80               	xorlw	128
 11249  142C  00F3               	movwf	??i1_leds_off
 11250  142D  3080               	movlw	128
 11251  142E  0273               	subwf	??i1_leds_off,w
 11252  142F  1D03               	skipz
 11253  1430  2C33               	goto	u270_25
 11254  1431  3004               	movlw	4
 11255  1432  0277               	subwf	i1leds_off@i_668,w
 11256  1433                     u270_25:	
 11257  1433  1803               	btfsc	3,0
 11258  1434  2C48               	goto	i1l3351
 11259  1435                     i1l3345:	
 11260                           
 11261                           ;lighting.c: 686: {
 11262                           ;lighting.c: 687: writespi(0xFF);
 11263  1435  30FF               	movlw	255
 11264  1436  3190  2087  3193   	fcall	i1_writespi
 11265  1439  3001               	movlw	1
 11266  143A  07F7               	addwf	i1leds_off@i_668,f
 11267  143B  3000               	movlw	0
 11268  143C  3DF8               	addwfc	i1leds_off@i_668+1,f
 11269  143D  0878               	movf	i1leds_off@i_668+1,w
 11270  143E  3A80               	xorlw	128
 11271  143F  00F3               	movwf	??i1_leds_off
 11272  1440  3080               	movlw	128
 11273  1441  0273               	subwf	??i1_leds_off,w
 11274  1442  1D03               	skipz
 11275  1443  2C46               	goto	u271_25
 11276  1444  3004               	movlw	4
 11277  1445  0277               	subwf	i1leds_off@i_668,w
 11278  1446                     u271_25:	
 11279  1446  1C03               	skipc
 11280  1447  2C35               	goto	i1l3345
 11281  1448                     i1l3351:	
 11282                           
 11283                           ;lighting.c: 688: }
 11284                           ;lighting.c: 689: _delay((unsigned long)((20)*(32000000/4000.0)));
 11285  1448  30D0               	movlw	208
 11286  1449  00F4               	movwf	??i1_leds_off+1
 11287  144A  30C9               	movlw	201
 11288  144B  00F3               	movwf	??i1_leds_off
 11289  144C                     u539_27:	
 11290  144C  0BF3               	decfsz	??i1_leds_off,f
 11291  144D  2C4C               	goto	u539_27
 11292  144E  0BF4               	decfsz	??i1_leds_off+1,f
 11293  144F  2C4C               	goto	u539_27
 11294  1450  3200               	nop2
 11295  1451  0008               	return
 11296  1452                     __end_ofi1_leds_off:	
 11297                           
 11298                           	psect	text24
 11299  16BE                     __ptext24:	
 11300 ;; *************** function i1_led5_command *****************
 11301 ;; Defined at:
 11302 ;;		line 609 in file "../../source/lighting.c"
 11303 ;; Parameters:    Size  Location     Type
 11304 ;;  brightness      1    wreg     unsigned char 
 11305 ;;  red             1    3[COMMON] unsigned char 
 11306 ;;  green           1    4[COMMON] unsigned char 
 11307 ;;  blue            1    5[COMMON] unsigned char 
 11308 ;; Auto vars:     Size  Location     Type
 11309 ;;  brightness      1    8[COMMON] unsigned char 
 11310 ;;  led5_command    2   11[COMMON] int 
 11311 ;;  led5_command    2    9[COMMON] int 
 11312 ;; Return value:  Size  Location     Type
 11313 ;;		None               void
 11314 ;; Registers used:
 11315 ;;		wreg, status,2, status,0, pclath, cstack
 11316 ;; Tracked objects:
 11317 ;;		On entry : 0/0
 11318 ;;		On exit  : 0/0
 11319 ;;		Unchanged: 0/0
 11320 ;; Data sizes:     COMMON   BANK0   BANK1   BANK2   BANK3   BANK4   BANK5   BANK6   BANK7   BANK8   BANK9  BANK10  BANK1
      +1  BANK12  BANK13  BANK14  BANK15  BANK16  BANK17  BANK18  BANK19  BANK20  BANK21  BANK22  BANK23  BANK24  BANK25
 11321 ;;      Params:         3       0       0       0       0       0       0       0       0       0       0       0       
      +0       0       0       0       0       0       0       0       0       0       0       0       0       0       0
 11322 ;;      Locals:         5       0       0       0       0       0       0       0       0       0       0       0       
      +0       0       0       0       0       0       0       0       0       0       0       0       0       0       0
 11323 ;;      Temps:          2       0       0       0       0       0       0       0       0       0       0       0       
      +0       0       0       0       0       0       0       0       0       0       0       0       0       0       0
 11324 ;;      Totals:        10       0       0       0       0       0       0       0       0       0       0       0       
      +0       0       0       0       0       0       0       0       0       0       0       0       0       0       0
 11325 ;;Total ram usage:       10 bytes
 11326 ;; Hardware stack levels used:    1
 11327 ;; Hardware stack levels required when called:    1
 11328 ;; This function calls:
 11329 ;;		i1_writespi
 11330 ;; This function is called by:
 11331 ;;		i1_display_blade_lights
 11332 ;; This function uses a non-reentrant model
 11333 ;;
 11334                           
 11335                           
 11336                           ;psect for function i1_led5_command
 11337  16BE                     i1_led5_command:	
 11338                           
 11339                           ;incstack = 0
 11340                           ; Regs used in i1_led5_command: [wreg+status,2+status,0+pclath+cstack]
 11341                           ;i1led5_command@brightness stored from wreg
 11342  16BE  00F8               	movwf	i1led5_command@brightness
 11343                           
 11344                           ;lighting.c: 615: for(int i = 0;i < 4; i++)
 11345  16BF  01F9               	clrf	i1led5_command@i
 11346  16C0  01FA               	clrf	i1led5_command@i+1
 11347  16C1  087A               	movf	i1led5_command@i+1,w
 11348  16C2  3A80               	xorlw	128
 11349  16C3  00F6               	movwf	??i1_led5_command
 11350  16C4  3080               	movlw	128
 11351  16C5  0276               	subwf	??i1_led5_command,w
 11352  16C6  1D03               	skipz
 11353  16C7  2ECA               	goto	u264_25
 11354  16C8  3004               	movlw	4
 11355  16C9  0279               	subwf	i1led5_command@i,w
 11356  16CA                     u264_25:	
 11357  16CA  1803               	btfsc	3,0
 11358  16CB  2EDF               	goto	i1l3309
 11359  16CC                     i1l3303:	
 11360                           
 11361                           ;lighting.c: 616: {
 11362                           ;lighting.c: 617: writespi(0x00);
 11363  16CC  3000               	movlw	0
 11364  16CD  3190  2087  3196   	fcall	i1_writespi
 11365  16D0  3001               	movlw	1
 11366  16D1  07F9               	addwf	i1led5_command@i,f
 11367  16D2  3000               	movlw	0
 11368  16D3  3DFA               	addwfc	i1led5_command@i+1,f
 11369  16D4  087A               	movf	i1led5_command@i+1,w
 11370  16D5  3A80               	xorlw	128
 11371  16D6  00F6               	movwf	??i1_led5_command
 11372  16D7  3080               	movlw	128
 11373  16D8  0276               	subwf	??i1_led5_command,w
 11374  16D9  1D03               	skipz
 11375  16DA  2EDD               	goto	u265_25
 11376  16DB  3004               	movlw	4
 11377  16DC  0279               	subwf	i1led5_command@i,w
 11378  16DD                     u265_25:	
 11379  16DD  1C03               	skipc
 11380  16DE  2ECC               	goto	i1l3303
 11381  16DF                     i1l3309:	
 11382                           
 11383                           ;lighting.c: 618: }
 11384                           ;lighting.c: 620: writespi(0xFF);
 11385  16DF  30FF               	movlw	255
 11386  16E0  3190  2087  3196   	fcall	i1_writespi
 11387                           
 11388                           ;lighting.c: 621: writespi(0);
 11389  16E3  3000               	movlw	0
 11390  16E4  3190  2087  3196   	fcall	i1_writespi
 11391                           
 11392                           ;lighting.c: 622: writespi(0);
 11393  16E7  3000               	movlw	0
 11394  16E8  3190  2087  3196   	fcall	i1_writespi
 11395                           
 11396                           ;lighting.c: 623: writespi(0);
 11397  16EB  3000               	movlw	0
 11398  16EC  3190  2087  3196   	fcall	i1_writespi
 11399                           
 11400                           ;lighting.c: 625: writespi(0xFF);
 11401  16EF  30FF               	movlw	255
 11402  16F0  3190  2087  3196   	fcall	i1_writespi
 11403                           
 11404                           ;lighting.c: 626: writespi(0);
 11405  16F3  3000               	movlw	0
 11406  16F4  3190  2087  3196   	fcall	i1_writespi
 11407                           
 11408                           ;lighting.c: 627: writespi(0);
 11409  16F7  3000               	movlw	0
 11410  16F8  3190  2087  3196   	fcall	i1_writespi
 11411                           
 11412                           ;lighting.c: 628: writespi(0);
 11413  16FB  3000               	movlw	0
 11414  16FC  3190  2087  3196   	fcall	i1_writespi
 11415                           
 11416                           ;lighting.c: 630: writespi(0xFF);
 11417  16FF  30FF               	movlw	255
 11418  1700  3190  2087  3196   	fcall	i1_writespi
 11419                           
 11420                           ;lighting.c: 631: writespi(0);
 11421  1703  3000               	movlw	0
 11422  1704  3190  2087  3196   	fcall	i1_writespi
 11423                           
 11424                           ;lighting.c: 632: writespi(0);
 11425  1707  3000               	movlw	0
 11426  1708  3190  2087  3196   	fcall	i1_writespi
 11427                           
 11428                           ;lighting.c: 633: writespi(0);
 11429  170B  3000               	movlw	0
 11430  170C  3190  2087  3196   	fcall	i1_writespi
 11431                           
 11432                           ;lighting.c: 635: writespi(0xFF);
 11433  170F  30FF               	movlw	255
 11434  1710  3190  2087  3196   	fcall	i1_writespi
 11435                           
 11436                           ;lighting.c: 636: writespi(0);
 11437  1713  3000               	movlw	0
 11438  1714  3190  2087  3196   	fcall	i1_writespi
 11439                           
 11440                           ;lighting.c: 637: writespi(0);
 11441  1717  3000               	movlw	0
 11442  1718  3190  2087  3196   	fcall	i1_writespi
 11443                           
 11444                           ;lighting.c: 638: writespi(0);
 11445  171B  3000               	movlw	0
 11446  171C  3190  2087  3196   	fcall	i1_writespi
 11447                           
 11448                           ;lighting.c: 640: writespi(brightness);
 11449  171F  0878               	movf	i1led5_command@brightness,w
 11450  1720  3190  2087  3196   	fcall	i1_writespi
 11451                           
 11452                           ;lighting.c: 641: writespi(blue);
 11453  1723  0875               	movf	i1led5_command@blue,w
 11454  1724  3190  2087  3196   	fcall	i1_writespi
 11455                           
 11456                           ;lighting.c: 642: writespi(green);
 11457  1727  0874               	movf	i1led5_command@green,w
 11458  1728  3190  2087  3196   	fcall	i1_writespi
 11459                           
 11460                           ;lighting.c: 643: writespi(red);
 11461  172B  0873               	movf	i1led5_command@red,w
 11462  172C  3190  2087  3196   	fcall	i1_writespi
 11463                           
 11464                           ;lighting.c: 645: for(int i = 0;i < 4; i++)
 11465  172F  01FB               	clrf	i1led5_command@i_665
 11466  1730  01FC               	clrf	i1led5_command@i_665+1
 11467  1731  087C               	movf	i1led5_command@i_665+1,w
 11468  1732  3A80               	xorlw	128
 11469  1733  00F6               	movwf	??i1_led5_command
 11470  1734  3080               	movlw	128
 11471  1735  0276               	subwf	??i1_led5_command,w
 11472  1736  1D03               	skipz
 11473  1737  2F3A               	goto	u266_25
 11474  1738  3004               	movlw	4
 11475  1739  027B               	subwf	i1led5_command@i_665,w
 11476  173A                     u266_25:	
 11477  173A  1803               	btfsc	3,0
 11478  173B  2F4F               	goto	i1l3323
 11479  173C                     i1l3317:	
 11480                           
 11481                           ;lighting.c: 646: {
 11482                           ;lighting.c: 647: writespi(0xFF);
 11483  173C  30FF               	movlw	255
 11484  173D  3190  2087  3196   	fcall	i1_writespi
 11485  1740  3001               	movlw	1
 11486  1741  07FB               	addwf	i1led5_command@i_665,f
 11487  1742  3000               	movlw	0
 11488  1743  3DFC               	addwfc	i1led5_command@i_665+1,f
 11489  1744  087C               	movf	i1led5_command@i_665+1,w
 11490  1745  3A80               	xorlw	128
 11491  1746  00F6               	movwf	??i1_led5_command
 11492  1747  3080               	movlw	128
 11493  1748  0276               	subwf	??i1_led5_command,w
 11494  1749  1D03               	skipz
 11495  174A  2F4D               	goto	u267_25
 11496  174B  3004               	movlw	4
 11497  174C  027B               	subwf	i1led5_command@i_665,w
 11498  174D                     u267_25:	
 11499  174D  1C03               	skipc
 11500  174E  2F3C               	goto	i1l3317
 11501  174F                     i1l3323:	
 11502                           
 11503                           ;lighting.c: 648: }
 11504                           ;lighting.c: 649: _delay((unsigned long)((20)*(32000000/4000.0)));
 11505  174F  30D0               	movlw	208
 11506  1750  00F7               	movwf	??i1_led5_command+1
 11507  1751  30C9               	movlw	201
 11508  1752  00F6               	movwf	??i1_led5_command
 11509  1753                     u540_27:	
 11510  1753  0BF6               	decfsz	??i1_led5_command,f
 11511  1754  2F53               	goto	u540_27
 11512  1755  0BF7               	decfsz	??i1_led5_command+1,f
 11513  1756  2F53               	goto	u540_27
 11514  1757  3200               	nop2
 11515  1758  0008               	return
 11516  1759                     __end_ofi1_led5_command:	
 11517                           
 11518                           	psect	text25
 11519  1623                     __ptext25:	
 11520 ;; *************** function i1_led4_command *****************
 11521 ;; Defined at:
 11522 ;;		line 566 in file "../../source/lighting.c"
 11523 ;; Parameters:    Size  Location     Type
 11524 ;;  brightness      1    wreg     unsigned char 
 11525 ;;  red             1    3[COMMON] unsigned char 
 11526 ;;  green           1    4[COMMON] unsigned char 
 11527 ;;  blue            1    5[COMMON] unsigned char 
 11528 ;; Auto vars:     Size  Location     Type
 11529 ;;  brightness      1    8[COMMON] unsigned char 
 11530 ;;  led4_command    2   11[COMMON] int 
 11531 ;;  led4_command    2    9[COMMON] int 
 11532 ;; Return value:  Size  Location     Type
 11533 ;;		None               void
 11534 ;; Registers used:
 11535 ;;		wreg, status,2, status,0, pclath, cstack
 11536 ;; Tracked objects:
 11537 ;;		On entry : 0/0
 11538 ;;		On exit  : 0/0
 11539 ;;		Unchanged: 0/0
 11540 ;; Data sizes:     COMMON   BANK0   BANK1   BANK2   BANK3   BANK4   BANK5   BANK6   BANK7   BANK8   BANK9  BANK10  BANK1
      +1  BANK12  BANK13  BANK14  BANK15  BANK16  BANK17  BANK18  BANK19  BANK20  BANK21  BANK22  BANK23  BANK24  BANK25
 11541 ;;      Params:         3       0       0       0       0       0       0       0       0       0       0       0       
      +0       0       0       0       0       0       0       0       0       0       0       0       0       0       0
 11542 ;;      Locals:         5       0       0       0       0       0       0       0       0       0       0       0       
      +0       0       0       0       0       0       0       0       0       0       0       0       0       0       0
 11543 ;;      Temps:          2       0       0       0       0       0       0       0       0       0       0       0       
      +0       0       0       0       0       0       0       0       0       0       0       0       0       0       0
 11544 ;;      Totals:        10       0       0       0       0       0       0       0       0       0       0       0       
      +0       0       0       0       0       0       0       0       0       0       0       0       0       0       0
 11545 ;;Total ram usage:       10 bytes
 11546 ;; Hardware stack levels used:    1
 11547 ;; Hardware stack levels required when called:    1
 11548 ;; This function calls:
 11549 ;;		i1_writespi
 11550 ;; This function is called by:
 11551 ;;		i1_display_blade_lights
 11552 ;; This function uses a non-reentrant model
 11553 ;;
 11554                           
 11555                           
 11556                           ;psect for function i1_led4_command
 11557  1623                     i1_led4_command:	
 11558                           
 11559                           ;incstack = 0
 11560                           ; Regs used in i1_led4_command: [wreg+status,2+status,0+pclath+cstack]
 11561                           ;i1led4_command@brightness stored from wreg
 11562  1623  00F8               	movwf	i1led4_command@brightness
 11563                           
 11564                           ;lighting.c: 572: for(int i = 0;i < 4; i++)
 11565  1624  01F9               	clrf	i1led4_command@i
 11566  1625  01FA               	clrf	i1led4_command@i+1
 11567  1626  087A               	movf	i1led4_command@i+1,w
 11568  1627  3A80               	xorlw	128
 11569  1628  00F6               	movwf	??i1_led4_command
 11570  1629  3080               	movlw	128
 11571  162A  0276               	subwf	??i1_led4_command,w
 11572  162B  1D03               	skipz
 11573  162C  2E2F               	goto	u260_25
 11574  162D  3004               	movlw	4
 11575  162E  0279               	subwf	i1led4_command@i,w
 11576  162F                     u260_25:	
 11577  162F  1803               	btfsc	3,0
 11578  1630  2E44               	goto	i1l3281
 11579  1631                     i1l3275:	
 11580                           
 11581                           ;lighting.c: 573: {
 11582                           ;lighting.c: 574: writespi(0x00);
 11583  1631  3000               	movlw	0
 11584  1632  3190  2087  3196   	fcall	i1_writespi
 11585  1635  3001               	movlw	1
 11586  1636  07F9               	addwf	i1led4_command@i,f
 11587  1637  3000               	movlw	0
 11588  1638  3DFA               	addwfc	i1led4_command@i+1,f
 11589  1639  087A               	movf	i1led4_command@i+1,w
 11590  163A  3A80               	xorlw	128
 11591  163B  00F6               	movwf	??i1_led4_command
 11592  163C  3080               	movlw	128
 11593  163D  0276               	subwf	??i1_led4_command,w
 11594  163E  1D03               	skipz
 11595  163F  2E42               	goto	u261_25
 11596  1640  3004               	movlw	4
 11597  1641  0279               	subwf	i1led4_command@i,w
 11598  1642                     u261_25:	
 11599  1642  1C03               	skipc
 11600  1643  2E31               	goto	i1l3275
 11601  1644                     i1l3281:	
 11602                           
 11603                           ;lighting.c: 575: }
 11604                           ;lighting.c: 577: writespi(0xFF);
 11605  1644  30FF               	movlw	255
 11606  1645  3190  2087  3196   	fcall	i1_writespi
 11607                           
 11608                           ;lighting.c: 578: writespi(0);
 11609  1648  3000               	movlw	0
 11610  1649  3190  2087  3196   	fcall	i1_writespi
 11611                           
 11612                           ;lighting.c: 579: writespi(0);
 11613  164C  3000               	movlw	0
 11614  164D  3190  2087  3196   	fcall	i1_writespi
 11615                           
 11616                           ;lighting.c: 580: writespi(0);
 11617  1650  3000               	movlw	0
 11618  1651  3190  2087  3196   	fcall	i1_writespi
 11619                           
 11620                           ;lighting.c: 582: writespi(0xFF);
 11621  1654  30FF               	movlw	255
 11622  1655  3190  2087  3196   	fcall	i1_writespi
 11623                           
 11624                           ;lighting.c: 583: writespi(0);
 11625  1658  3000               	movlw	0
 11626  1659  3190  2087  3196   	fcall	i1_writespi
 11627                           
 11628                           ;lighting.c: 584: writespi(0);
 11629  165C  3000               	movlw	0
 11630  165D  3190  2087  3196   	fcall	i1_writespi
 11631                           
 11632                           ;lighting.c: 585: writespi(0);
 11633  1660  3000               	movlw	0
 11634  1661  3190  2087  3196   	fcall	i1_writespi
 11635                           
 11636                           ;lighting.c: 587: writespi(0xFF);
 11637  1664  30FF               	movlw	255
 11638  1665  3190  2087  3196   	fcall	i1_writespi
 11639                           
 11640                           ;lighting.c: 588: writespi(0);
 11641  1668  3000               	movlw	0
 11642  1669  3190  2087  3196   	fcall	i1_writespi
 11643                           
 11644                           ;lighting.c: 589: writespi(0);
 11645  166C  3000               	movlw	0
 11646  166D  3190  2087  3196   	fcall	i1_writespi
 11647                           
 11648                           ;lighting.c: 590: writespi(0);
 11649  1670  3000               	movlw	0
 11650  1671  3190  2087  3196   	fcall	i1_writespi
 11651                           
 11652                           ;lighting.c: 592: writespi(brightness);
 11653  1674  0878               	movf	i1led4_command@brightness,w
 11654  1675  3190  2087  3196   	fcall	i1_writespi
 11655                           
 11656                           ;lighting.c: 593: writespi(blue);
 11657  1678  0875               	movf	i1led4_command@blue,w
 11658  1679  3190  2087  3196   	fcall	i1_writespi
 11659                           
 11660                           ;lighting.c: 594: writespi(green);
 11661  167C  0874               	movf	i1led4_command@green,w
 11662  167D  3190  2087  3196   	fcall	i1_writespi
 11663                           
 11664                           ;lighting.c: 595: writespi(red);
 11665  1680  0873               	movf	i1led4_command@red,w
 11666  1681  3190  2087  3196   	fcall	i1_writespi
 11667                           
 11668                           ;lighting.c: 597: writespi(0xFF);
 11669  1684  30FF               	movlw	255
 11670  1685  3190  2087  3196   	fcall	i1_writespi
 11671                           
 11672                           ;lighting.c: 598: writespi(0);
 11673  1688  3000               	movlw	0
 11674  1689  3190  2087  3196   	fcall	i1_writespi
 11675                           
 11676                           ;lighting.c: 599: writespi(0);
 11677  168C  3000               	movlw	0
 11678  168D  3190  2087  3196   	fcall	i1_writespi
 11679                           
 11680                           ;lighting.c: 600: writespi(0);
 11681  1690  3000               	movlw	0
 11682  1691  3190  2087  3196   	fcall	i1_writespi
 11683                           
 11684                           ;lighting.c: 602: for(int i = 0;i < 4; i++)
 11685  1694  01FB               	clrf	i1led4_command@i_658
 11686  1695  01FC               	clrf	i1led4_command@i_658+1
 11687  1696  087C               	movf	i1led4_command@i_658+1,w
 11688  1697  3A80               	xorlw	128
 11689  1698  00F6               	movwf	??i1_led4_command
 11690  1699  3080               	movlw	128
 11691  169A  0276               	subwf	??i1_led4_command,w
 11692  169B  1D03               	skipz
 11693  169C  2E9F               	goto	u262_25
 11694  169D  3004               	movlw	4
 11695  169E  027B               	subwf	i1led4_command@i_658,w
 11696  169F                     u262_25:	
 11697  169F  1803               	btfsc	3,0
 11698  16A0  2EB4               	goto	i1l3295
 11699  16A1                     i1l3289:	
 11700                           
 11701                           ;lighting.c: 603: {
 11702                           ;lighting.c: 604: writespi(0xFF);
 11703  16A1  30FF               	movlw	255
 11704  16A2  3190  2087  3196   	fcall	i1_writespi
 11705  16A5  3001               	movlw	1
 11706  16A6  07FB               	addwf	i1led4_command@i_658,f
 11707  16A7  3000               	movlw	0
 11708  16A8  3DFC               	addwfc	i1led4_command@i_658+1,f
 11709  16A9  087C               	movf	i1led4_command@i_658+1,w
 11710  16AA  3A80               	xorlw	128
 11711  16AB  00F6               	movwf	??i1_led4_command
 11712  16AC  3080               	movlw	128
 11713  16AD  0276               	subwf	??i1_led4_command,w
 11714  16AE  1D03               	skipz
 11715  16AF  2EB2               	goto	u263_25
 11716  16B0  3004               	movlw	4
 11717  16B1  027B               	subwf	i1led4_command@i_658,w
 11718  16B2                     u263_25:	
 11719  16B2  1C03               	skipc
 11720  16B3  2EA1               	goto	i1l3289
 11721  16B4                     i1l3295:	
 11722                           
 11723                           ;lighting.c: 605: }
 11724                           ;lighting.c: 606: _delay((unsigned long)((20)*(32000000/4000.0)));
 11725  16B4  30D0               	movlw	208
 11726  16B5  00F7               	movwf	??i1_led4_command+1
 11727  16B6  30C9               	movlw	201
 11728  16B7  00F6               	movwf	??i1_led4_command
 11729  16B8                     u541_27:	
 11730  16B8  0BF6               	decfsz	??i1_led4_command,f
 11731  16B9  2EB8               	goto	u541_27
 11732  16BA  0BF7               	decfsz	??i1_led4_command+1,f
 11733  16BB  2EB8               	goto	u541_27
 11734  16BC  3200               	nop2
 11735  16BD  0008               	return
 11736  16BE                     __end_ofi1_led4_command:	
 11737                           
 11738                           	psect	text26
 11739  1588                     __ptext26:	
 11740 ;; *************** function i1_led3_command *****************
 11741 ;; Defined at:
 11742 ;;		line 523 in file "../../source/lighting.c"
 11743 ;; Parameters:    Size  Location     Type
 11744 ;;  brightness      1    wreg     unsigned char 
 11745 ;;  red             1    3[COMMON] unsigned char 
 11746 ;;  green           1    4[COMMON] unsigned char 
 11747 ;;  blue            1    5[COMMON] unsigned char 
 11748 ;; Auto vars:     Size  Location     Type
 11749 ;;  brightness      1    8[COMMON] unsigned char 
 11750 ;;  led3_command    2   11[COMMON] int 
 11751 ;;  led3_command    2    9[COMMON] int 
 11752 ;; Return value:  Size  Location     Type
 11753 ;;		None               void
 11754 ;; Registers used:
 11755 ;;		wreg, status,2, status,0, pclath, cstack
 11756 ;; Tracked objects:
 11757 ;;		On entry : 0/0
 11758 ;;		On exit  : 0/0
 11759 ;;		Unchanged: 0/0
 11760 ;; Data sizes:     COMMON   BANK0   BANK1   BANK2   BANK3   BANK4   BANK5   BANK6   BANK7   BANK8   BANK9  BANK10  BANK1
      +1  BANK12  BANK13  BANK14  BANK15  BANK16  BANK17  BANK18  BANK19  BANK20  BANK21  BANK22  BANK23  BANK24  BANK25
 11761 ;;      Params:         3       0       0       0       0       0       0       0       0       0       0       0       
      +0       0       0       0       0       0       0       0       0       0       0       0       0       0       0
 11762 ;;      Locals:         5       0       0       0       0       0       0       0       0       0       0       0       
      +0       0       0       0       0       0       0       0       0       0       0       0       0       0       0
 11763 ;;      Temps:          2       0       0       0       0       0       0       0       0       0       0       0       
      +0       0       0       0       0       0       0       0       0       0       0       0       0       0       0
 11764 ;;      Totals:        10       0       0       0       0       0       0       0       0       0       0       0       
      +0       0       0       0       0       0       0       0       0       0       0       0       0       0       0
 11765 ;;Total ram usage:       10 bytes
 11766 ;; Hardware stack levels used:    1
 11767 ;; Hardware stack levels required when called:    1
 11768 ;; This function calls:
 11769 ;;		i1_writespi
 11770 ;; This function is called by:
 11771 ;;		i1_display_blade_lights
 11772 ;; This function uses a non-reentrant model
 11773 ;;
 11774                           
 11775                           
 11776                           ;psect for function i1_led3_command
 11777  1588                     i1_led3_command:	
 11778                           
 11779                           ;incstack = 0
 11780                           ; Regs used in i1_led3_command: [wreg+status,2+status,0+pclath+cstack]
 11781                           ;i1led3_command@brightness stored from wreg
 11782  1588  00F8               	movwf	i1led3_command@brightness
 11783                           
 11784                           ;lighting.c: 529: for(int i = 0;i < 4; i++)
 11785  1589  01F9               	clrf	i1led3_command@i
 11786  158A  01FA               	clrf	i1led3_command@i+1
 11787  158B  087A               	movf	i1led3_command@i+1,w
 11788  158C  3A80               	xorlw	128
 11789  158D  00F6               	movwf	??i1_led3_command
 11790  158E  3080               	movlw	128
 11791  158F  0276               	subwf	??i1_led3_command,w
 11792  1590  1D03               	skipz
 11793  1591  2D94               	goto	u256_25
 11794  1592  3004               	movlw	4
 11795  1593  0279               	subwf	i1led3_command@i,w
 11796  1594                     u256_25:	
 11797  1594  1803               	btfsc	3,0
 11798  1595  2DA9               	goto	i1l3253
 11799  1596                     i1l3247:	
 11800                           
 11801                           ;lighting.c: 530: {
 11802                           ;lighting.c: 531: writespi(0x00);
 11803  1596  3000               	movlw	0
 11804  1597  3190  2087  3195   	fcall	i1_writespi
 11805  159A  3001               	movlw	1
 11806  159B  07F9               	addwf	i1led3_command@i,f
 11807  159C  3000               	movlw	0
 11808  159D  3DFA               	addwfc	i1led3_command@i+1,f
 11809  159E  087A               	movf	i1led3_command@i+1,w
 11810  159F  3A80               	xorlw	128
 11811  15A0  00F6               	movwf	??i1_led3_command
 11812  15A1  3080               	movlw	128
 11813  15A2  0276               	subwf	??i1_led3_command,w
 11814  15A3  1D03               	skipz
 11815  15A4  2DA7               	goto	u257_25
 11816  15A5  3004               	movlw	4
 11817  15A6  0279               	subwf	i1led3_command@i,w
 11818  15A7                     u257_25:	
 11819  15A7  1C03               	skipc
 11820  15A8  2D96               	goto	i1l3247
 11821  15A9                     i1l3253:	
 11822                           
 11823                           ;lighting.c: 532: }
 11824                           ;lighting.c: 534: writespi(0xFF);
 11825  15A9  30FF               	movlw	255
 11826  15AA  3190  2087  3195   	fcall	i1_writespi
 11827                           
 11828                           ;lighting.c: 535: writespi(0);
 11829  15AD  3000               	movlw	0
 11830  15AE  3190  2087  3195   	fcall	i1_writespi
 11831                           
 11832                           ;lighting.c: 536: writespi(0);
 11833  15B1  3000               	movlw	0
 11834  15B2  3190  2087  3195   	fcall	i1_writespi
 11835                           
 11836                           ;lighting.c: 537: writespi(0);
 11837  15B5  3000               	movlw	0
 11838  15B6  3190  2087  3195   	fcall	i1_writespi
 11839                           
 11840                           ;lighting.c: 539: writespi(0xFF);
 11841  15B9  30FF               	movlw	255
 11842  15BA  3190  2087  3195   	fcall	i1_writespi
 11843                           
 11844                           ;lighting.c: 540: writespi(0);
 11845  15BD  3000               	movlw	0
 11846  15BE  3190  2087  3195   	fcall	i1_writespi
 11847                           
 11848                           ;lighting.c: 541: writespi(0);
 11849  15C1  3000               	movlw	0
 11850  15C2  3190  2087  3195   	fcall	i1_writespi
 11851                           
 11852                           ;lighting.c: 542: writespi(0);
 11853  15C5  3000               	movlw	0
 11854  15C6  3190  2087  3195   	fcall	i1_writespi
 11855                           
 11856                           ;lighting.c: 544: writespi(brightness);
 11857  15C9  0878               	movf	i1led3_command@brightness,w
 11858  15CA  3190  2087  3195   	fcall	i1_writespi
 11859                           
 11860                           ;lighting.c: 545: writespi(blue);
 11861  15CD  0875               	movf	i1led3_command@blue,w
 11862  15CE  3190  2087  3195   	fcall	i1_writespi
 11863                           
 11864                           ;lighting.c: 546: writespi(green);
 11865  15D1  0874               	movf	i1led3_command@green,w
 11866  15D2  3190  2087  3195   	fcall	i1_writespi
 11867                           
 11868                           ;lighting.c: 547: writespi(red);
 11869  15D5  0873               	movf	i1led3_command@red,w
 11870  15D6  3190  2087  3195   	fcall	i1_writespi
 11871                           
 11872                           ;lighting.c: 549: writespi(0xFF);
 11873  15D9  30FF               	movlw	255
 11874  15DA  3190  2087  3195   	fcall	i1_writespi
 11875                           
 11876                           ;lighting.c: 550: writespi(0);
 11877  15DD  3000               	movlw	0
 11878  15DE  3190  2087  3195   	fcall	i1_writespi
 11879                           
 11880                           ;lighting.c: 551: writespi(0);
 11881  15E1  3000               	movlw	0
 11882  15E2  3190  2087  3195   	fcall	i1_writespi
 11883                           
 11884                           ;lighting.c: 552: writespi(0);
 11885  15E5  3000               	movlw	0
 11886  15E6  3190  2087  3195   	fcall	i1_writespi
 11887                           
 11888                           ;lighting.c: 554: writespi(0xFF);
 11889  15E9  30FF               	movlw	255
 11890  15EA  3190  2087  3195   	fcall	i1_writespi
 11891                           
 11892                           ;lighting.c: 555: writespi(0);
 11893  15ED  3000               	movlw	0
 11894  15EE  3190  2087  3195   	fcall	i1_writespi
 11895                           
 11896                           ;lighting.c: 556: writespi(0);
 11897  15F1  3000               	movlw	0
 11898  15F2  3190  2087  3195   	fcall	i1_writespi
 11899                           
 11900                           ;lighting.c: 557: writespi(0);
 11901  15F5  3000               	movlw	0
 11902  15F6  3190  2087  3195   	fcall	i1_writespi
 11903                           
 11904                           ;lighting.c: 559: for(int i = 0;i < 4; i++)
 11905  15F9  01FB               	clrf	i1led3_command@i_651
 11906  15FA  01FC               	clrf	i1led3_command@i_651+1
 11907  15FB  087C               	movf	i1led3_command@i_651+1,w
 11908  15FC  3A80               	xorlw	128
 11909  15FD  00F6               	movwf	??i1_led3_command
 11910  15FE  3080               	movlw	128
 11911  15FF  0276               	subwf	??i1_led3_command,w
 11912  1600  1D03               	skipz
 11913  1601  2E04               	goto	u258_25
 11914  1602  3004               	movlw	4
 11915  1603  027B               	subwf	i1led3_command@i_651,w
 11916  1604                     u258_25:	
 11917  1604  1803               	btfsc	3,0
 11918  1605  2E19               	goto	i1l3267
 11919  1606                     i1l3261:	
 11920                           
 11921                           ;lighting.c: 560: {
 11922                           ;lighting.c: 561: writespi(0xFF);
 11923  1606  30FF               	movlw	255
 11924  1607  3190  2087  3195   	fcall	i1_writespi
 11925  160A  3001               	movlw	1
 11926  160B  07FB               	addwf	i1led3_command@i_651,f
 11927  160C  3000               	movlw	0
 11928  160D  3DFC               	addwfc	i1led3_command@i_651+1,f
 11929  160E  087C               	movf	i1led3_command@i_651+1,w
 11930  160F  3A80               	xorlw	128
 11931  1610  00F6               	movwf	??i1_led3_command
 11932  1611  3080               	movlw	128
 11933  1612  0276               	subwf	??i1_led3_command,w
 11934  1613  1D03               	skipz
 11935  1614  2E17               	goto	u259_25
 11936  1615  3004               	movlw	4
 11937  1616  027B               	subwf	i1led3_command@i_651,w
 11938  1617                     u259_25:	
 11939  1617  1C03               	skipc
 11940  1618  2E06               	goto	i1l3261
 11941  1619                     i1l3267:	
 11942                           
 11943                           ;lighting.c: 562: }
 11944                           ;lighting.c: 563: _delay((unsigned long)((20)*(32000000/4000.0)));
 11945  1619  30D0               	movlw	208
 11946  161A  00F7               	movwf	??i1_led3_command+1
 11947  161B  30C9               	movlw	201
 11948  161C  00F6               	movwf	??i1_led3_command
 11949  161D                     u542_27:	
 11950  161D  0BF6               	decfsz	??i1_led3_command,f
 11951  161E  2E1D               	goto	u542_27
 11952  161F  0BF7               	decfsz	??i1_led3_command+1,f
 11953  1620  2E1D               	goto	u542_27
 11954  1621  3200               	nop2
 11955  1622  0008               	return
 11956  1623                     __end_ofi1_led3_command:	
 11957                           
 11958                           	psect	text27
 11959  14ED                     __ptext27:	
 11960 ;; *************** function i1_led2_command *****************
 11961 ;; Defined at:
 11962 ;;		line 480 in file "../../source/lighting.c"
 11963 ;; Parameters:    Size  Location     Type
 11964 ;;  brightness      1    wreg     unsigned char 
 11965 ;;  red             1    3[COMMON] unsigned char 
 11966 ;;  green           1    4[COMMON] unsigned char 
 11967 ;;  blue            1    5[COMMON] unsigned char 
 11968 ;; Auto vars:     Size  Location     Type
 11969 ;;  brightness      1    8[COMMON] unsigned char 
 11970 ;;  led2_command    2   11[COMMON] int 
 11971 ;;  led2_command    2    9[COMMON] int 
 11972 ;; Return value:  Size  Location     Type
 11973 ;;		None               void
 11974 ;; Registers used:
 11975 ;;		wreg, status,2, status,0, pclath, cstack
 11976 ;; Tracked objects:
 11977 ;;		On entry : 0/0
 11978 ;;		On exit  : 0/0
 11979 ;;		Unchanged: 0/0
 11980 ;; Data sizes:     COMMON   BANK0   BANK1   BANK2   BANK3   BANK4   BANK5   BANK6   BANK7   BANK8   BANK9  BANK10  BANK1
      +1  BANK12  BANK13  BANK14  BANK15  BANK16  BANK17  BANK18  BANK19  BANK20  BANK21  BANK22  BANK23  BANK24  BANK25
 11981 ;;      Params:         3       0       0       0       0       0       0       0       0       0       0       0       
      +0       0       0       0       0       0       0       0       0       0       0       0       0       0       0
 11982 ;;      Locals:         5       0       0       0       0       0       0       0       0       0       0       0       
      +0       0       0       0       0       0       0       0       0       0       0       0       0       0       0
 11983 ;;      Temps:          2       0       0       0       0       0       0       0       0       0       0       0       
      +0       0       0       0       0       0       0       0       0       0       0       0       0       0       0
 11984 ;;      Totals:        10       0       0       0       0       0       0       0       0       0       0       0       
      +0       0       0       0       0       0       0       0       0       0       0       0       0       0       0
 11985 ;;Total ram usage:       10 bytes
 11986 ;; Hardware stack levels used:    1
 11987 ;; Hardware stack levels required when called:    1
 11988 ;; This function calls:
 11989 ;;		i1_writespi
 11990 ;; This function is called by:
 11991 ;;		i1_display_blade_lights
 11992 ;; This function uses a non-reentrant model
 11993 ;;
 11994                           
 11995                           
 11996                           ;psect for function i1_led2_command
 11997  14ED                     i1_led2_command:	
 11998                           
 11999                           ;incstack = 0
 12000                           ; Regs used in i1_led2_command: [wreg+status,2+status,0+pclath+cstack]
 12001                           ;i1led2_command@brightness stored from wreg
 12002  14ED  00F8               	movwf	i1led2_command@brightness
 12003                           
 12004                           ;lighting.c: 486: for(int i = 0;i < 4; i++)
 12005  14EE  01F9               	clrf	i1led2_command@i
 12006  14EF  01FA               	clrf	i1led2_command@i+1
 12007  14F0  087A               	movf	i1led2_command@i+1,w
 12008  14F1  3A80               	xorlw	128
 12009  14F2  00F6               	movwf	??i1_led2_command
 12010  14F3  3080               	movlw	128
 12011  14F4  0276               	subwf	??i1_led2_command,w
 12012  14F5  1D03               	skipz
 12013  14F6  2CF9               	goto	u252_25
 12014  14F7  3004               	movlw	4
 12015  14F8  0279               	subwf	i1led2_command@i,w
 12016  14F9                     u252_25:	
 12017  14F9  1803               	btfsc	3,0
 12018  14FA  2D0E               	goto	i1l3225
 12019  14FB                     i1l3219:	
 12020                           
 12021                           ;lighting.c: 487: {
 12022                           ;lighting.c: 488: writespi(0x00);
 12023  14FB  3000               	movlw	0
 12024  14FC  3190  2087  3194   	fcall	i1_writespi
 12025  14FF  3001               	movlw	1
 12026  1500  07F9               	addwf	i1led2_command@i,f
 12027  1501  3000               	movlw	0
 12028  1502  3DFA               	addwfc	i1led2_command@i+1,f
 12029  1503  087A               	movf	i1led2_command@i+1,w
 12030  1504  3A80               	xorlw	128
 12031  1505  00F6               	movwf	??i1_led2_command
 12032  1506  3080               	movlw	128
 12033  1507  0276               	subwf	??i1_led2_command,w
 12034  1508  1D03               	skipz
 12035  1509  2D0C               	goto	u253_25
 12036  150A  3004               	movlw	4
 12037  150B  0279               	subwf	i1led2_command@i,w
 12038  150C                     u253_25:	
 12039  150C  1C03               	skipc
 12040  150D  2CFB               	goto	i1l3219
 12041  150E                     i1l3225:	
 12042                           
 12043                           ;lighting.c: 489: }
 12044                           ;lighting.c: 491: writespi(0xFF);
 12045  150E  30FF               	movlw	255
 12046  150F  3190  2087  3194   	fcall	i1_writespi
 12047                           
 12048                           ;lighting.c: 492: writespi(0);
 12049  1512  3000               	movlw	0
 12050  1513  3190  2087  3194   	fcall	i1_writespi
 12051                           
 12052                           ;lighting.c: 493: writespi(0);
 12053  1516  3000               	movlw	0
 12054  1517  3190  2087  3194   	fcall	i1_writespi
 12055                           
 12056                           ;lighting.c: 494: writespi(0);
 12057  151A  3000               	movlw	0
 12058  151B  3190  2087  3194   	fcall	i1_writespi
 12059                           
 12060                           ;lighting.c: 496: writespi(brightness);
 12061  151E  0878               	movf	i1led2_command@brightness,w
 12062  151F  3190  2087  3194   	fcall	i1_writespi
 12063                           
 12064                           ;lighting.c: 497: writespi(blue);
 12065  1522  0875               	movf	i1led2_command@blue,w
 12066  1523  3190  2087  3194   	fcall	i1_writespi
 12067                           
 12068                           ;lighting.c: 498: writespi(green);
 12069  1526  0874               	movf	i1led2_command@green,w
 12070  1527  3190  2087  3194   	fcall	i1_writespi
 12071                           
 12072                           ;lighting.c: 499: writespi(red);
 12073  152A  0873               	movf	i1led2_command@red,w
 12074  152B  3190  2087  3194   	fcall	i1_writespi
 12075                           
 12076                           ;lighting.c: 501: writespi(0xFF);
 12077  152E  30FF               	movlw	255
 12078  152F  3190  2087  3194   	fcall	i1_writespi
 12079                           
 12080                           ;lighting.c: 502: writespi(0);
 12081  1532  3000               	movlw	0
 12082  1533  3190  2087  3194   	fcall	i1_writespi
 12083                           
 12084                           ;lighting.c: 503: writespi(0);
 12085  1536  3000               	movlw	0
 12086  1537  3190  2087  3194   	fcall	i1_writespi
 12087                           
 12088                           ;lighting.c: 504: writespi(0);
 12089  153A  3000               	movlw	0
 12090  153B  3190  2087  3194   	fcall	i1_writespi
 12091                           
 12092                           ;lighting.c: 506: writespi(0xFF);
 12093  153E  30FF               	movlw	255
 12094  153F  3190  2087  3194   	fcall	i1_writespi
 12095                           
 12096                           ;lighting.c: 507: writespi(0);
 12097  1542  3000               	movlw	0
 12098  1543  3190  2087  3194   	fcall	i1_writespi
 12099                           
 12100                           ;lighting.c: 508: writespi(0);
 12101  1546  3000               	movlw	0
 12102  1547  3190  2087  3194   	fcall	i1_writespi
 12103                           
 12104                           ;lighting.c: 509: writespi(0);
 12105  154A  3000               	movlw	0
 12106  154B  3190  2087  3194   	fcall	i1_writespi
 12107                           
 12108                           ;lighting.c: 511: writespi(0xFF);
 12109  154E  30FF               	movlw	255
 12110  154F  3190  2087  3194   	fcall	i1_writespi
 12111                           
 12112                           ;lighting.c: 512: writespi(0);
 12113  1552  3000               	movlw	0
 12114  1553  3190  2087  3194   	fcall	i1_writespi
 12115                           
 12116                           ;lighting.c: 513: writespi(0);
 12117  1556  3000               	movlw	0
 12118  1557  3190  2087  3194   	fcall	i1_writespi
 12119                           
 12120                           ;lighting.c: 514: writespi(0);
 12121  155A  3000               	movlw	0
 12122  155B  3190  2087  3194   	fcall	i1_writespi
 12123                           
 12124                           ;lighting.c: 516: for(int i = 0;i < 4; i++)
 12125  155E  01FB               	clrf	i1led2_command@i_644
 12126  155F  01FC               	clrf	i1led2_command@i_644+1
 12127  1560  087C               	movf	i1led2_command@i_644+1,w
 12128  1561  3A80               	xorlw	128
 12129  1562  00F6               	movwf	??i1_led2_command
 12130  1563  3080               	movlw	128
 12131  1564  0276               	subwf	??i1_led2_command,w
 12132  1565  1D03               	skipz
 12133  1566  2D69               	goto	u254_25
 12134  1567  3004               	movlw	4
 12135  1568  027B               	subwf	i1led2_command@i_644,w
 12136  1569                     u254_25:	
 12137  1569  1803               	btfsc	3,0
 12138  156A  2D7E               	goto	i1l3239
 12139  156B                     i1l3233:	
 12140                           
 12141                           ;lighting.c: 517: {
 12142                           ;lighting.c: 518: writespi(0xFF);
 12143  156B  30FF               	movlw	255
 12144  156C  3190  2087  3194   	fcall	i1_writespi
 12145  156F  3001               	movlw	1
 12146  1570  07FB               	addwf	i1led2_command@i_644,f
 12147  1571  3000               	movlw	0
 12148  1572  3DFC               	addwfc	i1led2_command@i_644+1,f
 12149  1573  087C               	movf	i1led2_command@i_644+1,w
 12150  1574  3A80               	xorlw	128
 12151  1575  00F6               	movwf	??i1_led2_command
 12152  1576  3080               	movlw	128
 12153  1577  0276               	subwf	??i1_led2_command,w
 12154  1578  1D03               	skipz
 12155  1579  2D7C               	goto	u255_25
 12156  157A  3004               	movlw	4
 12157  157B  027B               	subwf	i1led2_command@i_644,w
 12158  157C                     u255_25:	
 12159  157C  1C03               	skipc
 12160  157D  2D6B               	goto	i1l3233
 12161  157E                     i1l3239:	
 12162                           
 12163                           ;lighting.c: 519: }
 12164                           ;lighting.c: 520: _delay((unsigned long)((20)*(32000000/4000.0)));
 12165  157E  30D0               	movlw	208
 12166  157F  00F7               	movwf	??i1_led2_command+1
 12167  1580  30C9               	movlw	201
 12168  1581  00F6               	movwf	??i1_led2_command
 12169  1582                     u543_27:	
 12170  1582  0BF6               	decfsz	??i1_led2_command,f
 12171  1583  2D82               	goto	u543_27
 12172  1584  0BF7               	decfsz	??i1_led2_command+1,f
 12173  1585  2D82               	goto	u543_27
 12174  1586  3200               	nop2
 12175  1587  0008               	return
 12176  1588                     __end_ofi1_led2_command:	
 12177                           
 12178                           	psect	text28
 12179  1452                     __ptext28:	
 12180 ;; *************** function i1_led1_command *****************
 12181 ;; Defined at:
 12182 ;;		line 437 in file "../../source/lighting.c"
 12183 ;; Parameters:    Size  Location     Type
 12184 ;;  brightness      1    wreg     unsigned char 
 12185 ;;  red             1    3[COMMON] unsigned char 
 12186 ;;  green           1    4[COMMON] unsigned char 
 12187 ;;  blue            1    5[COMMON] unsigned char 
 12188 ;; Auto vars:     Size  Location     Type
 12189 ;;  brightness      1    8[COMMON] unsigned char 
 12190 ;;  led1_command    2   11[COMMON] int 
 12191 ;;  led1_command    2    9[COMMON] int 
 12192 ;; Return value:  Size  Location     Type
 12193 ;;		None               void
 12194 ;; Registers used:
 12195 ;;		wreg, status,2, status,0, pclath, cstack
 12196 ;; Tracked objects:
 12197 ;;		On entry : 0/0
 12198 ;;		On exit  : 0/0
 12199 ;;		Unchanged: 0/0
 12200 ;; Data sizes:     COMMON   BANK0   BANK1   BANK2   BANK3   BANK4   BANK5   BANK6   BANK7   BANK8   BANK9  BANK10  BANK1
      +1  BANK12  BANK13  BANK14  BANK15  BANK16  BANK17  BANK18  BANK19  BANK20  BANK21  BANK22  BANK23  BANK24  BANK25
 12201 ;;      Params:         3       0       0       0       0       0       0       0       0       0       0       0       
      +0       0       0       0       0       0       0       0       0       0       0       0       0       0       0
 12202 ;;      Locals:         5       0       0       0       0       0       0       0       0       0       0       0       
      +0       0       0       0       0       0       0       0       0       0       0       0       0       0       0
 12203 ;;      Temps:          2       0       0       0       0       0       0       0       0       0       0       0       
      +0       0       0       0       0       0       0       0       0       0       0       0       0       0       0
 12204 ;;      Totals:        10       0       0       0       0       0       0       0       0       0       0       0       
      +0       0       0       0       0       0       0       0       0       0       0       0       0       0       0
 12205 ;;Total ram usage:       10 bytes
 12206 ;; Hardware stack levels used:    1
 12207 ;; Hardware stack levels required when called:    1
 12208 ;; This function calls:
 12209 ;;		i1_writespi
 12210 ;; This function is called by:
 12211 ;;		i1_display_blade_lights
 12212 ;; This function uses a non-reentrant model
 12213 ;;
 12214                           
 12215                           
 12216                           ;psect for function i1_led1_command
 12217  1452                     i1_led1_command:	
 12218                           
 12219                           ;incstack = 0
 12220                           ; Regs used in i1_led1_command: [wreg+status,2+status,0+pclath+cstack]
 12221                           ;i1led1_command@brightness stored from wreg
 12222  1452  00F8               	movwf	i1led1_command@brightness
 12223                           
 12224                           ;lighting.c: 443: for(int i = 0;i < 4; i++)
 12225  1453  01F9               	clrf	i1led1_command@i
 12226  1454  01FA               	clrf	i1led1_command@i+1
 12227  1455  087A               	movf	i1led1_command@i+1,w
 12228  1456  3A80               	xorlw	128
 12229  1457  00F6               	movwf	??i1_led1_command
 12230  1458  3080               	movlw	128
 12231  1459  0276               	subwf	??i1_led1_command,w
 12232  145A  1D03               	skipz
 12233  145B  2C5E               	goto	u248_25
 12234  145C  3004               	movlw	4
 12235  145D  0279               	subwf	i1led1_command@i,w
 12236  145E                     u248_25:	
 12237  145E  1803               	btfsc	3,0
 12238  145F  2C73               	goto	i1l3197
 12239  1460                     i1l3191:	
 12240                           
 12241                           ;lighting.c: 444: {
 12242                           ;lighting.c: 445: writespi(0x00);
 12243  1460  3000               	movlw	0
 12244  1461  3190  2087  3194   	fcall	i1_writespi
 12245  1464  3001               	movlw	1
 12246  1465  07F9               	addwf	i1led1_command@i,f
 12247  1466  3000               	movlw	0
 12248  1467  3DFA               	addwfc	i1led1_command@i+1,f
 12249  1468  087A               	movf	i1led1_command@i+1,w
 12250  1469  3A80               	xorlw	128
 12251  146A  00F6               	movwf	??i1_led1_command
 12252  146B  3080               	movlw	128
 12253  146C  0276               	subwf	??i1_led1_command,w
 12254  146D  1D03               	skipz
 12255  146E  2C71               	goto	u249_25
 12256  146F  3004               	movlw	4
 12257  1470  0279               	subwf	i1led1_command@i,w
 12258  1471                     u249_25:	
 12259  1471  1C03               	skipc
 12260  1472  2C60               	goto	i1l3191
 12261  1473                     i1l3197:	
 12262                           
 12263                           ;lighting.c: 446: }
 12264                           ;lighting.c: 448: writespi(brightness);
 12265  1473  0878               	movf	i1led1_command@brightness,w
 12266  1474  3190  2087  3194   	fcall	i1_writespi
 12267                           
 12268                           ;lighting.c: 449: writespi(blue);
 12269  1477  0875               	movf	i1led1_command@blue,w
 12270  1478  3190  2087  3194   	fcall	i1_writespi
 12271                           
 12272                           ;lighting.c: 450: writespi(green);
 12273  147B  0874               	movf	i1led1_command@green,w
 12274  147C  3190  2087  3194   	fcall	i1_writespi
 12275                           
 12276                           ;lighting.c: 451: writespi(red);
 12277  147F  0873               	movf	i1led1_command@red,w
 12278  1480  3190  2087  3194   	fcall	i1_writespi
 12279                           
 12280                           ;lighting.c: 453: writespi(0xFF);
 12281  1483  30FF               	movlw	255
 12282  1484  3190  2087  3194   	fcall	i1_writespi
 12283                           
 12284                           ;lighting.c: 454: writespi(0);
 12285  1487  3000               	movlw	0
 12286  1488  3190  2087  3194   	fcall	i1_writespi
 12287                           
 12288                           ;lighting.c: 455: writespi(0);
 12289  148B  3000               	movlw	0
 12290  148C  3190  2087  3194   	fcall	i1_writespi
 12291                           
 12292                           ;lighting.c: 456: writespi(0);
 12293  148F  3000               	movlw	0
 12294  1490  3190  2087  3194   	fcall	i1_writespi
 12295                           
 12296                           ;lighting.c: 458: writespi(0xFF);
 12297  1493  30FF               	movlw	255
 12298  1494  3190  2087  3194   	fcall	i1_writespi
 12299                           
 12300                           ;lighting.c: 459: writespi(0);
 12301  1497  3000               	movlw	0
 12302  1498  3190  2087  3194   	fcall	i1_writespi
 12303                           
 12304                           ;lighting.c: 460: writespi(0);
 12305  149B  3000               	movlw	0
 12306  149C  3190  2087  3194   	fcall	i1_writespi
 12307                           
 12308                           ;lighting.c: 461: writespi(0);
 12309  149F  3000               	movlw	0
 12310  14A0  3190  2087  3194   	fcall	i1_writespi
 12311                           
 12312                           ;lighting.c: 463: writespi(0xFF);
 12313  14A3  30FF               	movlw	255
 12314  14A4  3190  2087  3194   	fcall	i1_writespi
 12315                           
 12316                           ;lighting.c: 464: writespi(0);
 12317  14A7  3000               	movlw	0
 12318  14A8  3190  2087  3194   	fcall	i1_writespi
 12319                           
 12320                           ;lighting.c: 465: writespi(0);
 12321  14AB  3000               	movlw	0
 12322  14AC  3190  2087  3194   	fcall	i1_writespi
 12323                           
 12324                           ;lighting.c: 466: writespi(0);
 12325  14AF  3000               	movlw	0
 12326  14B0  3190  2087  3194   	fcall	i1_writespi
 12327                           
 12328                           ;lighting.c: 468: writespi(0xFF);
 12329  14B3  30FF               	movlw	255
 12330  14B4  3190  2087  3194   	fcall	i1_writespi
 12331                           
 12332                           ;lighting.c: 469: writespi(0);
 12333  14B7  3000               	movlw	0
 12334  14B8  3190  2087  3194   	fcall	i1_writespi
 12335                           
 12336                           ;lighting.c: 470: writespi(0);
 12337  14BB  3000               	movlw	0
 12338  14BC  3190  2087  3194   	fcall	i1_writespi
 12339                           
 12340                           ;lighting.c: 471: writespi(0);
 12341  14BF  3000               	movlw	0
 12342  14C0  3190  2087  3194   	fcall	i1_writespi
 12343                           
 12344                           ;lighting.c: 473: for(int i = 0;i < 4; i++)
 12345  14C3  01FB               	clrf	i1led1_command@i_637
 12346  14C4  01FC               	clrf	i1led1_command@i_637+1
 12347  14C5  087C               	movf	i1led1_command@i_637+1,w
 12348  14C6  3A80               	xorlw	128
 12349  14C7  00F6               	movwf	??i1_led1_command
 12350  14C8  3080               	movlw	128
 12351  14C9  0276               	subwf	??i1_led1_command,w
 12352  14CA  1D03               	skipz
 12353  14CB  2CCE               	goto	u250_25
 12354  14CC  3004               	movlw	4
 12355  14CD  027B               	subwf	i1led1_command@i_637,w
 12356  14CE                     u250_25:	
 12357  14CE  1803               	btfsc	3,0
 12358  14CF  2CE3               	goto	i1l3211
 12359  14D0                     i1l3205:	
 12360                           
 12361                           ;lighting.c: 474: {
 12362                           ;lighting.c: 475: writespi(0xFF);
 12363  14D0  30FF               	movlw	255
 12364  14D1  3190  2087  3194   	fcall	i1_writespi
 12365  14D4  3001               	movlw	1
 12366  14D5  07FB               	addwf	i1led1_command@i_637,f
 12367  14D6  3000               	movlw	0
 12368  14D7  3DFC               	addwfc	i1led1_command@i_637+1,f
 12369  14D8  087C               	movf	i1led1_command@i_637+1,w
 12370  14D9  3A80               	xorlw	128
 12371  14DA  00F6               	movwf	??i1_led1_command
 12372  14DB  3080               	movlw	128
 12373  14DC  0276               	subwf	??i1_led1_command,w
 12374  14DD  1D03               	skipz
 12375  14DE  2CE1               	goto	u251_25
 12376  14DF  3004               	movlw	4
 12377  14E0  027B               	subwf	i1led1_command@i_637,w
 12378  14E1                     u251_25:	
 12379  14E1  1C03               	skipc
 12380  14E2  2CD0               	goto	i1l3205
 12381  14E3                     i1l3211:	
 12382                           
 12383                           ;lighting.c: 476: }
 12384                           ;lighting.c: 477: _delay((unsigned long)((20)*(32000000/4000.0)));
 12385  14E3  30D0               	movlw	208
 12386  14E4  00F7               	movwf	??i1_led1_command+1
 12387  14E5  30C9               	movlw	201
 12388  14E6  00F6               	movwf	??i1_led1_command
 12389  14E7                     u544_27:	
 12390  14E7  0BF6               	decfsz	??i1_led1_command,f
 12391  14E8  2CE7               	goto	u544_27
 12392  14E9  0BF7               	decfsz	??i1_led1_command+1,f
 12393  14EA  2CE7               	goto	u544_27
 12394  14EB  3200               	nop2
 12395  14EC  0008               	return
 12396  14ED                     __end_ofi1_led1_command:	
 12397                           
 12398                           	psect	text29
 12399  1087                     __ptext29:	
 12400 ;; *************** function i1_writespi *****************
 12401 ;; Defined at:
 12402 ;;		line 422 in file "../../source/lighting.c"
 12403 ;; Parameters:    Size  Location     Type
 12404 ;;  data_out        1    wreg     unsigned char 
 12405 ;; Auto vars:     Size  Location     Type
 12406 ;;  data_out        1    2[COMMON] unsigned char 
 12407 ;;  writespi        1    1[COMMON] unsigned char 
 12408 ;; Return value:  Size  Location     Type
 12409 ;;		None               void
 12410 ;; Registers used:
 12411 ;;		wreg
 12412 ;; Tracked objects:
 12413 ;;		On entry : 0/0
 12414 ;;		On exit  : 0/0
 12415 ;;		Unchanged: 0/0
 12416 ;; Data sizes:     COMMON   BANK0   BANK1   BANK2   BANK3   BANK4   BANK5   BANK6   BANK7   BANK8   BANK9  BANK10  BANK1
      +1  BANK12  BANK13  BANK14  BANK15  BANK16  BANK17  BANK18  BANK19  BANK20  BANK21  BANK22  BANK23  BANK24  BANK25
 12417 ;;      Params:         0       0       0       0       0       0       0       0       0       0       0       0       
      +0       0       0       0       0       0       0       0       0       0       0       0       0       0       0
 12418 ;;      Locals:         2       0       0       0       0       0       0       0       0       0       0       0       
      +0       0       0       0       0       0       0       0       0       0       0       0       0       0       0
 12419 ;;      Temps:          1       0       0       0       0       0       0       0       0       0       0       0       
      +0       0       0       0       0       0       0       0       0       0       0       0       0       0       0
 12420 ;;      Totals:         3       0       0       0       0       0       0       0       0       0       0       0       
      +0       0       0       0       0       0       0       0       0       0       0       0       0       0       0
 12421 ;;Total ram usage:        3 bytes
 12422 ;; Hardware stack levels used:    1
 12423 ;; This function calls:
 12424 ;;		Nothing
 12425 ;; This function is called by:
 12426 ;;		i1_display_blade_lights
 12427 ;;		i1_led1_command
 12428 ;;		i1_led2_command
 12429 ;;		i1_led3_command
 12430 ;;		i1_led4_command
 12431 ;;		i1_led5_command
 12432 ;;		i1_leds_off
 12433 ;; This function uses a non-reentrant model
 12434 ;;
 12435                           
 12436                           
 12437                           ;psect for function i1_writespi
 12438  1087                     i1_writespi:	
 12439                           
 12440                           ;incstack = 0
 12441                           ; Regs used in i1_writespi: [wreg]
 12442                           ;i1writespi@data_out stored from wreg
 12443  1087  00F2               	movwf	i1writespi@data_out
 12444                           
 12445                           ;lighting.c: 424: unsigned char TempVar;
 12446                           ;lighting.c: 425: TempVar = SSPBUF;
 12447  1088  0024               	movlb	4	; select bank4
 12448  1089  0811               	movf	17,w	;volatile
 12449  108A  00F0               	movwf	??i1_writespi
 12450  108B  0870               	movf	??i1_writespi,w
 12451  108C  00F1               	movwf	i1writespi@TempVar
 12452                           
 12453                           ;lighting.c: 426: PIR1bits.SSP1IF = 0;
 12454  108D  0020               	movlb	0	; select bank0
 12455  108E  1191               	bcf	17,3	;volatile
 12456                           
 12457                           ;lighting.c: 427: SSPCON1bits.WCOL = 0;
 12458  108F  0024               	movlb	4	; select bank4
 12459  1090  1395               	bcf	21,7	;volatile
 12460                           
 12461                           ;lighting.c: 428: SSPBUF = data_out;
 12462  1091  0872               	movf	i1writespi@data_out,w
 12463  1092  0091               	movwf	17	;volatile
 12464  1093                     i1l662:	
 12465                           ;lighting.c: 433: while( !PIR1bits.SSP1IF );
 12466                           
 12467  1093  0020               	movlb	0	; select bank0
 12468  1094  1991               	btfsc	17,3	;volatile
 12469  1095  0008               	return
 12470  1096  2893               	goto	i1l662
 12471  1097                     __end_ofi1_writespi:	
 12472                           
 12473                           	psect	text30
 12474  1067                     __ptext30:	
 12475 ;; *************** function i1_determine_omega_mode_active *****************
 12476 ;; Defined at:
 12477 ;;		line 9 in file "../../source/blade_connection.c"
 12478 ;; Parameters:    Size  Location     Type
 12479 ;;		None
 12480 ;; Auto vars:     Size  Location     Type
 12481 ;;		None
 12482 ;; Return value:  Size  Location     Type
 12483 ;;                  1    wreg      unsigned char 
 12484 ;; Registers used:
 12485 ;;		wreg
 12486 ;; Tracked objects:
 12487 ;;		On entry : 0/0
 12488 ;;		On exit  : 0/0
 12489 ;;		Unchanged: 0/0
 12490 ;; Data sizes:     COMMON   BANK0   BANK1   BANK2   BANK3   BANK4   BANK5   BANK6   BANK7   BANK8   BANK9  BANK10  BANK1
      +1  BANK12  BANK13  BANK14  BANK15  BANK16  BANK17  BANK18  BANK19  BANK20  BANK21  BANK22  BANK23  BANK24  BANK25
 12491 ;;      Params:         0       0       0       0       0       0       0       0       0       0       0       0       
      +0       0       0       0       0       0       0       0       0       0       0       0       0       0       0
 12492 ;;      Locals:         0       0       0       0       0       0       0       0       0       0       0       0       
      +0       0       0       0       0       0       0       0       0       0       0       0       0       0       0
 12493 ;;      Temps:          0       0       0       0       0       0       0       0       0       0       0       0       
      +0       0       0       0       0       0       0       0       0       0       0       0       0       0       0
 12494 ;;      Totals:         0       0       0       0       0       0       0       0       0       0       0       0       
      +0       0       0       0       0       0       0       0       0       0       0       0       0       0       0
 12495 ;;Total ram usage:        0 bytes
 12496 ;; Hardware stack levels used:    1
 12497 ;; This function calls:
 12498 ;;		Nothing
 12499 ;; This function is called by:
 12500 ;;		_isr
 12501 ;; This function uses a non-reentrant model
 12502 ;;
 12503                           
 12504                           
 12505                           ;psect for function i1_determine_omega_mode_active
 12506  1067                     i1_determine_omega_mode_active:	
 12507                           
 12508                           ;blade_connection.c: 11: return RA1;
 12509                           
 12510                           ;incstack = 0
 12511                           ; Regs used in i1_determine_omega_mode_active: [wreg]
 12512  1067  3000               	movlw	0
 12513  1068  0020               	movlb	0	; select bank0
 12514  1069  188C               	btfsc	12,1	;volatile
 12515  106A  3001               	movlw	1
 12516  106B  0008               	return
 12517  106C                     __end_ofi1_determine_omega_mode_active:	
 12518                           
 12519                           	psect	text31
 12520  1207                     __ptext31:	
 12521 ;; *************** function ___fttol *****************
 12522 ;; Defined at:
 12523 ;;		line 44 in file "C:\Program Files (x86)\Microchip\xc8\v1.35\sources\common\fttol.c"
 12524 ;; Parameters:    Size  Location     Type
 12525 ;;  f1              3   16[BANK0 ] float 
 12526 ;; Auto vars:     Size  Location     Type
 12527 ;;  lval            4   25[BANK0 ] unsigned long 
 12528 ;;  exp1            1   29[BANK0 ] unsigned char 
 12529 ;;  sign1           1   24[BANK0 ] unsigned char 
 12530 ;; Return value:  Size  Location     Type
 12531 ;;                  4   16[BANK0 ] long 
 12532 ;; Registers used:
 12533 ;;		wreg, status,2, status,0
 12534 ;; Tracked objects:
 12535 ;;		On entry : 0/0
 12536 ;;		On exit  : 0/0
 12537 ;;		Unchanged: 0/0
 12538 ;; Data sizes:     COMMON   BANK0   BANK1   BANK2   BANK3   BANK4   BANK5   BANK6   BANK7   BANK8   BANK9  BANK10  BANK1
      +1  BANK12  BANK13  BANK14  BANK15  BANK16  BANK17  BANK18  BANK19  BANK20  BANK21  BANK22  BANK23  BANK24  BANK25
 12539 ;;      Params:         0       4       0       0       0       0       0       0       0       0       0       0       
      +0       0       0       0       0       0       0       0       0       0       0       0       0       0       0
 12540 ;;      Locals:         0       6       0       0       0       0       0       0       0       0       0       0       
      +0       0       0       0       0       0       0       0       0       0       0       0       0       0       0
 12541 ;;      Temps:          0       4       0       0       0       0       0       0       0       0       0       0       
      +0       0       0       0       0       0       0       0       0       0       0       0       0       0       0
 12542 ;;      Totals:         0      14       0       0       0       0       0       0       0       0       0       0       
      +0       0       0       0       0       0       0       0       0       0       0       0       0       0       0
 12543 ;;Total ram usage:       14 bytes
 12544 ;; Hardware stack levels used:    1
 12545 ;; This function calls:
 12546 ;;		Nothing
 12547 ;; This function is called by:
 12548 ;;		_isr
 12549 ;; This function uses a non-reentrant model
 12550 ;;
 12551                           
 12552                           
 12553                           ;psect for function ___fttol
 12554  1207                     ___fttol:	
 12555                           
 12556                           ;incstack = 0
 12557                           ; Regs used in ___fttol: [wreg+status,2+status,0]
 12558  1207  0020               	movlb	0	; select bank0
 12559  1208  0830               	movf	___fttol@f1,w
 12560  1209  00B4               	movwf	??___fttol
 12561  120A  0831               	movf	___fttol@f1+1,w
 12562  120B  00B5               	movwf	??___fttol+1
 12563  120C  0832               	movf	___fttol@f1+2,w
 12564  120D  00B6               	movwf	??___fttol+2
 12565  120E  1003               	clrc
 12566  120F  0D35               	rlf	??___fttol+1,w
 12567  1210  0D36               	rlf	??___fttol+2,w
 12568  1211  00B7               	movwf	??___fttol+3
 12569  1212  0837               	movf	??___fttol+3,w
 12570  1213  00BD               	movwf	___fttol@exp1
 12571  1214  083D               	movf	___fttol@exp1,w
 12572  1215  1D03               	btfss	3,2
 12573  1216  2A20               	goto	i1l4169
 12574  1217  3000               	movlw	0
 12575  1218  00B3               	movwf	?___fttol+3
 12576  1219  3000               	movlw	0
 12577  121A  00B2               	movwf	?___fttol+2
 12578  121B  3000               	movlw	0
 12579  121C  00B1               	movwf	?___fttol+1
 12580  121D  3000               	movlw	0
 12581  121E  00B0               	movwf	?___fttol
 12582  121F  0008               	return
 12583  1220                     i1l4169:	
 12584  1220  0830               	movf	___fttol@f1,w
 12585  1221  00B4               	movwf	??___fttol
 12586  1222  0831               	movf	___fttol@f1+1,w
 12587  1223  00B5               	movwf	??___fttol+1
 12588  1224  0832               	movf	___fttol@f1+2,w
 12589  1225  00B6               	movwf	??___fttol+2
 12590  1226  3017               	movlw	23
 12591  1227                     u347_25:	
 12592  1227  36B6               	lsrf	??___fttol+2,f
 12593  1228  0CB5               	rrf	??___fttol+1,f
 12594  1229  0CB4               	rrf	??___fttol,f
 12595  122A  0B89               	decfsz	9,f
 12596  122B  2A27               	goto	u347_25
 12597  122C  0834               	movf	??___fttol,w
 12598  122D  00B7               	movwf	??___fttol+3
 12599  122E  0837               	movf	??___fttol+3,w
 12600  122F  00B8               	movwf	___fttol@sign1
 12601  1230  17B1               	bsf	___fttol@f1+1,7
 12602  1231  30FF               	movlw	255
 12603  1232  05B0               	andwf	___fttol@f1,f
 12604  1233  30FF               	movlw	255
 12605  1234  05B1               	andwf	___fttol@f1+1,f
 12606  1235  3000               	movlw	0
 12607  1236  05B2               	andwf	___fttol@f1+2,f
 12608  1237  0830               	movf	___fttol@f1,w
 12609  1238  00B9               	movwf	___fttol@lval
 12610  1239  0831               	movf	___fttol@f1+1,w
 12611  123A  00BA               	movwf	___fttol@lval+1
 12612  123B  0832               	movf	___fttol@f1+2,w
 12613  123C  00BB               	movwf	___fttol@lval+2
 12614  123D  01BC               	clrf	___fttol@lval+3
 12615  123E  308E               	movlw	142
 12616  123F  02BD               	subwf	___fttol@exp1,f
 12617  1240  1FBD               	btfss	___fttol@exp1,7
 12618  1241  2A5E               	goto	i1l4189
 12619  1242  083D               	movf	___fttol@exp1,w
 12620  1243  3A80               	xorlw	128
 12621  1244  3E8F               	addlw	143
 12622  1245  1803               	skipnc
 12623  1246  2A50               	goto	i1l4187
 12624  1247  3000               	movlw	0
 12625  1248  00B3               	movwf	?___fttol+3
 12626  1249  3000               	movlw	0
 12627  124A  00B2               	movwf	?___fttol+2
 12628  124B  3000               	movlw	0
 12629  124C  00B1               	movwf	?___fttol+1
 12630  124D  3000               	movlw	0
 12631  124E  00B0               	movwf	?___fttol
 12632  124F  0008               	return
 12633  1250                     i1l4187:	
 12634  1250  3001               	movlw	1
 12635  1251                     u350_25:	
 12636  1251  36BC               	lsrf	___fttol@lval+3,f
 12637  1252  0CBB               	rrf	___fttol@lval+2,f
 12638  1253  0CBA               	rrf	___fttol@lval+1,f
 12639  1254  0CB9               	rrf	___fttol@lval,f
 12640  1255  0B89               	decfsz	9,f
 12641  1256  2A51               	goto	u350_25
 12642  1257  3001               	movlw	1
 12643  1258  00B4               	movwf	??___fttol
 12644  1259  0834               	movf	??___fttol,w
 12645  125A  07BD               	addwf	___fttol@exp1,f
 12646  125B  1903               	btfsc	3,2
 12647  125C  2A77               	goto	i1l4197
 12648  125D  2A50               	goto	i1l4187
 12649  125E                     i1l4189:	
 12650  125E  3018               	movlw	24
 12651  125F  023D               	subwf	___fttol@exp1,w
 12652  1260  1C03               	skipc
 12653  1261  2A74               	goto	i1l1053
 12654  1262  3000               	movlw	0
 12655  1263  00B3               	movwf	?___fttol+3
 12656  1264  3000               	movlw	0
 12657  1265  00B2               	movwf	?___fttol+2
 12658  1266  3000               	movlw	0
 12659  1267  00B1               	movwf	?___fttol+1
 12660  1268  3000               	movlw	0
 12661  1269  00B0               	movwf	?___fttol
 12662  126A  0008               	return
 12663  126B                     i1l4195:	
 12664  126B  3001               	movlw	1
 12665  126C                     u353_25:	
 12666  126C  35B9               	lslf	___fttol@lval,f
 12667  126D  0DBA               	rlf	___fttol@lval+1,f
 12668  126E  0DBB               	rlf	___fttol@lval+2,f
 12669  126F  0DBC               	rlf	___fttol@lval+3,f
 12670  1270  0B89               	decfsz	9,f
 12671  1271  2A6C               	goto	u353_25
 12672  1272  3001               	movlw	1
 12673  1273  02BD               	subwf	___fttol@exp1,f
 12674  1274                     i1l1053:	
 12675  1274  083D               	movf	___fttol@exp1,w
 12676  1275  1D03               	btfss	3,2
 12677  1276  2A6B               	goto	i1l4195
 12678  1277                     i1l4197:	
 12679  1277  0838               	movf	___fttol@sign1,w
 12680  1278  1903               	btfsc	3,2
 12681  1279  2A85               	goto	i1l4201
 12682  127A  09B9               	comf	___fttol@lval,f
 12683  127B  09BA               	comf	___fttol@lval+1,f
 12684  127C  09BB               	comf	___fttol@lval+2,f
 12685  127D  09BC               	comf	___fttol@lval+3,f
 12686  127E  0AB9               	incf	___fttol@lval,f
 12687  127F  1903               	skipnz
 12688  1280  0ABA               	incf	___fttol@lval+1,f
 12689  1281  1903               	skipnz
 12690  1282  0ABB               	incf	___fttol@lval+2,f
 12691  1283  1903               	skipnz
 12692  1284  0ABC               	incf	___fttol@lval+3,f
 12693  1285                     i1l4201:	
 12694  1285  083C               	movf	___fttol@lval+3,w
 12695  1286  00B3               	movwf	?___fttol+3
 12696  1287  083B               	movf	___fttol@lval+2,w
 12697  1288  00B2               	movwf	?___fttol+2
 12698  1289  083A               	movf	___fttol@lval+1,w
 12699  128A  00B1               	movwf	?___fttol+1
 12700  128B  0839               	movf	___fttol@lval,w
 12701  128C  00B0               	movwf	?___fttol
 12702  128D  0008               	return
 12703  128E                     __end_of___fttol:	
 12704                           
 12705                           	psect	text32
 12706  0C09                     __ptext32:	
 12707 ;; *************** function ___ftmul *****************
 12708 ;; Defined at:
 12709 ;;		line 62 in file "C:\Program Files (x86)\Microchip\xc8\v1.35\sources\common\ftmul.c"
 12710 ;; Parameters:    Size  Location     Type
 12711 ;;  f1              3    0[BANK0 ] float 
 12712 ;;  f2              3    3[BANK0 ] float 
 12713 ;; Auto vars:     Size  Location     Type
 12714 ;;  f3_as_produc    3   11[BANK0 ] unsigned um
 12715 ;;  sign            1   15[BANK0 ] unsigned char 
 12716 ;;  cntr            1   14[BANK0 ] unsigned char 
 12717 ;;  exp             1   10[BANK0 ] unsigned char 
 12718 ;; Return value:  Size  Location     Type
 12719 ;;                  3    0[BANK0 ] float 
 12720 ;; Registers used:
 12721 ;;		wreg, status,2, status,0, pclath, cstack
 12722 ;; Tracked objects:
 12723 ;;		On entry : 0/0
 12724 ;;		On exit  : 0/0
 12725 ;;		Unchanged: 0/0
 12726 ;; Data sizes:     COMMON   BANK0   BANK1   BANK2   BANK3   BANK4   BANK5   BANK6   BANK7   BANK8   BANK9  BANK10  BANK1
      +1  BANK12  BANK13  BANK14  BANK15  BANK16  BANK17  BANK18  BANK19  BANK20  BANK21  BANK22  BANK23  BANK24  BANK25
 12727 ;;      Params:         0       6       0       0       0       0       0       0       0       0       0       0       
      +0       0       0       0       0       0       0       0       0       0       0       0       0       0       0
 12728 ;;      Locals:         0       6       0       0       0       0       0       0       0       0       0       0       
      +0       0       0       0       0       0       0       0       0       0       0       0       0       0       0
 12729 ;;      Temps:          0       4       0       0       0       0       0       0       0       0       0       0       
      +0       0       0       0       0       0       0       0       0       0       0       0       0       0       0
 12730 ;;      Totals:         0      16       0       0       0       0       0       0       0       0       0       0       
      +0       0       0       0       0       0       0       0       0       0       0       0       0       0       0
 12731 ;;Total ram usage:       16 bytes
 12732 ;; Hardware stack levels used:    1
 12733 ;; Hardware stack levels required when called:    1
 12734 ;; This function calls:
 12735 ;;		___ftpack
 12736 ;; This function is called by:
 12737 ;;		_isr
 12738 ;; This function uses a non-reentrant model
 12739 ;;
 12740                           
 12741                           
 12742                           ;psect for function ___ftmul
 12743  0C09                     ___ftmul:	
 12744                           
 12745                           ;incstack = 0
 12746                           ; Regs used in ___ftmul: [wreg+status,2+status,0+pclath+cstack]
 12747  0C09  0020               	movlb	0	; select bank0
 12748  0C0A  0820               	movf	___ftmul@f1,w
 12749  0C0B  00A6               	movwf	??___ftmul
 12750  0C0C  0821               	movf	___ftmul@f1+1,w
 12751  0C0D  00A7               	movwf	??___ftmul+1
 12752  0C0E  0822               	movf	___ftmul@f1+2,w
 12753  0C0F  00A8               	movwf	??___ftmul+2
 12754  0C10  1003               	clrc
 12755  0C11  0D27               	rlf	??___ftmul+1,w
 12756  0C12  0D28               	rlf	??___ftmul+2,w
 12757  0C13  00A9               	movwf	??___ftmul+3
 12758  0C14  0829               	movf	??___ftmul+3,w
 12759  0C15  00AA               	movwf	___ftmul@exp
 12760  0C16  082A               	movf	___ftmul@exp,w
 12761  0C17  1D03               	btfss	3,2
 12762  0C18  2C20               	goto	i1l4119
 12763  0C19  3000               	movlw	0
 12764  0C1A  00A0               	movwf	?___ftmul
 12765  0C1B  3000               	movlw	0
 12766  0C1C  00A1               	movwf	?___ftmul+1
 12767  0C1D  3000               	movlw	0
 12768  0C1E  00A2               	movwf	?___ftmul+2
 12769  0C1F  0008               	return
 12770  0C20                     i1l4119:	
 12771  0C20  0823               	movf	___ftmul@f2,w
 12772  0C21  00A6               	movwf	??___ftmul
 12773  0C22  0824               	movf	___ftmul@f2+1,w
 12774  0C23  00A7               	movwf	??___ftmul+1
 12775  0C24  0825               	movf	___ftmul@f2+2,w
 12776  0C25  00A8               	movwf	??___ftmul+2
 12777  0C26  1003               	clrc
 12778  0C27  0D27               	rlf	??___ftmul+1,w
 12779  0C28  0D28               	rlf	??___ftmul+2,w
 12780  0C29  00A9               	movwf	??___ftmul+3
 12781  0C2A  0829               	movf	??___ftmul+3,w
 12782  0C2B  00AF               	movwf	___ftmul@sign
 12783  0C2C  082F               	movf	___ftmul@sign,w
 12784  0C2D  1D03               	btfss	3,2
 12785  0C2E  2C36               	goto	i1l4125
 12786  0C2F  3000               	movlw	0
 12787  0C30  00A0               	movwf	?___ftmul
 12788  0C31  3000               	movlw	0
 12789  0C32  00A1               	movwf	?___ftmul+1
 12790  0C33  3000               	movlw	0
 12791  0C34  00A2               	movwf	?___ftmul+2
 12792  0C35  0008               	return
 12793  0C36                     i1l4125:	
 12794  0C36  082F               	movf	___ftmul@sign,w
 12795  0C37  3E7B               	addlw	123
 12796  0C38  00A6               	movwf	??___ftmul
 12797  0C39  0826               	movf	??___ftmul,w
 12798  0C3A  07AA               	addwf	___ftmul@exp,f
 12799  0C3B  0820               	movf	___ftmul@f1,w
 12800  0C3C  00A6               	movwf	??___ftmul
 12801  0C3D  0821               	movf	___ftmul@f1+1,w
 12802  0C3E  00A7               	movwf	??___ftmul+1
 12803  0C3F  0822               	movf	___ftmul@f1+2,w
 12804  0C40  00A8               	movwf	??___ftmul+2
 12805  0C41  3010               	movlw	16
 12806  0C42                     u336_25:	
 12807  0C42  36A8               	lsrf	??___ftmul+2,f
 12808  0C43  0CA7               	rrf	??___ftmul+1,f
 12809  0C44  0CA6               	rrf	??___ftmul,f
 12810  0C45  0B89               	decfsz	9,f
 12811  0C46  2C42               	goto	u336_25
 12812  0C47  0826               	movf	??___ftmul,w
 12813  0C48  00A9               	movwf	??___ftmul+3
 12814  0C49  0829               	movf	??___ftmul+3,w
 12815  0C4A  00AF               	movwf	___ftmul@sign
 12816  0C4B  0823               	movf	___ftmul@f2,w
 12817  0C4C  00A6               	movwf	??___ftmul
 12818  0C4D  0824               	movf	___ftmul@f2+1,w
 12819  0C4E  00A7               	movwf	??___ftmul+1
 12820  0C4F  0825               	movf	___ftmul@f2+2,w
 12821  0C50  00A8               	movwf	??___ftmul+2
 12822  0C51  3010               	movlw	16
 12823  0C52                     u337_25:	
 12824  0C52  36A8               	lsrf	??___ftmul+2,f
 12825  0C53  0CA7               	rrf	??___ftmul+1,f
 12826  0C54  0CA6               	rrf	??___ftmul,f
 12827  0C55  0B89               	decfsz	9,f
 12828  0C56  2C52               	goto	u337_25
 12829  0C57  0826               	movf	??___ftmul,w
 12830  0C58  00A9               	movwf	??___ftmul+3
 12831  0C59  0829               	movf	??___ftmul+3,w
 12832  0C5A  06AF               	xorwf	___ftmul@sign,f
 12833  0C5B  3080               	movlw	128
 12834  0C5C  00A6               	movwf	??___ftmul
 12835  0C5D  0826               	movf	??___ftmul,w
 12836  0C5E  05AF               	andwf	___ftmul@sign,f
 12837  0C5F  17A1               	bsf	___ftmul@f1+1,7
 12838  0C60  17A4               	bsf	___ftmul@f2+1,7
 12839  0C61  30FF               	movlw	255
 12840  0C62  05A3               	andwf	___ftmul@f2,f
 12841  0C63  30FF               	movlw	255
 12842  0C64  05A4               	andwf	___ftmul@f2+1,f
 12843  0C65  3000               	movlw	0
 12844  0C66  05A5               	andwf	___ftmul@f2+2,f
 12845  0C67  3000               	movlw	0
 12846  0C68  00AB               	movwf	___ftmul@f3_as_product
 12847  0C69  3000               	movlw	0
 12848  0C6A  00AC               	movwf	___ftmul@f3_as_product+1
 12849  0C6B  3000               	movlw	0
 12850  0C6C  00AD               	movwf	___ftmul@f3_as_product+2
 12851  0C6D  3007               	movlw	7
 12852  0C6E  00A6               	movwf	??___ftmul
 12853  0C6F  0826               	movf	??___ftmul,w
 12854  0C70  00AE               	movwf	___ftmul@cntr
 12855  0C71                     i1l4137:	
 12856  0C71  1C20               	btfss	___ftmul@f1,0
 12857  0C72  2C79               	goto	i1l4141
 12858  0C73  0823               	movf	___ftmul@f2,w
 12859  0C74  07AB               	addwf	___ftmul@f3_as_product,f
 12860  0C75  0824               	movf	___ftmul@f2+1,w
 12861  0C76  3DAC               	addwfc	___ftmul@f3_as_product+1,f
 12862  0C77  0825               	movf	___ftmul@f2+2,w
 12863  0C78  3DAD               	addwfc	___ftmul@f3_as_product+2,f
 12864  0C79                     i1l4141:	
 12865  0C79  3001               	movlw	1
 12866  0C7A                     u339_25:	
 12867  0C7A  36A2               	lsrf	___ftmul@f1+2,f
 12868  0C7B  0CA1               	rrf	___ftmul@f1+1,f
 12869  0C7C  0CA0               	rrf	___ftmul@f1,f
 12870  0C7D  0B89               	decfsz	9,f
 12871  0C7E  2C7A               	goto	u339_25
 12872  0C7F  3001               	movlw	1
 12873  0C80                     u340_25:	
 12874  0C80  35A3               	lslf	___ftmul@f2,f
 12875  0C81  0DA4               	rlf	___ftmul@f2+1,f
 12876  0C82  0DA5               	rlf	___ftmul@f2+2,f
 12877  0C83  0B89               	decfsz	9,f
 12878  0C84  2C80               	goto	u340_25
 12879  0C85  3001               	movlw	1
 12880  0C86  02AE               	subwf	___ftmul@cntr,f
 12881  0C87  1D03               	btfss	3,2
 12882  0C88  2C71               	goto	i1l4137
 12883  0C89  3009               	movlw	9
 12884  0C8A  00A6               	movwf	??___ftmul
 12885  0C8B  0826               	movf	??___ftmul,w
 12886  0C8C  00AE               	movwf	___ftmul@cntr
 12887  0C8D                     i1l4149:	
 12888  0C8D  1C20               	btfss	___ftmul@f1,0
 12889  0C8E  2C95               	goto	i1l4153
 12890  0C8F  0823               	movf	___ftmul@f2,w
 12891  0C90  07AB               	addwf	___ftmul@f3_as_product,f
 12892  0C91  0824               	movf	___ftmul@f2+1,w
 12893  0C92  3DAC               	addwfc	___ftmul@f3_as_product+1,f
 12894  0C93  0825               	movf	___ftmul@f2+2,w
 12895  0C94  3DAD               	addwfc	___ftmul@f3_as_product+2,f
 12896  0C95                     i1l4153:	
 12897  0C95  3001               	movlw	1
 12898  0C96                     u343_25:	
 12899  0C96  36A2               	lsrf	___ftmul@f1+2,f
 12900  0C97  0CA1               	rrf	___ftmul@f1+1,f
 12901  0C98  0CA0               	rrf	___ftmul@f1,f
 12902  0C99  0B89               	decfsz	9,f
 12903  0C9A  2C96               	goto	u343_25
 12904  0C9B  3001               	movlw	1
 12905  0C9C                     u344_25:	
 12906  0C9C  36AD               	lsrf	___ftmul@f3_as_product+2,f
 12907  0C9D  0CAC               	rrf	___ftmul@f3_as_product+1,f
 12908  0C9E  0CAB               	rrf	___ftmul@f3_as_product,f
 12909  0C9F  0B89               	decfsz	9,f
 12910  0CA0  2C9C               	goto	u344_25
 12911  0CA1  3001               	movlw	1
 12912  0CA2  02AE               	subwf	___ftmul@cntr,f
 12913  0CA3  1D03               	btfss	3,2
 12914  0CA4  2C8D               	goto	i1l4149
 12915  0CA5  082B               	movf	___ftmul@f3_as_product,w
 12916  0CA6  00F0               	movwf	___ftpack@arg
 12917  0CA7  082C               	movf	___ftmul@f3_as_product+1,w
 12918  0CA8  00F1               	movwf	___ftpack@arg+1
 12919  0CA9  082D               	movf	___ftmul@f3_as_product+2,w
 12920  0CAA  00F2               	movwf	___ftpack@arg+2
 12921  0CAB  082A               	movf	___ftmul@exp,w
 12922  0CAC  00A6               	movwf	??___ftmul
 12923  0CAD  0826               	movf	??___ftmul,w
 12924  0CAE  00F3               	movwf	___ftpack@exp
 12925  0CAF  082F               	movf	___ftmul@sign,w
 12926  0CB0  00A7               	movwf	??___ftmul+1
 12927  0CB1  0827               	movf	??___ftmul+1,w
 12928  0CB2  00F4               	movwf	___ftpack@sign
 12929  0CB3  3191  21A3         	fcall	___ftpack
 12930  0CB5  0870               	movf	?___ftpack,w
 12931  0CB6  0020               	movlb	0	; select bank0
 12932  0CB7  00A0               	movwf	?___ftmul
 12933  0CB8  0871               	movf	?___ftpack+1,w
 12934  0CB9  00A1               	movwf	?___ftmul+1
 12935  0CBA  0872               	movf	?___ftpack+2,w
 12936  0CBB  00A2               	movwf	?___ftmul+2
 12937  0CBC  0008               	return
 12938  0CBD                     __end_of___ftmul:	
 12939                           
 12940                           	psect	text33
 12941  1116                     __ptext33:	
 12942 ;; *************** function ___ftge *****************
 12943 ;; Defined at:
 12944 ;;		line 4 in file "C:\Program Files (x86)\Microchip\xc8\v1.35\sources\common\ftge.c"
 12945 ;; Parameters:    Size  Location     Type
 12946 ;;  ff1             3   16[BANK0 ] float 
 12947 ;;  ff2             3   19[BANK0 ] float 
 12948 ;; Auto vars:     Size  Location     Type
 12949 ;;		None
 12950 ;; Return value:  Size  Location     Type
 12951 ;;		None               void
 12952 ;; Registers used:
 12953 ;;		wreg, status,2, status,0
 12954 ;; Tracked objects:
 12955 ;;		On entry : 0/0
 12956 ;;		On exit  : 0/0
 12957 ;;		Unchanged: 0/0
 12958 ;; Data sizes:     COMMON   BANK0   BANK1   BANK2   BANK3   BANK4   BANK5   BANK6   BANK7   BANK8   BANK9  BANK10  BANK1
      +1  BANK12  BANK13  BANK14  BANK15  BANK16  BANK17  BANK18  BANK19  BANK20  BANK21  BANK22  BANK23  BANK24  BANK25
 12959 ;;      Params:         0       6       0       0       0       0       0       0       0       0       0       0       
      +0       0       0       0       0       0       0       0       0       0       0       0       0       0       0
 12960 ;;      Locals:         0       0       0       0       0       0       0       0       0       0       0       0       
      +0       0       0       0       0       0       0       0       0       0       0       0       0       0       0
 12961 ;;      Temps:          0       3       0       0       0       0       0       0       0       0       0       0       
      +0       0       0       0       0       0       0       0       0       0       0       0       0       0       0
 12962 ;;      Totals:         0       9       0       0       0       0       0       0       0       0       0       0       
      +0       0       0       0       0       0       0       0       0       0       0       0       0       0       0
 12963 ;;Total ram usage:        9 bytes
 12964 ;; Hardware stack levels used:    1
 12965 ;; This function calls:
 12966 ;;		Nothing
 12967 ;; This function is called by:
 12968 ;;		_isr
 12969 ;; This function uses a non-reentrant model
 12970 ;;
 12971                           
 12972                           
 12973                           ;psect for function ___ftge
 12974  1116                     ___ftge:	
 12975                           
 12976                           ;incstack = 0
 12977                           ; Regs used in ___ftge: [wreg+status,2+status,0]
 12978  1116  0020               	movlb	0	; select bank0
 12979  1117  1FB2               	btfss	___ftge@ff1+2,7
 12980  1118  292D               	goto	i1l4097
 12981  1119  0930               	comf	___ftge@ff1,w
 12982  111A  00B6               	movwf	??___ftge
 12983  111B  0931               	comf	___ftge@ff1+1,w
 12984  111C  00B7               	movwf	??___ftge+1
 12985  111D  0932               	comf	___ftge@ff1+2,w
 12986  111E  00B8               	movwf	??___ftge+2
 12987  111F  0AB6               	incf	??___ftge,f
 12988  1120  1903               	skipnz
 12989  1121  0AB7               	incf	??___ftge+1,f
 12990  1122  1903               	skipnz
 12991  1123  0AB8               	incf	??___ftge+2,f
 12992  1124  3000               	movlw	0
 12993  1125  0736               	addwf	??___ftge,w
 12994  1126  00B0               	movwf	___ftge@ff1
 12995  1127  3000               	movlw	0
 12996  1128  3D37               	addwfc	??___ftge+1,w
 12997  1129  00B1               	movwf	___ftge@ff1+1
 12998  112A  3080               	movlw	128
 12999  112B  3D38               	addwfc	??___ftge+2,w
 13000  112C  00B2               	movwf	___ftge@ff1+2
 13001  112D                     i1l4097:	
 13002  112D  1FB5               	btfss	___ftge@ff2+2,7
 13003  112E  2943               	goto	i1l4101
 13004  112F  0933               	comf	___ftge@ff2,w
 13005  1130  00B6               	movwf	??___ftge
 13006  1131  0934               	comf	___ftge@ff2+1,w
 13007  1132  00B7               	movwf	??___ftge+1
 13008  1133  0935               	comf	___ftge@ff2+2,w
 13009  1134  00B8               	movwf	??___ftge+2
 13010  1135  0AB6               	incf	??___ftge,f
 13011  1136  1903               	skipnz
 13012  1137  0AB7               	incf	??___ftge+1,f
 13013  1138  1903               	skipnz
 13014  1139  0AB8               	incf	??___ftge+2,f
 13015  113A  3000               	movlw	0
 13016  113B  0736               	addwf	??___ftge,w
 13017  113C  00B3               	movwf	___ftge@ff2
 13018  113D  3000               	movlw	0
 13019  113E  3D37               	addwfc	??___ftge+1,w
 13020  113F  00B4               	movwf	___ftge@ff2+1
 13021  1140  3080               	movlw	128
 13022  1141  3D38               	addwfc	??___ftge+2,w
 13023  1142  00B5               	movwf	___ftge@ff2+2
 13024  1143                     i1l4101:	
 13025  1143  3080               	movlw	128
 13026  1144  06B2               	xorwf	___ftge@ff1+2,f
 13027  1145  3080               	movlw	128
 13028  1146  06B5               	xorwf	___ftge@ff2+2,f
 13029  1147  0835               	movf	___ftge@ff2+2,w
 13030  1148  0232               	subwf	___ftge@ff1+2,w
 13031  1149  1D03               	skipz
 13032  114A  0008               	return
 13033  114B  0834               	movf	___ftge@ff2+1,w
 13034  114C  0231               	subwf	___ftge@ff1+1,w
 13035  114D  1D03               	skipz
 13036  114E  0008               	return
 13037  114F  0833               	movf	___ftge@ff2,w
 13038  1150  0230               	subwf	___ftge@ff1,w
 13039  1151  0008               	return
 13040  1152                     __end_of___ftge:	
 13041                           
 13042                           	psect	text34
 13043  10BD                     __ptext34:	
 13044 ;; *************** function ___awtoft *****************
 13045 ;; Defined at:
 13046 ;;		line 32 in file "C:\Program Files (x86)\Microchip\xc8\v1.35\sources\common\awtoft.c"
 13047 ;; Parameters:    Size  Location     Type
 13048 ;;  c               2    8[COMMON] int 
 13049 ;; Auto vars:     Size  Location     Type
 13050 ;;  sign            1   13[COMMON] unsigned char 
 13051 ;; Return value:  Size  Location     Type
 13052 ;;                  3    8[COMMON] float 
 13053 ;; Registers used:
 13054 ;;		wreg, status,2, status,0, pclath, cstack
 13055 ;; Tracked objects:
 13056 ;;		On entry : 0/0
 13057 ;;		On exit  : 0/0
 13058 ;;		Unchanged: 0/0
 13059 ;; Data sizes:     COMMON   BANK0   BANK1   BANK2   BANK3   BANK4   BANK5   BANK6   BANK7   BANK8   BANK9  BANK10  BANK1
      +1  BANK12  BANK13  BANK14  BANK15  BANK16  BANK17  BANK18  BANK19  BANK20  BANK21  BANK22  BANK23  BANK24  BANK25
 13060 ;;      Params:         3       0       0       0       0       0       0       0       0       0       0       0       
      +0       0       0       0       0       0       0       0       0       0       0       0       0       0       0
 13061 ;;      Locals:         1       0       0       0       0       0       0       0       0       0       0       0       
      +0       0       0       0       0       0       0       0       0       0       0       0       0       0       0
 13062 ;;      Temps:          2       0       0       0       0       0       0       0       0       0       0       0       
      +0       0       0       0       0       0       0       0       0       0       0       0       0       0       0
 13063 ;;      Totals:         6       0       0       0       0       0       0       0       0       0       0       0       
      +0       0       0       0       0       0       0       0       0       0       0       0       0       0       0
 13064 ;;Total ram usage:        6 bytes
 13065 ;; Hardware stack levels used:    1
 13066 ;; Hardware stack levels required when called:    1
 13067 ;; This function calls:
 13068 ;;		___ftpack
 13069 ;; This function is called by:
 13070 ;;		_isr
 13071 ;; This function uses a non-reentrant model
 13072 ;;
 13073                           
 13074                           
 13075                           ;psect for function ___awtoft
 13076  10BD                     ___awtoft:	
 13077                           
 13078                           ;incstack = 0
 13079                           ; Regs used in ___awtoft: [wreg+status,2+status,0+pclath+cstack]
 13080  10BD  01FD               	clrf	___awtoft@sign
 13081  10BE  1FF9               	btfss	___awtoft@c+1,7
 13082  10BF  28C7               	goto	i1l4089
 13083  10C0  09F8               	comf	___awtoft@c,f
 13084  10C1  09F9               	comf	___awtoft@c+1,f
 13085  10C2  0AF8               	incf	___awtoft@c,f
 13086  10C3  1903               	skipnz
 13087  10C4  0AF9               	incf	___awtoft@c+1,f
 13088  10C5  01FD               	clrf	___awtoft@sign
 13089  10C6  0AFD               	incf	___awtoft@sign,f
 13090  10C7                     i1l4089:	
 13091  10C7  0878               	movf	___awtoft@c,w
 13092  10C8  00F0               	movwf	___ftpack@arg
 13093  10C9  0879               	movf	___awtoft@c+1,w
 13094  10CA  00F1               	movwf	___ftpack@arg+1
 13095  10CB  01F2               	clrf	___ftpack@arg+2
 13096  10CC  308E               	movlw	142
 13097  10CD  00FB               	movwf	??___awtoft
 13098  10CE  087B               	movf	??___awtoft,w
 13099  10CF  00F3               	movwf	___ftpack@exp
 13100  10D0  087D               	movf	___awtoft@sign,w
 13101  10D1  00FC               	movwf	??___awtoft+1
 13102  10D2  087C               	movf	??___awtoft+1,w
 13103  10D3  00F4               	movwf	___ftpack@sign
 13104  10D4  3191  21A3         	fcall	___ftpack
 13105  10D6  0870               	movf	?___ftpack,w
 13106  10D7  00F8               	movwf	?___awtoft
 13107  10D8  0871               	movf	?___ftpack+1,w
 13108  10D9  00F9               	movwf	?___awtoft+1
 13109  10DA  0872               	movf	?___ftpack+2,w
 13110  10DB  00FA               	movwf	?___awtoft+2
 13111  10DC  0008               	return
 13112  10DD                     __end_of___awtoft:	
 13113                           
 13114                           	psect	text35
 13115  11A3                     __ptext35:	
 13116 ;; *************** function ___ftpack *****************
 13117 ;; Defined at:
 13118 ;;		line 62 in file "C:\Program Files (x86)\Microchip\xc8\v1.35\sources\common\float.c"
 13119 ;; Parameters:    Size  Location     Type
 13120 ;;  arg             3    0[COMMON] unsigned um
 13121 ;;  exp             1    3[COMMON] unsigned char 
 13122 ;;  sign            1    4[COMMON] unsigned char 
 13123 ;; Auto vars:     Size  Location     Type
 13124 ;;		None
 13125 ;; Return value:  Size  Location     Type
 13126 ;;                  3    0[COMMON] float 
 13127 ;; Registers used:
 13128 ;;		wreg, status,2, status,0
 13129 ;; Tracked objects:
 13130 ;;		On entry : 0/0
 13131 ;;		On exit  : 0/0
 13132 ;;		Unchanged: 0/0
 13133 ;; Data sizes:     COMMON   BANK0   BANK1   BANK2   BANK3   BANK4   BANK5   BANK6   BANK7   BANK8   BANK9  BANK10  BANK1
      +1  BANK12  BANK13  BANK14  BANK15  BANK16  BANK17  BANK18  BANK19  BANK20  BANK21  BANK22  BANK23  BANK24  BANK25
 13134 ;;      Params:         5       0       0       0       0       0       0       0       0       0       0       0       
      +0       0       0       0       0       0       0       0       0       0       0       0       0       0       0
 13135 ;;      Locals:         0       0       0       0       0       0       0       0       0       0       0       0       
      +0       0       0       0       0       0       0       0       0       0       0       0       0       0       0
 13136 ;;      Temps:          3       0       0       0       0       0       0       0       0       0       0       0       
      +0       0       0       0       0       0       0       0       0       0       0       0       0       0       0
 13137 ;;      Totals:         8       0       0       0       0       0       0       0       0       0       0       0       
      +0       0       0       0       0       0       0       0       0       0       0       0       0       0       0
 13138 ;;Total ram usage:        8 bytes
 13139 ;; Hardware stack levels used:    1
 13140 ;; This function calls:
 13141 ;;		Nothing
 13142 ;; This function is called by:
 13143 ;;		___awtoft
 13144 ;;		___ftmul
 13145 ;; This function uses a non-reentrant model
 13146 ;;
 13147                           
 13148                           
 13149                           ;psect for function ___ftpack
 13150  11A3                     ___ftpack:	
 13151                           
 13152                           ;incstack = 0
 13153                           ; Regs used in ___ftpack: [wreg+status,2+status,0]
 13154  11A3  0873               	movf	___ftpack@exp,w
 13155  11A4  1903               	btfsc	3,2
 13156  11A5  29AB               	goto	i1l3157
 13157  11A6  0872               	movf	___ftpack@arg+2,w
 13158  11A7  0471               	iorwf	___ftpack@arg+1,w
 13159  11A8  0470               	iorwf	___ftpack@arg,w
 13160  11A9  1D03               	skipz
 13161  11AA  29BC               	goto	i1l3163
 13162  11AB                     i1l3157:	
 13163  11AB  3000               	movlw	0
 13164  11AC  00F0               	movwf	?___ftpack
 13165  11AD  3000               	movlw	0
 13166  11AE  00F1               	movwf	?___ftpack+1
 13167  11AF  3000               	movlw	0
 13168  11B0  00F2               	movwf	?___ftpack+2
 13169  11B1  0008               	return
 13170  11B2                     i1l3161:	
 13171  11B2  3001               	movlw	1
 13172  11B3  00F5               	movwf	??___ftpack
 13173  11B4  0875               	movf	??___ftpack,w
 13174  11B5  07F3               	addwf	___ftpack@exp,f
 13175  11B6  3001               	movlw	1
 13176  11B7                     u238_25:	
 13177  11B7  36F2               	lsrf	___ftpack@arg+2,f
 13178  11B8  0CF1               	rrf	___ftpack@arg+1,f
 13179  11B9  0CF0               	rrf	___ftpack@arg,f
 13180  11BA  0B89               	decfsz	9,f
 13181  11BB  29B7               	goto	u238_25
 13182  11BC                     i1l3163:	
 13183  11BC  30FE               	movlw	254
 13184  11BD  0572               	andwf	___ftpack@arg+2,w
 13185  11BE  1903               	btfsc	3,2
 13186  11BF  29D5               	goto	i1l962
 13187  11C0  29B2               	goto	i1l3161
 13188  11C1                     i1l3165:	
 13189  11C1  3001               	movlw	1
 13190  11C2  00F5               	movwf	??___ftpack
 13191  11C3  0875               	movf	??___ftpack,w
 13192  11C4  07F3               	addwf	___ftpack@exp,f
 13193  11C5  3001               	movlw	1
 13194  11C6  07F0               	addwf	___ftpack@arg,f
 13195  11C7  3000               	movlw	0
 13196  11C8  1803               	skipnc
 13197  11C9  3001               	movlw	1
 13198  11CA  07F1               	addwf	___ftpack@arg+1,f
 13199  11CB  3000               	movlw	0
 13200  11CC  1803               	skipnc
 13201  11CD  3001               	movlw	1
 13202  11CE  07F2               	addwf	___ftpack@arg+2,f
 13203  11CF  3001               	movlw	1
 13204  11D0                     u240_25:	
 13205  11D0  36F2               	lsrf	___ftpack@arg+2,f
 13206  11D1  0CF1               	rrf	___ftpack@arg+1,f
 13207  11D2  0CF0               	rrf	___ftpack@arg,f
 13208  11D3  0B89               	decfsz	9,f
 13209  11D4  29D0               	goto	u240_25
 13210  11D5                     i1l962:	
 13211  11D5  30FF               	movlw	255
 13212  11D6  0572               	andwf	___ftpack@arg+2,w
 13213  11D7  1903               	btfsc	3,2
 13214  11D8  29E2               	goto	i1l3173
 13215  11D9  29C1               	goto	i1l3165
 13216  11DA                     i1l3171:	
 13217  11DA  3001               	movlw	1
 13218  11DB  02F3               	subwf	___ftpack@exp,f
 13219  11DC  3001               	movlw	1
 13220  11DD                     u242_25:	
 13221  11DD  35F0               	lslf	___ftpack@arg,f
 13222  11DE  0DF1               	rlf	___ftpack@arg+1,f
 13223  11DF  0DF2               	rlf	___ftpack@arg+2,f
 13224  11E0  0B89               	decfsz	9,f
 13225  11E1  29DD               	goto	u242_25
 13226  11E2                     i1l3173:	
 13227  11E2  1BF1               	btfsc	___ftpack@arg+1,7
 13228  11E3  29E8               	goto	i1l969
 13229  11E4  3002               	movlw	2
 13230  11E5  0273               	subwf	___ftpack@exp,w
 13231  11E6  1803               	skipnc
 13232  11E7  29DA               	goto	i1l3171
 13233  11E8                     i1l969:	
 13234  11E8  1873               	btfsc	___ftpack@exp,0
 13235  11E9  29F0               	goto	i1l970
 13236  11EA  30FF               	movlw	255
 13237  11EB  05F0               	andwf	___ftpack@arg,f
 13238  11EC  307F               	movlw	127
 13239  11ED  05F1               	andwf	___ftpack@arg+1,f
 13240  11EE  30FF               	movlw	255
 13241  11EF  05F2               	andwf	___ftpack@arg+2,f
 13242  11F0                     i1l970:	
 13243  11F0  1003               	clrc
 13244  11F1  0CF3               	rrf	___ftpack@exp,f
 13245  11F2  0873               	movf	___ftpack@exp,w
 13246  11F3  00F5               	movwf	??___ftpack
 13247  11F4  01F6               	clrf	??___ftpack+1
 13248  11F5  01F7               	clrf	??___ftpack+2
 13249  11F6  3010               	movlw	16
 13250  11F7                     u246_25:	
 13251  11F7  35F5               	lslf	??___ftpack,f
 13252  11F8  0DF6               	rlf	??___ftpack+1,f
 13253  11F9  0DF7               	rlf	??___ftpack+2,f
 13254  11FA  0B89               	decfsz	9,f
 13255  11FB  29F7               	goto	u246_25
 13256  11FC  0875               	movf	??___ftpack,w
 13257  11FD  04F0               	iorwf	___ftpack@arg,f
 13258  11FE  0876               	movf	??___ftpack+1,w
 13259  11FF  04F1               	iorwf	___ftpack@arg+1,f
 13260  1200  0877               	movf	??___ftpack+2,w
 13261  1201  04F2               	iorwf	___ftpack@arg+2,f
 13262  1202  0874               	movf	___ftpack@sign,w
 13263  1203  1903               	btfsc	3,2
 13264  1204  0008               	return
 13265  1205  17F2               	bsf	___ftpack@arg+2,7
 13266  1206  0008               	return
 13267  1207                     __end_of___ftpack:	
 13268                           
 13269                           	psect	text36
 13270  1152                     __ptext36:	
 13271 ;; *************** function ___awdiv *****************
 13272 ;; Defined at:
 13273 ;;		line 6 in file "C:\Program Files (x86)\Microchip\xc8\v1.35\sources\common\awdiv.c"
 13274 ;; Parameters:    Size  Location     Type
 13275 ;;  divisor         2    0[COMMON] int 
 13276 ;;  dividend        2    2[COMMON] int 
 13277 ;; Auto vars:     Size  Location     Type
 13278 ;;  quotient        2    7[COMMON] int 
 13279 ;;  sign            1    6[COMMON] unsigned char 
 13280 ;;  counter         1    5[COMMON] unsigned char 
 13281 ;; Return value:  Size  Location     Type
 13282 ;;                  2    0[COMMON] int 
 13283 ;; Registers used:
 13284 ;;		wreg, status,2, status,0
 13285 ;; Tracked objects:
 13286 ;;		On entry : 0/0
 13287 ;;		On exit  : 0/0
 13288 ;;		Unchanged: 0/0
 13289 ;; Data sizes:     COMMON   BANK0   BANK1   BANK2   BANK3   BANK4   BANK5   BANK6   BANK7   BANK8   BANK9  BANK10  BANK1
      +1  BANK12  BANK13  BANK14  BANK15  BANK16  BANK17  BANK18  BANK19  BANK20  BANK21  BANK22  BANK23  BANK24  BANK25
 13290 ;;      Params:         4       0       0       0       0       0       0       0       0       0       0       0       
      +0       0       0       0       0       0       0       0       0       0       0       0       0       0       0
 13291 ;;      Locals:         4       0       0       0       0       0       0       0       0       0       0       0       
      +0       0       0       0       0       0       0       0       0       0       0       0       0       0       0
 13292 ;;      Temps:          1       0       0       0       0       0       0       0       0       0       0       0       
      +0       0       0       0       0       0       0       0       0       0       0       0       0       0       0
 13293 ;;      Totals:         9       0       0       0       0       0       0       0       0       0       0       0       
      +0       0       0       0       0       0       0       0       0       0       0       0       0       0       0
 13294 ;;Total ram usage:        9 bytes
 13295 ;; Hardware stack levels used:    1
 13296 ;; This function calls:
 13297 ;;		Nothing
 13298 ;; This function is called by:
 13299 ;;		_isr
 13300 ;; This function uses a non-reentrant model
 13301 ;;
 13302                           
 13303                           
 13304                           ;psect for function ___awdiv
 13305  1152                     ___awdiv:	
 13306                           
 13307                           ;incstack = 0
 13308                           ; Regs used in ___awdiv: [wreg+status,2+status,0]
 13309  1152  01F6               	clrf	___awdiv@sign
 13310  1153  1FF1               	btfss	___awdiv@divisor+1,7
 13311  1154  295C               	goto	i1l4045
 13312  1155  09F0               	comf	___awdiv@divisor,f
 13313  1156  09F1               	comf	___awdiv@divisor+1,f
 13314  1157  0AF0               	incf	___awdiv@divisor,f
 13315  1158  1903               	skipnz
 13316  1159  0AF1               	incf	___awdiv@divisor+1,f
 13317  115A  01F6               	clrf	___awdiv@sign
 13318  115B  0AF6               	incf	___awdiv@sign,f
 13319  115C                     i1l4045:	
 13320  115C  1FF3               	btfss	___awdiv@dividend+1,7
 13321  115D  2967               	goto	i1l4051
 13322  115E  09F2               	comf	___awdiv@dividend,f
 13323  115F  09F3               	comf	___awdiv@dividend+1,f
 13324  1160  0AF2               	incf	___awdiv@dividend,f
 13325  1161  1903               	skipnz
 13326  1162  0AF3               	incf	___awdiv@dividend+1,f
 13327  1163  3001               	movlw	1
 13328  1164  00F4               	movwf	??___awdiv
 13329  1165  0874               	movf	??___awdiv,w
 13330  1166  06F6               	xorwf	___awdiv@sign,f
 13331  1167                     i1l4051:	
 13332  1167  01F7               	clrf	___awdiv@quotient
 13333  1168  01F8               	clrf	___awdiv@quotient+1
 13334  1169  0870               	movf	___awdiv@divisor,w
 13335  116A  0471               	iorwf	___awdiv@divisor+1,w
 13336  116B  1903               	btfsc	3,2
 13337  116C  2996               	goto	i1l4073
 13338  116D  01F5               	clrf	___awdiv@counter
 13339  116E  0AF5               	incf	___awdiv@counter,f
 13340  116F                     i1l4061:	
 13341  116F  1BF1               	btfsc	___awdiv@divisor+1,7
 13342  1170  297B               	goto	i1l4063
 13343  1171  3001               	movlw	1
 13344  1172                     u323_25:	
 13345  1172  35F0               	lslf	___awdiv@divisor,f
 13346  1173  0DF1               	rlf	___awdiv@divisor+1,f
 13347  1174  0B89               	decfsz	9,f
 13348  1175  2972               	goto	u323_25
 13349  1176  3001               	movlw	1
 13350  1177  00F4               	movwf	??___awdiv
 13351  1178  0874               	movf	??___awdiv,w
 13352  1179  07F5               	addwf	___awdiv@counter,f
 13353  117A  296F               	goto	i1l4061
 13354  117B                     i1l4063:	
 13355  117B  3001               	movlw	1
 13356  117C                     u325_25:	
 13357  117C  35F7               	lslf	___awdiv@quotient,f
 13358  117D  0DF8               	rlf	___awdiv@quotient+1,f
 13359  117E  0B89               	decfsz	9,f
 13360  117F  297C               	goto	u325_25
 13361  1180  0871               	movf	___awdiv@divisor+1,w
 13362  1181  0273               	subwf	___awdiv@dividend+1,w
 13363  1182  1D03               	skipz
 13364  1183  2986               	goto	u326_25
 13365  1184  0870               	movf	___awdiv@divisor,w
 13366  1185  0272               	subwf	___awdiv@dividend,w
 13367  1186                     u326_25:	
 13368  1186  1C03               	skipc
 13369  1187  298D               	goto	i1l4069
 13370  1188  0870               	movf	___awdiv@divisor,w
 13371  1189  02F2               	subwf	___awdiv@dividend,f
 13372  118A  0871               	movf	___awdiv@divisor+1,w
 13373  118B  3BF3               	subwfb	___awdiv@dividend+1,f
 13374  118C  1477               	bsf	___awdiv@quotient,0
 13375  118D                     i1l4069:	
 13376  118D  3001               	movlw	1
 13377  118E                     u327_25:	
 13378  118E  36F1               	lsrf	___awdiv@divisor+1,f
 13379  118F  0CF0               	rrf	___awdiv@divisor,f
 13380  1190  0B89               	decfsz	9,f
 13381  1191  298E               	goto	u327_25
 13382  1192  3001               	movlw	1
 13383  1193  02F5               	subwf	___awdiv@counter,f
 13384  1194  1D03               	btfss	3,2
 13385  1195  297B               	goto	i1l4063
 13386  1196                     i1l4073:	
 13387  1196  0876               	movf	___awdiv@sign,w
 13388  1197  1903               	btfsc	3,2
 13389  1198  299E               	goto	i1l4077
 13390  1199  09F7               	comf	___awdiv@quotient,f
 13391  119A  09F8               	comf	___awdiv@quotient+1,f
 13392  119B  0AF7               	incf	___awdiv@quotient,f
 13393  119C  1903               	skipnz
 13394  119D  0AF8               	incf	___awdiv@quotient+1,f
 13395  119E                     i1l4077:	
 13396  119E  0878               	movf	___awdiv@quotient+1,w
 13397  119F  00F1               	movwf	?___awdiv+1
 13398  11A0  0877               	movf	___awdiv@quotient,w
 13399  11A1  00F0               	movwf	?___awdiv
 13400  11A2  0008               	return
 13401  11A3                     __end_of___awdiv:	
 13402  007E                     btemp	set	126	;btemp
 13403  007E                     int$flags	set	126
 13404  007E                     wtemp	set	126
 13405  007E                     wtemp0	set	126
 13406  0080                     wtemp1	set	128
 13407  0082                     wtemp2	set	130
 13408  0084                     wtemp3	set	132
 13409  0086                     wtemp4	set	134
 13410  0088                     wtemp5	set	136
 13411  007F                     wtemp6	set	127
 13412  007E                     ttemp	set	126
 13413  007E                     ttemp0	set	126
 13414  0081                     ttemp1	set	129
 13415  0084                     ttemp2	set	132
 13416  0087                     ttemp3	set	135
 13417  007F                     ttemp4	set	127
 13418  007E                     ltemp	set	126
 13419  007E                     ltemp0	set	126
 13420  0082                     ltemp1	set	130
 13421  0086                     ltemp2	set	134
 13422  0080                     ltemp3	set	128


Data Sizes:
    Strings     131
    Constant    0
    Data        1
    BSS         13
    Persistent  0
    Stack       0

Auto Spaces:
    Space          Size  Autos    Used
    COMMON           14     14      14
    BANK0            80     40      48
    BANK1            80     32      38
    BANK2            80      0       0
    BANK3            80      0       0
    BANK4            80      0       0
    BANK5            80      0       0
    BANK6            80      0       0
    BANK7            80      0       0
    BANK8            80      0       0
    BANK9            80      0       0
    BANK10           80      0       0
    BANK11           80      0       0
    BANK12           80      0       0
    BANK13           80      0       0
    BANK14           80      0       0
    BANK15           80      0       0
    BANK16           80      0       0
    BANK17           80      0       0
    BANK18           80      0       0
    BANK19           80      0       0
    BANK20           80      0       0
    BANK21           80      0       0
    BANK22           80      0       0
    BANK23           80      0       0
    BANK24           80      0       0
    BANK25           32      0       0

Pointer List with Targets:

    determine_packets_to_send@packets	PTR unsigned char  size(1) Largest target is 3
		 -> main@pkt_arr(BANK1[3]), 


Critical Paths under _main in COMMON

    None.

Critical Paths under _isr in COMMON

    _isr->___awtoft
    i1_display_blade_lights->i1_led1_command
    i1_display_blade_lights->i1_led2_command
    i1_display_blade_lights->i1_led3_command
    i1_display_blade_lights->i1_led4_command
    i1_display_blade_lights->i1_led5_command
    i1_leds_off->i1_writespi
    i1_led5_command->i1_writespi
    i1_led4_command->i1_writespi
    i1_led3_command->i1_writespi
    i1_led2_command->i1_writespi
    i1_led1_command->i1_writespi
    ___fttol->___awtoft
    ___ftmul->___awtoft
    ___ftge->___awtoft
    ___awtoft->___ftpack

Critical Paths under _main in BANK0

    _init_leds->_leds_off
    _display_blade_lights->_led1_command
    _display_blade_lights->_led2_command
    _display_blade_lights->_led3_command
    _display_blade_lights->_led4_command
    _display_blade_lights->_led5_command
    _leds_off->_writespi
    _led5_command->_writespi
    _led4_command->_writespi
    _led3_command->_writespi
    _led2_command->_writespi
    _led1_command->_writespi

Critical Paths under _isr in BANK0

    _isr->___fttol
    ___fttol->___ftmul
    ___ftge->___ftmul

Critical Paths under _main in BANK1

    _main->_display_blade_lights
    _init_leds->_leds_off
    _display_blade_lights->_led1_command
    _display_blade_lights->_led2_command
    _display_blade_lights->_led3_command
    _display_blade_lights->_led4_command
    _display_blade_lights->_led5_command

Critical Paths under _isr in BANK1

    None.

Critical Paths under _main in BANK2

    None.

Critical Paths under _isr in BANK2

    None.

Critical Paths under _main in BANK3

    None.

Critical Paths under _isr in BANK3

    None.

Critical Paths under _main in BANK4

    None.

Critical Paths under _isr in BANK4

    None.

Critical Paths under _main in BANK5

    None.

Critical Paths under _isr in BANK5

    None.

Critical Paths under _main in BANK6

    None.

Critical Paths under _isr in BANK6

    None.

Critical Paths under _main in BANK7

    None.

Critical Paths under _isr in BANK7

    None.

Critical Paths under _main in BANK8

    None.

Critical Paths under _isr in BANK8

    None.

Critical Paths under _main in BANK9

    None.

Critical Paths under _isr in BANK9

    None.

Critical Paths under _main in BANK10

    None.

Critical Paths under _isr in BANK10

    None.

Critical Paths under _main in BANK11

    None.

Critical Paths under _isr in BANK11

    None.

Critical Paths under _main in BANK12

    None.

Critical Paths under _isr in BANK12

    None.

Critical Paths under _main in BANK13

    None.

Critical Paths under _isr in BANK13

    None.

Critical Paths under _main in BANK14

    None.

Critical Paths under _isr in BANK14

    None.

Critical Paths under _main in BANK15

    None.

Critical Paths under _isr in BANK15

    None.

Critical Paths under _main in BANK16

    None.

Critical Paths under _isr in BANK16

    None.

Critical Paths under _main in BANK17

    None.

Critical Paths under _isr in BANK17

    None.

Critical Paths under _main in BANK18

    None.

Critical Paths under _isr in BANK18

    None.

Critical Paths under _main in BANK19

    None.

Critical Paths under _isr in BANK19

    None.

Critical Paths under _main in BANK20

    None.

Critical Paths under _isr in BANK20

    None.

Critical Paths under _main in BANK21

    None.

Critical Paths under _isr in BANK21

    None.

Critical Paths under _main in BANK22

    None.

Critical Paths under _isr in BANK22

    None.

Critical Paths under _main in BANK23

    None.

Critical Paths under _isr in BANK23

    None.

Critical Paths under _main in BANK24

    None.

Critical Paths under _isr in BANK24

    None.

Critical Paths under _main in BANK25

    None.

Critical Paths under _isr in BANK25

    None.

Call Graph Tables:

 ---------------------------------------------------------------------------------
 (Depth) Function   	        Calls       Base Space   Used Autos Params    Refs
 ---------------------------------------------------------------------------------
 (0) _main                                                 7     7      0    7594
                                             25 BANK1      7     7      0
        _determine_omega_mode_active
          _determine_packets_to_send
          _determine_sword_was_swung
               _display_blade_lights
                     _display_health
                         _init_accel
                          _init_conn
                            _init_ir
                           _init_isr
                          _init_leds
                           _init_pic
                          _output_ir
 ---------------------------------------------------------------------------------
 (1) _output_ir                                           10     9      1     331
                                             32 BANK0      3     2      1
                                              0 BANK1      7     7      0
 ---------------------------------------------------------------------------------
 (1) _init_pic                                             1     1      0       0
                                             32 BANK0      1     1      0
 ---------------------------------------------------------------------------------
 (1) _init_leds                                            1     1      0     170
                                             37 BANK0      1     1      0
                           _leds_off
 ---------------------------------------------------------------------------------
 (1) _init_isr                                             0     0      0       0
 ---------------------------------------------------------------------------------
 (1) _init_ir                                              1     1      0       0
                                             32 BANK0      1     1      0
 ---------------------------------------------------------------------------------
 (1) _init_conn                                            0     0      0       0
 ---------------------------------------------------------------------------------
 (1) _init_accel                                           0     0      0       0
 ---------------------------------------------------------------------------------
 (1) _display_health                                       3     3      0       0
                                             32 BANK0      3     3      0
 ---------------------------------------------------------------------------------
 (1) _display_blade_lights                                20    20      0    6147
                                              5 BANK1     20    20      0
                       _led1_command
                       _led2_command
                       _led3_command
                       _led4_command
                       _led5_command
                           _leds_off
                           _writespi
 ---------------------------------------------------------------------------------
 (2) _leds_off                                             6     6      0     170
                                             35 BANK0      2     2      0
                                              0 BANK1      4     4      0
                           _writespi
 ---------------------------------------------------------------------------------
 (2) _led5_command                                        10     7      3    1074
                                             35 BANK0      5     2      3
                                              0 BANK1      5     5      0
                           _writespi
 ---------------------------------------------------------------------------------
 (2) _led4_command                                        10     7      3     684
                                             35 BANK0      5     2      3
                                              0 BANK1      5     5      0
                           _writespi
 ---------------------------------------------------------------------------------
 (2) _led3_command                                        10     7      3     684
                                             35 BANK0      5     2      3
                                              0 BANK1      5     5      0
                           _writespi
 ---------------------------------------------------------------------------------
 (2) _led2_command                                        10     7      3     684
                                             35 BANK0      5     2      3
                                              0 BANK1      5     5      0
                           _writespi
 ---------------------------------------------------------------------------------
 (2) _led1_command                                        10     7      3    1074
                                             35 BANK0      5     2      3
                                              0 BANK1      5     5      0
                           _writespi
 ---------------------------------------------------------------------------------
 (3) _writespi                                             3     3      0      34
                                             32 BANK0      3     3      0
 ---------------------------------------------------------------------------------
 (1) _determine_sword_was_swung                           20    20      0     485
                                             32 BANK0      1     1      0
                                              0 BANK1     19    19      0
        _determine_omega_mode_active
 ---------------------------------------------------------------------------------
 (1) _determine_packets_to_send                            2     2      0     159
                                             32 BANK0      2     2      0
        _determine_omega_mode_active
 ---------------------------------------------------------------------------------
 (2) _determine_omega_mode_active                          0     0      0       0
 ---------------------------------------------------------------------------------
 Estimated maximum stack depth 3
 ---------------------------------------------------------------------------------
 (Depth) Function   	        Calls       Base Space   Used Autos Params    Refs
 ---------------------------------------------------------------------------------
 (4) _isr                                                  2     2      0    8773
                                             30 BANK0      2     2      0
                            ___awdiv
                           ___awtoft
                             ___ftge
                            ___ftmul
                            ___fttol
      i1_determine_omega_mode_active
             i1_display_blade_lights
                   i1_display_health
 ---------------------------------------------------------------------------------
 (5) i1_display_health                                     3     3      0       0
                                              0 COMMON     3     3      0
 ---------------------------------------------------------------------------------
 (5) i1_display_blade_lights                              20    20      0    3456
                                              0 BANK0     20    20      0
                     i1_led1_command
                     i1_led2_command
                     i1_led3_command
                     i1_led4_command
                     i1_led5_command
                         i1_leds_off
                         i1_writespi
 ---------------------------------------------------------------------------------
 (6) i1_leds_off                                           6     6      0     115
                                              3 COMMON     6     6      0
                         i1_writespi
 ---------------------------------------------------------------------------------
 (6) i1_led5_command                                      10     7      3     515
                                              3 COMMON    10     7      3
                         i1_writespi
 ---------------------------------------------------------------------------------
 (6) i1_led4_command                                      10     7      3     359
                                              3 COMMON    10     7      3
                         i1_writespi
 ---------------------------------------------------------------------------------
 (6) i1_led3_command                                      10     7      3     359
                                              3 COMMON    10     7      3
                         i1_writespi
 ---------------------------------------------------------------------------------
 (6) i1_led2_command                                      10     7      3     359
                                              3 COMMON    10     7      3
                         i1_writespi
 ---------------------------------------------------------------------------------
 (6) i1_led1_command                                      10     7      3     515
                                              3 COMMON    10     7      3
                         i1_writespi
 ---------------------------------------------------------------------------------
 (6) i1_writespi                                           3     3      0      23
                                              0 COMMON     3     3      0
 ---------------------------------------------------------------------------------
 (5) i1_determine_omega_mode_active                        0     0      0       0
 ---------------------------------------------------------------------------------
 (5) ___fttol                                             14    10      4     305
                                             16 BANK0     14    10      4
                           ___awtoft (ARG)
                            ___ftmul (ARG)
 ---------------------------------------------------------------------------------
 (5) ___ftmul                                             16    10      6    2273
                                              0 BANK0     16    10      6
                           ___awtoft (ARG)
                           ___ftpack
 ---------------------------------------------------------------------------------
 (5) ___ftge                                               9     3      6     348
                                             16 BANK0      9     3      6
                           ___awtoft (ARG)
                            ___ftmul (ARG)
 ---------------------------------------------------------------------------------
 (5) ___awtoft                                             6     3      3    1985
                                              8 COMMON     6     3      3
                           ___ftpack
 ---------------------------------------------------------------------------------
 (6) ___ftpack                                             8     3      5    1629
                                              0 COMMON     8     3      5
 ---------------------------------------------------------------------------------
 (5) ___awdiv                                              9     5      4     406
                                              0 COMMON     9     5      4
 ---------------------------------------------------------------------------------
 Estimated maximum stack depth 6
 ---------------------------------------------------------------------------------

 Call Graph Graphs:

 _main (ROOT)
   _determine_omega_mode_active
   _determine_packets_to_send
     _determine_omega_mode_active
   _determine_sword_was_swung
     _determine_omega_mode_active
   _display_blade_lights
     _led1_command
       _writespi
     _led2_command
       _writespi
     _led3_command
       _writespi
     _led4_command
       _writespi
     _led5_command
       _writespi
     _leds_off
       _writespi
     _writespi
   _display_health
   _init_accel
   _init_conn
   _init_ir
   _init_isr
   _init_leds
     _leds_off
       _writespi
   _init_pic
   _output_ir

 _isr (ROOT)
   ___awdiv
   ___awtoft
     ___ftpack
   ___ftge
     ___awtoft (ARG)
       ___ftpack
     ___ftmul (ARG)
       ___awtoft (ARG)
         ___ftpack
       ___ftpack (ARG)
   ___ftmul
     ___awtoft (ARG)
       ___ftpack
     ___ftpack (ARG)
   ___fttol
     ___awtoft (ARG)
       ___ftpack
     ___ftmul (ARG)
       ___awtoft (ARG)
         ___ftpack
       ___ftpack (ARG)
   i1_determine_omega_mode_active
   i1_display_blade_lights
     i1_led1_command
       i1_writespi
     i1_led2_command
       i1_writespi
     i1_led3_command
       i1_writespi
     i1_led4_command
       i1_writespi
     i1_led5_command
       i1_writespi
     i1_leds_off
       i1_writespi
     i1_writespi
   i1_display_health

 Address spaces:
Name               Size   Autos  Total    Cost      Usage
BIGRAM             7F0      0       0       0        0.0%
EEDATA             100      0       0       0        0.0%
NULL                 0      0       0       0        0.0%
CODE                 0      0       0       0        0.0%
BITCOMMON            E      0       0       1        0.0%
BITSFR0              0      0       0       1        0.0%
SFR0                 0      0       0       1        0.0%
COMMON               E      E       E       2      100.0%
BITSFR1              0      0       0       2        0.0%
SFR1                 0      0       0       2        0.0%
BITSFR2              0      0       0       3        0.0%
SFR2                 0      0       0       3        0.0%
STACK                0      0       0       3        0.0%
BITBANK0            50      0       0       4        0.0%
BITSFR3              0      0       0       4        0.0%
SFR3                 0      0       0       4        0.0%
BANK0               50     28      30       5       60.0%
BITSFR4              0      0       0       5        0.0%
SFR4                 0      0       0       5        0.0%
BITBANK1            50      0       0       6        0.0%
BITSFR5              0      0       0       6        0.0%
SFR5                 0      0       0       6        0.0%
BANK1               50     20      26       7       47.5%
BITSFR6              0      0       0       7        0.0%
SFR6                 0      0       0       7        0.0%
BITBANK2            50      0       0       8        0.0%
BITSFR7              0      0       0       8        0.0%
SFR7                 0      0       0       8        0.0%
BANK2               50      0       0       9        0.0%
BITSFR8              0      0       0       9        0.0%
SFR8                 0      0       0       9        0.0%
BITBANK3            50      0       0      10        0.0%
BITSFR9              0      0       0      10        0.0%
SFR9                 0      0       0      10        0.0%
BANK3               50      0       0      11        0.0%
BITSFR10             0      0       0      11        0.0%
SFR10                0      0       0      11        0.0%
BITBANK4            50      0       0      12        0.0%
BITSFR11             0      0       0      12        0.0%
SFR11                0      0       0      12        0.0%
BANK4               50      0       0      13        0.0%
BITSFR12             0      0       0      13        0.0%
SFR12                0      0       0      13        0.0%
BITSFR13             0      0       0      14        0.0%
SFR13                0      0       0      14        0.0%
ABS                  0      0      64      14        0.0%
BITBANK5            50      0       0      15        0.0%
BITSFR14             0      0       0      15        0.0%
SFR14                0      0       0      15        0.0%
BANK5               50      0       0      16        0.0%
BITSFR15             0      0       0      16        0.0%
SFR15                0      0       0      16        0.0%
BITBANK6            50      0       0      17        0.0%
BITSFR16             0      0       0      17        0.0%
SFR16                0      0       0      17        0.0%
BANK6               50      0       0      18        0.0%
BITSFR17             0      0       0      18        0.0%
SFR17                0      0       0      18        0.0%
BITBANK7            50      0       0      19        0.0%
BITSFR18             0      0       0      19        0.0%
SFR18                0      0       0      19        0.0%
BANK7               50      0       0      20        0.0%
BITSFR19             0      0       0      20        0.0%
SFR19                0      0       0      20        0.0%
BITBANK8            50      0       0      21        0.0%
BITSFR20             0      0       0      21        0.0%
SFR20                0      0       0      21        0.0%
BANK8               50      0       0      22        0.0%
BITSFR21             0      0       0      22        0.0%
SFR21                0      0       0      22        0.0%
BITBANK9            50      0       0      23        0.0%
BITSFR22             0      0       0      23        0.0%
SFR22                0      0       0      23        0.0%
BANK9               50      0       0      24        0.0%
BITSFR23             0      0       0      24        0.0%
SFR23                0      0       0      24        0.0%
BITBANK10           50      0       0      25        0.0%
BITSFR24             0      0       0      25        0.0%
SFR24                0      0       0      25        0.0%
BANK10              50      0       0      26        0.0%
BITSFR25             0      0       0      26        0.0%
SFR25                0      0       0      26        0.0%
BITBANK11           50      0       0      27        0.0%
BITSFR26             0      0       0      27        0.0%
SFR26                0      0       0      27        0.0%
BITSFR27             0      0       0      28        0.0%
SFR27                0      0       0      28        0.0%
DATA                 0      0      64      28        0.0%
BANK11              50      0       0      29        0.0%
BITSFR28             0      0       0      29        0.0%
SFR28                0      0       0      29        0.0%
BITBANK12           50      0       0      30        0.0%
BITSFR29             0      0       0      30        0.0%
SFR29                0      0       0      30        0.0%
BANK12              50      0       0      31        0.0%
BITSFR30             0      0       0      31        0.0%
SFR30                0      0       0      31        0.0%
BITBANK13           50      0       0      32        0.0%
BITSFR31             0      0       0      32        0.0%
SFR31                0      0       0      32        0.0%
BANK13              50      0       0      33        0.0%
BITBANK14           50      0       0      34        0.0%
BANK14              50      0       0      35        0.0%
BITBANK15           50      0       0      36        0.0%
BANK15              50      0       0      37        0.0%
BITBANK16           50      0       0      38        0.0%
BANK16              50      0       0      39        0.0%
BITBANK17           50      0       0      40        0.0%
BANK17              50      0       0      41        0.0%
BITBANK18           50      0       0      42        0.0%
BANK18              50      0       0      43        0.0%
BITBANK19           50      0       0      44        0.0%
BANK19              50      0       0      45        0.0%
BITBANK20           50      0       0      46        0.0%
BANK20              50      0       0      47        0.0%
BITBANK21           50      0       0      48        0.0%
BANK21              50      0       0      49        0.0%
BITBANK22           50      0       0      50        0.0%
BANK22              50      0       0      51        0.0%
BITBANK23           50      0       0      52        0.0%
BANK23              50      0       0      53        0.0%
BITBANK24           50      0       0      54        0.0%
BANK24              50      0       0      55        0.0%
BITBANK25           20      0       0      56        0.0%
BANK25              20      0       0      57        0.0%


Microchip Technology PIC Macro Assembler V1.35 build -356382666 
Symbol Table                                                                                   Thu Nov 05 00:32:05 2015

                           __CFG_CP$OFF 0000                                      l71 0D37  
                                    l81 0D39                                      l84 0D8B  
                                    l86 0D8D                            ___awdiv@sign 0076  
                __end_of_display_health 13B8               i1display_blade_lights@red 002F  
                                   l310 0F2F                                     l305 0EC2  
                                   l314 0F99                                     l361 0E2F  
                                   l348 0DC9                                     l662 10A6  
                                   _GIE 005F                                     _RA1 0061  
                                   _RB2 006A                                     _RB3 006B  
                                   _RC7 0077                            __CFG_CPD$OFF 0000  
                                   _isr 0004                            __CFG_BORV$LO 0000  
                                   wreg 0009                            __CFG_IESO$ON 0000  
                      led2_command@blue 0045                        writespi@data_out 0042  
              ??i1_display_blade_lights 0020                    __end_of_led1_command 0959  
                          __CFG_LVP$OFF 0000                              i1_leds_off 13B8  
            i1display_blade_lights@blue 0031                       i1led1_command@red 0073  
            i1display_blade_lights@mode 0023                    __end_of_led2_command 0A05  
                                  l5111 034D                                    l5105 033B  
                                  l5123 0361                                    l5203 0F29  
                                  l5143 03F0                                    l5071 0297  
                                  l5223 0F96                                    l5137 03DC  
                                  l5129 0375                                    l5171 0484  
                                  l5091 02C0                                    l3707 13A3  
                                  l3901 0DB3                                    l5085 02AC  
                                  l5149 03FE                                    l5181 04BC  
                                  l3661 1322                                    l3911 0DE0  
                                  l5079 029F                                    l3663 136D  
                                  l5351 0D81                                    l3921 0E0B  
                                  l4721 0938                                    l4713 08D4  
                                  l5273 0D01                                    l3915 0DFC  
                                  l4707 08BE                                    l4811 0B52  
                                  l5099 0327                                    l3683 1386  
                                  l5267 0CF1                                    l5259 0CE4  
                                  l3941 0E69                                    l3925 0E29  
                                  l3917 0E04                                    l4741 0980  
                                  l4805 0B3C                                    l5277 0D09  
                                  l3951 0E8F                                    l3943 0E6C  
                                  l3935 0E45                                    l3919 0E07  
                                  l4727 094E                                    l4735 096A  
                                  l5295 0D33                                    l3945 0E6D  
                                  l4833 0BE8                                    l4825 0B84  
                                  l3971 07E5                                    l3939 0E61  
                                  l3947 0E71                                    l3891 0D94  
                                  l4755 09FA                                    l4763 0A16  
                                  l4819 0B6E                                    l4749 09E4  
                                  l4693 17DF                                    l4685 177F  
                                  l3959 0EB8                                    l4783 0AA6  
                                  l4791 0AC2                                    l4839 0BFE  
                                  l4679 1769                                    l4777 0A90  
                                  l4769 0A2C                                    l4699 17F5  
                                  ?_isr 0070                                    l4797 0AD8  
                                  _ADGO 04E9                                    STR_1 186A  
                                  STR_2 1831                                    STR_3 1800  
                                  STR_4 1850                                    _BRGH 0CF2  
                                  _CREN 0CEC                                    u3005 0DDE  
                                  u3015 0DEC                                    u3105 0E7C  
                                  u3025 0DFA                                    u3115 0E8D  
                                  u3035 0E16                                    u3125 0E9E  
                                  u3045 0E27                                    u3135 0EAF  
                                  u3065 0E39                                    u3075 0E43  
                                  u3085 0E51                                    u4205 0936  
                                  u3095 0E5F                                    u4215 094C  
                                  u5007 01DF                                    u4225 0968  
                                  u4305 0AC0                                    u4145 1767  
                                  u5017 0203                                    _PIE4 0094  
                                  u4235 097E                                    u4315 0AD6  
                                  u4155 177D                                    u5107 0446  
                                  u5027 0227                                    u4245 09E2  
                                  u4325 0B3A                                    u4165 17DD  
                                  u5117 045F                                    u5037 024B  
                                  u5207 0953                                    u4255 09F8  
                                  u4335 0B50                                    u4175 17F3  
                                  u5127 0478                                    u5047 0274  
                                  u4185 08BC                                    u4265 0A14  
                                  u4345 0B6C                                    u5137 0496  
                                  u4505 035F                                    u5057 028A  
                                  u4195 08D2                                    u4275 0A2A  
                                  u4355 0B82                                    u5147 04AC  
                                  u4515 0373                                    u5067 0340  
                                  u4285 0A8E                                    u4365 0BE6  
                                  u5157 17FA                                    u5077 03F5  
                                  u4525 03DA                                    u4445 02AA  
                                  u4295 0AA4                                    u5167 0C03  
                                  u4375 0BFC                                    u5087 0414  
                                  u4535 03EE                                    u4455 02BE  
                                  u4615 0F3A                                    u5177 0B57  
                                  u5097 042D                                    u4465 0325  
                                  u4625 0FA4                                    u5187 0AAB  
                                  u4475 0339                                    _RCIE 048D  
                                  _RCIF 008D                                    u5197 09FF  
                                  u4807 0F04                                    u4817 0F10  
                                  u4737 0CCF                                    u2995 0DD4  
                                  u4907 0FAB                                    u4595 0ECD  
                                  u4827 0F1C                                    u4747 0D54  
                                  u4917 0FB7                                    u4837 0F41  
                                  u4757 0D77       __end_of_determine_sword_was_swung 0EBB  
                                  u4927 0FC3                                    u4847 0F4D  
                                  u4767 0ED4                                    u4937 0FCF  
                                  u4857 0F59                                    u4777 0EE0  
                                  u4947 0FDB                                    u4867 0F65  
                                  u4787 0EEC                                    u4957 0FE7  
                                  u4877 0F71                                    u4797 0EF8  
                                  u4967 0FF3                                    u4887 0F7D  
                                  u4977 1341                                    u4897 0F89  
                                  u4987 1365                                    u4997 01BB  
                  __end_of_led3_command 0AB1                                    _TMR1 0016  
                                  _SPEN 0CEF                                    _TRMT 0CF1  
                                  _TXEN 0CF5                                    _SYNC 0CF4  
                          __CFG_WRT$OFF 0000                           __CFG_FCMEN$ON 0000  
                  __end_of_led4_command 0B5D                                    _main 0CBD  
                          ___ftpack@arg 0070                             main@pkt_arr 00BC  
                          ___ftpack@exp 0073                                    fsr1h 0007  
                                  indf1 0001                                    fsr1l 0006  
                  __end_of_led5_command 0C09                                    btemp 007E  
             __size_ofi1_display_health 0094                                    ltemp 007E  
                                  start 0173                                    ttemp 007E  
                                  wtemp 007E                       led2_command@i_644 00A3  
                            _Davgcycles 004C                           __CFG_MCLRE$ON 0000  
                          ___ftmul@cntr 002E                            ___ftmul@sign 002F  
                     led2_command@green 0044                            ___fttol@exp1 003D  
                          ___fttol@lval 0039                                   ??_isr 003E  
                            i1_writespi 1087                      i1led1_command@blue 0075  
             _determine_packets_to_send 07C8                                   ?_main 0070  
                       ?_display_health 0070                         __end_of___awdiv 11A3  
                                 _BRG16 0CFB                           __CFG_WDTE$OFF 0000  
                       __end_of___ftmul 0CBD                         ___awdiv@divisor 0070  
                                 _T1CON 0018                         __end_of___fttol 128E  
                                 _IOCAF 0393                                   _IOCAN 0392  
                                 _IOCAP 0391                                   i1l202 0025  
                                 i1l211 003F                                   i1l205 016E  
                                 i1l215 004F                                   i1l207 0033  
                                 i1l219 005B                                   i1l199 001D  
                                 i1l662 1093                                   i1l970 11F0  
                                 i1l962 11D5                                   i1l969 11E8  
                       ___awdiv@counter 0075                                   _RCREG 0199  
                                 _SPBRG 019B                       i1writespi@TempVar 0071  
                                 _TRISA 008C                                   _TRISB 008D  
                                 _TRISC 008E                                   _SSPEN 10AD  
                                 _TXREG 019A                           ___awtoft@sign 007D  
                       __end_of_init_ir 1116                           ___ftpack@sign 0074  
                     i1led2_command@red 0073                                   main@i 00BF  
                        __CFG_BOREN$OFF 0000                                   ltemp0 007E  
                                 ltemp1 0082                                   ltemp2 0086  
                                 ltemp3 0080                                   ttemp0 007E  
                                 ttemp1 0081                                   ttemp2 0084  
                                 ttemp3 0087                                   ttemp4 007F  
                                 status 0003                                   wtemp0 007E  
                                 wtemp1 0080                                   wtemp2 0082  
                                 wtemp3 0084                                   wtemp4 0086  
                                 wtemp5 0088                                   wtemp6 007F  
                       __initialization 0175         ??i1_determine_omega_mode_active 0070  
                          __end_of_main 0D8F        determine_sword_was_swung@highAdh 00A9  
      determine_sword_was_swung@highAdl 00AB                          __CFG_LPBOR$OFF 0000  
               __size_ofi1_led1_command 009B                                  ??_main 00B9  
                         ___fttol@sign1 0038                 __size_ofi1_led2_command 009B  
                   i1led1_command@i_637 007B                 __size_ofi1_led3_command 009B  
                        __CFG_PLLEN$OFF 0000                 __size_ofi1_led4_command 009B  
                           i1leds_off@i 0075                     i1led1_command@green 0074  
               __size_ofi1_led5_command 009B            __end_of_display_blade_lights 04BF  
                      led3_command@blue 0045                            _stun_counter 00C4  
       __size_ofi1_display_blade_lights 0309                                  _ADCON0 009D  
                                _ADCON1 009E                                  _ADCON2 009F  
                           ?i1_leds_off 0070                                  _ADRESH 009C  
                                _ADRESL 009B                        ___awdiv@dividend 0072  
        display_blade_lights@brightness 00B3                        __end_of___awtoft 10DD  
                                _ANSELA 018C                                  _ANSELB 018D  
                      __end_of___ftpack 1207                       i1led3_command@red 0073  
                                _IOCAF1 1C99                                  i1l1053 1274  
                                i1l3211 14E3                                  i1l4101 1143  
                                i1l3205 14D0                                  i1l3303 16CC  
                                i1l3161 11B2                                  i1l4201 1285  
                                i1l3233 156B                                  i1l3225 150E  
                                i1l4051 1167                                  i1l3171 11DA  
                                i1l3163 11BC                                  i1l3219 14FB  
                                i1l3323 174F                                  i1l3331 13C5  
                                i1l4061 116F                                  i1l4045 115C  
                                i1l3173 11E2                                  i1l3165 11C1  
                                i1l3157 11AB                                  i1l4141 0C79  
                                i1l4125 0C36                                  i1l3261 1606  
                                i1l3253 15A9                                  i1l3317 173C  
                                i1l3309 16DF                                  i1l4063 117B  
                                i1l4119 0C20                                  i1l3191 1460  
                                i1l3239 157E                                  i1l3247 1596  
                                i1l3351 1448                                  i1l4073 1196  
                                i1l4153 0C95                                  i1l4137 0C71  
                                i1l3281 1644                                  i1l3345 1435  
                                i1l3337 13D8                                  i1l4241 128E  
                                i1l3267 1619                                  i1l3275 1631  
                                i1l4411 0685                                  i1l4243 12D7  
                                i1l4077 119E                                  i1l4069 118D  
                                i1l4149 0C8D                                  i1l3197 1473  
                                i1l4405 0671                                  i1l3295 16B4  
                                i1l4431 070E                                  i1l4263 12F0  
                                i1l4089 10C7                                  i1l4097 112D  
                                i1l4169 1220                                  i1l3289 16A1  
                                i1l4425 0700                                  i1l4361 05AF  
                                i1l4353 05A7                                  i1l4195 126B  
                                i1l4187 1250                                  i1l4419 06EC  
                                i1l4603 003D                                  i1l4197 1277  
                                i1l4189 125E                                  i1l4453 078F  
                                i1l4381 0637                                  i1l4373 05D0  
                                i1l4367 05BC                                  i1l4463 07C5  
                                i1l4287 130D                                  i1l4623 0065  
                                i1l4393 065D                                  i1l4617 0059  
                                i1l4609 0049                                  i1l4387 064B  
                                i1l4647 012C                                  i1l4659 0150  
                                i1l4597 0031                                  u240_25 11D0  
                                _INTCON 000B                                  u242_25 11DD  
                                u250_25 14CE                                  u323_25 1172  
                                u251_25 14E1                                  u411_25 015A  
                                u340_25 0C80                                  u252_25 14F9  
                                u260_25 162F                                  u412_25 0166  
                                u404_25 010E                                  u325_25 117C  
                                u253_25 150C                                  u261_25 1642  
                                u405_25 011A                                  u326_25 1186  
                                u246_25 11F7                                  u238_25 11B7  
                                u350_25 1251                                  u254_25 1569  
                                u262_25 169F                                  u270_25 1433  
                                u327_25 118E                                  u343_25 0C96  
                                u255_25 157C                                  u263_25 16B2  
                                u271_25 1446                                  u344_25 0C9C  
                                u336_25 0C42                                  u248_25 145E  
                                u256_25 1594                                  u264_25 16CA  
                                u408_25 0136                                  u337_25 0C52  
                                u353_25 126C                                  u249_25 1471  
                                u257_25 15A7                                  u265_25 16DD  
                                u409_25 0142                                  u521_27 12AC  
                                u258_25 1604                                  u266_25 173A  
                                u530_27 0650                                  u522_27 12CF  
                                u339_25 0C7A                                  u347_25 1227  
                                u259_25 1617                                  u267_25 174D  
                                u531_27 0705                                  u523_27 04EA  
                                u268_25 13C3                                  u372_25 066F  
                                u540_27 1753                                  u532_27 0723  
                                u524_27 0508                                  u269_25 13D6  
                                u373_25 0683                                  u541_27 16B8  
                                u533_27 073B                                  u525_27 0526  
                                u374_25 06EA                                  u366_25 05BA  
                                u542_27 161D                                  u534_27 0753  
                                u526_27 0544                                  _SDISEL 08EB  
                                _SCKSEL 08EC                                  u375_25 06FE  
                                u367_25 05CE                                  u543_27 1582  
                                u535_27 076B                                  u527_27 0562  
                                u368_25 0635                                  u544_27 14E7  
                                u536_27 0783                                  u528_27 0585  
                                u369_25 0649                                  u537_27 07A0  
                                u529_27 059A                                  _OSCCON 0099  
                                u538_27 07B5                                  u539_27 144C  
                                _SDOSEL 08ED                                  _SSPBUF 0211  
                        __CFG_PWRTE$OFF 0000                  led2_command@brightness 00A0  
                led5_command@brightness 00A0                                  ___ftge 1116  
                             ??___awdiv 0074                          __CFG_STVREN$ON 0000  
                      __end_of_leds_off 1800                               ??___ftmul 0026  
                             ??___fttol 0034                                  _health 00C5  
                           ?i1_writespi 0070                        __end_of_init_pic 10BD  
                      __end_of_init_isr 1087                        ___awdiv@quotient 0077  
                    i1led2_command@blue 0075                      i1writespi@data_out 0072  
                 ___ftmul@f3_as_product 002B                   __size_of_led1_command 00AC  
                             ??_init_ir 0040                   __size_of_led2_command 00AC  
                 __size_of_led3_command 00AC                   __size_of_led4_command 00AC  
                   i1led5_command@i_665 007B                   __size_of_led5_command 00AC  
                     i1led4_command@red 0073                     i1led5_command@green 0074  
              i1led1_command@brightness 0078                        __end_of_writespi 10AA  
              i1led4_command@brightness 0078                 __end_of__initialization 0186  
                            ___ftge@ff1 0030                              ___ftge@ff2 0033  
                      i1_display_health 128E                              ___awtoft@c 0078  
                            ___ftmul@f1 0020                              ___ftmul@f2 0023  
                            ___fttol@f1 0030                          __pcstackCOMMON 0070  
                i1_display_blade_lights 04BF                            __pidataBANK1 07FF  
                          _led1_command 08AD                     __size_ofi1_leds_off 009A  
                          _led2_command 0959                            _led3_command 0A05  
 __end_ofi1_determine_omega_mode_active 106C  __size_ofi1_determine_omega_mode_active 0005  
         i1_determine_omega_mode_active 1067                            _led4_command 0AB1  
                          _led5_command 0B5D                        led4_command@blue 0045  
    __size_of_determine_packets_to_send 0032                              __pbssBANK0 0048  
                            __pbssBANK1 00C0                       i1led5_command@red 0073  
                   __size_ofi1_writespi 0010                         __CFG_VCAPEN$OFF 0000  
                    __size_of_init_conn 0003                      __size_of_init_leds 00AA  
                     led3_command@i_651 00A3                              __pmaintext 0CBD  
                               ?___ftge 0030                        ??_display_health 0040  
                  _display_blade_lights 018A                       led3_command@green 0044  
                            __pintentry 0004                          output_ir@i_266 00A2  
                        output_ir@i_267 00A4                          i1_led1_command 1452  
                             ?___awtoft 0078                               ?___ftpack 0070  
                        i1_led2_command 14ED                      i1led3_command@blue 0075  
                        i1_led3_command 1588                 i1display_blade_lights@i 002C  
               i1display_blade_lights@r 0032                          i1_led4_command 1623  
                         led1_command@i 00A1                          i1_led5_command 16BE  
                               _PSMC2LD 758E                                 _PSMC3LD 768E  
                               _PSMC4LD 788E                                 _SSPCON1 0215  
                         led2_command@i 00A1                               ?_leds_off 0070  
     __end_of_determine_packets_to_send 07FA                      __size_of_output_ir 0145  
        determine_sword_was_swung@i_355 00A2              ?_determine_sword_was_swung 0070  
                             ?_init_pic 0070                               ?_init_isr 0070  
        determine_sword_was_swung@count 00B1          determine_sword_was_swung@swung 00A4  
                         led3_command@i 00A1                   ?_display_blade_lights 0070  
                __end_ofi1_led1_command 14ED                         __size_of___ftge 003C  
                               ___awdiv 1152                                 ___ftmul 0C09  
                               ___fttol 1207                              _init_accel 106C  
                __end_ofi1_led2_command 1588                           led4_command@i 00A1  
                __end_ofi1_led3_command 1623                              ??___awtoft 007B  
                            ??___ftpack 0075                  __end_ofi1_led4_command 16BE  
                               __ptext1 0EBB                                 __ptext2 10AA  
                               __ptext3 0803                                 __ptext4 1078  
                               __ptext5 10DD                                 __ptext6 0800  
                               __ptext7 106C                                 __ptext8 1322  
                               __ptext9 018A                               ?_writespi 0070  
                __end_ofi1_led5_command 1759                                 _init_ir 10DD  
                     __end_of_init_conn 0803                            __size_of_isr 016F  
                     __end_of_init_leds 08AD                     i1led2_command@i_644 007B  
                         led5_command@i 00A1          ?i1_determine_omega_mode_active 0070  
          ?_determine_omega_mode_active 0070                               _IOCAFbits 0393  
                   i1led2_command@green 0074                            ??i1_leds_off 0073  
                      led5_command@blue 0045                    end_of_initialization 0186  
                            ??_leds_off 0043                         led1_command@red 0043  
                            ??_init_pic 0040                              ??_init_isr 0040  
                            _numPackets 004E                               _PSMC1FEBS 0E99  
                             _PSMC1BLKF 0EAC                               _PSMC1ASDC 0E9D  
                             _PSMC1BLNK 0E97                               _PSMC1BLKR 0EAB  
                             _PSMC1ASDL 0E9E                               _PSMC2FEBS 0EB9  
                             _PSMC2BLKF 0ECC                               _PSMC2ASDC 0EBD  
                             _PSMC1ASDS 0E9F                               _PSMC2BLNK 0EB7  
                             _PSMC2BLKR 0ECB                               _PSMC2ASDL 0EBE  
                             _PSMC3FEBS 0ED9                               _PSMC3BLKF 0EEC  
                             _PSMC3ASDC 0EDD                               _PSMC2ASDS 0EBF  
                             _PSMC3BLNK 0ED7                               _PSMC3BLKR 0EEB  
                             _PSMC3ASDL 0EDE                               _PSMC4FEBS 0F19  
                             _PSMC4BLKF 0F2C                               _PSMC4ASDC 0F1D  
                             _PSMC3ASDS 0EDF                               _PSMC4BLNK 0F17  
                             _PSMC4BLKR 0F2B                               _PSMC4ASDL 0F1E  
                             _PSMC4ASDS 0F1F                               _PSMC1REBS 0E98  
                             _PSMC2REBS 0EB8                               _PSMC3REBS 0ED8  
                             _PSMC4REBS 0F18                               _PSMC1STR0 0EAE  
                             _PSMC1STR1 0EAF                               _PSMC2STR0 0ECE  
                             _PSMC2STR1 0ECF                               _PSMC1SYNC 0E93  
                             _PSMC3STR0 0EEE                               _PSMC3STR1 0EEF  
                             _PSMC2SYNC 0EB3                               _PSMC4STR0 0F2E  
                             _PSMC4STR1 0F2F                               _PSMC3SYNC 0ED3  
                             _PSMC4SYNC 0F13                         ?i1_led1_command 0073  
                         leds_off@i_668 00A2                            __pstringtext 1800  
                       ?i1_led2_command 0073                            ??i1_writespi 0070  
                    __end_ofi1_leds_off 1452                         ?i1_led3_command 0073  
                     __end_of_output_ir 1000                               _PORTAbits 000C  
                       ?i1_led4_command 0073                      i1led4_command@blue 0075  
                            ??_writespi 0040                         ?i1_led5_command 0073  
              __end_ofi1_display_health 1322                        __CFG_FOSC$INTOSC 0000  
                             _TRISAbits 008C                               _TRISBbits 008D  
                 display_blade_lights@i 00B0                   display_blade_lights@r 00B7  
                       writespi@TempVar 0041                         i1led1_command@i 0079  
                       led2_command@red 0043                      __end_ofi1_writespi 1097  
               ?i1_display_blade_lights 0070                         i1led2_command@i 0079  
                ??_display_blade_lights 00A5                  led1_command@brightness 00A0  
                led4_command@brightness 00A0                             ___ftmul@exp 002A  
                           ?_init_accel 0070                          __end_of___ftge 1152  
                       i1led3_command@i 0079                         i1led4_command@i 0079  
                   start_initialization 0175               display_blade_lights@i_610 00AA  
             display_blade_lights@i_612 00AC               display_blade_lights@i_613 00AE  
             display_blade_lights@i_614 00B1               display_blade_lights@i_609 00A8  
                           __end_of_isr 0173               display_blade_lights@r_611 00B8  
             display_blade_lights@green 00B5                         i1led5_command@i 0079  
              i1led3_command@brightness 0078          __end_ofi1_display_blade_lights 07C8  
                       led3_command@red 0043    __size_of_determine_omega_mode_active 0005  
                              ??___ftge 0036                       led4_command@i_658 00A3  
                           __pdataBANK1 00C5                       led4_command@green 0044  
                    i1led5_command@blue 0075                         i1leds_off@i_668 0077  
                     __size_of___awtoft 0020                       __size_of___ftpack 0064  
                             ___latbits 0003                           __pcstackBANK0 0020  
                         __pcstackBANK1 00A0                     __size_of_init_accel 000C  
                       led4_command@red 0043             ??_determine_sword_was_swung 0040  
                     __size_of_leds_off 00A7                       __size_of_init_pic 0013  
                     __size_of_init_isr 000F             i1display_blade_lights@i_610 0026  
           i1display_blade_lights@i_612 0028             i1display_blade_lights@i_613 002A  
           i1display_blade_lights@i_614 002D             i1display_blade_lights@i_609 0024  
           i1display_blade_lights@r_611 0033             i1display_blade_lights@green 0030  
                              ?___awdiv 0070                                ?___ftmul 0020  
                              ?___fttol 0030                                ?_init_ir 0070  
                     __size_of_writespi 0013                     i1led3_command@i_651 007B  
                       output_ir@amount 0040                                _P1MDLBIT 7495  
                             _init_conn 0800                               _init_leds 0803  
                   i1led3_command@green 0074                                _D1cycles 0048  
                              _D2cycles 004A              ?_determine_packets_to_send 0070  
                       led5_command@red 0043                        ??i1_led1_command 0076  
                      ??i1_led2_command 0076                                _PIR1bits 0011  
                              _PSMC1DBF 0EAA                                _PSMC1DCH 0EA4  
                              _PSMC2DBF 0ECA                                _PSMC1DCL 0EA3  
                              _PSMC1FFA 0EAD                        ??i1_led3_command 0076  
                              _PSMC2DCH 0EC4                                _PSMC1DBR 0EA9  
                              _PSMC1DCS 0E9B                                _PSMC3DBF 0EEA  
                              _PSMC2DCL 0EC3                                _PSMC2FFA 0ECD  
                              _PSMC3DCH 0EE4                                _PSMC2DBR 0EC9  
                              _PSMC1CLK 0E94                                _PSMC2DCS 0EBB  
                              _PSMC4DBF 0F2A                                _PSMC3DCL 0EE3  
                              _PSMC3FFA 0EED                                _PSMC4DCH 0F24  
                              _PSMC3DBR 0EE9                                _PSMC2CLK 0EB4  
                              _PSMC1CON 0E91                                _PSMC3DCS 0EDB  
                              _PSMC4DCL 0F23                                _PSMC4FFA 0F2D  
                              _PSMC4DBR 0F29                                _PSMC3CLK 0ED4  
                              _PSMC2CON 0EB1                                _PSMC4DCS 0F1B  
                              _PSMC4CLK 0F14                                _PSMC3CON 0ED1  
                              _PSMC1MDL 0E92                                _PSMC4CON 0F11  
                              _PSMC2MDL 0EB2                                _PSMC1OEN 0E95  
                              _PSMC1INT 0EA0                                _PSMC3MDL 0ED2  
                              _PSMC1PHH 0EA2                                _PSMC2OEN 0EB5  
                              _PSMC2INT 0EC0                                _PSMC1PHL 0EA1  
                              _PSMC4MDL 0F12                                _PSMC2PHH 0EC2  
                              _PSMC1PHS 0E9A                                _PSMC3OEN 0ED5  
                              _PSMC3INT 0EE0                                _PSMC2PHL 0EC1  
                              _PSMC3PHH 0EE2                                _PSMC1POL 0E96  
                              _PSMC2PHS 0EBA                                _PSMC4OEN 0F15  
                              _PSMC4INT 0F20                                _PSMC3PHL 0EE1  
                              _PSMC1PRH 0EA6                                _PSMC4PHH 0F22  
                              _PSMC1PRL 0EA5                                _PSMC2POL 0EB6  
                              _PSMC3PHS 0EDA                                _PSMC4PHL 0F21  
                              _PSMC2PRH 0EC6                                _PSMC1PRS 0E9C  
                              _PSMC2PRL 0EC5                                _PSMC3POL 0ED6  
                              _PSMC4PHS 0F1A                                _PSMC3PRH 0EE6  
                              _PSMC2PRS 0EBC                                _PSMC3PRL 0EE5  
                              _PSMC4POL 0F16                                _PSMC4PRH 0F26  
                              _PSMC3PRS 0EDC                                _PSMC4PRL 0F25  
                              _PSMC4PRS 0F1C                        ??i1_led4_command 0076  
                             main@F7230 00C0                        ??i1_led5_command 0076  
             _determine_sword_was_swung 0D8F                       ?i1_display_health 0070  
                             _output_ir 0EBB                 __size_of_display_health 0096  
                    ??i1_display_health 0070                              ?_init_conn 0070  
                            ?_init_leds 0070                               leds_off@i 00A0  
       determine_sword_was_swung@lowAdh 00A5         determine_sword_was_swung@lowAdl 00A7  
                     led1_command@i_637 00A3                       led1_command@green 0044  
                       _damage_received 00C3                           ?_led1_command 0043  
                          ??_init_accel 0040                           ?_led2_command 0043  
                      __size_of___awdiv 0051                           ?_led3_command 0043  
                      __size_of___ftmul 00B4                        __size_of___fttol 0087  
                              ___awtoft 10BD                                ___ftpack 11A3  
                         ?_led4_command 0043                              _ANSELAbits 018C  
                         ?_led5_command 0043                       output_ir@pkt_type 00A6  
                            ?_output_ir 0040                        __size_of_init_ir 0039  
                            output_ir@i 00A0                                __ptext10 1759  
                              __ptext11 0B5D                                __ptext12 0AB1  
                              __ptext21 128E                                __ptext13 0A05  
                              __ptext30 1067                                __ptext22 04BF  
                              __ptext14 0959                                __ptext31 1207  
                              __ptext23 13B8                                __ptext15 08AD  
                              __ptext32 0C09                                __ptext24 16BE  
                              __ptext16 1097                                __ptext33 1116  
                              __ptext25 1623                                __ptext17 0D8F  
                              __ptext34 10BD                                __ptext26 1588  
                              __ptext18 07C8                                __ptext35 11A3  
                              __ptext27 14ED                                __ptext19 07FA  
                              __ptext36 1152                                __ptext28 1452  
                              __ptext29 1087                                _leds_off 1759  
                    __end_of_init_accel 1078                           __size_of_main 00D2  
                              _init_pic 10AA                                _init_isr 1078  
      determine_packets_to_send@packets 0041                  led3_command@brightness 00A0  
                        ??_led1_command 0046                          ??_led2_command 0046  
         __size_of_display_blade_lights 0335                                int$flags 007E  
                     led5_command@i_665 00A3                          ??_led3_command 0046  
                        ??_led4_command 0046        i1display_blade_lights@brightness 002E  
                     led5_command@green 0044                          ??_led5_command 0046  
                              _writespi 1097     __end_of_determine_omega_mode_active 07FF  
           _determine_omega_mode_active 07FA                        led1_command@blue 0045  
                           ??_init_conn 0040                             ??_init_leds 0045  
                              intlevel1 0000              determine_sword_was_swung@i 00A0  
            determine_sword_was_swung@x 00AD              determine_sword_was_swung@y 00AF  
         ??_determine_omega_mode_active 0040                i1led2_command@brightness 0078  
              i1led5_command@brightness 0078                       __CFG_CLKOUTEN$OFF 0000  
                        _display_health 1322                             ??_output_ir 0041  
                           _SSPCON1bits 0215                     i1led4_command@i_658 007B  
    __size_of_determine_sword_was_swung 012C                     i1led4_command@green 0074  
           ??_determine_packets_to_send 0040                display_blade_lights@blue 00B6  
              display_blade_lights@mode 00B2                 display_blade_lights@red 00B4  
