

Microchip Technology PIC LITE Macro Assembler V1.35 build -356382666 
                                                                                               Thu Oct 22 14:49:20 2015

Microchip Technology Omniscient Code Generator v1.35 (Free mode) build 201507080246
     1                           	processor	16F1788
     2                           	opt	pw 120
     3                           	opt	lm
     4                           	psect	idataCOMMON,global,class=CODE,delta=2
     5                           	psect	stringtext,global,class=STRCODE,delta=2
     6                           	psect	cinit,global,class=CODE,merge=1,delta=2
     7                           	psect	bssCOMMON,global,class=COMMON,space=1,delta=1
     8                           	psect	dataCOMMON,global,class=COMMON,space=1,delta=1
     9                           	psect	bssBANK0,global,class=BANK0,space=1,delta=1
    10                           	psect	cstackCOMMON,global,class=COMMON,space=1,delta=1
    11                           	psect	cstackBANK0,global,class=BANK0,space=1,delta=1
    12                           	psect	maintext,global,class=CODE,merge=1,split=1,delta=2
    13                           	psect	text1,local,class=CODE,merge=1,delta=2
    14                           	psect	text2,local,class=CODE,merge=1,delta=2
    15                           	psect	text3,local,class=CODE,merge=1,delta=2
    16                           	psect	text4,local,class=CODE,merge=1,delta=2
    17                           	dabs	1,0x7E,2
    18  0000                     	;# 
    19  0001                     	;# 
    20  0002                     	;# 
    21  0003                     	;# 
    22  0004                     	;# 
    23  0005                     	;# 
    24  0006                     	;# 
    25  0007                     	;# 
    26  0008                     	;# 
    27  0009                     	;# 
    28  000A                     	;# 
    29  000B                     	;# 
    30  000C                     	;# 
    31  000D                     	;# 
    32  000E                     	;# 
    33  0010                     	;# 
    34  0011                     	;# 
    35  0012                     	;# 
    36  0013                     	;# 
    37  0014                     	;# 
    38  0015                     	;# 
    39  0016                     	;# 
    40  0016                     	;# 
    41  0017                     	;# 
    42  0018                     	;# 
    43  0019                     	;# 
    44  001A                     	;# 
    45  001B                     	;# 
    46  001C                     	;# 
    47  008C                     	;# 
    48  008D                     	;# 
    49  008E                     	;# 
    50  0090                     	;# 
    51  0091                     	;# 
    52  0092                     	;# 
    53  0093                     	;# 
    54  0094                     	;# 
    55  0095                     	;# 
    56  0096                     	;# 
    57  0097                     	;# 
    58  0098                     	;# 
    59  0099                     	;# 
    60  009A                     	;# 
    61  009B                     	;# 
    62  009B                     	;# 
    63  009C                     	;# 
    64  009D                     	;# 
    65  009E                     	;# 
    66  009F                     	;# 
    67  010C                     	;# 
    68  010D                     	;# 
    69  010E                     	;# 
    70  0111                     	;# 
    71  0112                     	;# 
    72  0113                     	;# 
    73  0114                     	;# 
    74  0115                     	;# 
    75  0116                     	;# 
    76  0117                     	;# 
    77  0118                     	;# 
    78  0119                     	;# 
    79  011A                     	;# 
    80  011B                     	;# 
    81  011C                     	;# 
    82  011D                     	;# 
    83  011D                     	;# 
    84  011D                     	;# 
    85  011E                     	;# 
    86  011F                     	;# 
    87  018C                     	;# 
    88  018D                     	;# 
    89  018E                     	;# 
    90  0191                     	;# 
    91  0191                     	;# 
    92  0192                     	;# 
    93  0193                     	;# 
    94  0193                     	;# 
    95  0193                     	;# 
    96  0194                     	;# 
    97  0195                     	;# 
    98  0196                     	;# 
    99  0197                     	;# 
   100  0199                     	;# 
   101  0199                     	;# 
   102  0199                     	;# 
   103  019A                     	;# 
   104  019A                     	;# 
   105  019A                     	;# 
   106  019B                     	;# 
   107  019B                     	;# 
   108  019B                     	;# 
   109  019B                     	;# 
   110  019B                     	;# 
   111  019C                     	;# 
   112  019C                     	;# 
   113  019C                     	;# 
   114  019D                     	;# 
   115  019D                     	;# 
   116  019D                     	;# 
   117  019E                     	;# 
   118  019E                     	;# 
   119  019E                     	;# 
   120  019F                     	;# 
   121  019F                     	;# 
   122  019F                     	;# 
   123  019F                     	;# 
   124  019F                     	;# 
   125  020C                     	;# 
   126  020D                     	;# 
   127  020E                     	;# 
   128  0210                     	;# 
   129  0211                     	;# 
   130  0211                     	;# 
   131  0212                     	;# 
   132  0212                     	;# 
   133  0213                     	;# 
   134  0213                     	;# 
   135  0214                     	;# 
   136  0214                     	;# 
   137  0215                     	;# 
   138  0215                     	;# 
   139  0215                     	;# 
   140  0215                     	;# 
   141  0216                     	;# 
   142  0216                     	;# 
   143  0217                     	;# 
   144  0217                     	;# 
   145  028C                     	;# 
   146  028D                     	;# 
   147  028E                     	;# 
   148  0291                     	;# 
   149  0291                     	;# 
   150  0292                     	;# 
   151  0293                     	;# 
   152  0298                     	;# 
   153  0298                     	;# 
   154  0299                     	;# 
   155  029A                     	;# 
   156  030C                     	;# 
   157  030D                     	;# 
   158  030E                     	;# 
   159  0311                     	;# 
   160  0311                     	;# 
   161  0312                     	;# 
   162  0313                     	;# 
   163  038C                     	;# 
   164  038D                     	;# 
   165  038E                     	;# 
   166  0390                     	;# 
   167  0391                     	;# 
   168  0392                     	;# 
   169  0393                     	;# 
   170  0394                     	;# 
   171  0395                     	;# 
   172  0396                     	;# 
   173  0397                     	;# 
   174  0398                     	;# 
   175  0399                     	;# 
   176  039D                     	;# 
   177  039E                     	;# 
   178  039F                     	;# 
   179  0511                     	;# 
   180  0513                     	;# 
   181  051A                     	;# 
   182  0591                     	;# 
   183  0592                     	;# 
   184  0592                     	;# 
   185  0593                     	;# 
   186  0594                     	;# 
   187  0594                     	;# 
   188  0595                     	;# 
   189  0596                     	;# 
   190  0596                     	;# 
   191  0E91                     	;# 
   192  0E92                     	;# 
   193  0E93                     	;# 
   194  0E94                     	;# 
   195  0E95                     	;# 
   196  0E96                     	;# 
   197  0E97                     	;# 
   198  0E98                     	;# 
   199  0E99                     	;# 
   200  0E9A                     	;# 
   201  0E9B                     	;# 
   202  0E9C                     	;# 
   203  0E9D                     	;# 
   204  0E9E                     	;# 
   205  0E9F                     	;# 
   206  0EA0                     	;# 
   207  0EA1                     	;# 
   208  0EA1                     	;# 
   209  0EA2                     	;# 
   210  0EA3                     	;# 
   211  0EA3                     	;# 
   212  0EA4                     	;# 
   213  0EA5                     	;# 
   214  0EA5                     	;# 
   215  0EA6                     	;# 
   216  0EA7                     	;# 
   217  0EA7                     	;# 
   218  0EA8                     	;# 
   219  0EA9                     	;# 
   220  0EAA                     	;# 
   221  0EAB                     	;# 
   222  0EAC                     	;# 
   223  0EAD                     	;# 
   224  0EAE                     	;# 
   225  0EAF                     	;# 
   226  0EB1                     	;# 
   227  0EB2                     	;# 
   228  0EB3                     	;# 
   229  0EB4                     	;# 
   230  0EB5                     	;# 
   231  0EB6                     	;# 
   232  0EB7                     	;# 
   233  0EB8                     	;# 
   234  0EB9                     	;# 
   235  0EBA                     	;# 
   236  0EBB                     	;# 
   237  0EBC                     	;# 
   238  0EBD                     	;# 
   239  0EBE                     	;# 
   240  0EBF                     	;# 
   241  0EC0                     	;# 
   242  0EC1                     	;# 
   243  0EC1                     	;# 
   244  0EC2                     	;# 
   245  0EC3                     	;# 
   246  0EC3                     	;# 
   247  0EC4                     	;# 
   248  0EC5                     	;# 
   249  0EC5                     	;# 
   250  0EC6                     	;# 
   251  0EC7                     	;# 
   252  0EC7                     	;# 
   253  0EC8                     	;# 
   254  0EC9                     	;# 
   255  0ECA                     	;# 
   256  0ECB                     	;# 
   257  0ECC                     	;# 
   258  0ECD                     	;# 
   259  0ECE                     	;# 
   260  0ECF                     	;# 
   261  0ED1                     	;# 
   262  0ED2                     	;# 
   263  0ED3                     	;# 
   264  0ED4                     	;# 
   265  0ED5                     	;# 
   266  0ED6                     	;# 
   267  0ED7                     	;# 
   268  0ED8                     	;# 
   269  0ED9                     	;# 
   270  0EDA                     	;# 
   271  0EDB                     	;# 
   272  0EDC                     	;# 
   273  0EDD                     	;# 
   274  0EDE                     	;# 
   275  0EDF                     	;# 
   276  0EE0                     	;# 
   277  0EE1                     	;# 
   278  0EE1                     	;# 
   279  0EE2                     	;# 
   280  0EE3                     	;# 
   281  0EE3                     	;# 
   282  0EE4                     	;# 
   283  0EE5                     	;# 
   284  0EE5                     	;# 
   285  0EE6                     	;# 
   286  0EE7                     	;# 
   287  0EE7                     	;# 
   288  0EE8                     	;# 
   289  0EE9                     	;# 
   290  0EEA                     	;# 
   291  0EEB                     	;# 
   292  0EEC                     	;# 
   293  0EED                     	;# 
   294  0EEE                     	;# 
   295  0EEF                     	;# 
   296  0F11                     	;# 
   297  0F12                     	;# 
   298  0F13                     	;# 
   299  0F14                     	;# 
   300  0F15                     	;# 
   301  0F16                     	;# 
   302  0F17                     	;# 
   303  0F18                     	;# 
   304  0F19                     	;# 
   305  0F1A                     	;# 
   306  0F1B                     	;# 
   307  0F1C                     	;# 
   308  0F1D                     	;# 
   309  0F1E                     	;# 
   310  0F1F                     	;# 
   311  0F20                     	;# 
   312  0F21                     	;# 
   313  0F21                     	;# 
   314  0F22                     	;# 
   315  0F23                     	;# 
   316  0F23                     	;# 
   317  0F24                     	;# 
   318  0F25                     	;# 
   319  0F25                     	;# 
   320  0F26                     	;# 
   321  0F27                     	;# 
   322  0F27                     	;# 
   323  0F28                     	;# 
   324  0F29                     	;# 
   325  0F2A                     	;# 
   326  0F2B                     	;# 
   327  0F2C                     	;# 
   328  0F2D                     	;# 
   329  0F2E                     	;# 
   330  0F2F                     	;# 
   331  0FE4                     	;# 
   332  0FE5                     	;# 
   333  0FE6                     	;# 
   334  0FE7                     	;# 
   335  0FE8                     	;# 
   336  0FE9                     	;# 
   337  0FEA                     	;# 
   338  0FEB                     	;# 
   339  0FED                     	;# 
   340  0FEE                     	;# 
   341  0FEF                     	;# 
   342  0000                     	;# 
   343  0001                     	;# 
   344  0002                     	;# 
   345  0003                     	;# 
   346  0004                     	;# 
   347  0005                     	;# 
   348  0006                     	;# 
   349  0007                     	;# 
   350  0008                     	;# 
   351  0009                     	;# 
   352  000A                     	;# 
   353  000B                     	;# 
   354  000C                     	;# 
   355  000D                     	;# 
   356  000E                     	;# 
   357  0010                     	;# 
   358  0011                     	;# 
   359  0012                     	;# 
   360  0013                     	;# 
   361  0014                     	;# 
   362  0015                     	;# 
   363  0016                     	;# 
   364  0016                     	;# 
   365  0017                     	;# 
   366  0018                     	;# 
   367  0019                     	;# 
   368  001A                     	;# 
   369  001B                     	;# 
   370  001C                     	;# 
   371  008C                     	;# 
   372  008D                     	;# 
   373  008E                     	;# 
   374  0090                     	;# 
   375  0091                     	;# 
   376  0092                     	;# 
   377  0093                     	;# 
   378  0094                     	;# 
   379  0095                     	;# 
   380  0096                     	;# 
   381  0097                     	;# 
   382  0098                     	;# 
   383  0099                     	;# 
   384  009A                     	;# 
   385  009B                     	;# 
   386  009B                     	;# 
   387  009C                     	;# 
   388  009D                     	;# 
   389  009E                     	;# 
   390  009F                     	;# 
   391  010C                     	;# 
   392  010D                     	;# 
   393  010E                     	;# 
   394  0111                     	;# 
   395  0112                     	;# 
   396  0113                     	;# 
   397  0114                     	;# 
   398  0115                     	;# 
   399  0116                     	;# 
   400  0117                     	;# 
   401  0118                     	;# 
   402  0119                     	;# 
   403  011A                     	;# 
   404  011B                     	;# 
   405  011C                     	;# 
   406  011D                     	;# 
   407  011D                     	;# 
   408  011D                     	;# 
   409  011E                     	;# 
   410  011F                     	;# 
   411  018C                     	;# 
   412  018D                     	;# 
   413  018E                     	;# 
   414  0191                     	;# 
   415  0191                     	;# 
   416  0192                     	;# 
   417  0193                     	;# 
   418  0193                     	;# 
   419  0193                     	;# 
   420  0194                     	;# 
   421  0195                     	;# 
   422  0196                     	;# 
   423  0197                     	;# 
   424  0199                     	;# 
   425  0199                     	;# 
   426  0199                     	;# 
   427  019A                     	;# 
   428  019A                     	;# 
   429  019A                     	;# 
   430  019B                     	;# 
   431  019B                     	;# 
   432  019B                     	;# 
   433  019B                     	;# 
   434  019B                     	;# 
   435  019C                     	;# 
   436  019C                     	;# 
   437  019C                     	;# 
   438  019D                     	;# 
   439  019D                     	;# 
   440  019D                     	;# 
   441  019E                     	;# 
   442  019E                     	;# 
   443  019E                     	;# 
   444  019F                     	;# 
   445  019F                     	;# 
   446  019F                     	;# 
   447  019F                     	;# 
   448  019F                     	;# 
   449  020C                     	;# 
   450  020D                     	;# 
   451  020E                     	;# 
   452  0210                     	;# 
   453  0211                     	;# 
   454  0211                     	;# 
   455  0212                     	;# 
   456  0212                     	;# 
   457  0213                     	;# 
   458  0213                     	;# 
   459  0214                     	;# 
   460  0214                     	;# 
   461  0215                     	;# 
   462  0215                     	;# 
   463  0215                     	;# 
   464  0215                     	;# 
   465  0216                     	;# 
   466  0216                     	;# 
   467  0217                     	;# 
   468  0217                     	;# 
   469  028C                     	;# 
   470  028D                     	;# 
   471  028E                     	;# 
   472  0291                     	;# 
   473  0291                     	;# 
   474  0292                     	;# 
   475  0293                     	;# 
   476  0298                     	;# 
   477  0298                     	;# 
   478  0299                     	;# 
   479  029A                     	;# 
   480  030C                     	;# 
   481  030D                     	;# 
   482  030E                     	;# 
   483  0311                     	;# 
   484  0311                     	;# 
   485  0312                     	;# 
   486  0313                     	;# 
   487  038C                     	;# 
   488  038D                     	;# 
   489  038E                     	;# 
   490  0390                     	;# 
   491  0391                     	;# 
   492  0392                     	;# 
   493  0393                     	;# 
   494  0394                     	;# 
   495  0395                     	;# 
   496  0396                     	;# 
   497  0397                     	;# 
   498  0398                     	;# 
   499  0399                     	;# 
   500  039D                     	;# 
   501  039E                     	;# 
   502  039F                     	;# 
   503  0511                     	;# 
   504  0513                     	;# 
   505  051A                     	;# 
   506  0591                     	;# 
   507  0592                     	;# 
   508  0592                     	;# 
   509  0593                     	;# 
   510  0594                     	;# 
   511  0594                     	;# 
   512  0595                     	;# 
   513  0596                     	;# 
   514  0596                     	;# 
   515  0E91                     	;# 
   516  0E92                     	;# 
   517  0E93                     	;# 
   518  0E94                     	;# 
   519  0E95                     	;# 
   520  0E96                     	;# 
   521  0E97                     	;# 
   522  0E98                     	;# 
   523  0E99                     	;# 
   524  0E9A                     	;# 
   525  0E9B                     	;# 
   526  0E9C                     	;# 
   527  0E9D                     	;# 
   528  0E9E                     	;# 
   529  0E9F                     	;# 
   530  0EA0                     	;# 
   531  0EA1                     	;# 
   532  0EA1                     	;# 
   533  0EA2                     	;# 
   534  0EA3                     	;# 
   535  0EA3                     	;# 
   536  0EA4                     	;# 
   537  0EA5                     	;# 
   538  0EA5                     	;# 
   539  0EA6                     	;# 
   540  0EA7                     	;# 
   541  0EA7                     	;# 
   542  0EA8                     	;# 
   543  0EA9                     	;# 
   544  0EAA                     	;# 
   545  0EAB                     	;# 
   546  0EAC                     	;# 
   547  0EAD                     	;# 
   548  0EAE                     	;# 
   549  0EAF                     	;# 
   550  0EB1                     	;# 
   551  0EB2                     	;# 
   552  0EB3                     	;# 
   553  0EB4                     	;# 
   554  0EB5                     	;# 
   555  0EB6                     	;# 
   556  0EB7                     	;# 
   557  0EB8                     	;# 
   558  0EB9                     	;# 
   559  0EBA                     	;# 
   560  0EBB                     	;# 
   561  0EBC                     	;# 
   562  0EBD                     	;# 
   563  0EBE                     	;# 
   564  0EBF                     	;# 
   565  0EC0                     	;# 
   566  0EC1                     	;# 
   567  0EC1                     	;# 
   568  0EC2                     	;# 
   569  0EC3                     	;# 
   570  0EC3                     	;# 
   571  0EC4                     	;# 
   572  0EC5                     	;# 
   573  0EC5                     	;# 
   574  0EC6                     	;# 
   575  0EC7                     	;# 
   576  0EC7                     	;# 
   577  0EC8                     	;# 
   578  0EC9                     	;# 
   579  0ECA                     	;# 
   580  0ECB                     	;# 
   581  0ECC                     	;# 
   582  0ECD                     	;# 
   583  0ECE                     	;# 
   584  0ECF                     	;# 
   585  0ED1                     	;# 
   586  0ED2                     	;# 
   587  0ED3                     	;# 
   588  0ED4                     	;# 
   589  0ED5                     	;# 
   590  0ED6                     	;# 
   591  0ED7                     	;# 
   592  0ED8                     	;# 
   593  0ED9                     	;# 
   594  0EDA                     	;# 
   595  0EDB                     	;# 
   596  0EDC                     	;# 
   597  0EDD                     	;# 
   598  0EDE                     	;# 
   599  0EDF                     	;# 
   600  0EE0                     	;# 
   601  0EE1                     	;# 
   602  0EE1                     	;# 
   603  0EE2                     	;# 
   604  0EE3                     	;# 
   605  0EE3                     	;# 
   606  0EE4                     	;# 
   607  0EE5                     	;# 
   608  0EE5                     	;# 
   609  0EE6                     	;# 
   610  0EE7                     	;# 
   611  0EE7                     	;# 
   612  0EE8                     	;# 
   613  0EE9                     	;# 
   614  0EEA                     	;# 
   615  0EEB                     	;# 
   616  0EEC                     	;# 
   617  0EED                     	;# 
   618  0EEE                     	;# 
   619  0EEF                     	;# 
   620  0F11                     	;# 
   621  0F12                     	;# 
   622  0F13                     	;# 
   623  0F14                     	;# 
   624  0F15                     	;# 
   625  0F16                     	;# 
   626  0F17                     	;# 
   627  0F18                     	;# 
   628  0F19                     	;# 
   629  0F1A                     	;# 
   630  0F1B                     	;# 
   631  0F1C                     	;# 
   632  0F1D                     	;# 
   633  0F1E                     	;# 
   634  0F1F                     	;# 
   635  0F20                     	;# 
   636  0F21                     	;# 
   637  0F21                     	;# 
   638  0F22                     	;# 
   639  0F23                     	;# 
   640  0F23                     	;# 
   641  0F24                     	;# 
   642  0F25                     	;# 
   643  0F25                     	;# 
   644  0F26                     	;# 
   645  0F27                     	;# 
   646  0F27                     	;# 
   647  0F28                     	;# 
   648  0F29                     	;# 
   649  0F2A                     	;# 
   650  0F2B                     	;# 
   651  0F2C                     	;# 
   652  0F2D                     	;# 
   653  0F2E                     	;# 
   654  0F2F                     	;# 
   655  0FE4                     	;# 
   656  0FE5                     	;# 
   657  0FE6                     	;# 
   658  0FE7                     	;# 
   659  0FE8                     	;# 
   660  0FE9                     	;# 
   661  0FEA                     	;# 
   662  0FEB                     	;# 
   663  0FED                     	;# 
   664  0FEE                     	;# 
   665  0FEF                     	;# 
   666                           
   667                           	psect	idataCOMMON
   668  0000'                    __pidataCOMMON:	
   669                           
   670                           ;initializer for _health
   671  0000' 3432               	retlw	50
   672  005F                     _GIE	set	95
   673  006B                     _RB3	set	107
   674  008D                     _RCIF	set	141
   675  0099                     _OSCCON	set	153
   676  008D                     _TRISB	set	141
   677  008E                     _TRISC	set	142
   678  048D                     _RCIE	set	1165
   679  0199                     _RCREG	set	409
   680  019B                     _SPBRG	set	411
   681  019A                     _TXREG	set	410
   682  0CFB                     _BRG16	set	3323
   683  0CF2                     _BRGH	set	3314
   684  0CEC                     _CREN	set	3308
   685  0CEF                     _SPEN	set	3311
   686  0CF4                     _SYNC	set	3316
   687  0CF1                     _TRMT	set	3313
   688  0CF5                     _TXEN	set	3317
   689                           
   690                           	psect	stringtext
   691  0000'                    __pstringtext:	
   692  0000'                    STR_6:	
   693  0000' 340A               	retlw	10
   694  0001' 340D               	retlw	13
   695  0002' 3447               	retlw	71	;'G'
   696  0003' 346F               	retlw	111	;'o'
   697  0004' 346F               	retlw	111	;'o'
   698  0005' 3464               	retlw	100	;'d'
   699  0006' 3420               	retlw	32	;' '
   700  0007' 346A               	retlw	106	;'j'
   701  0008' 346F               	retlw	111	;'o'
   702  0009' 3462               	retlw	98	;'b'
   703  000A' 342E               	retlw	46	;'.'
   704  000B' 3420               	retlw	32	;' '
   705  000C' 3459               	retlw	89	;'Y'
   706  000D' 346F               	retlw	111	;'o'
   707  000E' 3475               	retlw	117	;'u'
   708  000F' 3420               	retlw	32	;' '
   709  0010' 346B               	retlw	107	;'k'
   710  0011' 346E               	retlw	110	;'n'
   711  0012' 346F               	retlw	111	;'o'
   712  0013' 3477               	retlw	119	;'w'
   713  0014' 3420               	retlw	32	;' '
   714  0015' 3468               	retlw	104	;'h'
   715  0016' 346F               	retlw	111	;'o'
   716  0017' 3477               	retlw	119	;'w'
   717  0018' 3420               	retlw	32	;' '
   718  0019' 3474               	retlw	116	;'t'
   719  001A' 346F               	retlw	111	;'o'
   720  001B' 3420               	retlw	32	;' '
   721  001C' 3472               	retlw	114	;'r'
   722  001D' 3465               	retlw	101	;'e'
   723  001E' 3461               	retlw	97	;'a'
   724  001F' 3464               	retlw	100	;'d'
   725  0020' 3420               	retlw	32	;' '
   726  0021' 3469               	retlw	105	;'i'
   727  0022' 346E               	retlw	110	;'n'
   728  0023' 3473               	retlw	115	;'s'
   729  0024' 3474               	retlw	116	;'t'
   730  0025' 3472               	retlw	114	;'r'
   731  0026' 3475               	retlw	117	;'u'
   732  0027' 3463               	retlw	99	;'c'
   733  0028' 3474               	retlw	116	;'t'
   734  0029' 3469               	retlw	105	;'i'
   735  002A' 346F               	retlw	111	;'o'
   736  002B' 346E               	retlw	110	;'n'
   737  002C' 3473               	retlw	115	;'s'
   738  002D' 342E               	retlw	46	;'.'
   739  002E' 340A               	retlw	10
   740  002F' 340A               	retlw	10
   741  0030' 3400               	retlw	0
   742  0031'                    STR_5:	
   743  0031' 3450               	retlw	80	;'P'
   744  0032' 346C               	retlw	108	;'l'
   745  0033' 3465               	retlw	101	;'e'
   746  0034' 3461               	retlw	97	;'a'
   747  0035' 3473               	retlw	115	;'s'
   748  0036' 3465               	retlw	101	;'e'
   749  0037' 3420               	retlw	32	;' '
   750  0038' 3465               	retlw	101	;'e'
   751  0039' 346E               	retlw	110	;'n'
   752  003A' 3474               	retlw	116	;'t'
   753  003B' 3465               	retlw	101	;'e'
   754  003C' 3472               	retlw	114	;'r'
   755  003D' 3420               	retlw	32	;' '
   756  003E' 3474               	retlw	116	;'t'
   757  003F' 3468               	retlw	104	;'h'
   758  0040' 3465               	retlw	101	;'e'
   759  0041' 3420               	retlw	32	;' '
   760  0042' 3463               	retlw	99	;'c'
   761  0043' 3468               	retlw	104	;'h'
   762  0044' 3461               	retlw	97	;'a'
   763  0045' 3472               	retlw	114	;'r'
   764  0046' 3461               	retlw	97	;'a'
   765  0047' 3463               	retlw	99	;'c'
   766  0048' 3474               	retlw	116	;'t'
   767  0049' 3465               	retlw	101	;'e'
   768  004A' 3472               	retlw	114	;'r'
   769  004B' 3420               	retlw	32	;' '
   770  004C' 3441               	retlw	65	;'A'
   771  004D' 343A               	retlw	58	;':'
   772  004E' 3420               	retlw	32	;' '
   773  004F' 3400               	retlw	0
   774  0050'                    STR_7:	
   775  0050' 340A               	retlw	10
   776  0051' 340D               	retlw	13
   777  0052' 3457               	retlw	87	;'W'
   778  0053' 3472               	retlw	114	;'r'
   779  0054' 346F               	retlw	111	;'o'
   780  0055' 346E               	retlw	110	;'n'
   781  0056' 3467               	retlw	103	;'g'
   782  0057' 3420               	retlw	32	;' '
   783  0058' 346B               	retlw	107	;'k'
   784  0059' 3465               	retlw	101	;'e'
   785  005A' 3479               	retlw	121	;'y'
   786  005B' 342E               	retlw	46	;'.'
   787  005C' 3420               	retlw	32	;' '
   788  005D' 3454               	retlw	84	;'T'
   789  005E' 3472               	retlw	114	;'r'
   790  005F' 3479               	retlw	121	;'y'
   791  0060' 3420               	retlw	32	;' '
   792  0061' 3461               	retlw	97	;'a'
   793  0062' 3467               	retlw	103	;'g'
   794  0063' 3461               	retlw	97	;'a'
   795  0064' 3469               	retlw	105	;'i'
   796  0065' 346E               	retlw	110	;'n'
   797  0066' 342E               	retlw	46	;'.'
   798  0067' 340A               	retlw	10
   799  0068' 340D               	retlw	13
   800  0069' 3400               	retlw	0
   801  006A'                    STR_4:	
   802  006A' 340A               	retlw	10
   803  006B' 340D               	retlw	13
   804  006C' 344D               	retlw	77	;'M'
   805  006D' 3461               	retlw	97	;'a'
   806  006E' 3469               	retlw	105	;'i'
   807  006F' 346E               	retlw	110	;'n'
   808  0070' 3420               	retlw	32	;' '
   809  0071' 344C               	retlw	76	;'L'
   810  0072' 346F               	retlw	111	;'o'
   811  0073' 346F               	retlw	111	;'o'
   812  0074' 3470               	retlw	112	;'p'
   813  0075' 3420               	retlw	32	;' '
   814  0076' 3449               	retlw	73	;'I'
   815  0077' 346E               	retlw	110	;'n'
   816  0078' 3464               	retlw	100	;'d'
   817  0079' 3469               	retlw	105	;'i'
   818  007A' 3476               	retlw	118	;'v'
   819  007B' 3469               	retlw	105	;'i'
   820  007C' 3464               	retlw	100	;'d'
   821  007D' 3475               	retlw	117	;'u'
   822  007E' 3461               	retlw	97	;'a'
   823  007F' 346C               	retlw	108	;'l'
   824  0080' 340A               	retlw	10
   825  0081' 340D               	retlw	13
   826  0082' 3400               	retlw	0
   827  0083'                    STR_3:	
   828  0083' 344F               	retlw	79	;'O'
   829  0084' 346D               	retlw	109	;'m'
   830  0085' 3465               	retlw	101	;'e'
   831  0086' 3467               	retlw	103	;'g'
   832  0087' 3461               	retlw	97	;'a'
   833  0088' 3420               	retlw	32	;' '
   834  0089' 346D               	retlw	109	;'m'
   835  008A' 346F               	retlw	111	;'o'
   836  008B' 3464               	retlw	100	;'d'
   837  008C' 3465               	retlw	101	;'e'
   838  008D' 3420               	retlw	32	;' '
   839  008E' 3464               	retlw	100	;'d'
   840  008F' 3469               	retlw	105	;'i'
   841  0090' 3473               	retlw	115	;'s'
   842  0091' 3461               	retlw	97	;'a'
   843  0092' 3462               	retlw	98	;'b'
   844  0093' 346C               	retlw	108	;'l'
   845  0094' 3465               	retlw	101	;'e'
   846  0095' 3464               	retlw	100	;'d'
   847  0096' 342E               	retlw	46	;'.'
   848  0097' 340A               	retlw	10
   849  0098' 340D               	retlw	13
   850  0099' 3400               	retlw	0
   851  009A'                    STR_2:	
   852  009A' 344F               	retlw	79	;'O'
   853  009B' 346D               	retlw	109	;'m'
   854  009C' 3465               	retlw	101	;'e'
   855  009D' 3467               	retlw	103	;'g'
   856  009E' 3461               	retlw	97	;'a'
   857  009F' 3420               	retlw	32	;' '
   858  00A0' 346D               	retlw	109	;'m'
   859  00A1' 346F               	retlw	111	;'o'
   860  00A2' 3464               	retlw	100	;'d'
   861  00A3' 3465               	retlw	101	;'e'
   862  00A4' 3420               	retlw	32	;' '
   863  00A5' 3465               	retlw	101	;'e'
   864  00A6' 346E               	retlw	110	;'n'
   865  00A7' 3461               	retlw	97	;'a'
   866  00A8' 3462               	retlw	98	;'b'
   867  00A9' 346C               	retlw	108	;'l'
   868  00AA' 3465               	retlw	101	;'e'
   869  00AB' 3464               	retlw	100	;'d'
   870  00AC' 342E               	retlw	46	;'.'
   871  00AD' 340A               	retlw	10
   872  00AE' 340D               	retlw	13
   873  00AF' 3400               	retlw	0
   874  00B0'                    STR_1:	
   875  00B0' 3453               	retlw	83	;'S'
   876  00B1' 3477               	retlw	119	;'w'
   877  00B2' 346F               	retlw	111	;'o'
   878  00B3' 3472               	retlw	114	;'r'
   879  00B4' 3464               	retlw	100	;'d'
   880  00B5' 3420               	retlw	32	;' '
   881  00B6' 3477               	retlw	119	;'w'
   882  00B7' 3461               	retlw	97	;'a'
   883  00B8' 3473               	retlw	115	;'s'
   884  00B9' 3420               	retlw	32	;' '
   885  00BA' 3473               	retlw	115	;'s'
   886  00BB' 3477               	retlw	119	;'w'
   887  00BC' 3475               	retlw	117	;'u'
   888  00BD' 346E               	retlw	110	;'n'
   889  00BE' 3467               	retlw	103	;'g'
   890  00BF' 340A               	retlw	10
   891  00C0' 340D               	retlw	13
   892  00C1' 3400               	retlw	0
   893                           
   894                           ; #config settings
   895  0000                     
   896                           	psect	cinit
   897  0000'                    start_initialization:	
   898  0000'                    __initialization:	
   899                           
   900                           ; Clear objects allocated to COMMON
   901  0000' 0180'              	clrf	__pbssCOMMON& (0+127)
   902  0001' 0180'              	clrf	(__pbssCOMMON+1)& (0+127)
   903                           
   904                           ; Clear objects allocated to BANK0
   905  0002' 0180'              	clrf	__pbssBANK0& (0+127)
   906  0003' 0180'              	clrf	(__pbssBANK0+1)& (0+127)
   907  0004' 0180'              	clrf	(__pbssBANK0+2)& (0+127)
   908  0005' 0180'              	clrf	(__pbssBANK0+3)& (0+127)
   909                           
   910                           ; Initialize objects allocated to COMMON
   911  0006' 3180' 2000'        	fcall	__pidataCOMMON	;fetch initializer
   912  0008' 0080'              	movwf	__pdataCOMMON& (0+127)
   913  0009'                    end_of_initialization:	
   914                           ;End of C runtime variable initialization code
   915                           
   916  0009'                    __end_of__initialization:	
   917  0009' 0020               	movlb	0
   918  000A' 3180' 2800'        	ljmp	_main	;jump to C main() function
   919                           
   920                           	psect	bssCOMMON
   921  0000'                    __pbssCOMMON:	
   922  0000'                    _blade:	
   923  0000'                    	ds	1
   924  0001'                    _stun_counter:	
   925  0001'                    	ds	1
   926                           
   927                           	psect	dataCOMMON
   928  0000'                    __pdataCOMMON:	
   929  0000'                    _health:	
   930  0000'                    	ds	1
   931                           
   932                           	psect	bssBANK0
   933  0000'                    __pbssBANK0:	
   934  0000'                    main@F7229:	
   935  0000'                    	ds	3
   936  0003'                    _omega_mode:	
   937  0003'                    	ds	1
   938                           
   939                           	psect	cstackCOMMON
   940  0000'                    __pcstackCOMMON:	
   941  0000'                    ?_init_pic:	
   942  0000'                    ??_init_pic:	
   943                           ; 0 bytes @ 0x0
   944                           
   945  0000'                    ?_init_uart:	
   946                           ; 0 bytes @ 0x0
   947                           
   948  0000'                    ??_init_uart:	
   949                           ; 0 bytes @ 0x0
   950                           
   951  0000'                    ?_init_ir:	
   952                           ; 0 bytes @ 0x0
   953                           
   954  0000'                    ??_init_ir:	
   955                           ; 0 bytes @ 0x0
   956                           
   957  0000'                    ?_init_accel:	
   958                           ; 0 bytes @ 0x0
   959                           
   960  0000'                    ??_init_accel:	
   961                           ; 0 bytes @ 0x0
   962                           
   963  0000'                    ?_init_leds:	
   964                           ; 0 bytes @ 0x0
   965                           
   966  0000'                    ??_init_leds:	
   967                           ; 0 bytes @ 0x0
   968                           
   969  0000'                    ?_init_isr:	
   970                           ; 0 bytes @ 0x0
   971                           
   972  0000'                    ??_init_isr:	
   973                           ; 0 bytes @ 0x0
   974                           
   975  0000'                    ?_display_health:	
   976                           ; 0 bytes @ 0x0
   977                           
   978  0000'                    ??_display_health:	
   979                           ; 0 bytes @ 0x0
   980                           
   981  0000'                    ??_determine_sword_was_swung:	
   982                           ; 0 bytes @ 0x0
   983                           
   984  0000'                    ??_determine_omega_mode_active:	
   985                           ; 0 bytes @ 0x0
   986                           
   987  0000'                    ?_determine_packets_to_send:	
   988                           ; 0 bytes @ 0x0
   989                           
   990  0000'                    ??_determine_packets_to_send:	
   991                           ; 0 bytes @ 0x0
   992                           
   993  0000'                    ?_output_ir:	
   994                           ; 0 bytes @ 0x0
   995                           
   996  0000'                    ?_play_sound:	
   997                           ; 0 bytes @ 0x0
   998                           
   999  0000'                    ??_play_sound:	
  1000                           ; 0 bytes @ 0x0
  1001                           
  1002  0000'                    ?_display_blade_lights:	
  1003                           ; 0 bytes @ 0x0
  1004                           
  1005  0000'                    ??_display_blade_lights:	
  1006                           ; 0 bytes @ 0x0
  1007                           
  1008  0000'                    ?_putch:	
  1009                           ; 0 bytes @ 0x0
  1010                           
  1011  0000'                    ??_putch:	
  1012                           ; 0 bytes @ 0x0
  1013                           
  1014  0000'                    ?_determine_sword_was_swung:	
  1015                           ; 0 bytes @ 0x0
  1016                           
  1017  0000'                    ?_determine_omega_mode_active:	
  1018                           ; 1 bytes @ 0x0
  1019                           
  1020  0000'                    ?_main:	
  1021                           ; 1 bytes @ 0x0
  1022                           
  1023  0000'                    _determine_packets_to_send$0:	
  1024                           ; 2 bytes @ 0x0
  1025                           
  1026  0000'                    _output_ir$1:	
  1027                           ; 1 bytes @ 0x0
  1028                           
  1029  0000'                    putch@input:	
  1030                           ; 1 bytes @ 0x0
  1031                           
  1032                           
  1033                           ; 1 bytes @ 0x0
  1034  0000'                    	ds	1
  1035  0001'                    ??_output_ir:	
  1036  0001'                    ?_printf:	
  1037                           ; 0 bytes @ 0x1
  1038                           
  1039  0001'                    printf@f:	
  1040                           ; 2 bytes @ 0x1
  1041                           
  1042                           
  1043                           ; 2 bytes @ 0x1
  1044  0001'                    	ds	2
  1045  0003'                    ??_printf:	
  1046                           
  1047                           ; 0 bytes @ 0x3
  1048  0003'                    	ds	3
  1049  0006'                    printf@ap:	
  1050                           
  1051                           ; 1 bytes @ 0x6
  1052  0006'                    	ds	1
  1053  0007'                    printf@c:	
  1054                           
  1055                           ; 1 bytes @ 0x7
  1056  0007'                    	ds	1
  1057  0008'                    ??_main:	
  1058                           
  1059                           ; 0 bytes @ 0x8
  1060  0008'                    	ds	3
  1061                           
  1062                           	psect	cstackBANK0
  1063  0000'                    __pcstackBANK0:	
  1064  0000'                    main@pkt_arr:	
  1065                           
  1066                           ; 3 bytes @ 0x0
  1067  0000'                    	ds	3
  1068  0003'                    main@userInput:	
  1069                           
  1070                           ; 1 bytes @ 0x3
  1071  0003'                    	ds	1
  1072  0004'                    main@i:	
  1073                           
  1074                           ; 1 bytes @ 0x4
  1075  0004'                    	ds	1
  1076                           
  1077                           	psect	maintext
  1078  0000'                    __pmaintext:	
  1079 ;;
  1080 ;;Main: autosize = 0, tempsize = 3, incstack = 0, save=0
  1081 ;;
  1082 ;; *************** function _main *****************
  1083 ;; Defined at:
  1084 ;;		line 18 in file "../../source/main.c"
  1085 ;; Parameters:    Size  Location     Type
  1086 ;;		None
  1087 ;; Auto vars:     Size  Location     Type
  1088 ;;  pkt_arr         3    0[BANK0 ] unsigned char [3]
  1089 ;;  i               1    4[BANK0 ] unsigned char 
  1090 ;;  userInput       1    3[BANK0 ] unsigned char 
  1091 ;; Return value:  Size  Location     Type
  1092 ;;                  2   48[None  ] int 
  1093 ;; Registers used:
  1094 ;;		wreg, fsr0l, fsr0h, fsr1l, fsr1h, fsr1l, fsr1h, status,2, status,0, pclath, cstack
  1095 ;; Tracked objects:
  1096 ;;		On entry : B1F/0
  1097 ;;		On exit  : 0/0
  1098 ;;		Unchanged: 0/0
  1099 ;; Data sizes:     COMMON   BANK0   BANK1   BANK2   BANK3   BANK4   BANK5   BANK6   BANK7   BANK8   BANK9  BANK10  BANK1
      +1  BANK12  BANK13  BANK14  BANK15  BANK16  BANK17  BANK18  BANK19  BANK20  BANK21  BANK22  BANK23  BANK24  BANK25
  1100 ;;      Params:         0       0       0       0       0       0       0       0       0       0       0       0       
      +0       0       0       0       0       0       0       0       0       0       0       0       0       0       0
  1101 ;;      Locals:         0       5       0       0       0       0       0       0       0       0       0       0       
      +0       0       0       0       0       0       0       0       0       0       0       0       0       0       0
  1102 ;;      Temps:          3       0       0       0       0       0       0       0       0       0       0       0       
      +0       0       0       0       0       0       0       0       0       0       0       0       0       0       0
  1103 ;;      Totals:         3       5       0       0       0       0       0       0       0       0       0       0       
      +0       0       0       0       0       0       0       0       0       0       0       0       0       0       0
  1104 ;;Total ram usage:        8 bytes
  1105 ;; Hardware stack levels required when called:    2
  1106 ;; This function calls:
  1107 ;;		_determine_omega_mode_active
  1108 ;;		_determine_packets_to_send
  1109 ;;		_determine_sword_was_swung
  1110 ;;		_display_blade_lights
  1111 ;;		_display_health
  1112 ;;		_init_accel
  1113 ;;		_init_ir
  1114 ;;		_init_isr
  1115 ;;		_init_leds
  1116 ;;		_init_pic
  1117 ;;		_init_uart
  1118 ;;		_output_ir
  1119 ;;		_play_sound
  1120 ;;		_printf
  1121 ;; This function is called by:
  1122 ;;		Startup code after reset
  1123 ;; This function uses a non-reentrant model
  1124 ;;
  1125                           
  1126                           
  1127                           ;psect for function _main
  1128  0000'                    _main:	
  1129                           
  1130                           ;main.c: 20: char pkt_arr[] = {0, 0, 0};
  1131                           
  1132                           ;incstack = 0
  1133                           ; Regs used in _main: [allreg]
  1134  0000' 0020               	movlb	0	; select bank0
  1135  0001' 0800'              	movf	main@F7229,w
  1136  0002' 0080'              	movwf	main@pkt_arr
  1137  0003' 0801'              	movf	main@F7229+1,w
  1138  0004' 0081'              	movwf	main@pkt_arr+1
  1139  0005' 0802'              	movf	main@F7229+2,w
  1140  0006' 0082'              	movwf	main@pkt_arr+2
  1141                           
  1142                           ;main.c: 21: char userInput = ' ';
  1143  0007' 3020               	movlw	32
  1144  0008' 0088'              	movwf	??_main
  1145  0009' 0808'              	movf	??_main,w
  1146  000A' 0083'              	movwf	main@userInput
  1147                           
  1148                           ;main.c: 22: char i = 0;
  1149  000B' 0184'              	clrf	main@i
  1150                           
  1151                           ;main.c: 25: init_pic();
  1152  000C' 3180' 2000' 3180'  	fcall	_init_pic
  1153                           
  1154                           ;main.c: 26: init_uart();
  1155  000F' 3180' 2000' 3180'  	fcall	_init_uart
  1156                           
  1157                           ;main.c: 29: _delay((unsigned long)((100)*(32000000/4000.0)));
  1158  0012' 3005               	movlw	5
  1159  0013' 008A'              	movwf	??_main+2
  1160  0014' 300F               	movlw	15
  1161  0015' 0089'              	movwf	??_main+1
  1162  0016' 30F4               	movlw	244
  1163  0017' 0088'              	movwf	??_main
  1164  0018'                    u237:	
  1165  0018' 0B88'              	decfsz	??_main,f
  1166  0019' 2800'              	goto	u237
  1167  001A' 0B89'              	decfsz	??_main+1,f
  1168  001B' 2800'              	goto	u237
  1169  001C' 0B8A'              	decfsz	??_main+2,f
  1170  001D' 2800'              	goto	u237
  1171                           
  1172                           ;main.c: 30: RB3 = 1;
  1173  001E' 0020               	movlb	0	; select bank0
  1174  001F' 158D               	bsf	13,3	;volatile
  1175                           
  1176                           ;main.c: 33: init_ir();
  1177  0020' 3180' 2000' 3180'  	fcall	_init_ir
  1178                           
  1179                           ;main.c: 34: init_accel();
  1180  0023' 3180' 2000' 3180'  	fcall	_init_accel
  1181                           
  1182                           ;main.c: 35: init_leds();
  1183  0026' 3180' 2000' 3180'  	fcall	_init_leds
  1184                           
  1185                           ;main.c: 36: init_isr();
  1186  0029' 3180' 2000' 3180'  	fcall	_init_isr
  1187  002C' 2800'              	goto	l804
  1188  002D'                    l810:	
  1189                           
  1190                           ;main.c: 86: {
  1191                           ;main.c: 87: printf("Sword was swung\n\r");
  1192  002D' 3000'              	movlw	low (STR_1| (0+32768))
  1193  002E' 0081'              	movwf	printf@f
  1194  002F' 3000'              	movlw	high (STR_1| (0+32768))
  1195  0030' 0082'              	movwf	printf@f+1
  1196  0031' 3180' 2000' 3180'  	fcall	_printf
  1197                           
  1198                           ;main.c: 89: if(!determine_omega_mode_active())
  1199  0034' 3180' 2000' 3180'  	fcall	_determine_omega_mode_active
  1200  0037' 3A00               	xorlw	0
  1201  0038' 1D03               	skipz
  1202  0039' 2800'              	goto	l832
  1203                           
  1204                           ;main.c: 90: {
  1205                           ;main.c: 91: determine_packets_to_send(&pkt_arr);
  1206  003A' 3000'              	movlw	(low (main@pkt_arr| 0))& (0+255)
  1207  003B' 3180' 2000' 3180'  	fcall	_determine_packets_to_send
  1208                           
  1209                           ;main.c: 93: for(i = 0; i < 3; ++i)
  1210  003E' 0020               	movlb	0	; select bank0
  1211  003F' 0184'              	clrf	main@i
  1212  0040' 3003               	movlw	3
  1213  0041' 0204'              	subwf	main@i,w
  1214  0042' 1803               	btfsc	3,0
  1215  0043' 2800'              	goto	l830
  1216  0044'                    l822:	
  1217                           
  1218                           ;main.c: 94: {
  1219                           ;main.c: 95: if(pkt_arr[i] > 0)
  1220  0044' 0804'              	movf	main@i,w
  1221  0045' 3E00'              	addlw	(low (main@pkt_arr| 0))& (0+255)
  1222  0046' 0086               	movwf	6
  1223  0047' 0187               	clrf	7
  1224  0048' 0801               	movf	1,w
  1225  0049' 1903               	btfsc	3,2
  1226  004A' 2800'              	goto	l826
  1227                           
  1228                           ;main.c: 96: {
  1229                           ;main.c: 97: output_ir(i, pkt_arr[i]);
  1230  004B' 0804'              	movf	main@i,w
  1231  004C' 3E00'              	addlw	(low (main@pkt_arr| 0))& (0+255)
  1232  004D' 0086               	movwf	6
  1233  004E' 0187               	clrf	7
  1234  004F' 0801               	movf	1,w
  1235  0050' 0088'              	movwf	??_main
  1236  0051' 0808'              	movf	??_main,w
  1237  0052' 0080'              	movwf	_output_ir$1
  1238  0053' 0804'              	movf	main@i,w
  1239  0054' 3180' 2000' 3180'  	fcall	_output_ir
  1240  0057'                    l826:	
  1241  0057' 3001               	movlw	1
  1242  0058' 0088'              	movwf	??_main
  1243  0059' 0808'              	movf	??_main,w
  1244  005A' 0020               	movlb	0	; select bank0
  1245  005B' 0784'              	addwf	main@i,f
  1246  005C' 3003               	movlw	3
  1247  005D' 0204'              	subwf	main@i,w
  1248  005E' 1C03               	skipc
  1249  005F' 2800'              	goto	l822
  1250  0060'                    l830:	
  1251                           
  1252                           ;main.c: 98: }
  1253                           ;main.c: 99: }
  1254                           ;main.c: 101: play_sound(0);
  1255  0060' 3000               	movlw	0
  1256  0061' 3180' 2000' 3180'  	fcall	_play_sound
  1257                           
  1258                           ;main.c: 102: display_blade_lights(0);
  1259  0064' 3000               	movlw	0
  1260  0065' 2800'              	goto	L1
  1261  0066'                    l832:	
  1262                           ;main.c: 103: }
  1263                           
  1264                           
  1265                           ;main.c: 104: else
  1266                           ;main.c: 105: {
  1267                           ;main.c: 106: play_sound(1);
  1268  0066' 3001               	movlw	1
  1269  0067' 3180' 2000' 3180'  	fcall	_play_sound
  1270                           
  1271                           ;main.c: 107: display_blade_lights(1);
  1272  006A' 3001               	movlw	1
  1273  006B'                    L1:	
  1274  006B' 3180' 2000' 3180'  	fcall	_display_blade_lights
  1275  006E'                    l804:	
  1276                           ;main.c: 40: {
  1277                           ;main.c: 81: while( 1 )
  1278                           
  1279                           ;main.c: 39: while(1)
  1280                           
  1281                           ;main.c: 111: }
  1282                           
  1283                           ;main.c: 108: }
  1284                           ;main.c: 110: break;
  1285                           
  1286                           
  1287                           ;main.c: 82: {
  1288                           ;main.c: 83: display_health();
  1289  006E' 3180' 2000' 3180'  	fcall	_display_health
  1290                           
  1291                           ;main.c: 84: userInput = determine_sword_was_swung();
  1292  0071' 3180' 2000' 3180'  	fcall	_determine_sword_was_swung
  1293  0074' 0088'              	movwf	??_main
  1294  0075' 0808'              	movf	??_main,w
  1295  0076' 0020               	movlb	0	; select bank0
  1296  0077' 0083'              	movwf	main@userInput
  1297                           
  1298                           ;main.c: 85: if( userInput == 1 )
  1299  0078' 0303'              	decf	main@userInput,w
  1300  0079' 1903               	btfsc	3,2
  1301  007A' 2800'              	goto	l810
  1302                           
  1303                           ;main.c: 112: else if(userInput == 'o')
  1304  007B' 306F               	movlw	111
  1305  007C' 0020               	movlb	0	; select bank0
  1306  007D' 0603'              	xorwf	main@userInput,w
  1307  007E' 1D03               	btfss	3,2
  1308  007F' 2800'              	goto	l804
  1309                           
  1310                           ;main.c: 113: {
  1311                           ;main.c: 114: if(!determine_omega_mode_active())
  1312  0080' 3180' 2000' 3180'  	fcall	_determine_omega_mode_active
  1313  0083' 3A00               	xorlw	0
  1314  0084' 1D03               	skipz
  1315  0085' 2800'              	goto	l844
  1316                           
  1317                           ;main.c: 115: {
  1318                           ;main.c: 116: omega_mode = 1;
  1319  0086' 0020               	movlb	0	; select bank0
  1320  0087' 0183'              	clrf	_omega_mode
  1321  0088' 0A83'              	incf	_omega_mode,f
  1322                           
  1323                           ;main.c: 117: printf("Omega mode enabled.\n\r");
  1324  0089' 3000'              	movlw	low (STR_2| (0+32768))
  1325  008A' 0081'              	movwf	printf@f
  1326  008B' 3000'              	movlw	high (STR_2| (0+32768))
  1327  008C' 0082'              	movwf	printf@f+1
  1328  008D' 3180' 2000' 3180'  	fcall	_printf
  1329                           
  1330                           ;main.c: 118: }
  1331  0090' 2800'              	goto	l804
  1332  0091'                    l844:	
  1333                           
  1334                           ;main.c: 119: else
  1335                           ;main.c: 120: {
  1336                           ;main.c: 121: omega_mode = 0;
  1337  0091' 0020               	movlb	0	; select bank0
  1338  0092' 0183'              	clrf	_omega_mode
  1339                           
  1340                           ;main.c: 122: printf("Omega mode disabled.\n\r");
  1341  0093' 3000'              	movlw	low (STR_3| (0+32768))
  1342  0094' 0081'              	movwf	printf@f
  1343  0095' 3000'              	movlw	high (STR_3| (0+32768))
  1344  0096' 0082'              	movwf	printf@f+1
  1345  0097' 3180' 2000' 3180'  	fcall	_printf
  1346                           
  1347                           ;main.c: 123: }
  1348                           ;main.c: 124: break;
  1349  009A' 2800'              	goto	l804
  1350  009B'                    __end_of_main:	
  1351                           
  1352                           	psect	text1
  1353  0000'                    __ptext1:	
  1354 ;; *************** function _printf *****************
  1355 ;; Defined at:
  1356 ;;		line 464 in file "C:\Program Files (x86)\Microchip\xc8\v1.35\sources\common\doprnt.c"
  1357 ;; Parameters:    Size  Location     Type
  1358 ;;  f               2    1[COMMON] PTR const unsigned char 
  1359 ;;		 -> STR_7(26), STR_6(49), STR_5(31), STR_4(25), 
  1360 ;;		 -> STR_3(23), STR_2(22), STR_1(18), 
  1361 ;; Auto vars:     Size  Location     Type
  1362 ;;  tmpval          4    0        struct .
  1363 ;;  cp              2    0        PTR const unsigned char 
  1364 ;;  len             2    0        unsigned int 
  1365 ;;  val             2    0        unsigned int 
  1366 ;;  c               1    7[COMMON] char 
  1367 ;;  ap              1    6[COMMON] PTR void [1]
  1368 ;;		 -> ?_printf(2), 
  1369 ;;  flag            1    0        unsigned char 
  1370 ;;  prec            1    0        char 
  1371 ;; Return value:  Size  Location     Type
  1372 ;;                  2    1[COMMON] int 
  1373 ;; Registers used:
  1374 ;;		wreg, fsr0l, fsr0h, status,2, status,0, pclath, cstack
  1375 ;; Tracked objects:
  1376 ;;		On entry : 0/0
  1377 ;;		On exit  : 0/0
  1378 ;;		Unchanged: 0/0
  1379 ;; Data sizes:     COMMON   BANK0   BANK1   BANK2   BANK3   BANK4   BANK5   BANK6   BANK7   BANK8   BANK9  BANK10  BANK1
      +1  BANK12  BANK13  BANK14  BANK15  BANK16  BANK17  BANK18  BANK19  BANK20  BANK21  BANK22  BANK23  BANK24  BANK25
  1380 ;;      Params:         2       0       0       0       0       0       0       0       0       0       0       0       
      +0       0       0       0       0       0       0       0       0       0       0       0       0       0       0
  1381 ;;      Locals:         2       0       0       0       0       0       0       0       0       0       0       0       
      +0       0       0       0       0       0       0       0       0       0       0       0       0       0       0
  1382 ;;      Temps:          3       0       0       0       0       0       0       0       0       0       0       0       
      +0       0       0       0       0       0       0       0       0       0       0       0       0       0       0
  1383 ;;      Totals:         7       0       0       0       0       0       0       0       0       0       0       0       
      +0       0       0       0       0       0       0       0       0       0       0       0       0       0       0
  1384 ;;Total ram usage:        7 bytes
  1385 ;; Hardware stack levels used:    1
  1386 ;; Hardware stack levels required when called:    1
  1387 ;; This function calls:
  1388 ;;		_putch
  1389 ;; This function is called by:
  1390 ;;		_main
  1391 ;;		_uart_test
  1392 ;; This function uses a non-reentrant model
  1393 ;;
  1394                           
  1395                           
  1396                           ;psect for function _printf
  1397  0000'                    _printf:	
  1398                           
  1399                           ;doprnt.c: 466: va_list ap;
  1400                           ;doprnt.c: 499: signed char c;
  1401                           ;doprnt.c: 506: signed char prec;
  1402                           ;doprnt.c: 508: unsigned char flag;
  1403                           ;doprnt.c: 523: union {
  1404                           ;doprnt.c: 524: unsigned long vd;
  1405                           ;doprnt.c: 525: double integ;
  1406                           ;doprnt.c: 526: } tmpval;
  1407                           ;doprnt.c: 528: unsigned int val;
  1408                           ;doprnt.c: 529: unsigned len;
  1409                           ;doprnt.c: 530: const char * cp;
  1410                           ;doprnt.c: 533: *ap = __va_start();
  1411                           
  1412                           ;incstack = 0
  1413                           ; Regs used in _printf: [wreg-fsr0h+status,2+status,0+pclath+cstack]
  1414  0000' 3000'              	movlw	(low ((?_printf| 0+2)))& (0+255)
  1415  0001' 0083'              	movwf	??_printf
  1416  0002' 0803'              	movf	??_printf,w
  1417  0003' 0086'              	movwf	printf@ap
  1418  0004'                    l782:	
  1419                           ;doprnt.c: 543: }
  1420                           ;doprnt.c: 1422: {
  1421                           
  1422                           ;doprnt.c: 542: continue;
  1423                           
  1424                           ;doprnt.c: 536: while(c = *f++) {
  1425                           
  1426  0004' 0802'              	movf	printf@f+1,w
  1427  0005' 0084'              	movwf	??_printf+1
  1428  0006' 0801'              	movf	printf@f,w
  1429  0007' 0083'              	movwf	??_printf
  1430  0008' 0A81'              	incf	printf@f,f
  1431  0009' 1903               	skipnz
  1432  000A' 0A82'              	incf	printf@f+1,f
  1433  000B' 0803'              	movf	??_printf,w
  1434  000C' 0084               	movwf	4
  1435  000D' 0804'              	movf	??_printf+1,w
  1436  000E' 0085               	movwf	5
  1437  000F' 0800               	movf	0,w	;code access
  1438  0010' 0085'              	movwf	??_printf+2
  1439  0011' 0805'              	movf	??_printf+2,w
  1440  0012' 0087'              	movwf	printf@c
  1441  0013' 0807'              	movf	printf@c,w
  1442  0014' 1903               	btfsc	3,2
  1443  0015' 0008               	return
  1444                           
  1445                           ;doprnt.c: 540: {
  1446                           ;doprnt.c: 541: (putch(c) );
  1447  0016' 0807'              	movf	printf@c,w
  1448  0017' 3180' 2000' 3180'  	fcall	_putch
  1449  001A' 2800'              	goto	l782
  1450  001B'                    __end_of_printf:	
  1451                           ;doprnt.c: 1469: }
  1452                           ;doprnt.c: 1533: }
  1453                           ;doprnt.c: 1540: return 0;
  1454                           ;	Return value of _printf is never used
  1455                           
  1456                           
  1457                           	psect	text2
  1458  0000'                    __ptext2:	
  1459 ;; *************** function _putch *****************
  1460 ;; Defined at:
  1461 ;;		line 41 in file "../../source/uart.c"
  1462 ;; Parameters:    Size  Location     Type
  1463 ;;  input           1    wreg     unsigned char 
  1464 ;; Auto vars:     Size  Location     Type
  1465 ;;  input           1    0[COMMON] unsigned char 
  1466 ;; Return value:  Size  Location     Type
  1467 ;;		None               void
  1468 ;; Registers used:
  1469 ;;		wreg
  1470 ;; Tracked objects:
  1471 ;;		On entry : 0/0
  1472 ;;		On exit  : 0/0
  1473 ;;		Unchanged: 0/0
  1474 ;; Data sizes:     COMMON   BANK0   BANK1   BANK2   BANK3   BANK4   BANK5   BANK6   BANK7   BANK8   BANK9  BANK10  BANK1
      +1  BANK12  BANK13  BANK14  BANK15  BANK16  BANK17  BANK18  BANK19  BANK20  BANK21  BANK22  BANK23  BANK24  BANK25
  1475 ;;      Params:         0       0       0       0       0       0       0       0       0       0       0       0       
      +0       0       0       0       0       0       0       0       0       0       0       0       0       0       0
  1476 ;;      Locals:         1       0       0       0       0       0       0       0       0       0       0       0       
      +0       0       0       0       0       0       0       0       0       0       0       0       0       0       0
  1477 ;;      Temps:          0       0       0       0       0       0       0       0       0       0       0       0       
      +0       0       0       0       0       0       0       0       0       0       0       0       0       0       0
  1478 ;;      Totals:         1       0       0       0       0       0       0       0       0       0       0       0       
      +0       0       0       0       0       0       0       0       0       0       0       0       0       0       0
  1479 ;;Total ram usage:        1 bytes
  1480 ;; Hardware stack levels used:    1
  1481 ;; This function calls:
  1482 ;;		Nothing
  1483 ;; This function is called by:
  1484 ;;		_printf
  1485 ;;		_getche
  1486 ;; This function uses a non-reentrant model
  1487 ;;
  1488                           
  1489                           
  1490                           ;psect for function _putch
  1491  0000'                    _putch:	
  1492                           
  1493                           ;incstack = 0
  1494                           ; Regs used in _putch: [wreg]
  1495                           ;putch@input stored from wreg
  1496  0000' 0080'              	movwf	putch@input
  1497  0001'                    l114:	
  1498                           ;uart.c: 44: {
  1499                           ;uart.c: 45: continue;
  1500                           
  1501                           ;uart.c: 43: while(!TRMT)
  1502                           
  1503  0001' 0023               	movlb	3	; select bank3
  1504  0002' 1C9E               	btfss	30,1	;volatile
  1505  0003' 2800'              	goto	l114
  1506                           
  1507                           ;uart.c: 46: }
  1508                           ;uart.c: 47: TXREG = input;
  1509  0004' 0800'              	movf	putch@input,w
  1510  0005' 009A               	movwf	26	;volatile
  1511  0006' 0008               	return
  1512  0007'                    __end_of_putch:	
  1513                           
  1514                           	psect	text3
  1515  0000'                    __ptext3:	
  1516 ;; *************** function _init_uart *****************
  1517 ;; Defined at:
  1518 ;;		line 11 in file "../../source/uart.c"
  1519 ;; Parameters:    Size  Location     Type
  1520 ;;		None
  1521 ;; Auto vars:     Size  Location     Type
  1522 ;;		None
  1523 ;; Return value:  Size  Location     Type
  1524 ;;		None               void
  1525 ;; Registers used:
  1526 ;;		wreg, status,2, status,0
  1527 ;; Tracked objects:
  1528 ;;		On entry : 0/0
  1529 ;;		On exit  : 0/0
  1530 ;;		Unchanged: 0/0
  1531 ;; Data sizes:     COMMON   BANK0   BANK1   BANK2   BANK3   BANK4   BANK5   BANK6   BANK7   BANK8   BANK9  BANK10  BANK1
      +1  BANK12  BANK13  BANK14  BANK15  BANK16  BANK17  BANK18  BANK19  BANK20  BANK21  BANK22  BANK23  BANK24  BANK25
  1532 ;;      Params:         0       0       0       0       0       0       0       0       0       0       0       0       
      +0       0       0       0       0       0       0       0       0       0       0       0       0       0       0
  1533 ;;      Locals:         0       0       0       0       0       0       0       0       0       0       0       0       
      +0       0       0       0       0       0       0       0       0       0       0       0       0       0       0
  1534 ;;      Temps:          1       0       0       0       0       0       0       0       0       0       0       0       
      +0       0       0       0       0       0       0       0       0       0       0       0       0       0       0
  1535 ;;      Totals:         1       0       0       0       0       0       0       0       0       0       0       0       
      +0       0       0       0       0       0       0       0       0       0       0       0       0       0       0
  1536 ;;Total ram usage:        1 bytes
  1537 ;; Hardware stack levels used:    1
  1538 ;; This function calls:
  1539 ;;		Nothing
  1540 ;; This function is called by:
  1541 ;;		_main
  1542 ;; This function uses a non-reentrant model
  1543 ;;
  1544                           
  1545                           
  1546                           ;psect for function _init_uart
  1547  0000'                    _init_uart:	
  1548                           
  1549                           ;uart.c: 14: TRISC &= 10111111;
  1550                           
  1551                           ;incstack = 0
  1552                           ; Regs used in _init_uart: [wreg+status,2+status,0]
  1553  0000' 3087               	movlw	135
  1554  0001' 0080'              	movwf	??_init_uart
  1555  0002' 0800'              	movf	??_init_uart,w
  1556  0003' 0021               	movlb	1	; select bank1
  1557  0004' 058E               	andwf	14,f	;volatile
  1558                           
  1559                           ;uart.c: 17: TRISC |= 10000000;
  1560  0005' 178E               	bsf	14,7	;volatile
  1561                           
  1562                           ;uart.c: 20: SPBRG = 51;
  1563  0006' 3033               	movlw	51
  1564  0007' 0023               	movlb	3	; select bank3
  1565  0008' 009B               	movwf	27	;volatile
  1566                           
  1567                           ;uart.c: 21: BRGH = 0;
  1568  0009' 111E               	bcf	30,2	;volatile
  1569                           
  1570                           ;uart.c: 22: BRG16 = 0;
  1571  000A' 119F               	bcf	31,3	;volatile
  1572                           
  1573                           ;uart.c: 27: SYNC = 0;
  1574  000B' 121E               	bcf	30,4	;volatile
  1575                           
  1576                           ;uart.c: 28: SPEN = 1;
  1577  000C' 179D               	bsf	29,7	;volatile
  1578                           
  1579                           ;uart.c: 29: TXEN = 1;
  1580  000D' 169E               	bsf	30,5	;volatile
  1581                           
  1582                           ;uart.c: 30: CREN = 1;
  1583  000E' 161D               	bsf	29,4	;volatile
  1584                           
  1585                           ;uart.c: 31: RCIE = 1;
  1586  000F' 0021               	movlb	1	; select bank1
  1587  0010' 1691               	bsf	17,5	;volatile
  1588  0011' 0008               	return
  1589  0012'                    __end_of_init_uart:	
  1590                           
  1591                           	psect	text4
  1592  0000'                    __ptext4:	
  1593 ;; *************** function _init_pic *****************
  1594 ;; Defined at:
  1595 ;;		line 342 in file "../../source/main.c"
  1596 ;; Parameters:    Size  Location     Type
  1597 ;;		None
  1598 ;; Auto vars:     Size  Location     Type
  1599 ;;		None
  1600 ;; Return value:  Size  Location     Type
  1601 ;;		None               void
  1602 ;; Registers used:
  1603 ;;		wreg, status,2, status,0
  1604 ;; Tracked objects:
  1605 ;;		On entry : 0/0
  1606 ;;		On exit  : 0/0
  1607 ;;		Unchanged: 0/0
  1608 ;; Data sizes:     COMMON   BANK0   BANK1   BANK2   BANK3   BANK4   BANK5   BANK6   BANK7   BANK8   BANK9  BANK10  BANK1
      +1  BANK12  BANK13  BANK14  BANK15  BANK16  BANK17  BANK18  BANK19  BANK20  BANK21  BANK22  BANK23  BANK24  BANK25
  1609 ;;      Params:         0       0       0       0       0       0       0       0       0       0       0       0       
      +0       0       0       0       0       0       0       0       0       0       0       0       0       0       0
  1610 ;;      Locals:         0       0       0       0       0       0       0       0       0       0       0       0       
      +0       0       0       0       0       0       0       0       0       0       0       0       0       0       0
  1611 ;;      Temps:          1       0       0       0       0       0       0       0       0       0       0       0       
      +0       0       0       0       0       0       0       0       0       0       0       0       0       0       0
  1612 ;;      Totals:         1       0       0       0       0       0       0       0       0       0       0       0       
      +0       0       0       0       0       0       0       0       0       0       0       0       0       0       0
  1613 ;;Total ram usage:        1 bytes
  1614 ;; Hardware stack levels used:    1
  1615 ;; This function calls:
  1616 ;;		Nothing
  1617 ;; This function is called by:
  1618 ;;		_main
  1619 ;; This function uses a non-reentrant model
  1620 ;;
  1621                           
  1622                           
  1623                           ;psect for function _init_pic
  1624  0000'                    _init_pic:	
  1625                           
  1626                           ;main.c: 345: OSCCON |= 0b11111000;
  1627                           
  1628                           ;incstack = 0
  1629                           ; Regs used in _init_pic: [wreg+status,2+status,0]
  1630  0000' 30F8               	movlw	248
  1631  0001' 0080'              	movwf	??_init_pic
  1632  0002' 0800'              	movf	??_init_pic,w
  1633  0003' 0021               	movlb	1	; select bank1
  1634  0004' 0499               	iorwf	25,f	;volatile
  1635                           
  1636                           ;main.c: 348: TRISB &= 0b11110111;
  1637  0005' 30F7               	movlw	247
  1638  0006' 0080'              	movwf	??_init_pic
  1639  0007' 0800'              	movf	??_init_pic,w
  1640  0008' 058D               	andwf	13,f	;volatile
  1641                           
  1642                           ;main.c: 351: GIE = 1;
  1643  0009' 178B               	bsf	11,7	;volatile
  1644  000A' 0008               	return
  1645  000B'                    __end_of_init_pic:	
  1646  007E                     btemp	set	126	;btemp
  1647  007E                     wtemp	set	126
  1648  007E                     wtemp0	set	126
  1649  0080                     wtemp1	set	128
  1650  0082                     wtemp2	set	130
  1651  0084                     wtemp3	set	132
  1652  0086                     wtemp4	set	134
  1653  0088                     wtemp5	set	136
  1654  007F                     wtemp6	set	127
  1655  007E                     ttemp	set	126
  1656  007E                     ttemp0	set	126
  1657  0081                     ttemp1	set	129
  1658  0084                     ttemp2	set	132
  1659  0087                     ttemp3	set	135
  1660  007F                     ttemp4	set	127
  1661  007E                     ltemp	set	126
  1662  007E                     ltemp0	set	126
  1663  0082                     ltemp1	set	130
  1664  0086                     ltemp2	set	134
  1665  0080                     ltemp3	set	128


Data Sizes:
    Strings     194
    Constant    0
    Data        1
    BSS         6
    Persistent  0
    Stack       0

Auto Spaces:
    Space          Size  Autos    Used
    COMMON           14     11      14
    BANK0            80      5       9
    BANK1            80      0       0
    BANK2            80      0       0
    BANK3            80      0       0
    BANK4            80      0       0
    BANK5            80      0       0
    BANK6            80      0       0
    BANK7            80      0       0
    BANK8            80      0       0
    BANK9            80      0       0
    BANK10           80      0       0
    BANK11           80      0       0
    BANK12           80      0       0
    BANK13           80      0       0
    BANK14           80      0       0
    BANK15           80      0       0
    BANK16           80      0       0
    BANK17           80      0       0
    BANK18           80      0       0
    BANK19           80      0       0
    BANK20           80      0       0
    BANK21           80      0       0
    BANK22           80      0       0
    BANK23           80      0       0
    BANK24           80      0       0
    BANK25           32      0       0

Pointer List with Targets:

    determine_packets_to_send$0	PTR unsigned char  size(1) Largest target is 3
		 -> main@pkt_arr(BANK0[3]), 

    printf@f	PTR const unsigned char  size(2) Largest target is 49
		 -> STR_7(CODE[26]), STR_6(CODE[49]), STR_5(CODE[31]), STR_4(CODE[25]), 
		 -> STR_3(CODE[23]), STR_2(CODE[22]), STR_1(CODE[18]), 

    printf@ap	PTR void [1] size(1) Largest target is 2
		 -> ?_printf(COMMON[2]), 


Critical Paths under _main in COMMON

    _main->_printf
    _printf->_putch

Critical Paths under _main in BANK0

    None.

Critical Paths under _main in BANK1

    None.

Critical Paths under _main in BANK2

    None.

Critical Paths under _main in BANK3

    None.

Critical Paths under _main in BANK4

    None.

Critical Paths under _main in BANK5

    None.

Critical Paths under _main in BANK6

    None.

Critical Paths under _main in BANK7

    None.

Critical Paths under _main in BANK8

    None.

Critical Paths under _main in BANK9

    None.

Critical Paths under _main in BANK10

    None.

Critical Paths under _main in BANK11

    None.

Critical Paths under _main in BANK12

    None.

Critical Paths under _main in BANK13

    None.

Critical Paths under _main in BANK14

    None.

Critical Paths under _main in BANK15

    None.

Critical Paths under _main in BANK16

    None.

Critical Paths under _main in BANK17

    None.

Critical Paths under _main in BANK18

    None.

Critical Paths under _main in BANK19

    None.

Critical Paths under _main in BANK20

    None.

Critical Paths under _main in BANK21

    None.

Critical Paths under _main in BANK22

    None.

Critical Paths under _main in BANK23

    None.

Critical Paths under _main in BANK24

    None.

Critical Paths under _main in BANK25

    None.

Call Graph Tables:

 ---------------------------------------------------------------------------------
 (Depth) Function   	        Calls       Base Space   Used Autos Params    Refs
 ---------------------------------------------------------------------------------
 (0) _main                                                 8     8      0     684
                                              8 COMMON     3     3      0
                                              0 BANK0      5     5      0
        _determine_omega_mode_active
          _determine_packets_to_send
          _determine_sword_was_swung
               _display_blade_lights
                     _display_health
                         _init_accel
                            _init_ir
                           _init_isr
                          _init_leds
                           _init_pic
                          _init_uart
                          _output_ir
                         _play_sound
                             _printf
 ---------------------------------------------------------------------------------
 (1) _printf                                              19    17      2     439
                                              1 COMMON     7     5      2
                              _putch
 ---------------------------------------------------------------------------------
 (2) _putch                                                1     1      0      22
                                              0 COMMON     1     1      0
 ---------------------------------------------------------------------------------
 (1) _play_sound                                           0     0      0       0
 ---------------------------------------------------------------------------------
 (1) _output_ir                                            1     0      1      10
                                              0 COMMON     1     0      1
 ---------------------------------------------------------------------------------
 (1) _init_uart                                            1     1      0       0
                                              0 COMMON     1     1      0
 ---------------------------------------------------------------------------------
 (1) _init_pic                                             1     1      0       0
                                              0 COMMON     1     1      0
 ---------------------------------------------------------------------------------
 (1) _init_leds                                            0     0      0       0
 ---------------------------------------------------------------------------------
 (1) _init_isr                                             0     0      0       0
 ---------------------------------------------------------------------------------
 (1) _init_ir                                              0     0      0       0
 ---------------------------------------------------------------------------------
 (1) _init_accel                                           0     0      0       0
 ---------------------------------------------------------------------------------
 (1) _display_health                                       0     0      0       0
 ---------------------------------------------------------------------------------
 (1) _display_blade_lights                                 0     0      0       0
 ---------------------------------------------------------------------------------
 (1) _determine_sword_was_swung                            0     0      0       0
 ---------------------------------------------------------------------------------
 (1) _determine_packets_to_send                            0     0      0       7
                                              0 COMMON     1     1      0
 ---------------------------------------------------------------------------------
 (1) _determine_omega_mode_active                          0     0      0       0
 ---------------------------------------------------------------------------------
 Estimated maximum stack depth 2
 ---------------------------------------------------------------------------------

 Call Graph Graphs:

 _main (ROOT)
   _determine_omega_mode_active
   _determine_packets_to_send
   _determine_sword_was_swung
   _display_blade_lights
   _display_health
   _init_accel
   _init_ir
   _init_isr
   _init_leds
   _init_pic
   _init_uart
   _output_ir
   _play_sound
   _printf
     _putch

 Address spaces:
Name               Size   Autos  Total    Cost      Usage
BIGRAM             7F0      0       0       0        0.0%
EEDATA             100      0       0       0        0.0%
NULL                 0      0       0       0        0.0%
CODE                 0      0       0       0        0.0%
BITCOMMON            E      0       0       1        0.0%
BITSFR0              0      0       0       1        0.0%
SFR0                 0      0       0       1        0.0%
COMMON               E      B       E       2      100.0%
BITSFR1              0      0       0       2        0.0%
SFR1                 0      0       0       2        0.0%
BITSFR2              0      0       0       3        0.0%
SFR2                 0      0       0       3        0.0%
STACK                0      0       0       3        0.0%
BITBANK0            50      0       0       4        0.0%
BITSFR3              0      0       0       4        0.0%
SFR3                 0      0       0       4        0.0%
BANK0               50      5       9       5       11.3%
BITSFR4              0      0       0       5        0.0%
SFR4                 0      0       0       5        0.0%
BITBANK1            50      0       0       6        0.0%
BITSFR5              0      0       0       6        0.0%
SFR5                 0      0       0       6        0.0%
BANK1               50      0       0       7        0.0%
BITSFR6              0      0       0       7        0.0%
SFR6                 0      0       0       7        0.0%
BITBANK2            50      0       0       8        0.0%
BITSFR7              0      0       0       8        0.0%
SFR7                 0      0       0       8        0.0%
BANK2               50      0       0       9        0.0%
BITSFR8              0      0       0       9        0.0%
SFR8                 0      0       0       9        0.0%
BITBANK3            50      0       0      10        0.0%
BITSFR9              0      0       0      10        0.0%
SFR9                 0      0       0      10        0.0%
BANK3               50      0       0      11        0.0%
BITSFR10             0      0       0      11        0.0%
SFR10                0      0       0      11        0.0%
BITBANK4            50      0       0      12        0.0%
BITSFR11             0      0       0      12        0.0%
SFR11                0      0       0      12        0.0%
BANK4               50      0       0      13        0.0%
BITSFR12             0      0       0      13        0.0%
SFR12                0      0       0      13        0.0%
BITSFR13             0      0       0      14        0.0%
SFR13                0      0       0      14        0.0%
ABS                  0      0      17      14        0.0%
BITBANK5            50      0       0      15        0.0%
BITSFR14             0      0       0      15        0.0%
SFR14                0      0       0      15        0.0%
BANK5               50      0       0      16        0.0%
BITSFR15             0      0       0      16        0.0%
SFR15                0      0       0      16        0.0%
BITBANK6            50      0       0      17        0.0%
BITSFR16             0      0       0      17        0.0%
SFR16                0      0       0      17        0.0%
BANK6               50      0       0      18        0.0%
BITSFR17             0      0       0      18        0.0%
SFR17                0      0       0      18        0.0%
BITBANK7            50      0       0      19        0.0%
BITSFR18             0      0       0      19        0.0%
SFR18                0      0       0      19        0.0%
BANK7               50      0       0      20        0.0%
BITSFR19             0      0       0      20        0.0%
SFR19                0      0       0      20        0.0%
BITBANK8            50      0       0      21        0.0%
BITSFR20             0      0       0      21        0.0%
SFR20                0      0       0      21        0.0%
BANK8               50      0       0      22        0.0%
BITSFR21             0      0       0      22        0.0%
SFR21                0      0       0      22        0.0%
BITBANK9            50      0       0      23        0.0%
BITSFR22             0      0       0      23        0.0%
SFR22                0      0       0      23        0.0%
BANK9               50      0       0      24        0.0%
BITSFR23             0      0       0      24        0.0%
SFR23                0      0       0      24        0.0%
BITBANK10           50      0       0      25        0.0%
BITSFR24             0      0       0      25        0.0%
SFR24                0      0       0      25        0.0%
BANK10              50      0       0      26        0.0%
BITSFR25             0      0       0      26        0.0%
SFR25                0      0       0      26        0.0%
BITBANK11           50      0       0      27        0.0%
BITSFR26             0      0       0      27        0.0%
SFR26                0      0       0      27        0.0%
BITSFR27             0      0       0      28        0.0%
SFR27                0      0       0      28        0.0%
DATA                 0      0      17      28        0.0%
BANK11              50      0       0      29        0.0%
BITSFR28             0      0       0      29        0.0%
SFR28                0      0       0      29        0.0%
BITBANK12           50      0       0      30        0.0%
BITSFR29             0      0       0      30        0.0%
SFR29                0      0       0      30        0.0%
BANK12              50      0       0      31        0.0%
BITSFR30             0      0       0      31        0.0%
SFR30                0      0       0      31        0.0%
BITBANK13           50      0       0      32        0.0%
BITSFR31             0      0       0      32        0.0%
SFR31                0      0       0      32        0.0%
BANK13              50      0       0      33        0.0%
BITBANK14           50      0       0      34        0.0%
BANK14              50      0       0      35        0.0%
BITBANK15           50      0       0      36        0.0%
BANK15              50      0       0      37        0.0%
BITBANK16           50      0       0      38        0.0%
BANK16              50      0       0      39        0.0%
BITBANK17           50      0       0      40        0.0%
BANK17              50      0       0      41        0.0%
BITBANK18           50      0       0      42        0.0%
BANK18              50      0       0      43        0.0%
BITBANK19           50      0       0      44        0.0%
BANK19              50      0       0      45        0.0%
BITBANK20           50      0       0      46        0.0%
BANK20              50      0       0      47        0.0%
BITBANK21           50      0       0      48        0.0%
BANK21              50      0       0      49        0.0%
BITBANK22           50      0       0      50        0.0%
BANK22              50      0       0      51        0.0%
BITBANK23           50      0       0      52        0.0%
BANK23              50      0       0      53        0.0%
BITBANK24           50      0       0      54        0.0%
BANK24              50      0       0      55        0.0%
BITBANK25           20      0       0      56        0.0%
BANK25              20      0       0      57        0.0%


Microchip Technology PIC Macro Assembler V1.35 build -356382666 
Symbol Table                                                                                   Thu Oct 22 14:49:20 2015

                  __CFG_CP$OFF 0000                            l114 0001                            l810 002D  
                          l804 006E                            l830 0060                            l822 0044  
                          l832 0066                            l826 0057                            l844 0091  
                          l782 0004                            _GIE 005F                            _RB3 006B  
                          u237 0018                   __CFG_CPD$OFF 0000                   __CFG_BORV$LO 0000  
                 __CFG_IESO$ON 0000                   __CFG_LVP$OFF 0000                           STR_1 00B0  
                         STR_2 009A                           STR_3 0083                           STR_4 006A  
                         STR_5 0031                           STR_6 0000                           STR_7 0050  
                         _BRGH 0CF2                           _CREN 0CEC                           _RCIE 048D  
                         _RCIF 008D                           _SPEN 0CEF                           _TRMT 0CF1  
                         _TXEN 0CF5                           _SYNC 0CF4                    _output_ir$1 0000  
                 __CFG_WRT$OFF 0000                  __CFG_FCMEN$ON 0000                           _main 0000  
                  main@pkt_arr 0000                           fsr0h 0005                           fsr1h 0007  
                         fsr0l 0004                           indf0 0000                           indf1 0001  
                         fsr1l 0006                           btemp 007E                           ltemp 007E  
                         start 0000*                          ttemp 007E                           wtemp 007E  
                __CFG_MCLRE$ON 0000      _determine_packets_to_send 0000*                         ?_main 0000  
              ?_display_health 0000                          _BRG16 0CFB                  __CFG_WDTE$OFF 0000  
                        _RCREG 0199                          _SPBRG 019B                          _TRISB 008D  
                        _TRISC 008E                          _TXREG 019A                          _blade 0000  
                        _putch 0000                          main@i 0004                 __CFG_BOREN$OFF 0000  
                        ltemp0 007E                          ltemp1 0082                          ltemp2 0086  
                        ltemp3 0080                          ttemp0 007E                          ttemp1 0081  
                        ttemp2 0084                          ttemp3 0087                          ttemp4 007F  
                        status 0003                          wtemp0 007E                          wtemp1 0080  
                        wtemp2 0082                          wtemp3 0084                          wtemp4 0086  
                        wtemp5 0088                          wtemp6 007F                __initialization 0000  
                 __end_of_main 009B                 __CFG_LPBOR$OFF 0000                         ??_main 0008  
               __CFG_PLLEN$OFF 0000                   _stun_counter 0001                         ?_putch 0000  
                       _OSCCON 0099                 __CFG_PWRTE$OFF 0000                 __CFG_STVREN$ON 0000  
                       _health 0000               __end_of_init_pic 000B                         _printf 0000  
                    ??_init_ir 0000                   __pdataCOMMON 0000                  main@userInput 0003  
      __end_of__initialization 0009                 __pcstackCOMMON 0000                  __end_of_putch 0007  
                      ??_putch 0000                     __pbssBANK0 0000                __CFG_VCAPEN$OFF 0000  
           __size_of_init_uart 0012                     __pmaintext 0000               ??_display_health 0000  
         _display_blade_lights 0000*                       ?_printf 0001     ?_determine_sword_was_swung 0000  
                    ?_init_pic 0000                      ?_init_isr 0000          ?_display_blade_lights 0000  
                   _init_accel 0000*                       __ptext1 0000                        __ptext2 0000  
                      __ptext3 0000                        __ptext4 0000                __size_of_printf 001B  
                      _init_ir 0000*             __end_of_init_uart 0012   ?_determine_omega_mode_active 0000  
                   _omega_mode 0003           end_of_initialization 0009                     ??_init_pic 0000  
                   ??_init_isr 0000                     _play_sound 0000*                       printf@c 0007  
                      printf@f 0001                   __pstringtext 0000               __CFG_FOSC$INTOSC 0000  
  _determine_packets_to_send$0 0000         ??_display_blade_lights 0000                    ?_init_accel 0000  
                __pidataCOMMON 0000                 __end_of_printf 001B            start_initialization 0000  
                  ?_play_sound 0000                       ??_printf 0003                    __pbssCOMMON 0000  
                    ___latbits 0003                  __pcstackBANK0 0000    ??_determine_sword_was_swung 0000  
            __size_of_init_pic 000B                       ?_init_ir 0000                      _init_leds 0000* 
                    _init_uart 0000                 __size_of_putch 0007     ?_determine_packets_to_send 0000  
                    main@F7229 0000      _determine_sword_was_swung 0000*                     _output_ir 0000* 
                   ?_init_leds 0000                     ?_init_uart 0000                     putch@input 0000  
                 ??_init_accel 0000                     ?_output_ir 0000                  __size_of_main 009B  
                     _init_pic 0000                       _init_isr 0000*                  ??_play_sound 0000  
  _determine_omega_mode_active 0000*                   ??_init_leds 0000                    ??_init_uart 0000  
??_determine_omega_mode_active 0000              __CFG_CLKOUTEN$OFF 0000                       printf@ap 0006  
               _display_health 0000*                   ??_output_ir 0001    ??_determine_packets_to_send 0000  
