

Microchip Technology PIC LITE Macro Assembler V1.35 build -356382666 
                                                                                               Fri Oct 30 10:40:11 2015

Microchip Technology Omniscient Code Generator v1.35 (Free mode) build 201507080246
     1                           	processor	16F1788
     2                           	opt	pw 120
     3                           	opt	lm
     4                           	psect	idataBANK0,global,class=CODE,delta=2
     5                           	psect	stringtext,global,class=STRCODE,delta=2
     6                           	psect	cinit,global,class=CODE,merge=1,delta=2
     7                           	psect	bssBANK0,global,class=BANK0,space=1,delta=1
     8                           	psect	dataBANK0,global,class=BANK0,space=1,delta=1
     9                           	psect	bssBANK1,global,class=BANK1,space=1,delta=1
    10                           	psect	cstackBANK1,global,class=BANK1,space=1,delta=1
    11                           	psect	cstackCOMMON,global,class=COMMON,space=1,delta=1
    12                           	psect	cstackBANK0,global,class=BANK0,space=1,delta=1
    13                           	psect	maintext,global,class=CODE,merge=1,split=1,delta=2
    14                           	psect	text1,local,class=CODE,merge=1,delta=2
    15                           	psect	text2,local,class=CODE,merge=1,delta=2
    16                           	psect	text3,local,class=CODE,merge=1,delta=2
    17                           	psect	text4,local,class=CODE,merge=1,delta=2
    18                           	psect	text5,local,class=CODE,merge=1,delta=2
    19                           	psect	text6,local,class=CODE,merge=1,delta=2
    20                           	psect	intentry,global,class=CODE,delta=2
    21                           	psect	text8,local,class=CODE,merge=1,delta=2
    22                           	psect	text9,local,class=CODE,merge=1,delta=2
    23                           	psect	text10,local,class=CODE,merge=1,delta=2
    24                           	psect	text11,local,class=CODE,merge=1,delta=2
    25                           	psect	text12,local,class=CODE,merge=1,delta=2
    26                           	psect	text13,local,class=CODE,merge=1,delta=2
    27                           	dabs	1,0x7E,2
    28  0000                     	;# 
    29  0001                     	;# 
    30  0002                     	;# 
    31  0003                     	;# 
    32  0004                     	;# 
    33  0005                     	;# 
    34  0006                     	;# 
    35  0007                     	;# 
    36  0008                     	;# 
    37  0009                     	;# 
    38  000A                     	;# 
    39  000B                     	;# 
    40  000C                     	;# 
    41  000D                     	;# 
    42  000E                     	;# 
    43  0010                     	;# 
    44  0011                     	;# 
    45  0012                     	;# 
    46  0013                     	;# 
    47  0014                     	;# 
    48  0015                     	;# 
    49  0016                     	;# 
    50  0016                     	;# 
    51  0017                     	;# 
    52  0018                     	;# 
    53  0019                     	;# 
    54  001A                     	;# 
    55  001B                     	;# 
    56  001C                     	;# 
    57  008C                     	;# 
    58  008D                     	;# 
    59  008E                     	;# 
    60  0090                     	;# 
    61  0091                     	;# 
    62  0092                     	;# 
    63  0093                     	;# 
    64  0094                     	;# 
    65  0095                     	;# 
    66  0096                     	;# 
    67  0097                     	;# 
    68  0098                     	;# 
    69  0099                     	;# 
    70  009A                     	;# 
    71  009B                     	;# 
    72  009B                     	;# 
    73  009C                     	;# 
    74  009D                     	;# 
    75  009E                     	;# 
    76  009F                     	;# 
    77  010C                     	;# 
    78  010D                     	;# 
    79  010E                     	;# 
    80  0111                     	;# 
    81  0112                     	;# 
    82  0113                     	;# 
    83  0114                     	;# 
    84  0115                     	;# 
    85  0116                     	;# 
    86  0117                     	;# 
    87  0118                     	;# 
    88  0119                     	;# 
    89  011A                     	;# 
    90  011B                     	;# 
    91  011C                     	;# 
    92  011D                     	;# 
    93  011D                     	;# 
    94  011D                     	;# 
    95  011E                     	;# 
    96  011F                     	;# 
    97  018C                     	;# 
    98  018D                     	;# 
    99  018E                     	;# 
   100  0191                     	;# 
   101  0191                     	;# 
   102  0192                     	;# 
   103  0193                     	;# 
   104  0193                     	;# 
   105  0193                     	;# 
   106  0194                     	;# 
   107  0195                     	;# 
   108  0196                     	;# 
   109  0197                     	;# 
   110  0199                     	;# 
   111  0199                     	;# 
   112  0199                     	;# 
   113  019A                     	;# 
   114  019A                     	;# 
   115  019A                     	;# 
   116  019B                     	;# 
   117  019B                     	;# 
   118  019B                     	;# 
   119  019B                     	;# 
   120  019B                     	;# 
   121  019C                     	;# 
   122  019C                     	;# 
   123  019C                     	;# 
   124  019D                     	;# 
   125  019D                     	;# 
   126  019D                     	;# 
   127  019E                     	;# 
   128  019E                     	;# 
   129  019E                     	;# 
   130  019F                     	;# 
   131  019F                     	;# 
   132  019F                     	;# 
   133  019F                     	;# 
   134  019F                     	;# 
   135  020C                     	;# 
   136  020D                     	;# 
   137  020E                     	;# 
   138  0210                     	;# 
   139  0211                     	;# 
   140  0211                     	;# 
   141  0212                     	;# 
   142  0212                     	;# 
   143  0213                     	;# 
   144  0213                     	;# 
   145  0214                     	;# 
   146  0214                     	;# 
   147  0215                     	;# 
   148  0215                     	;# 
   149  0215                     	;# 
   150  0215                     	;# 
   151  0216                     	;# 
   152  0216                     	;# 
   153  0217                     	;# 
   154  0217                     	;# 
   155  028C                     	;# 
   156  028D                     	;# 
   157  028E                     	;# 
   158  0291                     	;# 
   159  0291                     	;# 
   160  0292                     	;# 
   161  0293                     	;# 
   162  0298                     	;# 
   163  0298                     	;# 
   164  0299                     	;# 
   165  029A                     	;# 
   166  030C                     	;# 
   167  030D                     	;# 
   168  030E                     	;# 
   169  0311                     	;# 
   170  0311                     	;# 
   171  0312                     	;# 
   172  0313                     	;# 
   173  038C                     	;# 
   174  038D                     	;# 
   175  038E                     	;# 
   176  0390                     	;# 
   177  0391                     	;# 
   178  0392                     	;# 
   179  0393                     	;# 
   180  0394                     	;# 
   181  0395                     	;# 
   182  0396                     	;# 
   183  0397                     	;# 
   184  0398                     	;# 
   185  0399                     	;# 
   186  039D                     	;# 
   187  039E                     	;# 
   188  039F                     	;# 
   189  0511                     	;# 
   190  0513                     	;# 
   191  051A                     	;# 
   192  0591                     	;# 
   193  0592                     	;# 
   194  0592                     	;# 
   195  0593                     	;# 
   196  0594                     	;# 
   197  0594                     	;# 
   198  0595                     	;# 
   199  0596                     	;# 
   200  0596                     	;# 
   201  0E91                     	;# 
   202  0E92                     	;# 
   203  0E93                     	;# 
   204  0E94                     	;# 
   205  0E95                     	;# 
   206  0E96                     	;# 
   207  0E97                     	;# 
   208  0E98                     	;# 
   209  0E99                     	;# 
   210  0E9A                     	;# 
   211  0E9B                     	;# 
   212  0E9C                     	;# 
   213  0E9D                     	;# 
   214  0E9E                     	;# 
   215  0E9F                     	;# 
   216  0EA0                     	;# 
   217  0EA1                     	;# 
   218  0EA1                     	;# 
   219  0EA2                     	;# 
   220  0EA3                     	;# 
   221  0EA3                     	;# 
   222  0EA4                     	;# 
   223  0EA5                     	;# 
   224  0EA5                     	;# 
   225  0EA6                     	;# 
   226  0EA7                     	;# 
   227  0EA7                     	;# 
   228  0EA8                     	;# 
   229  0EA9                     	;# 
   230  0EAA                     	;# 
   231  0EAB                     	;# 
   232  0EAC                     	;# 
   233  0EAD                     	;# 
   234  0EAE                     	;# 
   235  0EAF                     	;# 
   236  0EB1                     	;# 
   237  0EB2                     	;# 
   238  0EB3                     	;# 
   239  0EB4                     	;# 
   240  0EB5                     	;# 
   241  0EB6                     	;# 
   242  0EB7                     	;# 
   243  0EB8                     	;# 
   244  0EB9                     	;# 
   245  0EBA                     	;# 
   246  0EBB                     	;# 
   247  0EBC                     	;# 
   248  0EBD                     	;# 
   249  0EBE                     	;# 
   250  0EBF                     	;# 
   251  0EC0                     	;# 
   252  0EC1                     	;# 
   253  0EC1                     	;# 
   254  0EC2                     	;# 
   255  0EC3                     	;# 
   256  0EC3                     	;# 
   257  0EC4                     	;# 
   258  0EC5                     	;# 
   259  0EC5                     	;# 
   260  0EC6                     	;# 
   261  0EC7                     	;# 
   262  0EC7                     	;# 
   263  0EC8                     	;# 
   264  0EC9                     	;# 
   265  0ECA                     	;# 
   266  0ECB                     	;# 
   267  0ECC                     	;# 
   268  0ECD                     	;# 
   269  0ECE                     	;# 
   270  0ECF                     	;# 
   271  0ED1                     	;# 
   272  0ED2                     	;# 
   273  0ED3                     	;# 
   274  0ED4                     	;# 
   275  0ED5                     	;# 
   276  0ED6                     	;# 
   277  0ED7                     	;# 
   278  0ED8                     	;# 
   279  0ED9                     	;# 
   280  0EDA                     	;# 
   281  0EDB                     	;# 
   282  0EDC                     	;# 
   283  0EDD                     	;# 
   284  0EDE                     	;# 
   285  0EDF                     	;# 
   286  0EE0                     	;# 
   287  0EE1                     	;# 
   288  0EE1                     	;# 
   289  0EE2                     	;# 
   290  0EE3                     	;# 
   291  0EE3                     	;# 
   292  0EE4                     	;# 
   293  0EE5                     	;# 
   294  0EE5                     	;# 
   295  0EE6                     	;# 
   296  0EE7                     	;# 
   297  0EE7                     	;# 
   298  0EE8                     	;# 
   299  0EE9                     	;# 
   300  0EEA                     	;# 
   301  0EEB                     	;# 
   302  0EEC                     	;# 
   303  0EED                     	;# 
   304  0EEE                     	;# 
   305  0EEF                     	;# 
   306  0F11                     	;# 
   307  0F12                     	;# 
   308  0F13                     	;# 
   309  0F14                     	;# 
   310  0F15                     	;# 
   311  0F16                     	;# 
   312  0F17                     	;# 
   313  0F18                     	;# 
   314  0F19                     	;# 
   315  0F1A                     	;# 
   316  0F1B                     	;# 
   317  0F1C                     	;# 
   318  0F1D                     	;# 
   319  0F1E                     	;# 
   320  0F1F                     	;# 
   321  0F20                     	;# 
   322  0F21                     	;# 
   323  0F21                     	;# 
   324  0F22                     	;# 
   325  0F23                     	;# 
   326  0F23                     	;# 
   327  0F24                     	;# 
   328  0F25                     	;# 
   329  0F25                     	;# 
   330  0F26                     	;# 
   331  0F27                     	;# 
   332  0F27                     	;# 
   333  0F28                     	;# 
   334  0F29                     	;# 
   335  0F2A                     	;# 
   336  0F2B                     	;# 
   337  0F2C                     	;# 
   338  0F2D                     	;# 
   339  0F2E                     	;# 
   340  0F2F                     	;# 
   341  0FE4                     	;# 
   342  0FE5                     	;# 
   343  0FE6                     	;# 
   344  0FE7                     	;# 
   345  0FE8                     	;# 
   346  0FE9                     	;# 
   347  0FEA                     	;# 
   348  0FEB                     	;# 
   349  0FED                     	;# 
   350  0FEE                     	;# 
   351  0FEF                     	;# 
   352  0000                     	;# 
   353  0001                     	;# 
   354  0002                     	;# 
   355  0003                     	;# 
   356  0004                     	;# 
   357  0005                     	;# 
   358  0006                     	;# 
   359  0007                     	;# 
   360  0008                     	;# 
   361  0009                     	;# 
   362  000A                     	;# 
   363  000B                     	;# 
   364  000C                     	;# 
   365  000D                     	;# 
   366  000E                     	;# 
   367  0010                     	;# 
   368  0011                     	;# 
   369  0012                     	;# 
   370  0013                     	;# 
   371  0014                     	;# 
   372  0015                     	;# 
   373  0016                     	;# 
   374  0016                     	;# 
   375  0017                     	;# 
   376  0018                     	;# 
   377  0019                     	;# 
   378  001A                     	;# 
   379  001B                     	;# 
   380  001C                     	;# 
   381  008C                     	;# 
   382  008D                     	;# 
   383  008E                     	;# 
   384  0090                     	;# 
   385  0091                     	;# 
   386  0092                     	;# 
   387  0093                     	;# 
   388  0094                     	;# 
   389  0095                     	;# 
   390  0096                     	;# 
   391  0097                     	;# 
   392  0098                     	;# 
   393  0099                     	;# 
   394  009A                     	;# 
   395  009B                     	;# 
   396  009B                     	;# 
   397  009C                     	;# 
   398  009D                     	;# 
   399  009E                     	;# 
   400  009F                     	;# 
   401  010C                     	;# 
   402  010D                     	;# 
   403  010E                     	;# 
   404  0111                     	;# 
   405  0112                     	;# 
   406  0113                     	;# 
   407  0114                     	;# 
   408  0115                     	;# 
   409  0116                     	;# 
   410  0117                     	;# 
   411  0118                     	;# 
   412  0119                     	;# 
   413  011A                     	;# 
   414  011B                     	;# 
   415  011C                     	;# 
   416  011D                     	;# 
   417  011D                     	;# 
   418  011D                     	;# 
   419  011E                     	;# 
   420  011F                     	;# 
   421  018C                     	;# 
   422  018D                     	;# 
   423  018E                     	;# 
   424  0191                     	;# 
   425  0191                     	;# 
   426  0192                     	;# 
   427  0193                     	;# 
   428  0193                     	;# 
   429  0193                     	;# 
   430  0194                     	;# 
   431  0195                     	;# 
   432  0196                     	;# 
   433  0197                     	;# 
   434  0199                     	;# 
   435  0199                     	;# 
   436  0199                     	;# 
   437  019A                     	;# 
   438  019A                     	;# 
   439  019A                     	;# 
   440  019B                     	;# 
   441  019B                     	;# 
   442  019B                     	;# 
   443  019B                     	;# 
   444  019B                     	;# 
   445  019C                     	;# 
   446  019C                     	;# 
   447  019C                     	;# 
   448  019D                     	;# 
   449  019D                     	;# 
   450  019D                     	;# 
   451  019E                     	;# 
   452  019E                     	;# 
   453  019E                     	;# 
   454  019F                     	;# 
   455  019F                     	;# 
   456  019F                     	;# 
   457  019F                     	;# 
   458  019F                     	;# 
   459  020C                     	;# 
   460  020D                     	;# 
   461  020E                     	;# 
   462  0210                     	;# 
   463  0211                     	;# 
   464  0211                     	;# 
   465  0212                     	;# 
   466  0212                     	;# 
   467  0213                     	;# 
   468  0213                     	;# 
   469  0214                     	;# 
   470  0214                     	;# 
   471  0215                     	;# 
   472  0215                     	;# 
   473  0215                     	;# 
   474  0215                     	;# 
   475  0216                     	;# 
   476  0216                     	;# 
   477  0217                     	;# 
   478  0217                     	;# 
   479  028C                     	;# 
   480  028D                     	;# 
   481  028E                     	;# 
   482  0291                     	;# 
   483  0291                     	;# 
   484  0292                     	;# 
   485  0293                     	;# 
   486  0298                     	;# 
   487  0298                     	;# 
   488  0299                     	;# 
   489  029A                     	;# 
   490  030C                     	;# 
   491  030D                     	;# 
   492  030E                     	;# 
   493  0311                     	;# 
   494  0311                     	;# 
   495  0312                     	;# 
   496  0313                     	;# 
   497  038C                     	;# 
   498  038D                     	;# 
   499  038E                     	;# 
   500  0390                     	;# 
   501  0391                     	;# 
   502  0392                     	;# 
   503  0393                     	;# 
   504  0394                     	;# 
   505  0395                     	;# 
   506  0396                     	;# 
   507  0397                     	;# 
   508  0398                     	;# 
   509  0399                     	;# 
   510  039D                     	;# 
   511  039E                     	;# 
   512  039F                     	;# 
   513  0511                     	;# 
   514  0513                     	;# 
   515  051A                     	;# 
   516  0591                     	;# 
   517  0592                     	;# 
   518  0592                     	;# 
   519  0593                     	;# 
   520  0594                     	;# 
   521  0594                     	;# 
   522  0595                     	;# 
   523  0596                     	;# 
   524  0596                     	;# 
   525  0E91                     	;# 
   526  0E92                     	;# 
   527  0E93                     	;# 
   528  0E94                     	;# 
   529  0E95                     	;# 
   530  0E96                     	;# 
   531  0E97                     	;# 
   532  0E98                     	;# 
   533  0E99                     	;# 
   534  0E9A                     	;# 
   535  0E9B                     	;# 
   536  0E9C                     	;# 
   537  0E9D                     	;# 
   538  0E9E                     	;# 
   539  0E9F                     	;# 
   540  0EA0                     	;# 
   541  0EA1                     	;# 
   542  0EA1                     	;# 
   543  0EA2                     	;# 
   544  0EA3                     	;# 
   545  0EA3                     	;# 
   546  0EA4                     	;# 
   547  0EA5                     	;# 
   548  0EA5                     	;# 
   549  0EA6                     	;# 
   550  0EA7                     	;# 
   551  0EA7                     	;# 
   552  0EA8                     	;# 
   553  0EA9                     	;# 
   554  0EAA                     	;# 
   555  0EAB                     	;# 
   556  0EAC                     	;# 
   557  0EAD                     	;# 
   558  0EAE                     	;# 
   559  0EAF                     	;# 
   560  0EB1                     	;# 
   561  0EB2                     	;# 
   562  0EB3                     	;# 
   563  0EB4                     	;# 
   564  0EB5                     	;# 
   565  0EB6                     	;# 
   566  0EB7                     	;# 
   567  0EB8                     	;# 
   568  0EB9                     	;# 
   569  0EBA                     	;# 
   570  0EBB                     	;# 
   571  0EBC                     	;# 
   572  0EBD                     	;# 
   573  0EBE                     	;# 
   574  0EBF                     	;# 
   575  0EC0                     	;# 
   576  0EC1                     	;# 
   577  0EC1                     	;# 
   578  0EC2                     	;# 
   579  0EC3                     	;# 
   580  0EC3                     	;# 
   581  0EC4                     	;# 
   582  0EC5                     	;# 
   583  0EC5                     	;# 
   584  0EC6                     	;# 
   585  0EC7                     	;# 
   586  0EC7                     	;# 
   587  0EC8                     	;# 
   588  0EC9                     	;# 
   589  0ECA                     	;# 
   590  0ECB                     	;# 
   591  0ECC                     	;# 
   592  0ECD                     	;# 
   593  0ECE                     	;# 
   594  0ECF                     	;# 
   595  0ED1                     	;# 
   596  0ED2                     	;# 
   597  0ED3                     	;# 
   598  0ED4                     	;# 
   599  0ED5                     	;# 
   600  0ED6                     	;# 
   601  0ED7                     	;# 
   602  0ED8                     	;# 
   603  0ED9                     	;# 
   604  0EDA                     	;# 
   605  0EDB                     	;# 
   606  0EDC                     	;# 
   607  0EDD                     	;# 
   608  0EDE                     	;# 
   609  0EDF                     	;# 
   610  0EE0                     	;# 
   611  0EE1                     	;# 
   612  0EE1                     	;# 
   613  0EE2                     	;# 
   614  0EE3                     	;# 
   615  0EE3                     	;# 
   616  0EE4                     	;# 
   617  0EE5                     	;# 
   618  0EE5                     	;# 
   619  0EE6                     	;# 
   620  0EE7                     	;# 
   621  0EE7                     	;# 
   622  0EE8                     	;# 
   623  0EE9                     	;# 
   624  0EEA                     	;# 
   625  0EEB                     	;# 
   626  0EEC                     	;# 
   627  0EED                     	;# 
   628  0EEE                     	;# 
   629  0EEF                     	;# 
   630  0F11                     	;# 
   631  0F12                     	;# 
   632  0F13                     	;# 
   633  0F14                     	;# 
   634  0F15                     	;# 
   635  0F16                     	;# 
   636  0F17                     	;# 
   637  0F18                     	;# 
   638  0F19                     	;# 
   639  0F1A                     	;# 
   640  0F1B                     	;# 
   641  0F1C                     	;# 
   642  0F1D                     	;# 
   643  0F1E                     	;# 
   644  0F1F                     	;# 
   645  0F20                     	;# 
   646  0F21                     	;# 
   647  0F21                     	;# 
   648  0F22                     	;# 
   649  0F23                     	;# 
   650  0F23                     	;# 
   651  0F24                     	;# 
   652  0F25                     	;# 
   653  0F25                     	;# 
   654  0F26                     	;# 
   655  0F27                     	;# 
   656  0F27                     	;# 
   657  0F28                     	;# 
   658  0F29                     	;# 
   659  0F2A                     	;# 
   660  0F2B                     	;# 
   661  0F2C                     	;# 
   662  0F2D                     	;# 
   663  0F2E                     	;# 
   664  0F2F                     	;# 
   665  0FE4                     	;# 
   666  0FE5                     	;# 
   667  0FE6                     	;# 
   668  0FE7                     	;# 
   669  0FE8                     	;# 
   670  0FE9                     	;# 
   671  0FEA                     	;# 
   672  0FEB                     	;# 
   673  0FED                     	;# 
   674  0FEE                     	;# 
   675  0FEF                     	;# 
   676  0000                     	;# 
   677  0001                     	;# 
   678  0002                     	;# 
   679  0003                     	;# 
   680  0004                     	;# 
   681  0005                     	;# 
   682  0006                     	;# 
   683  0007                     	;# 
   684  0008                     	;# 
   685  0009                     	;# 
   686  000A                     	;# 
   687  000B                     	;# 
   688  000C                     	;# 
   689  000D                     	;# 
   690  000E                     	;# 
   691  0010                     	;# 
   692  0011                     	;# 
   693  0012                     	;# 
   694  0013                     	;# 
   695  0014                     	;# 
   696  0015                     	;# 
   697  0016                     	;# 
   698  0016                     	;# 
   699  0017                     	;# 
   700  0018                     	;# 
   701  0019                     	;# 
   702  001A                     	;# 
   703  001B                     	;# 
   704  001C                     	;# 
   705  008C                     	;# 
   706  008D                     	;# 
   707  008E                     	;# 
   708  0090                     	;# 
   709  0091                     	;# 
   710  0092                     	;# 
   711  0093                     	;# 
   712  0094                     	;# 
   713  0095                     	;# 
   714  0096                     	;# 
   715  0097                     	;# 
   716  0098                     	;# 
   717  0099                     	;# 
   718  009A                     	;# 
   719  009B                     	;# 
   720  009B                     	;# 
   721  009C                     	;# 
   722  009D                     	;# 
   723  009E                     	;# 
   724  009F                     	;# 
   725  010C                     	;# 
   726  010D                     	;# 
   727  010E                     	;# 
   728  0111                     	;# 
   729  0112                     	;# 
   730  0113                     	;# 
   731  0114                     	;# 
   732  0115                     	;# 
   733  0116                     	;# 
   734  0117                     	;# 
   735  0118                     	;# 
   736  0119                     	;# 
   737  011A                     	;# 
   738  011B                     	;# 
   739  011C                     	;# 
   740  011D                     	;# 
   741  011D                     	;# 
   742  011D                     	;# 
   743  011E                     	;# 
   744  011F                     	;# 
   745  018C                     	;# 
   746  018D                     	;# 
   747  018E                     	;# 
   748  0191                     	;# 
   749  0191                     	;# 
   750  0192                     	;# 
   751  0193                     	;# 
   752  0193                     	;# 
   753  0193                     	;# 
   754  0194                     	;# 
   755  0195                     	;# 
   756  0196                     	;# 
   757  0197                     	;# 
   758  0199                     	;# 
   759  0199                     	;# 
   760  0199                     	;# 
   761  019A                     	;# 
   762  019A                     	;# 
   763  019A                     	;# 
   764  019B                     	;# 
   765  019B                     	;# 
   766  019B                     	;# 
   767  019B                     	;# 
   768  019B                     	;# 
   769  019C                     	;# 
   770  019C                     	;# 
   771  019C                     	;# 
   772  019D                     	;# 
   773  019D                     	;# 
   774  019D                     	;# 
   775  019E                     	;# 
   776  019E                     	;# 
   777  019E                     	;# 
   778  019F                     	;# 
   779  019F                     	;# 
   780  019F                     	;# 
   781  019F                     	;# 
   782  019F                     	;# 
   783  020C                     	;# 
   784  020D                     	;# 
   785  020E                     	;# 
   786  0210                     	;# 
   787  0211                     	;# 
   788  0211                     	;# 
   789  0212                     	;# 
   790  0212                     	;# 
   791  0213                     	;# 
   792  0213                     	;# 
   793  0214                     	;# 
   794  0214                     	;# 
   795  0215                     	;# 
   796  0215                     	;# 
   797  0215                     	;# 
   798  0215                     	;# 
   799  0216                     	;# 
   800  0216                     	;# 
   801  0217                     	;# 
   802  0217                     	;# 
   803  028C                     	;# 
   804  028D                     	;# 
   805  028E                     	;# 
   806  0291                     	;# 
   807  0291                     	;# 
   808  0292                     	;# 
   809  0293                     	;# 
   810  0298                     	;# 
   811  0298                     	;# 
   812  0299                     	;# 
   813  029A                     	;# 
   814  030C                     	;# 
   815  030D                     	;# 
   816  030E                     	;# 
   817  0311                     	;# 
   818  0311                     	;# 
   819  0312                     	;# 
   820  0313                     	;# 
   821  038C                     	;# 
   822  038D                     	;# 
   823  038E                     	;# 
   824  0390                     	;# 
   825  0391                     	;# 
   826  0392                     	;# 
   827  0393                     	;# 
   828  0394                     	;# 
   829  0395                     	;# 
   830  0396                     	;# 
   831  0397                     	;# 
   832  0398                     	;# 
   833  0399                     	;# 
   834  039D                     	;# 
   835  039E                     	;# 
   836  039F                     	;# 
   837  0511                     	;# 
   838  0513                     	;# 
   839  051A                     	;# 
   840  0591                     	;# 
   841  0592                     	;# 
   842  0592                     	;# 
   843  0593                     	;# 
   844  0594                     	;# 
   845  0594                     	;# 
   846  0595                     	;# 
   847  0596                     	;# 
   848  0596                     	;# 
   849  0E91                     	;# 
   850  0E92                     	;# 
   851  0E93                     	;# 
   852  0E94                     	;# 
   853  0E95                     	;# 
   854  0E96                     	;# 
   855  0E97                     	;# 
   856  0E98                     	;# 
   857  0E99                     	;# 
   858  0E9A                     	;# 
   859  0E9B                     	;# 
   860  0E9C                     	;# 
   861  0E9D                     	;# 
   862  0E9E                     	;# 
   863  0E9F                     	;# 
   864  0EA0                     	;# 
   865  0EA1                     	;# 
   866  0EA1                     	;# 
   867  0EA2                     	;# 
   868  0EA3                     	;# 
   869  0EA3                     	;# 
   870  0EA4                     	;# 
   871  0EA5                     	;# 
   872  0EA5                     	;# 
   873  0EA6                     	;# 
   874  0EA7                     	;# 
   875  0EA7                     	;# 
   876  0EA8                     	;# 
   877  0EA9                     	;# 
   878  0EAA                     	;# 
   879  0EAB                     	;# 
   880  0EAC                     	;# 
   881  0EAD                     	;# 
   882  0EAE                     	;# 
   883  0EAF                     	;# 
   884  0EB1                     	;# 
   885  0EB2                     	;# 
   886  0EB3                     	;# 
   887  0EB4                     	;# 
   888  0EB5                     	;# 
   889  0EB6                     	;# 
   890  0EB7                     	;# 
   891  0EB8                     	;# 
   892  0EB9                     	;# 
   893  0EBA                     	;# 
   894  0EBB                     	;# 
   895  0EBC                     	;# 
   896  0EBD                     	;# 
   897  0EBE                     	;# 
   898  0EBF                     	;# 
   899  0EC0                     	;# 
   900  0EC1                     	;# 
   901  0EC1                     	;# 
   902  0EC2                     	;# 
   903  0EC3                     	;# 
   904  0EC3                     	;# 
   905  0EC4                     	;# 
   906  0EC5                     	;# 
   907  0EC5                     	;# 
   908  0EC6                     	;# 
   909  0EC7                     	;# 
   910  0EC7                     	;# 
   911  0EC8                     	;# 
   912  0EC9                     	;# 
   913  0ECA                     	;# 
   914  0ECB                     	;# 
   915  0ECC                     	;# 
   916  0ECD                     	;# 
   917  0ECE                     	;# 
   918  0ECF                     	;# 
   919  0ED1                     	;# 
   920  0ED2                     	;# 
   921  0ED3                     	;# 
   922  0ED4                     	;# 
   923  0ED5                     	;# 
   924  0ED6                     	;# 
   925  0ED7                     	;# 
   926  0ED8                     	;# 
   927  0ED9                     	;# 
   928  0EDA                     	;# 
   929  0EDB                     	;# 
   930  0EDC                     	;# 
   931  0EDD                     	;# 
   932  0EDE                     	;# 
   933  0EDF                     	;# 
   934  0EE0                     	;# 
   935  0EE1                     	;# 
   936  0EE1                     	;# 
   937  0EE2                     	;# 
   938  0EE3                     	;# 
   939  0EE3                     	;# 
   940  0EE4                     	;# 
   941  0EE5                     	;# 
   942  0EE5                     	;# 
   943  0EE6                     	;# 
   944  0EE7                     	;# 
   945  0EE7                     	;# 
   946  0EE8                     	;# 
   947  0EE9                     	;# 
   948  0EEA                     	;# 
   949  0EEB                     	;# 
   950  0EEC                     	;# 
   951  0EED                     	;# 
   952  0EEE                     	;# 
   953  0EEF                     	;# 
   954  0F11                     	;# 
   955  0F12                     	;# 
   956  0F13                     	;# 
   957  0F14                     	;# 
   958  0F15                     	;# 
   959  0F16                     	;# 
   960  0F17                     	;# 
   961  0F18                     	;# 
   962  0F19                     	;# 
   963  0F1A                     	;# 
   964  0F1B                     	;# 
   965  0F1C                     	;# 
   966  0F1D                     	;# 
   967  0F1E                     	;# 
   968  0F1F                     	;# 
   969  0F20                     	;# 
   970  0F21                     	;# 
   971  0F21                     	;# 
   972  0F22                     	;# 
   973  0F23                     	;# 
   974  0F23                     	;# 
   975  0F24                     	;# 
   976  0F25                     	;# 
   977  0F25                     	;# 
   978  0F26                     	;# 
   979  0F27                     	;# 
   980  0F27                     	;# 
   981  0F28                     	;# 
   982  0F29                     	;# 
   983  0F2A                     	;# 
   984  0F2B                     	;# 
   985  0F2C                     	;# 
   986  0F2D                     	;# 
   987  0F2E                     	;# 
   988  0F2F                     	;# 
   989  0FE4                     	;# 
   990  0FE5                     	;# 
   991  0FE6                     	;# 
   992  0FE7                     	;# 
   993  0FE8                     	;# 
   994  0FE9                     	;# 
   995  0FEA                     	;# 
   996  0FEB                     	;# 
   997  0FED                     	;# 
   998  0FEE                     	;# 
   999  0FEF                     	;# 
  1000  0000                     	;# 
  1001  0001                     	;# 
  1002  0002                     	;# 
  1003  0003                     	;# 
  1004  0004                     	;# 
  1005  0005                     	;# 
  1006  0006                     	;# 
  1007  0007                     	;# 
  1008  0008                     	;# 
  1009  0009                     	;# 
  1010  000A                     	;# 
  1011  000B                     	;# 
  1012  000C                     	;# 
  1013  000D                     	;# 
  1014  000E                     	;# 
  1015  0010                     	;# 
  1016  0011                     	;# 
  1017  0012                     	;# 
  1018  0013                     	;# 
  1019  0014                     	;# 
  1020  0015                     	;# 
  1021  0016                     	;# 
  1022  0016                     	;# 
  1023  0017                     	;# 
  1024  0018                     	;# 
  1025  0019                     	;# 
  1026  001A                     	;# 
  1027  001B                     	;# 
  1028  001C                     	;# 
  1029  008C                     	;# 
  1030  008D                     	;# 
  1031  008E                     	;# 
  1032  0090                     	;# 
  1033  0091                     	;# 
  1034  0092                     	;# 
  1035  0093                     	;# 
  1036  0094                     	;# 
  1037  0095                     	;# 
  1038  0096                     	;# 
  1039  0097                     	;# 
  1040  0098                     	;# 
  1041  0099                     	;# 
  1042  009A                     	;# 
  1043  009B                     	;# 
  1044  009B                     	;# 
  1045  009C                     	;# 
  1046  009D                     	;# 
  1047  009E                     	;# 
  1048  009F                     	;# 
  1049  010C                     	;# 
  1050  010D                     	;# 
  1051  010E                     	;# 
  1052  0111                     	;# 
  1053  0112                     	;# 
  1054  0113                     	;# 
  1055  0114                     	;# 
  1056  0115                     	;# 
  1057  0116                     	;# 
  1058  0117                     	;# 
  1059  0118                     	;# 
  1060  0119                     	;# 
  1061  011A                     	;# 
  1062  011B                     	;# 
  1063  011C                     	;# 
  1064  011D                     	;# 
  1065  011D                     	;# 
  1066  011D                     	;# 
  1067  011E                     	;# 
  1068  011F                     	;# 
  1069  018C                     	;# 
  1070  018D                     	;# 
  1071  018E                     	;# 
  1072  0191                     	;# 
  1073  0191                     	;# 
  1074  0192                     	;# 
  1075  0193                     	;# 
  1076  0193                     	;# 
  1077  0193                     	;# 
  1078  0194                     	;# 
  1079  0195                     	;# 
  1080  0196                     	;# 
  1081  0197                     	;# 
  1082  0199                     	;# 
  1083  0199                     	;# 
  1084  0199                     	;# 
  1085  019A                     	;# 
  1086  019A                     	;# 
  1087  019A                     	;# 
  1088  019B                     	;# 
  1089  019B                     	;# 
  1090  019B                     	;# 
  1091  019B                     	;# 
  1092  019B                     	;# 
  1093  019C                     	;# 
  1094  019C                     	;# 
  1095  019C                     	;# 
  1096  019D                     	;# 
  1097  019D                     	;# 
  1098  019D                     	;# 
  1099  019E                     	;# 
  1100  019E                     	;# 
  1101  019E                     	;# 
  1102  019F                     	;# 
  1103  019F                     	;# 
  1104  019F                     	;# 
  1105  019F                     	;# 
  1106  019F                     	;# 
  1107  020C                     	;# 
  1108  020D                     	;# 
  1109  020E                     	;# 
  1110  0210                     	;# 
  1111  0211                     	;# 
  1112  0211                     	;# 
  1113  0212                     	;# 
  1114  0212                     	;# 
  1115  0213                     	;# 
  1116  0213                     	;# 
  1117  0214                     	;# 
  1118  0214                     	;# 
  1119  0215                     	;# 
  1120  0215                     	;# 
  1121  0215                     	;# 
  1122  0215                     	;# 
  1123  0216                     	;# 
  1124  0216                     	;# 
  1125  0217                     	;# 
  1126  0217                     	;# 
  1127  028C                     	;# 
  1128  028D                     	;# 
  1129  028E                     	;# 
  1130  0291                     	;# 
  1131  0291                     	;# 
  1132  0292                     	;# 
  1133  0293                     	;# 
  1134  0298                     	;# 
  1135  0298                     	;# 
  1136  0299                     	;# 
  1137  029A                     	;# 
  1138  030C                     	;# 
  1139  030D                     	;# 
  1140  030E                     	;# 
  1141  0311                     	;# 
  1142  0311                     	;# 
  1143  0312                     	;# 
  1144  0313                     	;# 
  1145  038C                     	;# 
  1146  038D                     	;# 
  1147  038E                     	;# 
  1148  0390                     	;# 
  1149  0391                     	;# 
  1150  0392                     	;# 
  1151  0393                     	;# 
  1152  0394                     	;# 
  1153  0395                     	;# 
  1154  0396                     	;# 
  1155  0397                     	;# 
  1156  0398                     	;# 
  1157  0399                     	;# 
  1158  039D                     	;# 
  1159  039E                     	;# 
  1160  039F                     	;# 
  1161  0511                     	;# 
  1162  0513                     	;# 
  1163  051A                     	;# 
  1164  0591                     	;# 
  1165  0592                     	;# 
  1166  0592                     	;# 
  1167  0593                     	;# 
  1168  0594                     	;# 
  1169  0594                     	;# 
  1170  0595                     	;# 
  1171  0596                     	;# 
  1172  0596                     	;# 
  1173  0E91                     	;# 
  1174  0E92                     	;# 
  1175  0E93                     	;# 
  1176  0E94                     	;# 
  1177  0E95                     	;# 
  1178  0E96                     	;# 
  1179  0E97                     	;# 
  1180  0E98                     	;# 
  1181  0E99                     	;# 
  1182  0E9A                     	;# 
  1183  0E9B                     	;# 
  1184  0E9C                     	;# 
  1185  0E9D                     	;# 
  1186  0E9E                     	;# 
  1187  0E9F                     	;# 
  1188  0EA0                     	;# 
  1189  0EA1                     	;# 
  1190  0EA1                     	;# 
  1191  0EA2                     	;# 
  1192  0EA3                     	;# 
  1193  0EA3                     	;# 
  1194  0EA4                     	;# 
  1195  0EA5                     	;# 
  1196  0EA5                     	;# 
  1197  0EA6                     	;# 
  1198  0EA7                     	;# 
  1199  0EA7                     	;# 
  1200  0EA8                     	;# 
  1201  0EA9                     	;# 
  1202  0EAA                     	;# 
  1203  0EAB                     	;# 
  1204  0EAC                     	;# 
  1205  0EAD                     	;# 
  1206  0EAE                     	;# 
  1207  0EAF                     	;# 
  1208  0EB1                     	;# 
  1209  0EB2                     	;# 
  1210  0EB3                     	;# 
  1211  0EB4                     	;# 
  1212  0EB5                     	;# 
  1213  0EB6                     	;# 
  1214  0EB7                     	;# 
  1215  0EB8                     	;# 
  1216  0EB9                     	;# 
  1217  0EBA                     	;# 
  1218  0EBB                     	;# 
  1219  0EBC                     	;# 
  1220  0EBD                     	;# 
  1221  0EBE                     	;# 
  1222  0EBF                     	;# 
  1223  0EC0                     	;# 
  1224  0EC1                     	;# 
  1225  0EC1                     	;# 
  1226  0EC2                     	;# 
  1227  0EC3                     	;# 
  1228  0EC3                     	;# 
  1229  0EC4                     	;# 
  1230  0EC5                     	;# 
  1231  0EC5                     	;# 
  1232  0EC6                     	;# 
  1233  0EC7                     	;# 
  1234  0EC7                     	;# 
  1235  0EC8                     	;# 
  1236  0EC9                     	;# 
  1237  0ECA                     	;# 
  1238  0ECB                     	;# 
  1239  0ECC                     	;# 
  1240  0ECD                     	;# 
  1241  0ECE                     	;# 
  1242  0ECF                     	;# 
  1243  0ED1                     	;# 
  1244  0ED2                     	;# 
  1245  0ED3                     	;# 
  1246  0ED4                     	;# 
  1247  0ED5                     	;# 
  1248  0ED6                     	;# 
  1249  0ED7                     	;# 
  1250  0ED8                     	;# 
  1251  0ED9                     	;# 
  1252  0EDA                     	;# 
  1253  0EDB                     	;# 
  1254  0EDC                     	;# 
  1255  0EDD                     	;# 
  1256  0EDE                     	;# 
  1257  0EDF                     	;# 
  1258  0EE0                     	;# 
  1259  0EE1                     	;# 
  1260  0EE1                     	;# 
  1261  0EE2                     	;# 
  1262  0EE3                     	;# 
  1263  0EE3                     	;# 
  1264  0EE4                     	;# 
  1265  0EE5                     	;# 
  1266  0EE5                     	;# 
  1267  0EE6                     	;# 
  1268  0EE7                     	;# 
  1269  0EE7                     	;# 
  1270  0EE8                     	;# 
  1271  0EE9                     	;# 
  1272  0EEA                     	;# 
  1273  0EEB                     	;# 
  1274  0EEC                     	;# 
  1275  0EED                     	;# 
  1276  0EEE                     	;# 
  1277  0EEF                     	;# 
  1278  0F11                     	;# 
  1279  0F12                     	;# 
  1280  0F13                     	;# 
  1281  0F14                     	;# 
  1282  0F15                     	;# 
  1283  0F16                     	;# 
  1284  0F17                     	;# 
  1285  0F18                     	;# 
  1286  0F19                     	;# 
  1287  0F1A                     	;# 
  1288  0F1B                     	;# 
  1289  0F1C                     	;# 
  1290  0F1D                     	;# 
  1291  0F1E                     	;# 
  1292  0F1F                     	;# 
  1293  0F20                     	;# 
  1294  0F21                     	;# 
  1295  0F21                     	;# 
  1296  0F22                     	;# 
  1297  0F23                     	;# 
  1298  0F23                     	;# 
  1299  0F24                     	;# 
  1300  0F25                     	;# 
  1301  0F25                     	;# 
  1302  0F26                     	;# 
  1303  0F27                     	;# 
  1304  0F27                     	;# 
  1305  0F28                     	;# 
  1306  0F29                     	;# 
  1307  0F2A                     	;# 
  1308  0F2B                     	;# 
  1309  0F2C                     	;# 
  1310  0F2D                     	;# 
  1311  0F2E                     	;# 
  1312  0F2F                     	;# 
  1313  0FE4                     	;# 
  1314  0FE5                     	;# 
  1315  0FE6                     	;# 
  1316  0FE7                     	;# 
  1317  0FE8                     	;# 
  1318  0FE9                     	;# 
  1319  0FEA                     	;# 
  1320  0FEB                     	;# 
  1321  0FED                     	;# 
  1322  0FEE                     	;# 
  1323  0FEF                     	;# 
  1324  0000                     	;# 
  1325  0001                     	;# 
  1326  0002                     	;# 
  1327  0003                     	;# 
  1328  0004                     	;# 
  1329  0005                     	;# 
  1330  0006                     	;# 
  1331  0007                     	;# 
  1332  0008                     	;# 
  1333  0009                     	;# 
  1334  000A                     	;# 
  1335  000B                     	;# 
  1336  000C                     	;# 
  1337  000D                     	;# 
  1338  000E                     	;# 
  1339  0010                     	;# 
  1340  0011                     	;# 
  1341  0012                     	;# 
  1342  0013                     	;# 
  1343  0014                     	;# 
  1344  0015                     	;# 
  1345  0016                     	;# 
  1346  0016                     	;# 
  1347  0017                     	;# 
  1348  0018                     	;# 
  1349  0019                     	;# 
  1350  001A                     	;# 
  1351  001B                     	;# 
  1352  001C                     	;# 
  1353  008C                     	;# 
  1354  008D                     	;# 
  1355  008E                     	;# 
  1356  0090                     	;# 
  1357  0091                     	;# 
  1358  0092                     	;# 
  1359  0093                     	;# 
  1360  0094                     	;# 
  1361  0095                     	;# 
  1362  0096                     	;# 
  1363  0097                     	;# 
  1364  0098                     	;# 
  1365  0099                     	;# 
  1366  009A                     	;# 
  1367  009B                     	;# 
  1368  009B                     	;# 
  1369  009C                     	;# 
  1370  009D                     	;# 
  1371  009E                     	;# 
  1372  009F                     	;# 
  1373  010C                     	;# 
  1374  010D                     	;# 
  1375  010E                     	;# 
  1376  0111                     	;# 
  1377  0112                     	;# 
  1378  0113                     	;# 
  1379  0114                     	;# 
  1380  0115                     	;# 
  1381  0116                     	;# 
  1382  0117                     	;# 
  1383  0118                     	;# 
  1384  0119                     	;# 
  1385  011A                     	;# 
  1386  011B                     	;# 
  1387  011C                     	;# 
  1388  011D                     	;# 
  1389  011D                     	;# 
  1390  011D                     	;# 
  1391  011E                     	;# 
  1392  011F                     	;# 
  1393  018C                     	;# 
  1394  018D                     	;# 
  1395  018E                     	;# 
  1396  0191                     	;# 
  1397  0191                     	;# 
  1398  0192                     	;# 
  1399  0193                     	;# 
  1400  0193                     	;# 
  1401  0193                     	;# 
  1402  0194                     	;# 
  1403  0195                     	;# 
  1404  0196                     	;# 
  1405  0197                     	;# 
  1406  0199                     	;# 
  1407  0199                     	;# 
  1408  0199                     	;# 
  1409  019A                     	;# 
  1410  019A                     	;# 
  1411  019A                     	;# 
  1412  019B                     	;# 
  1413  019B                     	;# 
  1414  019B                     	;# 
  1415  019B                     	;# 
  1416  019B                     	;# 
  1417  019C                     	;# 
  1418  019C                     	;# 
  1419  019C                     	;# 
  1420  019D                     	;# 
  1421  019D                     	;# 
  1422  019D                     	;# 
  1423  019E                     	;# 
  1424  019E                     	;# 
  1425  019E                     	;# 
  1426  019F                     	;# 
  1427  019F                     	;# 
  1428  019F                     	;# 
  1429  019F                     	;# 
  1430  019F                     	;# 
  1431  020C                     	;# 
  1432  020D                     	;# 
  1433  020E                     	;# 
  1434  0210                     	;# 
  1435  0211                     	;# 
  1436  0211                     	;# 
  1437  0212                     	;# 
  1438  0212                     	;# 
  1439  0213                     	;# 
  1440  0213                     	;# 
  1441  0214                     	;# 
  1442  0214                     	;# 
  1443  0215                     	;# 
  1444  0215                     	;# 
  1445  0215                     	;# 
  1446  0215                     	;# 
  1447  0216                     	;# 
  1448  0216                     	;# 
  1449  0217                     	;# 
  1450  0217                     	;# 
  1451  028C                     	;# 
  1452  028D                     	;# 
  1453  028E                     	;# 
  1454  0291                     	;# 
  1455  0291                     	;# 
  1456  0292                     	;# 
  1457  0293                     	;# 
  1458  0298                     	;# 
  1459  0298                     	;# 
  1460  0299                     	;# 
  1461  029A                     	;# 
  1462  030C                     	;# 
  1463  030D                     	;# 
  1464  030E                     	;# 
  1465  0311                     	;# 
  1466  0311                     	;# 
  1467  0312                     	;# 
  1468  0313                     	;# 
  1469  038C                     	;# 
  1470  038D                     	;# 
  1471  038E                     	;# 
  1472  0390                     	;# 
  1473  0391                     	;# 
  1474  0392                     	;# 
  1475  0393                     	;# 
  1476  0394                     	;# 
  1477  0395                     	;# 
  1478  0396                     	;# 
  1479  0397                     	;# 
  1480  0398                     	;# 
  1481  0399                     	;# 
  1482  039D                     	;# 
  1483  039E                     	;# 
  1484  039F                     	;# 
  1485  0511                     	;# 
  1486  0513                     	;# 
  1487  051A                     	;# 
  1488  0591                     	;# 
  1489  0592                     	;# 
  1490  0592                     	;# 
  1491  0593                     	;# 
  1492  0594                     	;# 
  1493  0594                     	;# 
  1494  0595                     	;# 
  1495  0596                     	;# 
  1496  0596                     	;# 
  1497  0E91                     	;# 
  1498  0E92                     	;# 
  1499  0E93                     	;# 
  1500  0E94                     	;# 
  1501  0E95                     	;# 
  1502  0E96                     	;# 
  1503  0E97                     	;# 
  1504  0E98                     	;# 
  1505  0E99                     	;# 
  1506  0E9A                     	;# 
  1507  0E9B                     	;# 
  1508  0E9C                     	;# 
  1509  0E9D                     	;# 
  1510  0E9E                     	;# 
  1511  0E9F                     	;# 
  1512  0EA0                     	;# 
  1513  0EA1                     	;# 
  1514  0EA1                     	;# 
  1515  0EA2                     	;# 
  1516  0EA3                     	;# 
  1517  0EA3                     	;# 
  1518  0EA4                     	;# 
  1519  0EA5                     	;# 
  1520  0EA5                     	;# 
  1521  0EA6                     	;# 
  1522  0EA7                     	;# 
  1523  0EA7                     	;# 
  1524  0EA8                     	;# 
  1525  0EA9                     	;# 
  1526  0EAA                     	;# 
  1527  0EAB                     	;# 
  1528  0EAC                     	;# 
  1529  0EAD                     	;# 
  1530  0EAE                     	;# 
  1531  0EAF                     	;# 
  1532  0EB1                     	;# 
  1533  0EB2                     	;# 
  1534  0EB3                     	;# 
  1535  0EB4                     	;# 
  1536  0EB5                     	;# 
  1537  0EB6                     	;# 
  1538  0EB7                     	;# 
  1539  0EB8                     	;# 
  1540  0EB9                     	;# 
  1541  0EBA                     	;# 
  1542  0EBB                     	;# 
  1543  0EBC                     	;# 
  1544  0EBD                     	;# 
  1545  0EBE                     	;# 
  1546  0EBF                     	;# 
  1547  0EC0                     	;# 
  1548  0EC1                     	;# 
  1549  0EC1                     	;# 
  1550  0EC2                     	;# 
  1551  0EC3                     	;# 
  1552  0EC3                     	;# 
  1553  0EC4                     	;# 
  1554  0EC5                     	;# 
  1555  0EC5                     	;# 
  1556  0EC6                     	;# 
  1557  0EC7                     	;# 
  1558  0EC7                     	;# 
  1559  0EC8                     	;# 
  1560  0EC9                     	;# 
  1561  0ECA                     	;# 
  1562  0ECB                     	;# 
  1563  0ECC                     	;# 
  1564  0ECD                     	;# 
  1565  0ECE                     	;# 
  1566  0ECF                     	;# 
  1567  0ED1                     	;# 
  1568  0ED2                     	;# 
  1569  0ED3                     	;# 
  1570  0ED4                     	;# 
  1571  0ED5                     	;# 
  1572  0ED6                     	;# 
  1573  0ED7                     	;# 
  1574  0ED8                     	;# 
  1575  0ED9                     	;# 
  1576  0EDA                     	;# 
  1577  0EDB                     	;# 
  1578  0EDC                     	;# 
  1579  0EDD                     	;# 
  1580  0EDE                     	;# 
  1581  0EDF                     	;# 
  1582  0EE0                     	;# 
  1583  0EE1                     	;# 
  1584  0EE1                     	;# 
  1585  0EE2                     	;# 
  1586  0EE3                     	;# 
  1587  0EE3                     	;# 
  1588  0EE4                     	;# 
  1589  0EE5                     	;# 
  1590  0EE5                     	;# 
  1591  0EE6                     	;# 
  1592  0EE7                     	;# 
  1593  0EE7                     	;# 
  1594  0EE8                     	;# 
  1595  0EE9                     	;# 
  1596  0EEA                     	;# 
  1597  0EEB                     	;# 
  1598  0EEC                     	;# 
  1599  0EED                     	;# 
  1600  0EEE                     	;# 
  1601  0EEF                     	;# 
  1602  0F11                     	;# 
  1603  0F12                     	;# 
  1604  0F13                     	;# 
  1605  0F14                     	;# 
  1606  0F15                     	;# 
  1607  0F16                     	;# 
  1608  0F17                     	;# 
  1609  0F18                     	;# 
  1610  0F19                     	;# 
  1611  0F1A                     	;# 
  1612  0F1B                     	;# 
  1613  0F1C                     	;# 
  1614  0F1D                     	;# 
  1615  0F1E                     	;# 
  1616  0F1F                     	;# 
  1617  0F20                     	;# 
  1618  0F21                     	;# 
  1619  0F21                     	;# 
  1620  0F22                     	;# 
  1621  0F23                     	;# 
  1622  0F23                     	;# 
  1623  0F24                     	;# 
  1624  0F25                     	;# 
  1625  0F25                     	;# 
  1626  0F26                     	;# 
  1627  0F27                     	;# 
  1628  0F27                     	;# 
  1629  0F28                     	;# 
  1630  0F29                     	;# 
  1631  0F2A                     	;# 
  1632  0F2B                     	;# 
  1633  0F2C                     	;# 
  1634  0F2D                     	;# 
  1635  0F2E                     	;# 
  1636  0F2F                     	;# 
  1637  0FE4                     	;# 
  1638  0FE5                     	;# 
  1639  0FE6                     	;# 
  1640  0FE7                     	;# 
  1641  0FE8                     	;# 
  1642  0FE9                     	;# 
  1643  0FEA                     	;# 
  1644  0FEB                     	;# 
  1645  0FED                     	;# 
  1646  0FEE                     	;# 
  1647  0FEF                     	;# 
  1648  0000                     	;# 
  1649  0001                     	;# 
  1650  0002                     	;# 
  1651  0003                     	;# 
  1652  0004                     	;# 
  1653  0005                     	;# 
  1654  0006                     	;# 
  1655  0007                     	;# 
  1656  0008                     	;# 
  1657  0009                     	;# 
  1658  000A                     	;# 
  1659  000B                     	;# 
  1660  000C                     	;# 
  1661  000D                     	;# 
  1662  000E                     	;# 
  1663  0010                     	;# 
  1664  0011                     	;# 
  1665  0012                     	;# 
  1666  0013                     	;# 
  1667  0014                     	;# 
  1668  0015                     	;# 
  1669  0016                     	;# 
  1670  0016                     	;# 
  1671  0017                     	;# 
  1672  0018                     	;# 
  1673  0019                     	;# 
  1674  001A                     	;# 
  1675  001B                     	;# 
  1676  001C                     	;# 
  1677  008C                     	;# 
  1678  008D                     	;# 
  1679  008E                     	;# 
  1680  0090                     	;# 
  1681  0091                     	;# 
  1682  0092                     	;# 
  1683  0093                     	;# 
  1684  0094                     	;# 
  1685  0095                     	;# 
  1686  0096                     	;# 
  1687  0097                     	;# 
  1688  0098                     	;# 
  1689  0099                     	;# 
  1690  009A                     	;# 
  1691  009B                     	;# 
  1692  009B                     	;# 
  1693  009C                     	;# 
  1694  009D                     	;# 
  1695  009E                     	;# 
  1696  009F                     	;# 
  1697  010C                     	;# 
  1698  010D                     	;# 
  1699  010E                     	;# 
  1700  0111                     	;# 
  1701  0112                     	;# 
  1702  0113                     	;# 
  1703  0114                     	;# 
  1704  0115                     	;# 
  1705  0116                     	;# 
  1706  0117                     	;# 
  1707  0118                     	;# 
  1708  0119                     	;# 
  1709  011A                     	;# 
  1710  011B                     	;# 
  1711  011C                     	;# 
  1712  011D                     	;# 
  1713  011D                     	;# 
  1714  011D                     	;# 
  1715  011E                     	;# 
  1716  011F                     	;# 
  1717  018C                     	;# 
  1718  018D                     	;# 
  1719  018E                     	;# 
  1720  0191                     	;# 
  1721  0191                     	;# 
  1722  0192                     	;# 
  1723  0193                     	;# 
  1724  0193                     	;# 
  1725  0193                     	;# 
  1726  0194                     	;# 
  1727  0195                     	;# 
  1728  0196                     	;# 
  1729  0197                     	;# 
  1730  0199                     	;# 
  1731  0199                     	;# 
  1732  0199                     	;# 
  1733  019A                     	;# 
  1734  019A                     	;# 
  1735  019A                     	;# 
  1736  019B                     	;# 
  1737  019B                     	;# 
  1738  019B                     	;# 
  1739  019B                     	;# 
  1740  019B                     	;# 
  1741  019C                     	;# 
  1742  019C                     	;# 
  1743  019C                     	;# 
  1744  019D                     	;# 
  1745  019D                     	;# 
  1746  019D                     	;# 
  1747  019E                     	;# 
  1748  019E                     	;# 
  1749  019E                     	;# 
  1750  019F                     	;# 
  1751  019F                     	;# 
  1752  019F                     	;# 
  1753  019F                     	;# 
  1754  019F                     	;# 
  1755  020C                     	;# 
  1756  020D                     	;# 
  1757  020E                     	;# 
  1758  0210                     	;# 
  1759  0211                     	;# 
  1760  0211                     	;# 
  1761  0212                     	;# 
  1762  0212                     	;# 
  1763  0213                     	;# 
  1764  0213                     	;# 
  1765  0214                     	;# 
  1766  0214                     	;# 
  1767  0215                     	;# 
  1768  0215                     	;# 
  1769  0215                     	;# 
  1770  0215                     	;# 
  1771  0216                     	;# 
  1772  0216                     	;# 
  1773  0217                     	;# 
  1774  0217                     	;# 
  1775  028C                     	;# 
  1776  028D                     	;# 
  1777  028E                     	;# 
  1778  0291                     	;# 
  1779  0291                     	;# 
  1780  0292                     	;# 
  1781  0293                     	;# 
  1782  0298                     	;# 
  1783  0298                     	;# 
  1784  0299                     	;# 
  1785  029A                     	;# 
  1786  030C                     	;# 
  1787  030D                     	;# 
  1788  030E                     	;# 
  1789  0311                     	;# 
  1790  0311                     	;# 
  1791  0312                     	;# 
  1792  0313                     	;# 
  1793  038C                     	;# 
  1794  038D                     	;# 
  1795  038E                     	;# 
  1796  0390                     	;# 
  1797  0391                     	;# 
  1798  0392                     	;# 
  1799  0393                     	;# 
  1800  0394                     	;# 
  1801  0395                     	;# 
  1802  0396                     	;# 
  1803  0397                     	;# 
  1804  0398                     	;# 
  1805  0399                     	;# 
  1806  039D                     	;# 
  1807  039E                     	;# 
  1808  039F                     	;# 
  1809  0511                     	;# 
  1810  0513                     	;# 
  1811  051A                     	;# 
  1812  0591                     	;# 
  1813  0592                     	;# 
  1814  0592                     	;# 
  1815  0593                     	;# 
  1816  0594                     	;# 
  1817  0594                     	;# 
  1818  0595                     	;# 
  1819  0596                     	;# 
  1820  0596                     	;# 
  1821  0E91                     	;# 
  1822  0E92                     	;# 
  1823  0E93                     	;# 
  1824  0E94                     	;# 
  1825  0E95                     	;# 
  1826  0E96                     	;# 
  1827  0E97                     	;# 
  1828  0E98                     	;# 
  1829  0E99                     	;# 
  1830  0E9A                     	;# 
  1831  0E9B                     	;# 
  1832  0E9C                     	;# 
  1833  0E9D                     	;# 
  1834  0E9E                     	;# 
  1835  0E9F                     	;# 
  1836  0EA0                     	;# 
  1837  0EA1                     	;# 
  1838  0EA1                     	;# 
  1839  0EA2                     	;# 
  1840  0EA3                     	;# 
  1841  0EA3                     	;# 
  1842  0EA4                     	;# 
  1843  0EA5                     	;# 
  1844  0EA5                     	;# 
  1845  0EA6                     	;# 
  1846  0EA7                     	;# 
  1847  0EA7                     	;# 
  1848  0EA8                     	;# 
  1849  0EA9                     	;# 
  1850  0EAA                     	;# 
  1851  0EAB                     	;# 
  1852  0EAC                     	;# 
  1853  0EAD                     	;# 
  1854  0EAE                     	;# 
  1855  0EAF                     	;# 
  1856  0EB1                     	;# 
  1857  0EB2                     	;# 
  1858  0EB3                     	;# 
  1859  0EB4                     	;# 
  1860  0EB5                     	;# 
  1861  0EB6                     	;# 
  1862  0EB7                     	;# 
  1863  0EB8                     	;# 
  1864  0EB9                     	;# 
  1865  0EBA                     	;# 
  1866  0EBB                     	;# 
  1867  0EBC                     	;# 
  1868  0EBD                     	;# 
  1869  0EBE                     	;# 
  1870  0EBF                     	;# 
  1871  0EC0                     	;# 
  1872  0EC1                     	;# 
  1873  0EC1                     	;# 
  1874  0EC2                     	;# 
  1875  0EC3                     	;# 
  1876  0EC3                     	;# 
  1877  0EC4                     	;# 
  1878  0EC5                     	;# 
  1879  0EC5                     	;# 
  1880  0EC6                     	;# 
  1881  0EC7                     	;# 
  1882  0EC7                     	;# 
  1883  0EC8                     	;# 
  1884  0EC9                     	;# 
  1885  0ECA                     	;# 
  1886  0ECB                     	;# 
  1887  0ECC                     	;# 
  1888  0ECD                     	;# 
  1889  0ECE                     	;# 
  1890  0ECF                     	;# 
  1891  0ED1                     	;# 
  1892  0ED2                     	;# 
  1893  0ED3                     	;# 
  1894  0ED4                     	;# 
  1895  0ED5                     	;# 
  1896  0ED6                     	;# 
  1897  0ED7                     	;# 
  1898  0ED8                     	;# 
  1899  0ED9                     	;# 
  1900  0EDA                     	;# 
  1901  0EDB                     	;# 
  1902  0EDC                     	;# 
  1903  0EDD                     	;# 
  1904  0EDE                     	;# 
  1905  0EDF                     	;# 
  1906  0EE0                     	;# 
  1907  0EE1                     	;# 
  1908  0EE1                     	;# 
  1909  0EE2                     	;# 
  1910  0EE3                     	;# 
  1911  0EE3                     	;# 
  1912  0EE4                     	;# 
  1913  0EE5                     	;# 
  1914  0EE5                     	;# 
  1915  0EE6                     	;# 
  1916  0EE7                     	;# 
  1917  0EE7                     	;# 
  1918  0EE8                     	;# 
  1919  0EE9                     	;# 
  1920  0EEA                     	;# 
  1921  0EEB                     	;# 
  1922  0EEC                     	;# 
  1923  0EED                     	;# 
  1924  0EEE                     	;# 
  1925  0EEF                     	;# 
  1926  0F11                     	;# 
  1927  0F12                     	;# 
  1928  0F13                     	;# 
  1929  0F14                     	;# 
  1930  0F15                     	;# 
  1931  0F16                     	;# 
  1932  0F17                     	;# 
  1933  0F18                     	;# 
  1934  0F19                     	;# 
  1935  0F1A                     	;# 
  1936  0F1B                     	;# 
  1937  0F1C                     	;# 
  1938  0F1D                     	;# 
  1939  0F1E                     	;# 
  1940  0F1F                     	;# 
  1941  0F20                     	;# 
  1942  0F21                     	;# 
  1943  0F21                     	;# 
  1944  0F22                     	;# 
  1945  0F23                     	;# 
  1946  0F23                     	;# 
  1947  0F24                     	;# 
  1948  0F25                     	;# 
  1949  0F25                     	;# 
  1950  0F26                     	;# 
  1951  0F27                     	;# 
  1952  0F27                     	;# 
  1953  0F28                     	;# 
  1954  0F29                     	;# 
  1955  0F2A                     	;# 
  1956  0F2B                     	;# 
  1957  0F2C                     	;# 
  1958  0F2D                     	;# 
  1959  0F2E                     	;# 
  1960  0F2F                     	;# 
  1961  0FE4                     	;# 
  1962  0FE5                     	;# 
  1963  0FE6                     	;# 
  1964  0FE7                     	;# 
  1965  0FE8                     	;# 
  1966  0FE9                     	;# 
  1967  0FEA                     	;# 
  1968  0FEB                     	;# 
  1969  0FED                     	;# 
  1970  0FEE                     	;# 
  1971  0FEF                     	;# 
  1972  0000                     	;# 
  1973  0001                     	;# 
  1974  0002                     	;# 
  1975  0003                     	;# 
  1976  0004                     	;# 
  1977  0005                     	;# 
  1978  0006                     	;# 
  1979  0007                     	;# 
  1980  0008                     	;# 
  1981  0009                     	;# 
  1982  000A                     	;# 
  1983  000B                     	;# 
  1984  000C                     	;# 
  1985  000D                     	;# 
  1986  000E                     	;# 
  1987  0010                     	;# 
  1988  0011                     	;# 
  1989  0012                     	;# 
  1990  0013                     	;# 
  1991  0014                     	;# 
  1992  0015                     	;# 
  1993  0016                     	;# 
  1994  0016                     	;# 
  1995  0017                     	;# 
  1996  0018                     	;# 
  1997  0019                     	;# 
  1998  001A                     	;# 
  1999  001B                     	;# 
  2000  001C                     	;# 
  2001  008C                     	;# 
  2002  008D                     	;# 
  2003  008E                     	;# 
  2004  0090                     	;# 
  2005  0091                     	;# 
  2006  0092                     	;# 
  2007  0093                     	;# 
  2008  0094                     	;# 
  2009  0095                     	;# 
  2010  0096                     	;# 
  2011  0097                     	;# 
  2012  0098                     	;# 
  2013  0099                     	;# 
  2014  009A                     	;# 
  2015  009B                     	;# 
  2016  009B                     	;# 
  2017  009C                     	;# 
  2018  009D                     	;# 
  2019  009E                     	;# 
  2020  009F                     	;# 
  2021  010C                     	;# 
  2022  010D                     	;# 
  2023  010E                     	;# 
  2024  0111                     	;# 
  2025  0112                     	;# 
  2026  0113                     	;# 
  2027  0114                     	;# 
  2028  0115                     	;# 
  2029  0116                     	;# 
  2030  0117                     	;# 
  2031  0118                     	;# 
  2032  0119                     	;# 
  2033  011A                     	;# 
  2034  011B                     	;# 
  2035  011C                     	;# 
  2036  011D                     	;# 
  2037  011D                     	;# 
  2038  011D                     	;# 
  2039  011E                     	;# 
  2040  011F                     	;# 
  2041  018C                     	;# 
  2042  018D                     	;# 
  2043  018E                     	;# 
  2044  0191                     	;# 
  2045  0191                     	;# 
  2046  0192                     	;# 
  2047  0193                     	;# 
  2048  0193                     	;# 
  2049  0193                     	;# 
  2050  0194                     	;# 
  2051  0195                     	;# 
  2052  0196                     	;# 
  2053  0197                     	;# 
  2054  0199                     	;# 
  2055  0199                     	;# 
  2056  0199                     	;# 
  2057  019A                     	;# 
  2058  019A                     	;# 
  2059  019A                     	;# 
  2060  019B                     	;# 
  2061  019B                     	;# 
  2062  019B                     	;# 
  2063  019B                     	;# 
  2064  019B                     	;# 
  2065  019C                     	;# 
  2066  019C                     	;# 
  2067  019C                     	;# 
  2068  019D                     	;# 
  2069  019D                     	;# 
  2070  019D                     	;# 
  2071  019E                     	;# 
  2072  019E                     	;# 
  2073  019E                     	;# 
  2074  019F                     	;# 
  2075  019F                     	;# 
  2076  019F                     	;# 
  2077  019F                     	;# 
  2078  019F                     	;# 
  2079  020C                     	;# 
  2080  020D                     	;# 
  2081  020E                     	;# 
  2082  0210                     	;# 
  2083  0211                     	;# 
  2084  0211                     	;# 
  2085  0212                     	;# 
  2086  0212                     	;# 
  2087  0213                     	;# 
  2088  0213                     	;# 
  2089  0214                     	;# 
  2090  0214                     	;# 
  2091  0215                     	;# 
  2092  0215                     	;# 
  2093  0215                     	;# 
  2094  0215                     	;# 
  2095  0216                     	;# 
  2096  0216                     	;# 
  2097  0217                     	;# 
  2098  0217                     	;# 
  2099  028C                     	;# 
  2100  028D                     	;# 
  2101  028E                     	;# 
  2102  0291                     	;# 
  2103  0291                     	;# 
  2104  0292                     	;# 
  2105  0293                     	;# 
  2106  0298                     	;# 
  2107  0298                     	;# 
  2108  0299                     	;# 
  2109  029A                     	;# 
  2110  030C                     	;# 
  2111  030D                     	;# 
  2112  030E                     	;# 
  2113  0311                     	;# 
  2114  0311                     	;# 
  2115  0312                     	;# 
  2116  0313                     	;# 
  2117  038C                     	;# 
  2118  038D                     	;# 
  2119  038E                     	;# 
  2120  0390                     	;# 
  2121  0391                     	;# 
  2122  0392                     	;# 
  2123  0393                     	;# 
  2124  0394                     	;# 
  2125  0395                     	;# 
  2126  0396                     	;# 
  2127  0397                     	;# 
  2128  0398                     	;# 
  2129  0399                     	;# 
  2130  039D                     	;# 
  2131  039E                     	;# 
  2132  039F                     	;# 
  2133  0511                     	;# 
  2134  0513                     	;# 
  2135  051A                     	;# 
  2136  0591                     	;# 
  2137  0592                     	;# 
  2138  0592                     	;# 
  2139  0593                     	;# 
  2140  0594                     	;# 
  2141  0594                     	;# 
  2142  0595                     	;# 
  2143  0596                     	;# 
  2144  0596                     	;# 
  2145  0E91                     	;# 
  2146  0E92                     	;# 
  2147  0E93                     	;# 
  2148  0E94                     	;# 
  2149  0E95                     	;# 
  2150  0E96                     	;# 
  2151  0E97                     	;# 
  2152  0E98                     	;# 
  2153  0E99                     	;# 
  2154  0E9A                     	;# 
  2155  0E9B                     	;# 
  2156  0E9C                     	;# 
  2157  0E9D                     	;# 
  2158  0E9E                     	;# 
  2159  0E9F                     	;# 
  2160  0EA0                     	;# 
  2161  0EA1                     	;# 
  2162  0EA1                     	;# 
  2163  0EA2                     	;# 
  2164  0EA3                     	;# 
  2165  0EA3                     	;# 
  2166  0EA4                     	;# 
  2167  0EA5                     	;# 
  2168  0EA5                     	;# 
  2169  0EA6                     	;# 
  2170  0EA7                     	;# 
  2171  0EA7                     	;# 
  2172  0EA8                     	;# 
  2173  0EA9                     	;# 
  2174  0EAA                     	;# 
  2175  0EAB                     	;# 
  2176  0EAC                     	;# 
  2177  0EAD                     	;# 
  2178  0EAE                     	;# 
  2179  0EAF                     	;# 
  2180  0EB1                     	;# 
  2181  0EB2                     	;# 
  2182  0EB3                     	;# 
  2183  0EB4                     	;# 
  2184  0EB5                     	;# 
  2185  0EB6                     	;# 
  2186  0EB7                     	;# 
  2187  0EB8                     	;# 
  2188  0EB9                     	;# 
  2189  0EBA                     	;# 
  2190  0EBB                     	;# 
  2191  0EBC                     	;# 
  2192  0EBD                     	;# 
  2193  0EBE                     	;# 
  2194  0EBF                     	;# 
  2195  0EC0                     	;# 
  2196  0EC1                     	;# 
  2197  0EC1                     	;# 
  2198  0EC2                     	;# 
  2199  0EC3                     	;# 
  2200  0EC3                     	;# 
  2201  0EC4                     	;# 
  2202  0EC5                     	;# 
  2203  0EC5                     	;# 
  2204  0EC6                     	;# 
  2205  0EC7                     	;# 
  2206  0EC7                     	;# 
  2207  0EC8                     	;# 
  2208  0EC9                     	;# 
  2209  0ECA                     	;# 
  2210  0ECB                     	;# 
  2211  0ECC                     	;# 
  2212  0ECD                     	;# 
  2213  0ECE                     	;# 
  2214  0ECF                     	;# 
  2215  0ED1                     	;# 
  2216  0ED2                     	;# 
  2217  0ED3                     	;# 
  2218  0ED4                     	;# 
  2219  0ED5                     	;# 
  2220  0ED6                     	;# 
  2221  0ED7                     	;# 
  2222  0ED8                     	;# 
  2223  0ED9                     	;# 
  2224  0EDA                     	;# 
  2225  0EDB                     	;# 
  2226  0EDC                     	;# 
  2227  0EDD                     	;# 
  2228  0EDE                     	;# 
  2229  0EDF                     	;# 
  2230  0EE0                     	;# 
  2231  0EE1                     	;# 
  2232  0EE1                     	;# 
  2233  0EE2                     	;# 
  2234  0EE3                     	;# 
  2235  0EE3                     	;# 
  2236  0EE4                     	;# 
  2237  0EE5                     	;# 
  2238  0EE5                     	;# 
  2239  0EE6                     	;# 
  2240  0EE7                     	;# 
  2241  0EE7                     	;# 
  2242  0EE8                     	;# 
  2243  0EE9                     	;# 
  2244  0EEA                     	;# 
  2245  0EEB                     	;# 
  2246  0EEC                     	;# 
  2247  0EED                     	;# 
  2248  0EEE                     	;# 
  2249  0EEF                     	;# 
  2250  0F11                     	;# 
  2251  0F12                     	;# 
  2252  0F13                     	;# 
  2253  0F14                     	;# 
  2254  0F15                     	;# 
  2255  0F16                     	;# 
  2256  0F17                     	;# 
  2257  0F18                     	;# 
  2258  0F19                     	;# 
  2259  0F1A                     	;# 
  2260  0F1B                     	;# 
  2261  0F1C                     	;# 
  2262  0F1D                     	;# 
  2263  0F1E                     	;# 
  2264  0F1F                     	;# 
  2265  0F20                     	;# 
  2266  0F21                     	;# 
  2267  0F21                     	;# 
  2268  0F22                     	;# 
  2269  0F23                     	;# 
  2270  0F23                     	;# 
  2271  0F24                     	;# 
  2272  0F25                     	;# 
  2273  0F25                     	;# 
  2274  0F26                     	;# 
  2275  0F27                     	;# 
  2276  0F27                     	;# 
  2277  0F28                     	;# 
  2278  0F29                     	;# 
  2279  0F2A                     	;# 
  2280  0F2B                     	;# 
  2281  0F2C                     	;# 
  2282  0F2D                     	;# 
  2283  0F2E                     	;# 
  2284  0F2F                     	;# 
  2285  0FE4                     	;# 
  2286  0FE5                     	;# 
  2287  0FE6                     	;# 
  2288  0FE7                     	;# 
  2289  0FE8                     	;# 
  2290  0FE9                     	;# 
  2291  0FEA                     	;# 
  2292  0FEB                     	;# 
  2293  0FED                     	;# 
  2294  0FEE                     	;# 
  2295  0FEF                     	;# 
  2296  0000                     	;# 
  2297  0001                     	;# 
  2298  0002                     	;# 
  2299  0003                     	;# 
  2300  0004                     	;# 
  2301  0005                     	;# 
  2302  0006                     	;# 
  2303  0007                     	;# 
  2304  0008                     	;# 
  2305  0009                     	;# 
  2306  000A                     	;# 
  2307  000B                     	;# 
  2308  000C                     	;# 
  2309  000D                     	;# 
  2310  000E                     	;# 
  2311  0010                     	;# 
  2312  0011                     	;# 
  2313  0012                     	;# 
  2314  0013                     	;# 
  2315  0014                     	;# 
  2316  0015                     	;# 
  2317  0016                     	;# 
  2318  0016                     	;# 
  2319  0017                     	;# 
  2320  0018                     	;# 
  2321  0019                     	;# 
  2322  001A                     	;# 
  2323  001B                     	;# 
  2324  001C                     	;# 
  2325  008C                     	;# 
  2326  008D                     	;# 
  2327  008E                     	;# 
  2328  0090                     	;# 
  2329  0091                     	;# 
  2330  0092                     	;# 
  2331  0093                     	;# 
  2332  0094                     	;# 
  2333  0095                     	;# 
  2334  0096                     	;# 
  2335  0097                     	;# 
  2336  0098                     	;# 
  2337  0099                     	;# 
  2338  009A                     	;# 
  2339  009B                     	;# 
  2340  009B                     	;# 
  2341  009C                     	;# 
  2342  009D                     	;# 
  2343  009E                     	;# 
  2344  009F                     	;# 
  2345  010C                     	;# 
  2346  010D                     	;# 
  2347  010E                     	;# 
  2348  0111                     	;# 
  2349  0112                     	;# 
  2350  0113                     	;# 
  2351  0114                     	;# 
  2352  0115                     	;# 
  2353  0116                     	;# 
  2354  0117                     	;# 
  2355  0118                     	;# 
  2356  0119                     	;# 
  2357  011A                     	;# 
  2358  011B                     	;# 
  2359  011C                     	;# 
  2360  011D                     	;# 
  2361  011D                     	;# 
  2362  011D                     	;# 
  2363  011E                     	;# 
  2364  011F                     	;# 
  2365  018C                     	;# 
  2366  018D                     	;# 
  2367  018E                     	;# 
  2368  0191                     	;# 
  2369  0191                     	;# 
  2370  0192                     	;# 
  2371  0193                     	;# 
  2372  0193                     	;# 
  2373  0193                     	;# 
  2374  0194                     	;# 
  2375  0195                     	;# 
  2376  0196                     	;# 
  2377  0197                     	;# 
  2378  0199                     	;# 
  2379  0199                     	;# 
  2380  0199                     	;# 
  2381  019A                     	;# 
  2382  019A                     	;# 
  2383  019A                     	;# 
  2384  019B                     	;# 
  2385  019B                     	;# 
  2386  019B                     	;# 
  2387  019B                     	;# 
  2388  019B                     	;# 
  2389  019C                     	;# 
  2390  019C                     	;# 
  2391  019C                     	;# 
  2392  019D                     	;# 
  2393  019D                     	;# 
  2394  019D                     	;# 
  2395  019E                     	;# 
  2396  019E                     	;# 
  2397  019E                     	;# 
  2398  019F                     	;# 
  2399  019F                     	;# 
  2400  019F                     	;# 
  2401  019F                     	;# 
  2402  019F                     	;# 
  2403  020C                     	;# 
  2404  020D                     	;# 
  2405  020E                     	;# 
  2406  0210                     	;# 
  2407  0211                     	;# 
  2408  0211                     	;# 
  2409  0212                     	;# 
  2410  0212                     	;# 
  2411  0213                     	;# 
  2412  0213                     	;# 
  2413  0214                     	;# 
  2414  0214                     	;# 
  2415  0215                     	;# 
  2416  0215                     	;# 
  2417  0215                     	;# 
  2418  0215                     	;# 
  2419  0216                     	;# 
  2420  0216                     	;# 
  2421  0217                     	;# 
  2422  0217                     	;# 
  2423  028C                     	;# 
  2424  028D                     	;# 
  2425  028E                     	;# 
  2426  0291                     	;# 
  2427  0291                     	;# 
  2428  0292                     	;# 
  2429  0293                     	;# 
  2430  0298                     	;# 
  2431  0298                     	;# 
  2432  0299                     	;# 
  2433  029A                     	;# 
  2434  030C                     	;# 
  2435  030D                     	;# 
  2436  030E                     	;# 
  2437  0311                     	;# 
  2438  0311                     	;# 
  2439  0312                     	;# 
  2440  0313                     	;# 
  2441  038C                     	;# 
  2442  038D                     	;# 
  2443  038E                     	;# 
  2444  0390                     	;# 
  2445  0391                     	;# 
  2446  0392                     	;# 
  2447  0393                     	;# 
  2448  0394                     	;# 
  2449  0395                     	;# 
  2450  0396                     	;# 
  2451  0397                     	;# 
  2452  0398                     	;# 
  2453  0399                     	;# 
  2454  039D                     	;# 
  2455  039E                     	;# 
  2456  039F                     	;# 
  2457  0511                     	;# 
  2458  0513                     	;# 
  2459  051A                     	;# 
  2460  0591                     	;# 
  2461  0592                     	;# 
  2462  0592                     	;# 
  2463  0593                     	;# 
  2464  0594                     	;# 
  2465  0594                     	;# 
  2466  0595                     	;# 
  2467  0596                     	;# 
  2468  0596                     	;# 
  2469  0E91                     	;# 
  2470  0E92                     	;# 
  2471  0E93                     	;# 
  2472  0E94                     	;# 
  2473  0E95                     	;# 
  2474  0E96                     	;# 
  2475  0E97                     	;# 
  2476  0E98                     	;# 
  2477  0E99                     	;# 
  2478  0E9A                     	;# 
  2479  0E9B                     	;# 
  2480  0E9C                     	;# 
  2481  0E9D                     	;# 
  2482  0E9E                     	;# 
  2483  0E9F                     	;# 
  2484  0EA0                     	;# 
  2485  0EA1                     	;# 
  2486  0EA1                     	;# 
  2487  0EA2                     	;# 
  2488  0EA3                     	;# 
  2489  0EA3                     	;# 
  2490  0EA4                     	;# 
  2491  0EA5                     	;# 
  2492  0EA5                     	;# 
  2493  0EA6                     	;# 
  2494  0EA7                     	;# 
  2495  0EA7                     	;# 
  2496  0EA8                     	;# 
  2497  0EA9                     	;# 
  2498  0EAA                     	;# 
  2499  0EAB                     	;# 
  2500  0EAC                     	;# 
  2501  0EAD                     	;# 
  2502  0EAE                     	;# 
  2503  0EAF                     	;# 
  2504  0EB1                     	;# 
  2505  0EB2                     	;# 
  2506  0EB3                     	;# 
  2507  0EB4                     	;# 
  2508  0EB5                     	;# 
  2509  0EB6                     	;# 
  2510  0EB7                     	;# 
  2511  0EB8                     	;# 
  2512  0EB9                     	;# 
  2513  0EBA                     	;# 
  2514  0EBB                     	;# 
  2515  0EBC                     	;# 
  2516  0EBD                     	;# 
  2517  0EBE                     	;# 
  2518  0EBF                     	;# 
  2519  0EC0                     	;# 
  2520  0EC1                     	;# 
  2521  0EC1                     	;# 
  2522  0EC2                     	;# 
  2523  0EC3                     	;# 
  2524  0EC3                     	;# 
  2525  0EC4                     	;# 
  2526  0EC5                     	;# 
  2527  0EC5                     	;# 
  2528  0EC6                     	;# 
  2529  0EC7                     	;# 
  2530  0EC7                     	;# 
  2531  0EC8                     	;# 
  2532  0EC9                     	;# 
  2533  0ECA                     	;# 
  2534  0ECB                     	;# 
  2535  0ECC                     	;# 
  2536  0ECD                     	;# 
  2537  0ECE                     	;# 
  2538  0ECF                     	;# 
  2539  0ED1                     	;# 
  2540  0ED2                     	;# 
  2541  0ED3                     	;# 
  2542  0ED4                     	;# 
  2543  0ED5                     	;# 
  2544  0ED6                     	;# 
  2545  0ED7                     	;# 
  2546  0ED8                     	;# 
  2547  0ED9                     	;# 
  2548  0EDA                     	;# 
  2549  0EDB                     	;# 
  2550  0EDC                     	;# 
  2551  0EDD                     	;# 
  2552  0EDE                     	;# 
  2553  0EDF                     	;# 
  2554  0EE0                     	;# 
  2555  0EE1                     	;# 
  2556  0EE1                     	;# 
  2557  0EE2                     	;# 
  2558  0EE3                     	;# 
  2559  0EE3                     	;# 
  2560  0EE4                     	;# 
  2561  0EE5                     	;# 
  2562  0EE5                     	;# 
  2563  0EE6                     	;# 
  2564  0EE7                     	;# 
  2565  0EE7                     	;# 
  2566  0EE8                     	;# 
  2567  0EE9                     	;# 
  2568  0EEA                     	;# 
  2569  0EEB                     	;# 
  2570  0EEC                     	;# 
  2571  0EED                     	;# 
  2572  0EEE                     	;# 
  2573  0EEF                     	;# 
  2574  0F11                     	;# 
  2575  0F12                     	;# 
  2576  0F13                     	;# 
  2577  0F14                     	;# 
  2578  0F15                     	;# 
  2579  0F16                     	;# 
  2580  0F17                     	;# 
  2581  0F18                     	;# 
  2582  0F19                     	;# 
  2583  0F1A                     	;# 
  2584  0F1B                     	;# 
  2585  0F1C                     	;# 
  2586  0F1D                     	;# 
  2587  0F1E                     	;# 
  2588  0F1F                     	;# 
  2589  0F20                     	;# 
  2590  0F21                     	;# 
  2591  0F21                     	;# 
  2592  0F22                     	;# 
  2593  0F23                     	;# 
  2594  0F23                     	;# 
  2595  0F24                     	;# 
  2596  0F25                     	;# 
  2597  0F25                     	;# 
  2598  0F26                     	;# 
  2599  0F27                     	;# 
  2600  0F27                     	;# 
  2601  0F28                     	;# 
  2602  0F29                     	;# 
  2603  0F2A                     	;# 
  2604  0F2B                     	;# 
  2605  0F2C                     	;# 
  2606  0F2D                     	;# 
  2607  0F2E                     	;# 
  2608  0F2F                     	;# 
  2609  0FE4                     	;# 
  2610  0FE5                     	;# 
  2611  0FE6                     	;# 
  2612  0FE7                     	;# 
  2613  0FE8                     	;# 
  2614  0FE9                     	;# 
  2615  0FEA                     	;# 
  2616  0FEB                     	;# 
  2617  0FED                     	;# 
  2618  0FEE                     	;# 
  2619  0FEF                     	;# 
  2620  0000                     	;# 
  2621  0001                     	;# 
  2622  0002                     	;# 
  2623  0003                     	;# 
  2624  0004                     	;# 
  2625  0005                     	;# 
  2626  0006                     	;# 
  2627  0007                     	;# 
  2628  0008                     	;# 
  2629  0009                     	;# 
  2630  000A                     	;# 
  2631  000B                     	;# 
  2632  000C                     	;# 
  2633  000D                     	;# 
  2634  000E                     	;# 
  2635  0010                     	;# 
  2636  0011                     	;# 
  2637  0012                     	;# 
  2638  0013                     	;# 
  2639  0014                     	;# 
  2640  0015                     	;# 
  2641  0016                     	;# 
  2642  0016                     	;# 
  2643  0017                     	;# 
  2644  0018                     	;# 
  2645  0019                     	;# 
  2646  001A                     	;# 
  2647  001B                     	;# 
  2648  001C                     	;# 
  2649  008C                     	;# 
  2650  008D                     	;# 
  2651  008E                     	;# 
  2652  0090                     	;# 
  2653  0091                     	;# 
  2654  0092                     	;# 
  2655  0093                     	;# 
  2656  0094                     	;# 
  2657  0095                     	;# 
  2658  0096                     	;# 
  2659  0097                     	;# 
  2660  0098                     	;# 
  2661  0099                     	;# 
  2662  009A                     	;# 
  2663  009B                     	;# 
  2664  009B                     	;# 
  2665  009C                     	;# 
  2666  009D                     	;# 
  2667  009E                     	;# 
  2668  009F                     	;# 
  2669  010C                     	;# 
  2670  010D                     	;# 
  2671  010E                     	;# 
  2672  0111                     	;# 
  2673  0112                     	;# 
  2674  0113                     	;# 
  2675  0114                     	;# 
  2676  0115                     	;# 
  2677  0116                     	;# 
  2678  0117                     	;# 
  2679  0118                     	;# 
  2680  0119                     	;# 
  2681  011A                     	;# 
  2682  011B                     	;# 
  2683  011C                     	;# 
  2684  011D                     	;# 
  2685  011D                     	;# 
  2686  011D                     	;# 
  2687  011E                     	;# 
  2688  011F                     	;# 
  2689  018C                     	;# 
  2690  018D                     	;# 
  2691  018E                     	;# 
  2692  0191                     	;# 
  2693  0191                     	;# 
  2694  0192                     	;# 
  2695  0193                     	;# 
  2696  0193                     	;# 
  2697  0193                     	;# 
  2698  0194                     	;# 
  2699  0195                     	;# 
  2700  0196                     	;# 
  2701  0197                     	;# 
  2702  0199                     	;# 
  2703  0199                     	;# 
  2704  0199                     	;# 
  2705  019A                     	;# 
  2706  019A                     	;# 
  2707  019A                     	;# 
  2708  019B                     	;# 
  2709  019B                     	;# 
  2710  019B                     	;# 
  2711  019B                     	;# 
  2712  019B                     	;# 
  2713  019C                     	;# 
  2714  019C                     	;# 
  2715  019C                     	;# 
  2716  019D                     	;# 
  2717  019D                     	;# 
  2718  019D                     	;# 
  2719  019E                     	;# 
  2720  019E                     	;# 
  2721  019E                     	;# 
  2722  019F                     	;# 
  2723  019F                     	;# 
  2724  019F                     	;# 
  2725  019F                     	;# 
  2726  019F                     	;# 
  2727  020C                     	;# 
  2728  020D                     	;# 
  2729  020E                     	;# 
  2730  0210                     	;# 
  2731  0211                     	;# 
  2732  0211                     	;# 
  2733  0212                     	;# 
  2734  0212                     	;# 
  2735  0213                     	;# 
  2736  0213                     	;# 
  2737  0214                     	;# 
  2738  0214                     	;# 
  2739  0215                     	;# 
  2740  0215                     	;# 
  2741  0215                     	;# 
  2742  0215                     	;# 
  2743  0216                     	;# 
  2744  0216                     	;# 
  2745  0217                     	;# 
  2746  0217                     	;# 
  2747  028C                     	;# 
  2748  028D                     	;# 
  2749  028E                     	;# 
  2750  0291                     	;# 
  2751  0291                     	;# 
  2752  0292                     	;# 
  2753  0293                     	;# 
  2754  0298                     	;# 
  2755  0298                     	;# 
  2756  0299                     	;# 
  2757  029A                     	;# 
  2758  030C                     	;# 
  2759  030D                     	;# 
  2760  030E                     	;# 
  2761  0311                     	;# 
  2762  0311                     	;# 
  2763  0312                     	;# 
  2764  0313                     	;# 
  2765  038C                     	;# 
  2766  038D                     	;# 
  2767  038E                     	;# 
  2768  0390                     	;# 
  2769  0391                     	;# 
  2770  0392                     	;# 
  2771  0393                     	;# 
  2772  0394                     	;# 
  2773  0395                     	;# 
  2774  0396                     	;# 
  2775  0397                     	;# 
  2776  0398                     	;# 
  2777  0399                     	;# 
  2778  039D                     	;# 
  2779  039E                     	;# 
  2780  039F                     	;# 
  2781  0511                     	;# 
  2782  0513                     	;# 
  2783  051A                     	;# 
  2784  0591                     	;# 
  2785  0592                     	;# 
  2786  0592                     	;# 
  2787  0593                     	;# 
  2788  0594                     	;# 
  2789  0594                     	;# 
  2790  0595                     	;# 
  2791  0596                     	;# 
  2792  0596                     	;# 
  2793  0E91                     	;# 
  2794  0E92                     	;# 
  2795  0E93                     	;# 
  2796  0E94                     	;# 
  2797  0E95                     	;# 
  2798  0E96                     	;# 
  2799  0E97                     	;# 
  2800  0E98                     	;# 
  2801  0E99                     	;# 
  2802  0E9A                     	;# 
  2803  0E9B                     	;# 
  2804  0E9C                     	;# 
  2805  0E9D                     	;# 
  2806  0E9E                     	;# 
  2807  0E9F                     	;# 
  2808  0EA0                     	;# 
  2809  0EA1                     	;# 
  2810  0EA1                     	;# 
  2811  0EA2                     	;# 
  2812  0EA3                     	;# 
  2813  0EA3                     	;# 
  2814  0EA4                     	;# 
  2815  0EA5                     	;# 
  2816  0EA5                     	;# 
  2817  0EA6                     	;# 
  2818  0EA7                     	;# 
  2819  0EA7                     	;# 
  2820  0EA8                     	;# 
  2821  0EA9                     	;# 
  2822  0EAA                     	;# 
  2823  0EAB                     	;# 
  2824  0EAC                     	;# 
  2825  0EAD                     	;# 
  2826  0EAE                     	;# 
  2827  0EAF                     	;# 
  2828  0EB1                     	;# 
  2829  0EB2                     	;# 
  2830  0EB3                     	;# 
  2831  0EB4                     	;# 
  2832  0EB5                     	;# 
  2833  0EB6                     	;# 
  2834  0EB7                     	;# 
  2835  0EB8                     	;# 
  2836  0EB9                     	;# 
  2837  0EBA                     	;# 
  2838  0EBB                     	;# 
  2839  0EBC                     	;# 
  2840  0EBD                     	;# 
  2841  0EBE                     	;# 
  2842  0EBF                     	;# 
  2843  0EC0                     	;# 
  2844  0EC1                     	;# 
  2845  0EC1                     	;# 
  2846  0EC2                     	;# 
  2847  0EC3                     	;# 
  2848  0EC3                     	;# 
  2849  0EC4                     	;# 
  2850  0EC5                     	;# 
  2851  0EC5                     	;# 
  2852  0EC6                     	;# 
  2853  0EC7                     	;# 
  2854  0EC7                     	;# 
  2855  0EC8                     	;# 
  2856  0EC9                     	;# 
  2857  0ECA                     	;# 
  2858  0ECB                     	;# 
  2859  0ECC                     	;# 
  2860  0ECD                     	;# 
  2861  0ECE                     	;# 
  2862  0ECF                     	;# 
  2863  0ED1                     	;# 
  2864  0ED2                     	;# 
  2865  0ED3                     	;# 
  2866  0ED4                     	;# 
  2867  0ED5                     	;# 
  2868  0ED6                     	;# 
  2869  0ED7                     	;# 
  2870  0ED8                     	;# 
  2871  0ED9                     	;# 
  2872  0EDA                     	;# 
  2873  0EDB                     	;# 
  2874  0EDC                     	;# 
  2875  0EDD                     	;# 
  2876  0EDE                     	;# 
  2877  0EDF                     	;# 
  2878  0EE0                     	;# 
  2879  0EE1                     	;# 
  2880  0EE1                     	;# 
  2881  0EE2                     	;# 
  2882  0EE3                     	;# 
  2883  0EE3                     	;# 
  2884  0EE4                     	;# 
  2885  0EE5                     	;# 
  2886  0EE5                     	;# 
  2887  0EE6                     	;# 
  2888  0EE7                     	;# 
  2889  0EE7                     	;# 
  2890  0EE8                     	;# 
  2891  0EE9                     	;# 
  2892  0EEA                     	;# 
  2893  0EEB                     	;# 
  2894  0EEC                     	;# 
  2895  0EED                     	;# 
  2896  0EEE                     	;# 
  2897  0EEF                     	;# 
  2898  0F11                     	;# 
  2899  0F12                     	;# 
  2900  0F13                     	;# 
  2901  0F14                     	;# 
  2902  0F15                     	;# 
  2903  0F16                     	;# 
  2904  0F17                     	;# 
  2905  0F18                     	;# 
  2906  0F19                     	;# 
  2907  0F1A                     	;# 
  2908  0F1B                     	;# 
  2909  0F1C                     	;# 
  2910  0F1D                     	;# 
  2911  0F1E                     	;# 
  2912  0F1F                     	;# 
  2913  0F20                     	;# 
  2914  0F21                     	;# 
  2915  0F21                     	;# 
  2916  0F22                     	;# 
  2917  0F23                     	;# 
  2918  0F23                     	;# 
  2919  0F24                     	;# 
  2920  0F25                     	;# 
  2921  0F25                     	;# 
  2922  0F26                     	;# 
  2923  0F27                     	;# 
  2924  0F27                     	;# 
  2925  0F28                     	;# 
  2926  0F29                     	;# 
  2927  0F2A                     	;# 
  2928  0F2B                     	;# 
  2929  0F2C                     	;# 
  2930  0F2D                     	;# 
  2931  0F2E                     	;# 
  2932  0F2F                     	;# 
  2933  0FE4                     	;# 
  2934  0FE5                     	;# 
  2935  0FE6                     	;# 
  2936  0FE7                     	;# 
  2937  0FE8                     	;# 
  2938  0FE9                     	;# 
  2939  0FEA                     	;# 
  2940  0FEB                     	;# 
  2941  0FED                     	;# 
  2942  0FEE                     	;# 
  2943  0FEF                     	;# 
  2944                           
  2945                           	psect	idataBANK0
  2946  0614                     __pidataBANK0:	
  2947                           
  2948                           ;initializer for _health
  2949  0614  3405               	retlw	5
  2950  0016                     _TMR1	set	22
  2951  000B                     _INTCON	set	11
  2952  000C                     _PORTAbits	set	12
  2953  0018                     _T1CON	set	24
  2954  005F                     _GIE	set	95
  2955  006B                     _RB3	set	107
  2956  0074                     _RC4	set	116
  2957  008D                     _RCIF	set	141
  2958  0099                     _OSCCON	set	153
  2959  0094                     _PIE4	set	148
  2960  008C                     _TRISA	set	140
  2961  008D                     _TRISB	set	141
  2962  008E                     _TRISC	set	142
  2963  048D                     _RCIE	set	1165
  2964  018C                     _ANSELA	set	396
  2965  018D                     _ANSELB	set	397
  2966  0199                     _RCREG	set	409
  2967  019B                     _SPBRG	set	411
  2968  019A                     _TXREG	set	410
  2969  0CFB                     _BRG16	set	3323
  2970  0CF2                     _BRGH	set	3314
  2971  0CEC                     _CREN	set	3308
  2972  0CEF                     _SPEN	set	3311
  2973  0CF4                     _SYNC	set	3316
  2974  0CF1                     _TRMT	set	3313
  2975  0CF5                     _TXEN	set	3317
  2976  0393                     _IOCAF	set	915
  2977  0393                     _IOCAFbits	set	915
  2978  0392                     _IOCAN	set	914
  2979  0391                     _IOCAP	set	913
  2980  0E9D                     _PSMC1ASDC	set	3741
  2981  0E9E                     _PSMC1ASDL	set	3742
  2982  0E9F                     _PSMC1ASDS	set	3743
  2983  0EAC                     _PSMC1BLKF	set	3756
  2984  0EAB                     _PSMC1BLKR	set	3755
  2985  0E97                     _PSMC1BLNK	set	3735
  2986  0E94                     _PSMC1CLK	set	3732
  2987  0E91                     _PSMC1CON	set	3729
  2988  0EAA                     _PSMC1DBF	set	3754
  2989  0EA9                     _PSMC1DBR	set	3753
  2990  0EA4                     _PSMC1DCH	set	3748
  2991  0EA3                     _PSMC1DCL	set	3747
  2992  0E9B                     _PSMC1DCS	set	3739
  2993  0E99                     _PSMC1FEBS	set	3737
  2994  0EAD                     _PSMC1FFA	set	3757
  2995  0EA0                     _PSMC1INT	set	3744
  2996  0E92                     _PSMC1MDL	set	3730
  2997  0E95                     _PSMC1OEN	set	3733
  2998  0EA2                     _PSMC1PHH	set	3746
  2999  0EA1                     _PSMC1PHL	set	3745
  3000  0E9A                     _PSMC1PHS	set	3738
  3001  0E96                     _PSMC1POL	set	3734
  3002  0EA6                     _PSMC1PRH	set	3750
  3003  0EA5                     _PSMC1PRL	set	3749
  3004  0E9C                     _PSMC1PRS	set	3740
  3005  0E98                     _PSMC1REBS	set	3736
  3006  0EAE                     _PSMC1STR0	set	3758
  3007  0EAF                     _PSMC1STR1	set	3759
  3008  0E93                     _PSMC1SYNC	set	3731
  3009  7495                     _P1MDLBIT	set	29845
  3010                           
  3011                           	psect	stringtext
  3012  03ED                     __pstringtext:	
  3013  03ED                     STR_3:	
  3014  03ED  340A               	retlw	10
  3015  03EE  340D               	retlw	13
  3016  03EF  3447               	retlw	71	;'G'
  3017  03F0  346F               	retlw	111	;'o'
  3018  03F1  346F               	retlw	111	;'o'
  3019  03F2  3464               	retlw	100	;'d'
  3020  03F3  3420               	retlw	32	;' '
  3021  03F4  346A               	retlw	106	;'j'
  3022  03F5  346F               	retlw	111	;'o'
  3023  03F6  3462               	retlw	98	;'b'
  3024  03F7  342E               	retlw	46	;'.'
  3025  03F8  3420               	retlw	32	;' '
  3026  03F9  3459               	retlw	89	;'Y'
  3027  03FA  346F               	retlw	111	;'o'
  3028  03FB  3475               	retlw	117	;'u'
  3029  03FC  3420               	retlw	32	;' '
  3030  03FD  346B               	retlw	107	;'k'
  3031  03FE  346E               	retlw	110	;'n'
  3032  03FF  346F               	retlw	111	;'o'
  3033  0400  3477               	retlw	119	;'w'
  3034  0401  3420               	retlw	32	;' '
  3035  0402  3468               	retlw	104	;'h'
  3036  0403  346F               	retlw	111	;'o'
  3037  0404  3477               	retlw	119	;'w'
  3038  0405  3420               	retlw	32	;' '
  3039  0406  3474               	retlw	116	;'t'
  3040  0407  346F               	retlw	111	;'o'
  3041  0408  3420               	retlw	32	;' '
  3042  0409  3472               	retlw	114	;'r'
  3043  040A  3465               	retlw	101	;'e'
  3044  040B  3461               	retlw	97	;'a'
  3045  040C  3464               	retlw	100	;'d'
  3046  040D  3420               	retlw	32	;' '
  3047  040E  3469               	retlw	105	;'i'
  3048  040F  346E               	retlw	110	;'n'
  3049  0410  3473               	retlw	115	;'s'
  3050  0411  3474               	retlw	116	;'t'
  3051  0412  3472               	retlw	114	;'r'
  3052  0413  3475               	retlw	117	;'u'
  3053  0414  3463               	retlw	99	;'c'
  3054  0415  3474               	retlw	116	;'t'
  3055  0416  3469               	retlw	105	;'i'
  3056  0417  346F               	retlw	111	;'o'
  3057  0418  346E               	retlw	110	;'n'
  3058  0419  3473               	retlw	115	;'s'
  3059  041A  342E               	retlw	46	;'.'
  3060  041B  340A               	retlw	10
  3061  041C  340A               	retlw	10
  3062  041D  3400               	retlw	0
  3063  041E                     STR_2:	
  3064  041E  3450               	retlw	80	;'P'
  3065  041F  346C               	retlw	108	;'l'
  3066  0420  3465               	retlw	101	;'e'
  3067  0421  3461               	retlw	97	;'a'
  3068  0422  3473               	retlw	115	;'s'
  3069  0423  3465               	retlw	101	;'e'
  3070  0424  3420               	retlw	32	;' '
  3071  0425  3465               	retlw	101	;'e'
  3072  0426  346E               	retlw	110	;'n'
  3073  0427  3474               	retlw	116	;'t'
  3074  0428  3465               	retlw	101	;'e'
  3075  0429  3472               	retlw	114	;'r'
  3076  042A  3420               	retlw	32	;' '
  3077  042B  3474               	retlw	116	;'t'
  3078  042C  3468               	retlw	104	;'h'
  3079  042D  3465               	retlw	101	;'e'
  3080  042E  3420               	retlw	32	;' '
  3081  042F  3463               	retlw	99	;'c'
  3082  0430  3468               	retlw	104	;'h'
  3083  0431  3461               	retlw	97	;'a'
  3084  0432  3472               	retlw	114	;'r'
  3085  0433  3461               	retlw	97	;'a'
  3086  0434  3463               	retlw	99	;'c'
  3087  0435  3474               	retlw	116	;'t'
  3088  0436  3465               	retlw	101	;'e'
  3089  0437  3472               	retlw	114	;'r'
  3090  0438  3420               	retlw	32	;' '
  3091  0439  3441               	retlw	65	;'A'
  3092  043A  343A               	retlw	58	;':'
  3093  043B  3420               	retlw	32	;' '
  3094  043C  3400               	retlw	0
  3095  043D                     STR_4:	
  3096  043D  340A               	retlw	10
  3097  043E  340D               	retlw	13
  3098  043F  3457               	retlw	87	;'W'
  3099  0440  3472               	retlw	114	;'r'
  3100  0441  346F               	retlw	111	;'o'
  3101  0442  346E               	retlw	110	;'n'
  3102  0443  3467               	retlw	103	;'g'
  3103  0444  3420               	retlw	32	;' '
  3104  0445  346B               	retlw	107	;'k'
  3105  0446  3465               	retlw	101	;'e'
  3106  0447  3479               	retlw	121	;'y'
  3107  0448  342E               	retlw	46	;'.'
  3108  0449  3420               	retlw	32	;' '
  3109  044A  3454               	retlw	84	;'T'
  3110  044B  3472               	retlw	114	;'r'
  3111  044C  3479               	retlw	121	;'y'
  3112  044D  3420               	retlw	32	;' '
  3113  044E  3461               	retlw	97	;'a'
  3114  044F  3467               	retlw	103	;'g'
  3115  0450  3461               	retlw	97	;'a'
  3116  0451  3469               	retlw	105	;'i'
  3117  0452  346E               	retlw	110	;'n'
  3118  0453  342E               	retlw	46	;'.'
  3119  0454  340A               	retlw	10
  3120  0455  340D               	retlw	13
  3121  0456  3400               	retlw	0
  3122  0457                     STR_1:	
  3123  0457  340A               	retlw	10
  3124  0458  340D               	retlw	13
  3125  0459  344D               	retlw	77	;'M'
  3126  045A  3461               	retlw	97	;'a'
  3127  045B  3469               	retlw	105	;'i'
  3128  045C  346E               	retlw	110	;'n'
  3129  045D  3420               	retlw	32	;' '
  3130  045E  344C               	retlw	76	;'L'
  3131  045F  346F               	retlw	111	;'o'
  3132  0460  346F               	retlw	111	;'o'
  3133  0461  3470               	retlw	112	;'p'
  3134  0462  3420               	retlw	32	;' '
  3135  0463  3449               	retlw	73	;'I'
  3136  0464  346E               	retlw	110	;'n'
  3137  0465  3464               	retlw	100	;'d'
  3138  0466  3469               	retlw	105	;'i'
  3139  0467  3476               	retlw	118	;'v'
  3140  0468  3469               	retlw	105	;'i'
  3141  0469  3464               	retlw	100	;'d'
  3142  046A  3475               	retlw	117	;'u'
  3143  046B  3461               	retlw	97	;'a'
  3144  046C  346C               	retlw	108	;'l'
  3145  046D  340A               	retlw	10
  3146  046E  340D               	retlw	13
  3147  046F  3400               	retlw	0
  3148                           
  3149                           ; #config settings
  3150  0000                     
  3151                           	psect	cinit
  3152  0158                     start_initialization:	
  3153  0158                     __initialization:	
  3154                           
  3155                           ; Clear objects allocated to BANK0
  3156  0158  01C6               	clrf	__pbssBANK0& (0+127)
  3157  0159  01C7               	clrf	(__pbssBANK0+1)& (0+127)
  3158  015A  01C8               	clrf	(__pbssBANK0+2)& (0+127)
  3159  015B  01C9               	clrf	(__pbssBANK0+3)& (0+127)
  3160  015C  01CA               	clrf	(__pbssBANK0+4)& (0+127)
  3161  015D  01CB               	clrf	(__pbssBANK0+5)& (0+127)
  3162  015E  01CC               	clrf	(__pbssBANK0+6)& (0+127)
  3163  015F  01CD               	clrf	(__pbssBANK0+7)& (0+127)
  3164  0160  01CE               	clrf	(__pbssBANK0+8)& (0+127)
  3165                           
  3166                           ; Clear objects allocated to BANK1
  3167  0161  0021               	movlb	1	; select bank1
  3168  0162  01AB               	clrf	__pbssBANK1& (0+127)
  3169  0163  01AC               	clrf	(__pbssBANK1+1)& (0+127)
  3170  0164  01AD               	clrf	(__pbssBANK1+2)& (0+127)
  3171                           
  3172                           ; Initialize objects allocated to BANK0
  3173  0165  0020               	movlb	0	; select bank0
  3174  0166  3186  2614         	fcall	__pidataBANK0	;fetch initializer
  3175  0168  00CF               	movwf	__pdataBANK0& (0+127)
  3176  0169                     end_of_initialization:	
  3177                           ;End of C runtime variable initialization code
  3178                           
  3179  0169                     __end_of__initialization:	
  3180  0169  107E               	bcf	int$flags,0	;clear compiler interrupt flag (level 1)
  3181  016A  0020               	movlb	0
  3182  016B  3185  2D9A         	ljmp	_main	;jump to C main() function
  3183                           
  3184                           	psect	bssBANK0
  3185  0046                     __pbssBANK0:	
  3186  0046                     _D1cycles:	
  3187  0046                     	ds	2
  3188  0048                     _D2cycles:	
  3189  0048                     	ds	2
  3190  004A                     _Davgcycles:	
  3191  004A                     	ds	2
  3192  004C                     _numPackets:	
  3193  004C                     	ds	2
  3194  004E                     _stun_counter:	
  3195  004E                     	ds	1
  3196                           
  3197                           	psect	dataBANK0
  3198  004F                     __pdataBANK0:	
  3199  004F                     _health:	
  3200  004F                     	ds	1
  3201                           
  3202                           	psect	bssBANK1
  3203  00AB                     __pbssBANK1:	
  3204  00AB                     main@F7230:	
  3205  00AB                     	ds	3
  3206                           
  3207                           	psect	cstackBANK1
  3208  00A0                     __pcstackBANK1:	
  3209  00A0                     output_ir@i:	
  3210                           
  3211                           ; 2 bytes @ 0x0
  3212  00A0                     	ds	2
  3213  00A2                     output_ir@i_223:	
  3214                           
  3215                           ; 2 bytes @ 0x2
  3216  00A2                     	ds	2
  3217  00A4                     output_ir@i_224:	
  3218                           
  3219                           ; 2 bytes @ 0x4
  3220  00A4                     	ds	2
  3221  00A6                     output_ir@pkt_type:	
  3222                           
  3223                           ; 1 bytes @ 0x6
  3224  00A6                     	ds	1
  3225  00A7                     main@pkt_arr:	
  3226                           
  3227                           ; 3 bytes @ 0x7
  3228  00A7                     	ds	3
  3229  00AA                     main@i:	
  3230                           
  3231                           ; 1 bytes @ 0xA
  3232  00AA                     	ds	1
  3233                           
  3234                           	psect	cstackCOMMON
  3235  0070                     __pcstackCOMMON:	
  3236  0070                     ?_init_pic:	
  3237  0070                     ?_init_ir:	
  3238                           ; 0 bytes @ 0x0
  3239                           
  3240  0070                     ?_init_leds:	
  3241                           ; 0 bytes @ 0x0
  3242                           
  3243  0070                     ?_init_isr:	
  3244                           ; 0 bytes @ 0x0
  3245                           
  3246  0070                     ?_display_health:	
  3247                           ; 0 bytes @ 0x0
  3248                           
  3249  0070                     ?_isr:	
  3250                           ; 0 bytes @ 0x0
  3251                           
  3252  0070                     ?_main:	
  3253                           ; 0 bytes @ 0x0
  3254                           
  3255  0070                     ?___awdiv:	
  3256                           ; 2 bytes @ 0x0
  3257                           
  3258  0070                     ?___ftpack:	
  3259                           ; 2 bytes @ 0x0
  3260                           
  3261  0070                     ___awdiv@divisor:	
  3262                           ; 3 bytes @ 0x0
  3263                           
  3264  0070                     ___ftpack@arg:	
  3265                           ; 2 bytes @ 0x0
  3266                           
  3267                           
  3268                           ; 3 bytes @ 0x0
  3269  0070                     	ds	2
  3270  0072                     ___awdiv@dividend:	
  3271                           
  3272                           ; 2 bytes @ 0x2
  3273  0072                     	ds	1
  3274  0073                     ___ftpack@exp:	
  3275                           
  3276                           ; 1 bytes @ 0x3
  3277  0073                     	ds	1
  3278  0074                     ??___awdiv:	
  3279  0074                     ___ftpack@sign:	
  3280                           ; 0 bytes @ 0x4
  3281                           
  3282                           
  3283                           ; 1 bytes @ 0x4
  3284  0074                     	ds	1
  3285  0075                     ??___ftpack:	
  3286  0075                     ___awdiv@counter:	
  3287                           ; 0 bytes @ 0x5
  3288                           
  3289                           
  3290                           ; 1 bytes @ 0x5
  3291  0075                     	ds	1
  3292  0076                     ___awdiv@sign:	
  3293                           
  3294                           ; 1 bytes @ 0x6
  3295  0076                     	ds	1
  3296  0077                     ___awdiv@quotient:	
  3297                           
  3298                           ; 2 bytes @ 0x7
  3299  0077                     	ds	1
  3300  0078                     ?___awtoft:	
  3301  0078                     ___awtoft@c:	
  3302                           ; 3 bytes @ 0x8
  3303                           
  3304                           
  3305                           ; 2 bytes @ 0x8
  3306  0078                     	ds	3
  3307  007B                     ??___awtoft:	
  3308                           
  3309                           ; 0 bytes @ 0xB
  3310  007B                     	ds	2
  3311  007D                     ___awtoft@sign:	
  3312                           
  3313                           ; 1 bytes @ 0xD
  3314  007D                     	ds	1
  3315                           
  3316                           	psect	cstackBANK0
  3317  0020                     __pcstackBANK0:	
  3318  0020                     ?___ftmul:	
  3319  0020                     ___ftmul@f1:	
  3320                           ; 3 bytes @ 0x0
  3321                           
  3322                           
  3323                           ; 3 bytes @ 0x0
  3324  0020                     	ds	3
  3325  0023                     ___ftmul@f2:	
  3326                           
  3327                           ; 3 bytes @ 0x3
  3328  0023                     	ds	3
  3329  0026                     ??___ftmul:	
  3330                           
  3331                           ; 0 bytes @ 0x6
  3332  0026                     	ds	4
  3333  002A                     ___ftmul@exp:	
  3334                           
  3335                           ; 1 bytes @ 0xA
  3336  002A                     	ds	1
  3337  002B                     ___ftmul@f3_as_product:	
  3338                           
  3339                           ; 3 bytes @ 0xB
  3340  002B                     	ds	3
  3341  002E                     ___ftmul@cntr:	
  3342                           
  3343                           ; 1 bytes @ 0xE
  3344  002E                     	ds	1
  3345  002F                     ___ftmul@sign:	
  3346                           
  3347                           ; 1 bytes @ 0xF
  3348  002F                     	ds	1
  3349  0030                     ?___ftge:	
  3350  0030                     ?___fttol:	
  3351                           ; 1 bit 
  3352                           
  3353  0030                     ___ftge@ff1:	
  3354                           ; 4 bytes @ 0x10
  3355                           
  3356  0030                     ___fttol@f1:	
  3357                           ; 3 bytes @ 0x10
  3358                           
  3359                           
  3360                           ; 3 bytes @ 0x10
  3361  0030                     	ds	3
  3362  0033                     ___ftge@ff2:	
  3363                           
  3364                           ; 3 bytes @ 0x13
  3365  0033                     	ds	1
  3366  0034                     ??___fttol:	
  3367                           
  3368                           ; 0 bytes @ 0x14
  3369  0034                     	ds	2
  3370  0036                     ??___ftge:	
  3371                           
  3372                           ; 0 bytes @ 0x16
  3373  0036                     	ds	2
  3374  0038                     ___fttol@sign1:	
  3375                           
  3376                           ; 1 bytes @ 0x18
  3377  0038                     	ds	1
  3378  0039                     ___fttol@lval:	
  3379                           
  3380                           ; 4 bytes @ 0x19
  3381  0039                     	ds	4
  3382  003D                     ___fttol@exp1:	
  3383                           
  3384                           ; 1 bytes @ 0x1D
  3385  003D                     	ds	1
  3386  003E                     ??_isr:	
  3387                           
  3388                           ; 0 bytes @ 0x1E
  3389  003E                     	ds	2
  3390  0040                     ??_init_pic:	
  3391  0040                     ??_init_ir:	
  3392                           ; 0 bytes @ 0x20
  3393                           
  3394  0040                     ??_init_leds:	
  3395                           ; 0 bytes @ 0x20
  3396                           
  3397  0040                     ??_init_isr:	
  3398                           ; 0 bytes @ 0x20
  3399                           
  3400  0040                     ??_display_health:	
  3401                           ; 0 bytes @ 0x20
  3402                           
  3403  0040                     ?_output_ir:	
  3404                           ; 0 bytes @ 0x20
  3405                           
  3406  0040                     output_ir@amount:	
  3407                           ; 0 bytes @ 0x20
  3408                           
  3409                           
  3410                           ; 1 bytes @ 0x20
  3411  0040                     	ds	1
  3412  0041                     ??_output_ir:	
  3413                           
  3414                           ; 0 bytes @ 0x21
  3415  0041                     	ds	2
  3416  0043                     ??_main:	
  3417                           
  3418                           ; 0 bytes @ 0x23
  3419  0043                     	ds	3
  3420                           
  3421                           	psect	maintext
  3422  059A                     __pmaintext:	
  3423 ;;
  3424 ;;Main: autosize = 0, tempsize = 3, incstack = 0, save=0
  3425 ;;
  3426 ;; *************** function _main *****************
  3427 ;; Defined at:
  3428 ;;		line 16 in file "../../source/main.c"
  3429 ;; Parameters:    Size  Location     Type
  3430 ;;		None
  3431 ;; Auto vars:     Size  Location     Type
  3432 ;;  pkt_arr         3    7[BANK1 ] unsigned char [3]
  3433 ;;  i               1   10[BANK1 ] unsigned char 
  3434 ;; Return value:  Size  Location     Type
  3435 ;;                  2   30[None  ] int 
  3436 ;; Registers used:
  3437 ;;		wreg, status,2, status,0, pclath, cstack
  3438 ;; Tracked objects:
  3439 ;;		On entry : B1F/0
  3440 ;;		On exit  : 0/0
  3441 ;;		Unchanged: 0/0
  3442 ;; Data sizes:     COMMON   BANK0   BANK1   BANK2   BANK3   BANK4   BANK5   BANK6   BANK7   BANK8   BANK9  BANK10  BANK1
      +1  BANK12  BANK13  BANK14  BANK15  BANK16  BANK17  BANK18  BANK19  BANK20  BANK21  BANK22  BANK23  BANK24  BANK25
  3443 ;;      Params:         0       0       0       0       0       0       0       0       0       0       0       0       
      +0       0       0       0       0       0       0       0       0       0       0       0       0       0       0
  3444 ;;      Locals:         0       0       4       0       0       0       0       0       0       0       0       0       
      +0       0       0       0       0       0       0       0       0       0       0       0       0       0       0
  3445 ;;      Temps:          0       3       0       0       0       0       0       0       0       0       0       0       
      +0       0       0       0       0       0       0       0       0       0       0       0       0       0       0
  3446 ;;      Totals:         0       3       4       0       0       0       0       0       0       0       0       0       
      +0       0       0       0       0       0       0       0       0       0       0       0       0       0       0
  3447 ;;Total ram usage:        7 bytes
  3448 ;; Hardware stack levels required when called:    4
  3449 ;; This function calls:
  3450 ;;		_display_health
  3451 ;;		_init_ir
  3452 ;;		_init_isr
  3453 ;;		_init_leds
  3454 ;;		_init_pic
  3455 ;;		_output_ir
  3456 ;; This function is called by:
  3457 ;;		Startup code after reset
  3458 ;; This function uses a non-reentrant model
  3459 ;;
  3460                           
  3461                           
  3462                           ;psect for function _main
  3463  059A                     _main:	
  3464                           
  3465                           ;main.c: 18: char pkt_arr[] = {0, 0, 0};
  3466                           
  3467                           ;incstack = 0
  3468                           ; Regs used in _main: [wreg+status,2+status,0+pclath+cstack]
  3469  059A  0021               	movlb	1	; select bank1
  3470  059B  082B               	movf	main@F7230^(0+128),w
  3471  059C  00A7               	movwf	main@pkt_arr^(0+128)
  3472  059D  082C               	movf	(main@F7230+1)^(0+128),w
  3473  059E  00A8               	movwf	(main@pkt_arr+1)^(0+128)
  3474  059F  082D               	movf	(main@F7230+2)^(0+128),w
  3475  05A0  00A9               	movwf	(main@pkt_arr+2)^(0+128)
  3476                           
  3477                           ;main.c: 19: char i = 0;
  3478  05A1  01AA               	clrf	main@i^(0+128)
  3479                           
  3480                           ;main.c: 22: init_pic();
  3481  05A2  3185  25F7  3185   	fcall	_init_pic
  3482                           
  3483                           ;main.c: 26: _delay((unsigned long)((100)*(32000000/4000.0)));
  3484  05A5  3005               	movlw	5
  3485  05A6  0020               	movlb	0	; select bank0
  3486  05A7  00C5               	movwf	??_main+2
  3487  05A8  300F               	movlw	15
  3488  05A9  00C4               	movwf	??_main+1
  3489  05AA  30F4               	movlw	244
  3490  05AB  00C3               	movwf	??_main
  3491  05AC                     u1607:	
  3492  05AC  0BC3               	decfsz	??_main,f
  3493  05AD  2DAC               	goto	u1607
  3494  05AE  0BC4               	decfsz	??_main+1,f
  3495  05AF  2DAC               	goto	u1607
  3496  05B0  0BC5               	decfsz	??_main+2,f
  3497  05B1  2DAC               	goto	u1607
  3498                           
  3499                           ;main.c: 29: init_ir();
  3500  05B2  3185  2561  3185   	fcall	_init_ir
  3501                           
  3502                           ;main.c: 31: init_leds();
  3503  05B5  3186  260D  3185   	fcall	_init_leds
  3504                           
  3505                           ;main.c: 32: init_isr();
  3506  05B8  3185  25E8  3185   	fcall	_init_isr
  3507  05BB                     l1794:	
  3508                           ;main.c: 36: {
  3509                           ;main.c: 38: while( 1 )
  3510                           
  3511                           ;main.c: 35: while(1)
  3512                           
  3513                           
  3514                           ;main.c: 39: {
  3515                           ;main.c: 40: display_health();
  3516  05BB  3186  2605  3185   	fcall	_display_health
  3517                           
  3518                           ;main.c: 41: output_ir(0, 5);
  3519  05BE  3005               	movlw	5
  3520  05BF  0020               	movlb	0	; select bank0
  3521  05C0  00C3               	movwf	??_main
  3522  05C1  0843               	movf	??_main,w
  3523  05C2  00C0               	movwf	output_ir@amount
  3524  05C3  3000               	movlw	0
  3525  05C4  3181  216D  3185   	fcall	_output_ir
  3526  05C7  2DBB               	goto	l1794
  3527  05C8                     __end_of_main:	
  3528                           
  3529                           	psect	text1
  3530  016D                     __ptext1:	
  3531 ;; *************** function _output_ir *****************
  3532 ;; Defined at:
  3533 ;;		line 41 in file "../../source/ir.c"
  3534 ;; Parameters:    Size  Location     Type
  3535 ;;  pkt_type        1    wreg     unsigned char 
  3536 ;;  amount          1   32[BANK0 ] unsigned char 
  3537 ;; Auto vars:     Size  Location     Type
  3538 ;;  pkt_type        1    6[BANK1 ] unsigned char 
  3539 ;;  i               2    4[BANK1 ] int 
  3540 ;;  i               2    2[BANK1 ] int 
  3541 ;;  i               2    0[BANK1 ] int 
  3542 ;; Return value:  Size  Location     Type
  3543 ;;		None               void
  3544 ;; Registers used:
  3545 ;;		wreg, status,2, status,0
  3546 ;; Tracked objects:
  3547 ;;		On entry : 0/0
  3548 ;;		On exit  : 0/0
  3549 ;;		Unchanged: 0/0
  3550 ;; Data sizes:     COMMON   BANK0   BANK1   BANK2   BANK3   BANK4   BANK5   BANK6   BANK7   BANK8   BANK9  BANK10  BANK1
      +1  BANK12  BANK13  BANK14  BANK15  BANK16  BANK17  BANK18  BANK19  BANK20  BANK21  BANK22  BANK23  BANK24  BANK25
  3551 ;;      Params:         0       1       0       0       0       0       0       0       0       0       0       0       
      +0       0       0       0       0       0       0       0       0       0       0       0       0       0       0
  3552 ;;      Locals:         0       0       7       0       0       0       0       0       0       0       0       0       
      +0       0       0       0       0       0       0       0       0       0       0       0       0       0       0
  3553 ;;      Temps:          0       2       0       0       0       0       0       0       0       0       0       0       
      +0       0       0       0       0       0       0       0       0       0       0       0       0       0       0
  3554 ;;      Totals:         0       3       7       0       0       0       0       0       0       0       0       0       
      +0       0       0       0       0       0       0       0       0       0       0       0       0       0       0
  3555 ;;Total ram usage:       10 bytes
  3556 ;; Hardware stack levels used:    1
  3557 ;; Hardware stack levels required when called:    3
  3558 ;; This function calls:
  3559 ;;		Nothing
  3560 ;; This function is called by:
  3561 ;;		_main
  3562 ;; This function uses a non-reentrant model
  3563 ;;
  3564                           
  3565                           
  3566                           ;psect for function _output_ir
  3567  016D                     _output_ir:	
  3568                           
  3569                           ;incstack = 0
  3570                           ; Regs used in _output_ir: [wreg+status,2+status,0]
  3571                           ;output_ir@pkt_type stored from wreg
  3572  016D  0021               	movlb	1	; select bank1
  3573  016E  00A6               	movwf	output_ir@pkt_type^(0+128)
  3574                           
  3575                           ;ir.c: 43: if(pkt_type == 0)
  3576  016F  0826               	movf	output_ir@pkt_type^(0+128),w
  3577  0170  1D03               	btfss	3,2
  3578  0171  29DB               	goto	l1742
  3579                           
  3580                           ;ir.c: 44: {
  3581                           ;ir.c: 45: for(int i = 0;i < amount;i++){
  3582  0172  01A0               	clrf	output_ir@i^(0+128)
  3583  0173  01A1               	clrf	(output_ir@i+1)^(0+128)
  3584  0174                     l246:	
  3585  0174  0821               	movf	(output_ir@i+1)^(0+128),w
  3586  0175  3A80               	xorlw	128
  3587  0176  0020               	movlb	0	; select bank0
  3588  0177  00C1               	movwf	??_output_ir
  3589  0178  3080               	movlw	128
  3590  0179  0241               	subwf	??_output_ir,w
  3591  017A  1D03               	skipz
  3592  017B  297F               	goto	u1565
  3593  017C  0840               	movf	output_ir@amount,w
  3594  017D  0021               	movlb	1	; select bank1
  3595  017E  0220               	subwf	output_ir@i^(0+128),w
  3596  017F                     u1565:	
  3597  017F  1803               	btfsc	3,0
  3598  0180  0008               	return
  3599                           
  3600                           ;ir.c: 47: P1MDLBIT = 1;
  3601  0181  003D               	movlb	29	; select bank29
  3602  0182  1692               	bsf	18,5	;volatile
  3603                           
  3604                           ;ir.c: 48: _delay((unsigned long)((178)*(32000000/4000000.0)));
  3605  0183  30ED               	movlw	237
  3606  0184  0020               	movlb	0	; select bank0
  3607  0185  00C1               	movwf	??_output_ir
  3608  0186                     u1617:	
  3609  0186  3200               	nop2
  3610  0187  0000               	nop
  3611  0188  0BC1               	decfsz	??_output_ir,f
  3612  0189  2986               	goto	u1617
  3613  018A  0000               	nop
  3614                           
  3615                           ;ir.c: 49: P1MDLBIT = 0;
  3616  018B  003D               	movlb	29	; select bank29
  3617  018C  1292               	bcf	18,5	;volatile
  3618                           
  3619                           ;ir.c: 50: _delay((unsigned long)((2678-178)*(32000000/4000000.0)));
  3620  018D  301A               	movlw	26
  3621  018E  0020               	movlb	0	; select bank0
  3622  018F  00C2               	movwf	??_output_ir+1
  3623  0190  30F8               	movlw	248
  3624  0191  00C1               	movwf	??_output_ir
  3625  0192                     u1627:	
  3626  0192  0BC1               	decfsz	??_output_ir,f
  3627  0193  2992               	goto	u1627
  3628  0194  0BC2               	decfsz	??_output_ir+1,f
  3629  0195  2992               	goto	u1627
  3630  0196  0000               	nop
  3631                           
  3632                           ;ir.c: 53: P1MDLBIT = 1;
  3633  0197  003D               	movlb	29	; select bank29
  3634  0198  1692               	bsf	18,5	;volatile
  3635                           
  3636                           ;ir.c: 54: _delay((unsigned long)((357)*(32000000/4000000.0)));
  3637  0199  3004               	movlw	4
  3638  019A  0020               	movlb	0	; select bank0
  3639  019B  00C2               	movwf	??_output_ir+1
  3640  019C  30B4               	movlw	180
  3641  019D  00C1               	movwf	??_output_ir
  3642  019E                     u1637:	
  3643  019E  0BC1               	decfsz	??_output_ir,f
  3644  019F  299E               	goto	u1637
  3645  01A0  0BC2               	decfsz	??_output_ir+1,f
  3646  01A1  299E               	goto	u1637
  3647  01A2  0000               	nop
  3648                           
  3649                           ;ir.c: 55: P1MDLBIT = 0;
  3650  01A3  003D               	movlb	29	; select bank29
  3651  01A4  1292               	bcf	18,5	;volatile
  3652                           
  3653                           ;ir.c: 56: _delay((unsigned long)((2678-357)*(32000000/4000000.0)));
  3654  01A5  3019               	movlw	25
  3655  01A6  0020               	movlb	0	; select bank0
  3656  01A7  00C2               	movwf	??_output_ir+1
  3657  01A8  301B               	movlw	27
  3658  01A9  00C1               	movwf	??_output_ir
  3659  01AA                     u1647:	
  3660  01AA  0BC1               	decfsz	??_output_ir,f
  3661  01AB  29AA               	goto	u1647
  3662  01AC  0BC2               	decfsz	??_output_ir+1,f
  3663  01AD  29AA               	goto	u1647
  3664  01AE  3200               	nop2
  3665                           
  3666                           ;ir.c: 57: P1MDLBIT = 1;
  3667  01AF  003D               	movlb	29	; select bank29
  3668  01B0  1692               	bsf	18,5	;volatile
  3669                           
  3670                           ;ir.c: 58: _delay((unsigned long)((357)*(32000000/4000000.0)));
  3671  01B1  3004               	movlw	4
  3672  01B2  0020               	movlb	0	; select bank0
  3673  01B3  00C2               	movwf	??_output_ir+1
  3674  01B4  30B4               	movlw	180
  3675  01B5  00C1               	movwf	??_output_ir
  3676  01B6                     u1657:	
  3677  01B6  0BC1               	decfsz	??_output_ir,f
  3678  01B7  29B6               	goto	u1657
  3679  01B8  0BC2               	decfsz	??_output_ir+1,f
  3680  01B9  29B6               	goto	u1657
  3681  01BA  0000               	nop
  3682                           
  3683                           ;ir.c: 59: P1MDLBIT = 0;
  3684  01BB  003D               	movlb	29	; select bank29
  3685  01BC  1292               	bcf	18,5	;volatile
  3686                           
  3687                           ;ir.c: 60: _delay((unsigned long)((2678-357)*(32000000/4000000.0)));
  3688  01BD  3019               	movlw	25
  3689  01BE  0020               	movlb	0	; select bank0
  3690  01BF  00C2               	movwf	??_output_ir+1
  3691  01C0  301B               	movlw	27
  3692  01C1  00C1               	movwf	??_output_ir
  3693  01C2                     u1667:	
  3694  01C2  0BC1               	decfsz	??_output_ir,f
  3695  01C3  29C2               	goto	u1667
  3696  01C4  0BC2               	decfsz	??_output_ir+1,f
  3697  01C5  29C2               	goto	u1667
  3698  01C6  3200               	nop2
  3699                           
  3700                           ;ir.c: 63: P1MDLBIT = 1;
  3701  01C7  003D               	movlb	29	; select bank29
  3702  01C8  1692               	bsf	18,5	;volatile
  3703                           
  3704                           ;ir.c: 64: _delay((unsigned long)((2678)*(32000000/4000000.0)));
  3705  01C9  301C               	movlw	28
  3706  01CA  0020               	movlb	0	; select bank0
  3707  01CB  00C2               	movwf	??_output_ir+1
  3708  01CC  30D1               	movlw	209
  3709  01CD  00C1               	movwf	??_output_ir
  3710  01CE                     u1677:	
  3711  01CE  0BC1               	decfsz	??_output_ir,f
  3712  01CF  29CE               	goto	u1677
  3713  01D0  0BC2               	decfsz	??_output_ir+1,f
  3714  01D1  29CE               	goto	u1677
  3715  01D2  3200               	nop2
  3716                           
  3717                           ;ir.c: 65: P1MDLBIT = 0;
  3718  01D3  003D               	movlb	29	; select bank29
  3719  01D4  1292               	bcf	18,5	;volatile
  3720  01D5  3001               	movlw	1
  3721  01D6  0021               	movlb	1	; select bank1
  3722  01D7  07A0               	addwf	output_ir@i^(0+128),f
  3723  01D8  3000               	movlw	0
  3724  01D9  3DA1               	addwfc	(output_ir@i+1)^(0+128),f
  3725  01DA  2974               	goto	l246
  3726  01DB                     l1742:	
  3727                           ;ir.c: 66: }
  3728                           ;ir.c: 68: }
  3729                           
  3730                           
  3731                           ;ir.c: 69: else if(pkt_type == 1)
  3732  01DB  0021               	movlb	1	; select bank1
  3733  01DC  0326               	decf	output_ir@pkt_type^(0+128),w
  3734  01DD  1D03               	btfss	3,2
  3735  01DE  2A48               	goto	l1762
  3736                           
  3737                           ;ir.c: 70: {
  3738                           ;ir.c: 71: for(int i = 0;i < amount;i++){
  3739  01DF  01A2               	clrf	output_ir@i_223^(0+128)
  3740  01E0  01A3               	clrf	(output_ir@i_223+1)^(0+128)
  3741  01E1                     l251:	
  3742  01E1  0823               	movf	(output_ir@i_223+1)^(0+128),w
  3743  01E2  3A80               	xorlw	128
  3744  01E3  0020               	movlb	0	; select bank0
  3745  01E4  00C1               	movwf	??_output_ir
  3746  01E5  3080               	movlw	128
  3747  01E6  0241               	subwf	??_output_ir,w
  3748  01E7  1D03               	skipz
  3749  01E8  29EC               	goto	u1585
  3750  01E9  0840               	movf	output_ir@amount,w
  3751  01EA  0021               	movlb	1	; select bank1
  3752  01EB  0222               	subwf	output_ir@i_223^(0+128),w
  3753  01EC                     u1585:	
  3754  01EC  1803               	btfsc	3,0
  3755  01ED  0008               	return
  3756                           
  3757                           ;ir.c: 73: P1MDLBIT = 1;
  3758  01EE  003D               	movlb	29	; select bank29
  3759  01EF  1692               	bsf	18,5	;volatile
  3760                           
  3761                           ;ir.c: 74: _delay((unsigned long)((178)*(32000000/4000000.0)));
  3762  01F0  30ED               	movlw	237
  3763  01F1  0020               	movlb	0	; select bank0
  3764  01F2  00C1               	movwf	??_output_ir
  3765  01F3                     u1687:	
  3766  01F3  3200               	nop2
  3767  01F4  0000               	nop
  3768  01F5  0BC1               	decfsz	??_output_ir,f
  3769  01F6  29F3               	goto	u1687
  3770  01F7  0000               	nop
  3771                           
  3772                           ;ir.c: 75: P1MDLBIT = 0;
  3773  01F8  003D               	movlb	29	; select bank29
  3774  01F9  1292               	bcf	18,5	;volatile
  3775                           
  3776                           ;ir.c: 76: _delay((unsigned long)((2678-178)*(32000000/4000000.0)));
  3777  01FA  301A               	movlw	26
  3778  01FB  0020               	movlb	0	; select bank0
  3779  01FC  00C2               	movwf	??_output_ir+1
  3780  01FD  30F8               	movlw	248
  3781  01FE  00C1               	movwf	??_output_ir
  3782  01FF                     u1697:	
  3783  01FF  0BC1               	decfsz	??_output_ir,f
  3784  0200  29FF               	goto	u1697
  3785  0201  0BC2               	decfsz	??_output_ir+1,f
  3786  0202  29FF               	goto	u1697
  3787  0203  0000               	nop
  3788                           
  3789                           ;ir.c: 79: P1MDLBIT = 1;
  3790  0204  003D               	movlb	29	; select bank29
  3791  0205  1692               	bsf	18,5	;volatile
  3792                           
  3793                           ;ir.c: 80: _delay((unsigned long)((535)*(32000000/4000000.0)));
  3794  0206  3006               	movlw	6
  3795  0207  0020               	movlb	0	; select bank0
  3796  0208  00C2               	movwf	??_output_ir+1
  3797  0209  308D               	movlw	141
  3798  020A  00C1               	movwf	??_output_ir
  3799  020B                     u1707:	
  3800  020B  0BC1               	decfsz	??_output_ir,f
  3801  020C  2A0B               	goto	u1707
  3802  020D  0BC2               	decfsz	??_output_ir+1,f
  3803  020E  2A0B               	goto	u1707
  3804  020F  3200               	nop2
  3805                           
  3806                           ;ir.c: 81: P1MDLBIT = 0;
  3807  0210  003D               	movlb	29	; select bank29
  3808  0211  1292               	bcf	18,5	;volatile
  3809                           
  3810                           ;ir.c: 82: _delay((unsigned long)((2678-535)*(32000000/4000000.0)));
  3811  0212  3017               	movlw	23
  3812  0213  0020               	movlb	0	; select bank0
  3813  0214  00C2               	movwf	??_output_ir+1
  3814  0215  3042               	movlw	66
  3815  0216  00C1               	movwf	??_output_ir
  3816  0217                     u1717:	
  3817  0217  0BC1               	decfsz	??_output_ir,f
  3818  0218  2A17               	goto	u1717
  3819  0219  0BC2               	decfsz	??_output_ir+1,f
  3820  021A  2A17               	goto	u1717
  3821  021B  0000               	nop
  3822                           
  3823                           ;ir.c: 83: P1MDLBIT = 1;
  3824  021C  003D               	movlb	29	; select bank29
  3825  021D  1692               	bsf	18,5	;volatile
  3826                           
  3827                           ;ir.c: 84: _delay((unsigned long)((535)*(32000000/4000000.0)));
  3828  021E  3006               	movlw	6
  3829  021F  0020               	movlb	0	; select bank0
  3830  0220  00C2               	movwf	??_output_ir+1
  3831  0221  308D               	movlw	141
  3832  0222  00C1               	movwf	??_output_ir
  3833  0223                     u1727:	
  3834  0223  0BC1               	decfsz	??_output_ir,f
  3835  0224  2A23               	goto	u1727
  3836  0225  0BC2               	decfsz	??_output_ir+1,f
  3837  0226  2A23               	goto	u1727
  3838  0227  3200               	nop2
  3839                           
  3840                           ;ir.c: 85: P1MDLBIT = 0;
  3841  0228  003D               	movlb	29	; select bank29
  3842  0229  1292               	bcf	18,5	;volatile
  3843                           
  3844                           ;ir.c: 86: _delay((unsigned long)((2678-535)*(32000000/4000000.0)));
  3845  022A  3017               	movlw	23
  3846  022B  0020               	movlb	0	; select bank0
  3847  022C  00C2               	movwf	??_output_ir+1
  3848  022D  3042               	movlw	66
  3849  022E  00C1               	movwf	??_output_ir
  3850  022F                     u1737:	
  3851  022F  0BC1               	decfsz	??_output_ir,f
  3852  0230  2A2F               	goto	u1737
  3853  0231  0BC2               	decfsz	??_output_ir+1,f
  3854  0232  2A2F               	goto	u1737
  3855  0233  0000               	nop
  3856                           
  3857                           ;ir.c: 89: P1MDLBIT = 1;
  3858  0234  003D               	movlb	29	; select bank29
  3859  0235  1692               	bsf	18,5	;volatile
  3860                           
  3861                           ;ir.c: 90: _delay((unsigned long)((2678)*(32000000/4000000.0)));
  3862  0236  301C               	movlw	28
  3863  0237  0020               	movlb	0	; select bank0
  3864  0238  00C2               	movwf	??_output_ir+1
  3865  0239  30D1               	movlw	209
  3866  023A  00C1               	movwf	??_output_ir
  3867  023B                     u1747:	
  3868  023B  0BC1               	decfsz	??_output_ir,f
  3869  023C  2A3B               	goto	u1747
  3870  023D  0BC2               	decfsz	??_output_ir+1,f
  3871  023E  2A3B               	goto	u1747
  3872  023F  3200               	nop2
  3873                           
  3874                           ;ir.c: 91: P1MDLBIT = 0;
  3875  0240  003D               	movlb	29	; select bank29
  3876  0241  1292               	bcf	18,5	;volatile
  3877  0242  3001               	movlw	1
  3878  0243  0021               	movlb	1	; select bank1
  3879  0244  07A2               	addwf	output_ir@i_223^(0+128),f
  3880  0245  3000               	movlw	0
  3881  0246  3DA3               	addwfc	(output_ir@i_223+1)^(0+128),f
  3882  0247  29E1               	goto	l251
  3883  0248                     l1762:	
  3884                           ;ir.c: 92: }
  3885                           ;ir.c: 93: }
  3886                           
  3887                           
  3888                           ;ir.c: 94: else
  3889                           ;ir.c: 95: {
  3890                           ;ir.c: 96: for(int i = 0;i < amount;i++){
  3891  0248  0021               	movlb	1	; select bank1
  3892  0249  01A4               	clrf	output_ir@i_224^(0+128)
  3893  024A  01A5               	clrf	(output_ir@i_224+1)^(0+128)
  3894  024B                     l255:	
  3895  024B  0825               	movf	(output_ir@i_224+1)^(0+128),w
  3896  024C  3A80               	xorlw	128
  3897  024D  0020               	movlb	0	; select bank0
  3898  024E  00C1               	movwf	??_output_ir
  3899  024F  3080               	movlw	128
  3900  0250  0241               	subwf	??_output_ir,w
  3901  0251  1D03               	skipz
  3902  0252  2A56               	goto	u1595
  3903  0253  0840               	movf	output_ir@amount,w
  3904  0254  0021               	movlb	1	; select bank1
  3905  0255  0224               	subwf	output_ir@i_224^(0+128),w
  3906  0256                     u1595:	
  3907  0256  1803               	btfsc	3,0
  3908  0257  0008               	return
  3909                           
  3910                           ;ir.c: 98: P1MDLBIT = 1;
  3911  0258  003D               	movlb	29	; select bank29
  3912  0259  1692               	bsf	18,5	;volatile
  3913                           
  3914                           ;ir.c: 99: _delay((unsigned long)((178)*(32000000/4000000.0)));
  3915  025A  30ED               	movlw	237
  3916  025B  0020               	movlb	0	; select bank0
  3917  025C  00C1               	movwf	??_output_ir
  3918  025D                     u1757:	
  3919  025D  3200               	nop2
  3920  025E  0000               	nop
  3921  025F  0BC1               	decfsz	??_output_ir,f
  3922  0260  2A5D               	goto	u1757
  3923  0261  0000               	nop
  3924                           
  3925                           ;ir.c: 100: P1MDLBIT = 0;
  3926  0262  003D               	movlb	29	; select bank29
  3927  0263  1292               	bcf	18,5	;volatile
  3928                           
  3929                           ;ir.c: 101: _delay((unsigned long)((2678-178)*(32000000/4000000.0)));
  3930  0264  301A               	movlw	26
  3931  0265  0020               	movlb	0	; select bank0
  3932  0266  00C2               	movwf	??_output_ir+1
  3933  0267  30F8               	movlw	248
  3934  0268  00C1               	movwf	??_output_ir
  3935  0269                     u1767:	
  3936  0269  0BC1               	decfsz	??_output_ir,f
  3937  026A  2A69               	goto	u1767
  3938  026B  0BC2               	decfsz	??_output_ir+1,f
  3939  026C  2A69               	goto	u1767
  3940  026D  0000               	nop
  3941                           
  3942                           ;ir.c: 104: P1MDLBIT = 1;
  3943  026E  003D               	movlb	29	; select bank29
  3944  026F  1692               	bsf	18,5	;volatile
  3945                           
  3946                           ;ir.c: 105: _delay((unsigned long)((714)*(32000000/4000000.0)));
  3947  0270  3008               	movlw	8
  3948  0271  0020               	movlb	0	; select bank0
  3949  0272  00C2               	movwf	??_output_ir+1
  3950  0273  3069               	movlw	105
  3951  0274  00C1               	movwf	??_output_ir
  3952  0275                     u1777:	
  3953  0275  0BC1               	decfsz	??_output_ir,f
  3954  0276  2A75               	goto	u1777
  3955  0277  0BC2               	decfsz	??_output_ir+1,f
  3956  0278  2A75               	goto	u1777
  3957  0279  3200               	nop2
  3958                           
  3959                           ;ir.c: 106: P1MDLBIT = 0;
  3960  027A  003D               	movlb	29	; select bank29
  3961  027B  1292               	bcf	18,5	;volatile
  3962                           
  3963                           ;ir.c: 107: _delay((unsigned long)((2678-714)*(32000000/4000000.0)));
  3964  027C  3015               	movlw	21
  3965  027D  0020               	movlb	0	; select bank0
  3966  027E  00C2               	movwf	??_output_ir+1
  3967  027F  3066               	movlw	102
  3968  0280  00C1               	movwf	??_output_ir
  3969  0281                     u1787:	
  3970  0281  0BC1               	decfsz	??_output_ir,f
  3971  0282  2A81               	goto	u1787
  3972  0283  0BC2               	decfsz	??_output_ir+1,f
  3973  0284  2A81               	goto	u1787
  3974  0285  0000               	nop
  3975                           
  3976                           ;ir.c: 108: P1MDLBIT = 1;
  3977  0286  003D               	movlb	29	; select bank29
  3978  0287  1692               	bsf	18,5	;volatile
  3979                           
  3980                           ;ir.c: 109: _delay((unsigned long)((714)*(32000000/4000000.0)));
  3981  0288  3008               	movlw	8
  3982  0289  0020               	movlb	0	; select bank0
  3983  028A  00C2               	movwf	??_output_ir+1
  3984  028B  3069               	movlw	105
  3985  028C  00C1               	movwf	??_output_ir
  3986  028D                     u1797:	
  3987  028D  0BC1               	decfsz	??_output_ir,f
  3988  028E  2A8D               	goto	u1797
  3989  028F  0BC2               	decfsz	??_output_ir+1,f
  3990  0290  2A8D               	goto	u1797
  3991  0291  3200               	nop2
  3992                           
  3993                           ;ir.c: 110: P1MDLBIT = 0;
  3994  0292  003D               	movlb	29	; select bank29
  3995  0293  1292               	bcf	18,5	;volatile
  3996                           
  3997                           ;ir.c: 111: _delay((unsigned long)((2678-714)*(32000000/4000000.0)));
  3998  0294  3015               	movlw	21
  3999  0295  0020               	movlb	0	; select bank0
  4000  0296  00C2               	movwf	??_output_ir+1
  4001  0297  3066               	movlw	102
  4002  0298  00C1               	movwf	??_output_ir
  4003  0299                     u1807:	
  4004  0299  0BC1               	decfsz	??_output_ir,f
  4005  029A  2A99               	goto	u1807
  4006  029B  0BC2               	decfsz	??_output_ir+1,f
  4007  029C  2A99               	goto	u1807
  4008  029D  0000               	nop
  4009                           
  4010                           ;ir.c: 114: P1MDLBIT = 1;
  4011  029E  003D               	movlb	29	; select bank29
  4012  029F  1692               	bsf	18,5	;volatile
  4013                           
  4014                           ;ir.c: 115: _delay((unsigned long)((2678)*(32000000/4000000.0)));
  4015  02A0  301C               	movlw	28
  4016  02A1  0020               	movlb	0	; select bank0
  4017  02A2  00C2               	movwf	??_output_ir+1
  4018  02A3  30D1               	movlw	209
  4019  02A4  00C1               	movwf	??_output_ir
  4020  02A5                     u1817:	
  4021  02A5  0BC1               	decfsz	??_output_ir,f
  4022  02A6  2AA5               	goto	u1817
  4023  02A7  0BC2               	decfsz	??_output_ir+1,f
  4024  02A8  2AA5               	goto	u1817
  4025  02A9  3200               	nop2
  4026                           
  4027                           ;ir.c: 116: P1MDLBIT = 0;
  4028  02AA  003D               	movlb	29	; select bank29
  4029  02AB  1292               	bcf	18,5	;volatile
  4030  02AC  3001               	movlw	1
  4031  02AD  0021               	movlb	1	; select bank1
  4032  02AE  07A4               	addwf	output_ir@i_224^(0+128),f
  4033  02AF  3000               	movlw	0
  4034  02B0  3DA5               	addwfc	(output_ir@i_224+1)^(0+128),f
  4035  02B1  2A4B               	goto	l255
  4036  02B2                     __end_of_output_ir:	
  4037                           
  4038                           	psect	text2
  4039  05F7                     __ptext2:	
  4040 ;; *************** function _init_pic *****************
  4041 ;; Defined at:
  4042 ;;		line 206 in file "../../source/main.c"
  4043 ;; Parameters:    Size  Location     Type
  4044 ;;		None
  4045 ;; Auto vars:     Size  Location     Type
  4046 ;;		None
  4047 ;; Return value:  Size  Location     Type
  4048 ;;		None               void
  4049 ;; Registers used:
  4050 ;;		wreg, status,2, status,0
  4051 ;; Tracked objects:
  4052 ;;		On entry : 0/0
  4053 ;;		On exit  : 0/0
  4054 ;;		Unchanged: 0/0
  4055 ;; Data sizes:     COMMON   BANK0   BANK1   BANK2   BANK3   BANK4   BANK5   BANK6   BANK7   BANK8   BANK9  BANK10  BANK1
      +1  BANK12  BANK13  BANK14  BANK15  BANK16  BANK17  BANK18  BANK19  BANK20  BANK21  BANK22  BANK23  BANK24  BANK25
  4056 ;;      Params:         0       0       0       0       0       0       0       0       0       0       0       0       
      +0       0       0       0       0       0       0       0       0       0       0       0       0       0       0
  4057 ;;      Locals:         0       0       0       0       0       0       0       0       0       0       0       0       
      +0       0       0       0       0       0       0       0       0       0       0       0       0       0       0
  4058 ;;      Temps:          0       1       0       0       0       0       0       0       0       0       0       0       
      +0       0       0       0       0       0       0       0       0       0       0       0       0       0       0
  4059 ;;      Totals:         0       1       0       0       0       0       0       0       0       0       0       0       
      +0       0       0       0       0       0       0       0       0       0       0       0       0       0       0
  4060 ;;Total ram usage:        1 bytes
  4061 ;; Hardware stack levels used:    1
  4062 ;; Hardware stack levels required when called:    3
  4063 ;; This function calls:
  4064 ;;		Nothing
  4065 ;; This function is called by:
  4066 ;;		_main
  4067 ;; This function uses a non-reentrant model
  4068 ;;
  4069                           
  4070                           
  4071                           ;psect for function _init_pic
  4072  05F7                     _init_pic:	
  4073                           
  4074                           ;main.c: 208: ANSELA = 0;
  4075                           
  4076                           ;incstack = 0
  4077                           ; Regs used in _init_pic: [wreg+status,2+status,0]
  4078  05F7  0023               	movlb	3	; select bank3
  4079  05F8  018C               	clrf	12	;volatile
  4080                           
  4081                           ;main.c: 209: ANSELB = 0;
  4082  05F9  018D               	clrf	13	;volatile
  4083                           
  4084                           ;main.c: 212: TRISB = 0b11110011;
  4085  05FA  30F3               	movlw	243
  4086  05FB  0021               	movlb	1	; select bank1
  4087  05FC  008D               	movwf	13	;volatile
  4088                           
  4089                           ;main.c: 215: OSCCON |= 0b11111000;
  4090  05FD  30F8               	movlw	248
  4091  05FE  0020               	movlb	0	; select bank0
  4092  05FF  00C0               	movwf	??_init_pic
  4093  0600  0840               	movf	??_init_pic,w
  4094  0601  0021               	movlb	1	; select bank1
  4095  0602  0499               	iorwf	25,f	;volatile
  4096                           
  4097                           ;main.c: 218: GIE = 1;
  4098  0603  178B               	bsf	11,7	;volatile
  4099  0604  0008               	return
  4100  0605                     __end_of_init_pic:	
  4101                           
  4102                           	psect	text3
  4103  060D                     __ptext3:	
  4104 ;; *************** function _init_leds *****************
  4105 ;; Defined at:
  4106 ;;		line 3 in file "../../source/lighting.c"
  4107 ;; Parameters:    Size  Location     Type
  4108 ;;		None
  4109 ;; Auto vars:     Size  Location     Type
  4110 ;;		None
  4111 ;; Return value:  Size  Location     Type
  4112 ;;		None               void
  4113 ;; Registers used:
  4114 ;;		wreg, status,2, status,0
  4115 ;; Tracked objects:
  4116 ;;		On entry : 0/0
  4117 ;;		On exit  : 0/0
  4118 ;;		Unchanged: 0/0
  4119 ;; Data sizes:     COMMON   BANK0   BANK1   BANK2   BANK3   BANK4   BANK5   BANK6   BANK7   BANK8   BANK9  BANK10  BANK1
      +1  BANK12  BANK13  BANK14  BANK15  BANK16  BANK17  BANK18  BANK19  BANK20  BANK21  BANK22  BANK23  BANK24  BANK25
  4120 ;;      Params:         0       0       0       0       0       0       0       0       0       0       0       0       
      +0       0       0       0       0       0       0       0       0       0       0       0       0       0       0
  4121 ;;      Locals:         0       0       0       0       0       0       0       0       0       0       0       0       
      +0       0       0       0       0       0       0       0       0       0       0       0       0       0       0
  4122 ;;      Temps:          0       1       0       0       0       0       0       0       0       0       0       0       
      +0       0       0       0       0       0       0       0       0       0       0       0       0       0       0
  4123 ;;      Totals:         0       1       0       0       0       0       0       0       0       0       0       0       
      +0       0       0       0       0       0       0       0       0       0       0       0       0       0       0
  4124 ;;Total ram usage:        1 bytes
  4125 ;; Hardware stack levels used:    1
  4126 ;; Hardware stack levels required when called:    3
  4127 ;; This function calls:
  4128 ;;		Nothing
  4129 ;; This function is called by:
  4130 ;;		_main
  4131 ;; This function uses a non-reentrant model
  4132 ;;
  4133                           
  4134                           
  4135                           ;psect for function _init_leds
  4136  060D                     _init_leds:	
  4137                           
  4138                           ;lighting.c: 5: TRISC &= 0b10001111;
  4139                           
  4140                           ;incstack = 0
  4141                           ; Regs used in _init_leds: [wreg+status,2+status,0]
  4142  060D  308F               	movlw	143
  4143  060E  0020               	movlb	0	; select bank0
  4144  060F  00C0               	movwf	??_init_leds
  4145  0610  0840               	movf	??_init_leds,w
  4146  0611  0021               	movlb	1	; select bank1
  4147  0612  058E               	andwf	14,f	;volatile
  4148  0613  0008               	return
  4149  0614                     __end_of_init_leds:	
  4150                           
  4151                           	psect	text4
  4152  05E8                     __ptext4:	
  4153 ;; *************** function _init_isr *****************
  4154 ;; Defined at:
  4155 ;;		line 19 in file "../../source/interrupt.c"
  4156 ;; Parameters:    Size  Location     Type
  4157 ;;		None
  4158 ;; Auto vars:     Size  Location     Type
  4159 ;;		None
  4160 ;; Return value:  Size  Location     Type
  4161 ;;		None               void
  4162 ;; Registers used:
  4163 ;;		wreg, status,2
  4164 ;; Tracked objects:
  4165 ;;		On entry : 0/0
  4166 ;;		On exit  : 0/0
  4167 ;;		Unchanged: 0/0
  4168 ;; Data sizes:     COMMON   BANK0   BANK1   BANK2   BANK3   BANK4   BANK5   BANK6   BANK7   BANK8   BANK9  BANK10  BANK1
      +1  BANK12  BANK13  BANK14  BANK15  BANK16  BANK17  BANK18  BANK19  BANK20  BANK21  BANK22  BANK23  BANK24  BANK25
  4169 ;;      Params:         0       0       0       0       0       0       0       0       0       0       0       0       
      +0       0       0       0       0       0       0       0       0       0       0       0       0       0       0
  4170 ;;      Locals:         0       0       0       0       0       0       0       0       0       0       0       0       
      +0       0       0       0       0       0       0       0       0       0       0       0       0       0       0
  4171 ;;      Temps:          0       0       0       0       0       0       0       0       0       0       0       0       
      +0       0       0       0       0       0       0       0       0       0       0       0       0       0       0
  4172 ;;      Totals:         0       0       0       0       0       0       0       0       0       0       0       0       
      +0       0       0       0       0       0       0       0       0       0       0       0       0       0       0
  4173 ;;Total ram usage:        0 bytes
  4174 ;; Hardware stack levels used:    1
  4175 ;; Hardware stack levels required when called:    3
  4176 ;; This function calls:
  4177 ;;		Nothing
  4178 ;; This function is called by:
  4179 ;;		_main
  4180 ;; This function uses a non-reentrant model
  4181 ;;
  4182                           
  4183                           
  4184                           ;psect for function _init_isr
  4185  05E8                     _init_isr:	
  4186                           
  4187                           ;interrupt.c: 21: INTCON = 0b11011000;
  4188                           
  4189                           ;incstack = 0
  4190                           ; Regs used in _init_isr: [wreg+status,2]
  4191  05E8  30D8               	movlw	216
  4192  05E9  008B               	movwf	11	;volatile
  4193                           
  4194                           ;interrupt.c: 24: IOCAP = IOCAP | 0b00010000;
  4195  05EA  0027               	movlb	7	; select bank7
  4196  05EB  0811               	movf	17,w	;volatile
  4197  05EC  3810               	iorlw	16
  4198  05ED  0091               	movwf	17	;volatile
  4199                           
  4200                           ;interrupt.c: 27: IOCAN = IOCAN | 0b00010000;
  4201  05EE  0812               	movf	18,w	;volatile
  4202  05EF  3810               	iorlw	16
  4203  05F0  0092               	movwf	18	;volatile
  4204                           
  4205                           ;interrupt.c: 31: T1CON = 0b00110001;
  4206  05F1  3031               	movlw	49
  4207  05F2  0020               	movlb	0	; select bank0
  4208  05F3  0098               	movwf	24	;volatile
  4209                           
  4210                           ;interrupt.c: 34: TRISA |= 0b00010000;
  4211  05F4  0021               	movlb	1	; select bank1
  4212  05F5  160C               	bsf	12,4	;volatile
  4213  05F6  0008               	return
  4214  05F7                     __end_of_init_isr:	
  4215                           
  4216                           	psect	text5
  4217  0561                     __ptext5:	
  4218 ;; *************** function _init_ir *****************
  4219 ;; Defined at:
  4220 ;;		line 3 in file "../../source/ir.c"
  4221 ;; Parameters:    Size  Location     Type
  4222 ;;		None
  4223 ;; Auto vars:     Size  Location     Type
  4224 ;;		None
  4225 ;; Return value:  Size  Location     Type
  4226 ;;		None               void
  4227 ;; Registers used:
  4228 ;;		wreg, status,2, status,0
  4229 ;; Tracked objects:
  4230 ;;		On entry : 0/0
  4231 ;;		On exit  : 0/0
  4232 ;;		Unchanged: 0/0
  4233 ;; Data sizes:     COMMON   BANK0   BANK1   BANK2   BANK3   BANK4   BANK5   BANK6   BANK7   BANK8   BANK9  BANK10  BANK1
      +1  BANK12  BANK13  BANK14  BANK15  BANK16  BANK17  BANK18  BANK19  BANK20  BANK21  BANK22  BANK23  BANK24  BANK25
  4234 ;;      Params:         0       0       0       0       0       0       0       0       0       0       0       0       
      +0       0       0       0       0       0       0       0       0       0       0       0       0       0       0
  4235 ;;      Locals:         0       0       0       0       0       0       0       0       0       0       0       0       
      +0       0       0       0       0       0       0       0       0       0       0       0       0       0       0
  4236 ;;      Temps:          0       1       0       0       0       0       0       0       0       0       0       0       
      +0       0       0       0       0       0       0       0       0       0       0       0       0       0       0
  4237 ;;      Totals:         0       1       0       0       0       0       0       0       0       0       0       0       
      +0       0       0       0       0       0       0       0       0       0       0       0       0       0       0
  4238 ;;Total ram usage:        1 bytes
  4239 ;; Hardware stack levels used:    1
  4240 ;; Hardware stack levels required when called:    3
  4241 ;; This function calls:
  4242 ;;		Nothing
  4243 ;; This function is called by:
  4244 ;;		_main
  4245 ;; This function uses a non-reentrant model
  4246 ;;
  4247                           
  4248                           
  4249                           ;psect for function _init_ir
  4250  0561                     _init_ir:	
  4251                           
  4252                           ;ir.c: 5: TRISC &= 0b11110111;
  4253                           
  4254                           ;incstack = 0
  4255                           ; Regs used in _init_ir: [wreg+status,2+status,0]
  4256  0561  30F7               	movlw	247
  4257  0562  0020               	movlb	0	; select bank0
  4258  0563  00C0               	movwf	??_init_ir
  4259  0564  0840               	movf	??_init_ir,w
  4260  0565  0021               	movlb	1	; select bank1
  4261  0566  058E               	andwf	14,f	;volatile
  4262                           
  4263                           ;ir.c: 7: PSMC1CON = 0x00;
  4264  0567  003D               	movlb	29	; select bank29
  4265  0568  0191               	clrf	17	;volatile
  4266                           
  4267                           ;ir.c: 8: PSMC1MDL = 0x80;
  4268  0569  3080               	movlw	128
  4269  056A  0092               	movwf	18	;volatile
  4270                           
  4271                           ;ir.c: 9: PSMC1SYNC = 0x00;
  4272  056B  0193               	clrf	19	;volatile
  4273                           
  4274                           ;ir.c: 10: PSMC1CLK = 0x00;
  4275  056C  0194               	clrf	20	;volatile
  4276                           
  4277                           ;ir.c: 11: PSMC1POL = 0x00;
  4278  056D  0196               	clrf	22	;volatile
  4279                           
  4280                           ;ir.c: 12: PSMC1BLNK = 0x00;
  4281  056E  0197               	clrf	23	;volatile
  4282                           
  4283                           ;ir.c: 13: PSMC1REBS = 0x00;
  4284  056F  0198               	clrf	24	;volatile
  4285                           
  4286                           ;ir.c: 14: PSMC1FEBS = 0x00;
  4287  0570  0199               	clrf	25	;volatile
  4288                           
  4289                           ;ir.c: 15: PSMC1PHS = 0x01;
  4290  0571  3001               	movlw	1
  4291  0572  009A               	movwf	26	;volatile
  4292                           
  4293                           ;ir.c: 16: PSMC1DCS = 0x01;
  4294  0573  3001               	movlw	1
  4295  0574  009B               	movwf	27	;volatile
  4296                           
  4297                           ;ir.c: 17: PSMC1PRS = 0x01;
  4298  0575  3001               	movlw	1
  4299  0576  009C               	movwf	28	;volatile
  4300                           
  4301                           ;ir.c: 18: PSMC1ASDC = 0x00;
  4302  0577  019D               	clrf	29	;volatile
  4303                           
  4304                           ;ir.c: 19: PSMC1ASDL = 0x08;
  4305  0578  3008               	movlw	8
  4306  0579  009E               	movwf	30	;volatile
  4307                           
  4308                           ;ir.c: 20: PSMC1ASDS = 0x00;
  4309  057A  019F               	clrf	31	;volatile
  4310                           
  4311                           ;ir.c: 21: PSMC1PHH = 0x00;
  4312  057B  01A2               	clrf	34	;volatile
  4313                           
  4314                           ;ir.c: 22: PSMC1PHL = 0x00;
  4315  057C  01A1               	clrf	33	;volatile
  4316                           
  4317                           ;ir.c: 23: PSMC1DCH = 0x01;
  4318  057D  3001               	movlw	1
  4319  057E  00A4               	movwf	36	;volatile
  4320                           
  4321                           ;ir.c: 24: PSMC1DCL = 0x6A;
  4322  057F  306A               	movlw	106
  4323  0580  00A3               	movwf	35	;volatile
  4324                           
  4325                           ;ir.c: 25: PSMC1PRH = 0x02;
  4326  0581  3002               	movlw	2
  4327  0582  00A6               	movwf	38	;volatile
  4328                           
  4329                           ;ir.c: 26: PSMC1PRL = 0x3A;
  4330  0583  303A               	movlw	58
  4331  0584  00A5               	movwf	37	;volatile
  4332                           
  4333                           ;ir.c: 27: PSMC1DBR = 0x00;
  4334  0585  01A9               	clrf	41	;volatile
  4335                           
  4336                           ;ir.c: 28: PSMC1DBF = 0x00;
  4337  0586  01AA               	clrf	42	;volatile
  4338                           
  4339                           ;ir.c: 29: PSMC1FFA = 0x00;
  4340  0587  01AD               	clrf	45	;volatile
  4341                           
  4342                           ;ir.c: 30: PSMC1BLKR = 0x00;
  4343  0588  01AB               	clrf	43	;volatile
  4344                           
  4345                           ;ir.c: 31: PSMC1BLKF = 0x00;
  4346  0589  01AC               	clrf	44	;volatile
  4347                           
  4348                           ;ir.c: 32: PSMC1STR0 = 0x08;
  4349  058A  3008               	movlw	8
  4350  058B  00AE               	movwf	46	;volatile
  4351                           
  4352                           ;ir.c: 33: PSMC1STR1 = 0x00;
  4353  058C  01AF               	clrf	47	;volatile
  4354                           
  4355                           ;ir.c: 34: PSMC1INT = 0x00;
  4356  058D  01A0               	clrf	32	;volatile
  4357                           
  4358                           ;ir.c: 35: PSMC1OEN = 0x08;
  4359  058E  3008               	movlw	8
  4360  058F  0095               	movwf	21	;volatile
  4361                           
  4362                           ;ir.c: 36: PSMC1CON = 0x80;
  4363  0590  3080               	movlw	128
  4364  0591  0091               	movwf	17	;volatile
  4365                           
  4366                           ;ir.c: 37: PIE4 &= 0xEE;
  4367  0592  30EE               	movlw	238
  4368  0593  0020               	movlb	0	; select bank0
  4369  0594  00C0               	movwf	??_init_ir
  4370  0595  0840               	movf	??_init_ir,w
  4371  0596  0021               	movlb	1	; select bank1
  4372  0597  0594               	andwf	20,f	;volatile
  4373                           
  4374                           ;ir.c: 38: PIE4 |= 0x00;
  4375  0598  0814               	movf	20,w	;volatile
  4376  0599  0008               	return
  4377  059A                     __end_of_init_ir:	
  4378                           
  4379                           	psect	text6
  4380  0605                     __ptext6:	
  4381 ;; *************** function _display_health *****************
  4382 ;; Defined at:
  4383 ;;		line 8 in file "../../source/lighting.c"
  4384 ;; Parameters:    Size  Location     Type
  4385 ;;		None
  4386 ;; Auto vars:     Size  Location     Type
  4387 ;;		None
  4388 ;; Return value:  Size  Location     Type
  4389 ;;		None               void
  4390 ;; Registers used:
  4391 ;;		wreg, status,2, status,0
  4392 ;; Tracked objects:
  4393 ;;		On entry : 0/0
  4394 ;;		On exit  : 0/0
  4395 ;;		Unchanged: 0/0
  4396 ;; Data sizes:     COMMON   BANK0   BANK1   BANK2   BANK3   BANK4   BANK5   BANK6   BANK7   BANK8   BANK9  BANK10  BANK1
      +1  BANK12  BANK13  BANK14  BANK15  BANK16  BANK17  BANK18  BANK19  BANK20  BANK21  BANK22  BANK23  BANK24  BANK25
  4397 ;;      Params:         0       0       0       0       0       0       0       0       0       0       0       0       
      +0       0       0       0       0       0       0       0       0       0       0       0       0       0       0
  4398 ;;      Locals:         0       0       0       0       0       0       0       0       0       0       0       0       
      +0       0       0       0       0       0       0       0       0       0       0       0       0       0       0
  4399 ;;      Temps:          0       0       0       0       0       0       0       0       0       0       0       0       
      +0       0       0       0       0       0       0       0       0       0       0       0       0       0       0
  4400 ;;      Totals:         0       0       0       0       0       0       0       0       0       0       0       0       
      +0       0       0       0       0       0       0       0       0       0       0       0       0       0       0
  4401 ;;Total ram usage:        0 bytes
  4402 ;; Hardware stack levels used:    1
  4403 ;; Hardware stack levels required when called:    3
  4404 ;; This function calls:
  4405 ;;		Nothing
  4406 ;; This function is called by:
  4407 ;;		_main
  4408 ;; This function uses a non-reentrant model
  4409 ;;
  4410                           
  4411                           
  4412                           ;psect for function _display_health
  4413  0605                     _display_health:	
  4414                           
  4415                           ;lighting.c: 10: if(health <= 0)
  4416                           
  4417                           ;incstack = 0
  4418                           ; Regs used in _display_health: [wreg+status,2+status,0]
  4419  0605  0020               	movlb	0	; select bank0
  4420  0606  084F               	movf	_health,w
  4421  0607  1D03               	btfss	3,2
  4422  0608  2E0B               	goto	l287
  4423                           
  4424                           ;lighting.c: 11: {
  4425                           ;lighting.c: 12: RC4 = 1;
  4426  0609  160E               	bsf	14,4	;volatile
  4427                           
  4428                           ;lighting.c: 13: }
  4429  060A  0008               	return
  4430  060B                     l287:	
  4431                           
  4432                           ;lighting.c: 14: else
  4433                           ;lighting.c: 15: {
  4434                           ;lighting.c: 16: RC4 = 0;
  4435  060B  120E               	bcf	14,4	;volatile
  4436  060C  0008               	return
  4437  060D                     __end_of_display_health:	
  4438                           
  4439                           	psect	intentry
  4440  0004                     __pintentry:	
  4441 ;; *************** function _isr *****************
  4442 ;; Defined at:
  4443 ;;		line 37 in file "../../source/interrupt.c"
  4444 ;; Parameters:    Size  Location     Type
  4445 ;;		None
  4446 ;; Auto vars:     Size  Location     Type
  4447 ;;		None
  4448 ;; Return value:  Size  Location     Type
  4449 ;;		None               void
  4450 ;; Registers used:
  4451 ;;		wreg, status,2, status,0, pclath, cstack
  4452 ;; Tracked objects:
  4453 ;;		On entry : 0/0
  4454 ;;		On exit  : 0/0
  4455 ;;		Unchanged: 0/0
  4456 ;; Data sizes:     COMMON   BANK0   BANK1   BANK2   BANK3   BANK4   BANK5   BANK6   BANK7   BANK8   BANK9  BANK10  BANK1
      +1  BANK12  BANK13  BANK14  BANK15  BANK16  BANK17  BANK18  BANK19  BANK20  BANK21  BANK22  BANK23  BANK24  BANK25
  4457 ;;      Params:         0       0       0       0       0       0       0       0       0       0       0       0       
      +0       0       0       0       0       0       0       0       0       0       0       0       0       0       0
  4458 ;;      Locals:         0       0       0       0       0       0       0       0       0       0       0       0       
      +0       0       0       0       0       0       0       0       0       0       0       0       0       0       0
  4459 ;;      Temps:          0       2       0       0       0       0       0       0       0       0       0       0       
      +0       0       0       0       0       0       0       0       0       0       0       0       0       0       0
  4460 ;;      Totals:         0       2       0       0       0       0       0       0       0       0       0       0       
      +0       0       0       0       0       0       0       0       0       0       0       0       0       0       0
  4461 ;;Total ram usage:        2 bytes
  4462 ;; Hardware stack levels used:    1
  4463 ;; Hardware stack levels required when called:    2
  4464 ;; This function calls:
  4465 ;;		___awdiv
  4466 ;;		___awtoft
  4467 ;;		___ftge
  4468 ;;		___ftmul
  4469 ;;		___fttol
  4470 ;; This function is called by:
  4471 ;;		Interrupt level 1
  4472 ;; This function uses a non-reentrant model
  4473 ;;
  4474                           
  4475  0004                     _isr:	
  4476                           
  4477                           ;incstack = 0
  4478                           ; Regs used in _isr: [wreg+status,2+status,0+pclath+cstack]
  4479  0004  147E               	bsf	126,0	;set compiler interrupt flag (level 1)
  4480  0005  3180               	pagesel	$
  4481  0006  0020               	movlb	0	; select bank0
  4482  0007  087F               	movf	127,w
  4483  0008  00BF               	movwf	??_isr+1
  4484                           
  4485                           ;interrupt.c: 39: TMR1 = 0;
  4486  0009  0196               	clrf	22	;volatile
  4487  000A  0197               	clrf	23	;volatile
  4488                           
  4489                           ;interrupt.c: 40: if (IOCAFbits.IOCAF4)
  4490  000B  0027               	movlb	7	; select bank7
  4491  000C  1E13               	btfss	19,4	;volatile
  4492  000D  2951               	goto	i1l146
  4493                           
  4494                           ;interrupt.c: 41: {
  4495                           ;interrupt.c: 42: IOCAF &= 0b11101111;
  4496  000E  30EF               	movlw	239
  4497  000F  0020               	movlb	0	; select bank0
  4498  0010  00BE               	movwf	??_isr
  4499  0011  083E               	movf	??_isr,w
  4500  0012  0027               	movlb	7	; select bank7
  4501  0013  0593               	andwf	19,f	;volatile
  4502  0014                     i1l143:	
  4503                           ;interrupt.c: 43: while(PORTAbits.RA4)
  4504                           
  4505  0014  0020               	movlb	0	; select bank0
  4506  0015  1E0C               	btfss	12,4	;volatile
  4507  0016  2820               	goto	i1l1656
  4508                           
  4509                           ;interrupt.c: 44: {
  4510                           ;interrupt.c: 45: if(TMR1 >= 2678)
  4511  0017  300A               	movlw	10
  4512  0018  0020               	movlb	0	; select bank0
  4513  0019  0217               	subwf	23,w	;volatile
  4514  001A  3076               	movlw	118
  4515  001B  1903               	skipnz
  4516  001C  0216               	subwf	22,w	;volatile
  4517  001D  1803               	btfsc	3,0
  4518  001E  2951               	goto	i1l146
  4519  001F  2814               	goto	i1l143
  4520  0020                     i1l1656:	
  4521                           ;interrupt.c: 46: {
  4522                           ;interrupt.c: 47: return;
  4523                           
  4524                           
  4525                           ;interrupt.c: 48: }
  4526                           ;interrupt.c: 49: }
  4527                           ;interrupt.c: 50: TMR1 = 0;
  4528  0020  0196               	clrf	22	;volatile
  4529  0021  0197               	clrf	23	;volatile
  4530  0022                     i1l148:	
  4531                           ;interrupt.c: 51: while(!PORTAbits.RA4)
  4532                           
  4533  0022  1A0C               	btfsc	12,4	;volatile
  4534  0023  282C               	goto	i1l1662
  4535                           
  4536                           ;interrupt.c: 52: {
  4537                           ;interrupt.c: 53: if(TMR1 >= 2678)
  4538  0024  300A               	movlw	10
  4539  0025  0217               	subwf	23,w	;volatile
  4540  0026  3076               	movlw	118
  4541  0027  1903               	skipnz
  4542  0028  0216               	subwf	22,w	;volatile
  4543  0029  1803               	btfsc	3,0
  4544  002A  2951               	goto	i1l146
  4545  002B  2822               	goto	i1l148
  4546  002C                     i1l1662:	
  4547                           ;interrupt.c: 54: {
  4548                           ;interrupt.c: 55: return;
  4549                           
  4550                           
  4551                           ;interrupt.c: 56: }
  4552                           ;interrupt.c: 57: }
  4553                           ;interrupt.c: 58: TMR1 = 0;
  4554  002C  0196               	clrf	22	;volatile
  4555  002D  0197               	clrf	23	;volatile
  4556  002E                     i1l152:	
  4557                           ;interrupt.c: 59: while(PORTAbits.RA4)
  4558                           
  4559  002E  1E0C               	btfss	12,4	;volatile
  4560  002F  2838               	goto	i1l1668
  4561                           
  4562                           ;interrupt.c: 60: {
  4563                           ;interrupt.c: 61: if(TMR1 >= 2678)
  4564  0030  300A               	movlw	10
  4565  0031  0217               	subwf	23,w	;volatile
  4566  0032  3076               	movlw	118
  4567  0033  1903               	skipnz
  4568  0034  0216               	subwf	22,w	;volatile
  4569  0035  1803               	btfsc	3,0
  4570  0036  2951               	goto	i1l146
  4571  0037  282E               	goto	i1l152
  4572  0038                     i1l1668:	
  4573                           ;interrupt.c: 62: {
  4574                           ;interrupt.c: 63: return;
  4575                           
  4576                           
  4577                           ;interrupt.c: 64: }
  4578                           ;interrupt.c: 65: }
  4579                           ;interrupt.c: 66: D1cycles = TMR1;
  4580  0038  0817               	movf	23,w	;volatile
  4581  0039  00C7               	movwf	_D1cycles+1	;volatile
  4582  003A  0816               	movf	22,w	;volatile
  4583  003B  00C6               	movwf	_D1cycles	;volatile
  4584                           
  4585                           ;interrupt.c: 67: TMR1 = 0;
  4586  003C  0196               	clrf	22	;volatile
  4587  003D  0197               	clrf	23	;volatile
  4588  003E                     i1l156:	
  4589                           ;interrupt.c: 68: while(!PORTAbits.RA4)
  4590                           
  4591  003E  1A0C               	btfsc	12,4	;volatile
  4592  003F  2848               	goto	i1l1676
  4593                           
  4594                           ;interrupt.c: 69: {
  4595                           ;interrupt.c: 70: if(TMR1 >= 2678)
  4596  0040  300A               	movlw	10
  4597  0041  0217               	subwf	23,w	;volatile
  4598  0042  3076               	movlw	118
  4599  0043  1903               	skipnz
  4600  0044  0216               	subwf	22,w	;volatile
  4601  0045  1803               	btfsc	3,0
  4602  0046  2951               	goto	i1l146
  4603  0047  283E               	goto	i1l156
  4604  0048                     i1l1676:	
  4605                           ;interrupt.c: 71: {
  4606                           ;interrupt.c: 72: return;
  4607                           
  4608                           
  4609                           ;interrupt.c: 73: }
  4610                           ;interrupt.c: 74: }
  4611                           ;interrupt.c: 75: TMR1 = 0;
  4612  0048  0196               	clrf	22	;volatile
  4613  0049  0197               	clrf	23	;volatile
  4614  004A                     i1l160:	
  4615                           ;interrupt.c: 76: while(PORTAbits.RA4)
  4616                           
  4617  004A  1E0C               	btfss	12,4	;volatile
  4618  004B  2854               	goto	i1l1682
  4619                           
  4620                           ;interrupt.c: 77: {
  4621                           ;interrupt.c: 78: if(TMR1 >= 2678)
  4622  004C  300A               	movlw	10
  4623  004D  0217               	subwf	23,w	;volatile
  4624  004E  3076               	movlw	118
  4625  004F  1903               	skipnz
  4626  0050  0216               	subwf	22,w	;volatile
  4627  0051  1803               	btfsc	3,0
  4628  0052  2951               	goto	i1l146
  4629  0053  284A               	goto	i1l160
  4630  0054                     i1l1682:	
  4631                           ;interrupt.c: 79: {
  4632                           ;interrupt.c: 80: return;
  4633                           
  4634                           
  4635                           ;interrupt.c: 81: }
  4636                           ;interrupt.c: 82: }
  4637                           ;interrupt.c: 84: D2cycles = TMR1;
  4638  0054  0817               	movf	23,w	;volatile
  4639  0055  00C9               	movwf	_D2cycles+1	;volatile
  4640  0056  0816               	movf	22,w	;volatile
  4641  0057  00C8               	movwf	_D2cycles	;volatile
  4642                           
  4643                           ;interrupt.c: 88: if((D1cycles > (D2cycles * 1.1)) || (D2cycles > (D1cycles * 1.1)))
  4644  0058  30CD               	movlw	205
  4645  0059  00A0               	movwf	___ftmul@f1
  4646  005A  308C               	movlw	140
  4647  005B  00A1               	movwf	___ftmul@f1+1
  4648  005C  303F               	movlw	63
  4649  005D  00A2               	movwf	___ftmul@f1+2
  4650  005E  0849               	movf	_D2cycles+1,w	;volatile
  4651  005F  00F9               	movwf	___awtoft@c+1
  4652  0060  0848               	movf	_D2cycles,w	;volatile
  4653  0061  00F8               	movwf	___awtoft@c
  4654  0062  3185  25C8  3180   	fcall	___awtoft
  4655  0065  0878               	movf	?___awtoft,w
  4656  0066  0020               	movlb	0	; select bank0
  4657  0067  00A3               	movwf	___ftmul@f2
  4658  0068  0879               	movf	?___awtoft+1,w
  4659  0069  00A4               	movwf	___ftmul@f2+1
  4660  006A  087A               	movf	?___awtoft+2,w
  4661  006B  00A5               	movwf	___ftmul@f2+2
  4662  006C  3182  22B2  3180   	fcall	___ftmul
  4663  006F  0020               	movlb	0	; select bank0
  4664  0070  0820               	movf	?___ftmul,w
  4665  0071  00B0               	movwf	___ftge@ff1
  4666  0072  0821               	movf	?___ftmul+1,w
  4667  0073  00B1               	movwf	___ftge@ff1+1
  4668  0074  0822               	movf	?___ftmul+2,w
  4669  0075  00B2               	movwf	___ftge@ff1+2
  4670  0076  0847               	movf	_D1cycles+1,w	;volatile
  4671  0077  00F9               	movwf	___awtoft@c+1
  4672  0078  0846               	movf	_D1cycles,w	;volatile
  4673  0079  00F8               	movwf	___awtoft@c
  4674  007A  3185  25C8  3180   	fcall	___awtoft
  4675  007D  0878               	movf	?___awtoft,w
  4676  007E  0020               	movlb	0	; select bank0
  4677  007F  00B3               	movwf	___ftge@ff2
  4678  0080  0879               	movf	?___awtoft+1,w
  4679  0081  00B4               	movwf	___ftge@ff2+1
  4680  0082  087A               	movf	?___awtoft+2,w
  4681  0083  00B5               	movwf	___ftge@ff2+2
  4682  0084  3185  2525  3180   	fcall	___ftge
  4683  0087  1C03               	btfss	3,0
  4684  0088  2951               	goto	i1l146
  4685  0089  30CD               	movlw	205
  4686  008A  0020               	movlb	0	; select bank0
  4687  008B  00A0               	movwf	___ftmul@f1
  4688  008C  308C               	movlw	140
  4689  008D  00A1               	movwf	___ftmul@f1+1
  4690  008E  303F               	movlw	63
  4691  008F  00A2               	movwf	___ftmul@f1+2
  4692  0090  0847               	movf	_D1cycles+1,w	;volatile
  4693  0091  00F9               	movwf	___awtoft@c+1
  4694  0092  0846               	movf	_D1cycles,w	;volatile
  4695  0093  00F8               	movwf	___awtoft@c
  4696  0094  3185  25C8  3180   	fcall	___awtoft
  4697  0097  0878               	movf	?___awtoft,w
  4698  0098  0020               	movlb	0	; select bank0
  4699  0099  00A3               	movwf	___ftmul@f2
  4700  009A  0879               	movf	?___awtoft+1,w
  4701  009B  00A4               	movwf	___ftmul@f2+1
  4702  009C  087A               	movf	?___awtoft+2,w
  4703  009D  00A5               	movwf	___ftmul@f2+2
  4704  009E  3182  22B2  3180   	fcall	___ftmul
  4705  00A1  0020               	movlb	0	; select bank0
  4706  00A2  0820               	movf	?___ftmul,w
  4707  00A3  00B0               	movwf	___ftge@ff1
  4708  00A4  0821               	movf	?___ftmul+1,w
  4709  00A5  00B1               	movwf	___ftge@ff1+1
  4710  00A6  0822               	movf	?___ftmul+2,w
  4711  00A7  00B2               	movwf	___ftge@ff1+2
  4712  00A8  0849               	movf	_D2cycles+1,w	;volatile
  4713  00A9  00F9               	movwf	___awtoft@c+1
  4714  00AA  0848               	movf	_D2cycles,w	;volatile
  4715  00AB  00F8               	movwf	___awtoft@c
  4716  00AC  3185  25C8  3180   	fcall	___awtoft
  4717  00AF  0878               	movf	?___awtoft,w
  4718  00B0  0020               	movlb	0	; select bank0
  4719  00B1  00B3               	movwf	___ftge@ff2
  4720  00B2  0879               	movf	?___awtoft+1,w
  4721  00B3  00B4               	movwf	___ftge@ff2+1
  4722  00B4  087A               	movf	?___awtoft+2,w
  4723  00B5  00B5               	movwf	___ftge@ff2+2
  4724  00B6  3185  2525  3180   	fcall	___ftge
  4725  00B9  1C03               	btfss	3,0
  4726  00BA  2951               	goto	i1l146
  4727                           
  4728                           ;interrupt.c: 91: }
  4729                           ;interrupt.c: 93: Davgcycles = (D1cycles + D2cycles) / 2;
  4730                           
  4731                           ;interrupt.c: 89: {
  4732                           ;interrupt.c: 90: return;
  4733  00BB  3002               	movlw	2
  4734  00BC  00F0               	movwf	___awdiv@divisor
  4735  00BD  3000               	movlw	0
  4736  00BE  00F1               	movwf	___awdiv@divisor+1
  4737  00BF  0020               	movlb	0	; select bank0
  4738  00C0  0848               	movf	_D2cycles,w	;volatile
  4739  00C1  0746               	addwf	_D1cycles,w	;volatile
  4740  00C2  00F2               	movwf	___awdiv@dividend
  4741  00C3  0849               	movf	_D2cycles+1,w	;volatile
  4742  00C4  3D47               	addwfc	_D1cycles+1,w	;volatile
  4743  00C5  00F3               	movwf	___awdiv@dividend+1
  4744  00C6  3184  24D4  3180   	fcall	___awdiv
  4745  00C9  0871               	movf	?___awdiv+1,w
  4746  00CA  0020               	movlb	0	; select bank0
  4747  00CB  00CB               	movwf	_Davgcycles+1	;volatile
  4748  00CC  0870               	movf	?___awdiv,w
  4749  00CD  00CA               	movwf	_Davgcycles	;volatile
  4750                           
  4751                           ;interrupt.c: 94: numPackets = Davgcycles * 17.85;
  4752  00CE  084B               	movf	_Davgcycles+1,w	;volatile
  4753  00CF  00F9               	movwf	___awtoft@c+1
  4754  00D0  084A               	movf	_Davgcycles,w	;volatile
  4755  00D1  00F8               	movwf	___awtoft@c
  4756  00D2  3185  25C8  3180   	fcall	___awtoft
  4757  00D5  0878               	movf	?___awtoft,w
  4758  00D6  0020               	movlb	0	; select bank0
  4759  00D7  00A3               	movwf	___ftmul@f2
  4760  00D8  0879               	movf	?___awtoft+1,w
  4761  00D9  00A4               	movwf	___ftmul@f2+1
  4762  00DA  087A               	movf	?___awtoft+2,w
  4763  00DB  00A5               	movwf	___ftmul@f2+2
  4764  00DC  30CD               	movlw	205
  4765  00DD  00A0               	movwf	___ftmul@f1
  4766  00DE  308E               	movlw	142
  4767  00DF  00A1               	movwf	___ftmul@f1+1
  4768  00E0  3041               	movlw	65
  4769  00E1  00A2               	movwf	___ftmul@f1+2
  4770  00E2  3182  22B2  3180   	fcall	___ftmul
  4771  00E5  0020               	movlb	0	; select bank0
  4772  00E6  0820               	movf	?___ftmul,w
  4773  00E7  00B0               	movwf	___fttol@f1
  4774  00E8  0821               	movf	?___ftmul+1,w
  4775  00E9  00B1               	movwf	___fttol@f1+1
  4776  00EA  0822               	movf	?___ftmul+2,w
  4777  00EB  00B2               	movwf	___fttol@f1+2
  4778  00EC  3183  2366  3180   	fcall	___fttol
  4779  00EF  0020               	movlb	0	; select bank0
  4780  00F0  0831               	movf	?___fttol+1,w
  4781  00F1  00CD               	movwf	_numPackets+1	;volatile
  4782  00F2  0830               	movf	?___fttol,w
  4783  00F3  00CC               	movwf	_numPackets	;volatile
  4784                           
  4785                           ;interrupt.c: 96: if(numPackets >= 6000 && numPackets <7500)
  4786  00F4  084D               	movf	_numPackets+1,w	;volatile
  4787  00F5  3A80               	xorlw	128
  4788  00F6  00BE               	movwf	??_isr
  4789  00F7  3097               	movlw	151
  4790  00F8  023E               	subwf	??_isr,w
  4791  00F9  1D03               	skipz
  4792  00FA  28FD               	goto	u147_25
  4793  00FB  3070               	movlw	112
  4794  00FC  024C               	subwf	_numPackets,w	;volatile
  4795  00FD                     u147_25:	
  4796  00FD  1C03               	skipc
  4797  00FE  2912               	goto	i1l1702
  4798  00FF  0020               	movlb	0	; select bank0
  4799  0100  084D               	movf	_numPackets+1,w	;volatile
  4800  0101  3A80               	xorlw	128
  4801  0102  00BE               	movwf	??_isr
  4802  0103  309D               	movlw	157
  4803  0104  023E               	subwf	??_isr,w
  4804  0105  1D03               	skipz
  4805  0106  2909               	goto	u148_25
  4806  0107  304C               	movlw	76
  4807  0108  024C               	subwf	_numPackets,w	;volatile
  4808  0109                     u148_25:	
  4809  0109  1803               	skipnc
  4810  010A  2912               	goto	i1l1702
  4811                           
  4812                           ;interrupt.c: 97: {
  4813                           ;interrupt.c: 98: if(health > 0)
  4814  010B  0020               	movlb	0	; select bank0
  4815  010C  084F               	movf	_health,w
  4816  010D  1903               	btfsc	3,2
  4817  010E  2951               	goto	i1l146
  4818                           
  4819                           ;interrupt.c: 99: {
  4820                           ;interrupt.c: 100: health--;
  4821  010F  3001               	movlw	1
  4822  0110  02CF               	subwf	_health,f
  4823                           
  4824                           ;interrupt.c: 103: }
  4825                           
  4826                           ;interrupt.c: 101: }
  4827                           ;interrupt.c: 102: return;
  4828  0111  2951               	goto	i1l146
  4829  0112                     i1l1702:	
  4830                           
  4831                           ;interrupt.c: 104: else if(numPackets >= 10000 && numPackets < 12000)
  4832  0112  0020               	movlb	0	; select bank0
  4833  0113  084D               	movf	_numPackets+1,w	;volatile
  4834  0114  3A80               	xorlw	128
  4835  0115  00BE               	movwf	??_isr
  4836  0116  30A7               	movlw	167
  4837  0117  023E               	subwf	??_isr,w
  4838  0118  1D03               	skipz
  4839  0119  291C               	goto	u150_25
  4840  011A  3010               	movlw	16
  4841  011B  024C               	subwf	_numPackets,w	;volatile
  4842  011C                     u150_25:	
  4843  011C  1C03               	skipc
  4844  011D  2934               	goto	i1l1714
  4845  011E  0020               	movlb	0	; select bank0
  4846  011F  084D               	movf	_numPackets+1,w	;volatile
  4847  0120  3A80               	xorlw	128
  4848  0121  00BE               	movwf	??_isr
  4849  0122  30AE               	movlw	174
  4850  0123  023E               	subwf	??_isr,w
  4851  0124  1D03               	skipz
  4852  0125  2928               	goto	u151_25
  4853  0126  30E0               	movlw	224
  4854  0127  024C               	subwf	_numPackets,w	;volatile
  4855  0128                     u151_25:	
  4856  0128  1803               	skipnc
  4857  0129  2934               	goto	i1l1714
  4858                           
  4859                           ;interrupt.c: 105: {
  4860                           ;interrupt.c: 106: if(health < 50)
  4861  012A  3032               	movlw	50
  4862  012B  0020               	movlb	0	; select bank0
  4863  012C  024F               	subwf	_health,w
  4864  012D  1803               	skipnc
  4865  012E  2951               	goto	i1l146
  4866                           
  4867                           ;interrupt.c: 107: {
  4868                           ;interrupt.c: 108: health++;
  4869  012F  3001               	movlw	1
  4870  0130  00BE               	movwf	??_isr
  4871  0131  083E               	movf	??_isr,w
  4872  0132  07CF               	addwf	_health,f
  4873                           
  4874                           ;interrupt.c: 111: }
  4875                           
  4876                           ;interrupt.c: 109: }
  4877                           ;interrupt.c: 110: return;
  4878  0133  2951               	goto	i1l146
  4879  0134                     i1l1714:	
  4880                           
  4881                           ;interrupt.c: 112: else if(numPackets >= 13000 && numPackets < 15000)
  4882  0134  0020               	movlb	0	; select bank0
  4883  0135  084D               	movf	_numPackets+1,w	;volatile
  4884  0136  3A80               	xorlw	128
  4885  0137  00BE               	movwf	??_isr
  4886  0138  30B2               	movlw	178
  4887  0139  023E               	subwf	??_isr,w
  4888  013A  1D03               	skipz
  4889  013B  293E               	goto	u153_25
  4890  013C  30C8               	movlw	200
  4891  013D  024C               	subwf	_numPackets,w	;volatile
  4892  013E                     u153_25:	
  4893  013E  1C03               	skipc
  4894  013F  2951               	goto	i1l146
  4895  0140  0020               	movlb	0	; select bank0
  4896  0141  084D               	movf	_numPackets+1,w	;volatile
  4897  0142  3A80               	xorlw	128
  4898  0143  00BE               	movwf	??_isr
  4899  0144  30BA               	movlw	186
  4900  0145  023E               	subwf	??_isr,w
  4901  0146  1D03               	skipz
  4902  0147  294A               	goto	u154_25
  4903  0148  3098               	movlw	152
  4904  0149  024C               	subwf	_numPackets,w	;volatile
  4905  014A                     u154_25:	
  4906  014A  1803               	skipnc
  4907  014B  2951               	goto	i1l146
  4908                           
  4909                           ;interrupt.c: 113: {
  4910                           ;interrupt.c: 114: stun_counter++;
  4911  014C  3001               	movlw	1
  4912  014D  0020               	movlb	0	; select bank0
  4913  014E  00BE               	movwf	??_isr
  4914  014F  083E               	movf	??_isr,w
  4915  0150  07CE               	addwf	_stun_counter,f
  4916  0151                     i1l146:	
  4917                           ;interrupt.c: 116: }
  4918                           ;interrupt.c: 117: return;
  4919                           
  4920                           ;interrupt.c: 115: return;
  4921                           
  4922  0151  0020               	movlb	0	; select bank0
  4923  0152  083F               	movf	??_isr+1,w
  4924  0153  00FF               	movwf	127
  4925  0154  107E               	bcf	126,0	;clear compiler interrupt flag (level 1)
  4926  0155  0009               	retfie
  4927  0156                     __end_of_isr:	
  4928                           
  4929                           	psect	text8
  4930  0366                     __ptext8:	
  4931 ;; *************** function ___fttol *****************
  4932 ;; Defined at:
  4933 ;;		line 44 in file "C:\Program Files (x86)\Microchip\xc8\v1.35\sources\common\fttol.c"
  4934 ;; Parameters:    Size  Location     Type
  4935 ;;  f1              3   16[BANK0 ] float 
  4936 ;; Auto vars:     Size  Location     Type
  4937 ;;  lval            4   25[BANK0 ] unsigned long 
  4938 ;;  exp1            1   29[BANK0 ] unsigned char 
  4939 ;;  sign1           1   24[BANK0 ] unsigned char 
  4940 ;; Return value:  Size  Location     Type
  4941 ;;                  4   16[BANK0 ] long 
  4942 ;; Registers used:
  4943 ;;		wreg, status,2, status,0
  4944 ;; Tracked objects:
  4945 ;;		On entry : 0/0
  4946 ;;		On exit  : 0/0
  4947 ;;		Unchanged: 0/0
  4948 ;; Data sizes:     COMMON   BANK0   BANK1   BANK2   BANK3   BANK4   BANK5   BANK6   BANK7   BANK8   BANK9  BANK10  BANK1
      +1  BANK12  BANK13  BANK14  BANK15  BANK16  BANK17  BANK18  BANK19  BANK20  BANK21  BANK22  BANK23  BANK24  BANK25
  4949 ;;      Params:         0       4       0       0       0       0       0       0       0       0       0       0       
      +0       0       0       0       0       0       0       0       0       0       0       0       0       0       0
  4950 ;;      Locals:         0       6       0       0       0       0       0       0       0       0       0       0       
      +0       0       0       0       0       0       0       0       0       0       0       0       0       0       0
  4951 ;;      Temps:          0       4       0       0       0       0       0       0       0       0       0       0       
      +0       0       0       0       0       0       0       0       0       0       0       0       0       0       0
  4952 ;;      Totals:         0      14       0       0       0       0       0       0       0       0       0       0       
      +0       0       0       0       0       0       0       0       0       0       0       0       0       0       0
  4953 ;;Total ram usage:       14 bytes
  4954 ;; Hardware stack levels used:    1
  4955 ;; This function calls:
  4956 ;;		Nothing
  4957 ;; This function is called by:
  4958 ;;		_isr
  4959 ;; This function uses a non-reentrant model
  4960 ;;
  4961                           
  4962                           
  4963                           ;psect for function ___fttol
  4964  0366                     ___fttol:	
  4965                           
  4966                           ;incstack = 0
  4967                           ; Regs used in ___fttol: [wreg+status,2+status,0]
  4968  0366  0020               	movlb	0	; select bank0
  4969  0367  0830               	movf	___fttol@f1,w
  4970  0368  00B4               	movwf	??___fttol
  4971  0369  0831               	movf	___fttol@f1+1,w
  4972  036A  00B5               	movwf	??___fttol+1
  4973  036B  0832               	movf	___fttol@f1+2,w
  4974  036C  00B6               	movwf	??___fttol+2
  4975  036D  1003               	clrc
  4976  036E  0D35               	rlf	??___fttol+1,w
  4977  036F  0D36               	rlf	??___fttol+2,w
  4978  0370  00B7               	movwf	??___fttol+3
  4979  0371  0837               	movf	??___fttol+3,w
  4980  0372  00BD               	movwf	___fttol@exp1
  4981  0373  083D               	movf	___fttol@exp1,w
  4982  0374  1D03               	btfss	3,2
  4983  0375  2B7F               	goto	i1l1592
  4984  0376  3000               	movlw	0
  4985  0377  00B3               	movwf	?___fttol+3
  4986  0378  3000               	movlw	0
  4987  0379  00B2               	movwf	?___fttol+2
  4988  037A  3000               	movlw	0
  4989  037B  00B1               	movwf	?___fttol+1
  4990  037C  3000               	movlw	0
  4991  037D  00B0               	movwf	?___fttol
  4992  037E  0008               	return
  4993  037F                     i1l1592:	
  4994  037F  0830               	movf	___fttol@f1,w
  4995  0380  00B4               	movwf	??___fttol
  4996  0381  0831               	movf	___fttol@f1+1,w
  4997  0382  00B5               	movwf	??___fttol+1
  4998  0383  0832               	movf	___fttol@f1+2,w
  4999  0384  00B6               	movwf	??___fttol+2
  5000  0385  3017               	movlw	23
  5001  0386                     u125_25:	
  5002  0386  36B6               	lsrf	??___fttol+2,f
  5003  0387  0CB5               	rrf	??___fttol+1,f
  5004  0388  0CB4               	rrf	??___fttol,f
  5005  0389  0B89               	decfsz	9,f
  5006  038A  2B86               	goto	u125_25
  5007  038B  0834               	movf	??___fttol,w
  5008  038C  00B7               	movwf	??___fttol+3
  5009  038D  0837               	movf	??___fttol+3,w
  5010  038E  00B8               	movwf	___fttol@sign1
  5011  038F  17B1               	bsf	___fttol@f1+1,7
  5012  0390  30FF               	movlw	255
  5013  0391  05B0               	andwf	___fttol@f1,f
  5014  0392  30FF               	movlw	255
  5015  0393  05B1               	andwf	___fttol@f1+1,f
  5016  0394  3000               	movlw	0
  5017  0395  05B2               	andwf	___fttol@f1+2,f
  5018  0396  0830               	movf	___fttol@f1,w
  5019  0397  00B9               	movwf	___fttol@lval
  5020  0398  0831               	movf	___fttol@f1+1,w
  5021  0399  00BA               	movwf	___fttol@lval+1
  5022  039A  0832               	movf	___fttol@f1+2,w
  5023  039B  00BB               	movwf	___fttol@lval+2
  5024  039C  01BC               	clrf	___fttol@lval+3
  5025  039D  308E               	movlw	142
  5026  039E  02BD               	subwf	___fttol@exp1,f
  5027  039F  1FBD               	btfss	___fttol@exp1,7
  5028  03A0  2BBD               	goto	i1l1612
  5029  03A1  083D               	movf	___fttol@exp1,w
  5030  03A2  3A80               	xorlw	128
  5031  03A3  3E8F               	addlw	143
  5032  03A4  1803               	skipnc
  5033  03A5  2BAF               	goto	i1l1610
  5034  03A6  3000               	movlw	0
  5035  03A7  00B3               	movwf	?___fttol+3
  5036  03A8  3000               	movlw	0
  5037  03A9  00B2               	movwf	?___fttol+2
  5038  03AA  3000               	movlw	0
  5039  03AB  00B1               	movwf	?___fttol+1
  5040  03AC  3000               	movlw	0
  5041  03AD  00B0               	movwf	?___fttol
  5042  03AE  0008               	return
  5043  03AF                     i1l1610:	
  5044  03AF  3001               	movlw	1
  5045  03B0                     u128_25:	
  5046  03B0  36BC               	lsrf	___fttol@lval+3,f
  5047  03B1  0CBB               	rrf	___fttol@lval+2,f
  5048  03B2  0CBA               	rrf	___fttol@lval+1,f
  5049  03B3  0CB9               	rrf	___fttol@lval,f
  5050  03B4  0B89               	decfsz	9,f
  5051  03B5  2BB0               	goto	u128_25
  5052  03B6  3001               	movlw	1
  5053  03B7  00B4               	movwf	??___fttol
  5054  03B8  0834               	movf	??___fttol,w
  5055  03B9  07BD               	addwf	___fttol@exp1,f
  5056  03BA  1903               	btfsc	3,2
  5057  03BB  2BD6               	goto	i1l1620
  5058  03BC  2BAF               	goto	i1l1610
  5059  03BD                     i1l1612:	
  5060  03BD  3018               	movlw	24
  5061  03BE  023D               	subwf	___fttol@exp1,w
  5062  03BF  1C03               	skipc
  5063  03C0  2BD3               	goto	i1l638
  5064  03C1  3000               	movlw	0
  5065  03C2  00B3               	movwf	?___fttol+3
  5066  03C3  3000               	movlw	0
  5067  03C4  00B2               	movwf	?___fttol+2
  5068  03C5  3000               	movlw	0
  5069  03C6  00B1               	movwf	?___fttol+1
  5070  03C7  3000               	movlw	0
  5071  03C8  00B0               	movwf	?___fttol
  5072  03C9  0008               	return
  5073  03CA                     i1l1618:	
  5074  03CA  3001               	movlw	1
  5075  03CB                     u131_25:	
  5076  03CB  35B9               	lslf	___fttol@lval,f
  5077  03CC  0DBA               	rlf	___fttol@lval+1,f
  5078  03CD  0DBB               	rlf	___fttol@lval+2,f
  5079  03CE  0DBC               	rlf	___fttol@lval+3,f
  5080  03CF  0B89               	decfsz	9,f
  5081  03D0  2BCB               	goto	u131_25
  5082  03D1  3001               	movlw	1
  5083  03D2  02BD               	subwf	___fttol@exp1,f
  5084  03D3                     i1l638:	
  5085  03D3  083D               	movf	___fttol@exp1,w
  5086  03D4  1D03               	btfss	3,2
  5087  03D5  2BCA               	goto	i1l1618
  5088  03D6                     i1l1620:	
  5089  03D6  0838               	movf	___fttol@sign1,w
  5090  03D7  1903               	btfsc	3,2
  5091  03D8  2BE4               	goto	i1l1624
  5092  03D9  09B9               	comf	___fttol@lval,f
  5093  03DA  09BA               	comf	___fttol@lval+1,f
  5094  03DB  09BB               	comf	___fttol@lval+2,f
  5095  03DC  09BC               	comf	___fttol@lval+3,f
  5096  03DD  0AB9               	incf	___fttol@lval,f
  5097  03DE  1903               	skipnz
  5098  03DF  0ABA               	incf	___fttol@lval+1,f
  5099  03E0  1903               	skipnz
  5100  03E1  0ABB               	incf	___fttol@lval+2,f
  5101  03E2  1903               	skipnz
  5102  03E3  0ABC               	incf	___fttol@lval+3,f
  5103  03E4                     i1l1624:	
  5104  03E4  083C               	movf	___fttol@lval+3,w
  5105  03E5  00B3               	movwf	?___fttol+3
  5106  03E6  083B               	movf	___fttol@lval+2,w
  5107  03E7  00B2               	movwf	?___fttol+2
  5108  03E8  083A               	movf	___fttol@lval+1,w
  5109  03E9  00B1               	movwf	?___fttol+1
  5110  03EA  0839               	movf	___fttol@lval,w
  5111  03EB  00B0               	movwf	?___fttol
  5112  03EC  0008               	return
  5113  03ED                     __end_of___fttol:	
  5114                           
  5115                           	psect	text9
  5116  02B2                     __ptext9:	
  5117 ;; *************** function ___ftmul *****************
  5118 ;; Defined at:
  5119 ;;		line 62 in file "C:\Program Files (x86)\Microchip\xc8\v1.35\sources\common\ftmul.c"
  5120 ;; Parameters:    Size  Location     Type
  5121 ;;  f1              3    0[BANK0 ] float 
  5122 ;;  f2              3    3[BANK0 ] float 
  5123 ;; Auto vars:     Size  Location     Type
  5124 ;;  f3_as_produc    3   11[BANK0 ] unsigned um
  5125 ;;  sign            1   15[BANK0 ] unsigned char 
  5126 ;;  cntr            1   14[BANK0 ] unsigned char 
  5127 ;;  exp             1   10[BANK0 ] unsigned char 
  5128 ;; Return value:  Size  Location     Type
  5129 ;;                  3    0[BANK0 ] float 
  5130 ;; Registers used:
  5131 ;;		wreg, status,2, status,0, pclath, cstack
  5132 ;; Tracked objects:
  5133 ;;		On entry : 0/0
  5134 ;;		On exit  : 0/0
  5135 ;;		Unchanged: 0/0
  5136 ;; Data sizes:     COMMON   BANK0   BANK1   BANK2   BANK3   BANK4   BANK5   BANK6   BANK7   BANK8   BANK9  BANK10  BANK1
      +1  BANK12  BANK13  BANK14  BANK15  BANK16  BANK17  BANK18  BANK19  BANK20  BANK21  BANK22  BANK23  BANK24  BANK25
  5137 ;;      Params:         0       6       0       0       0       0       0       0       0       0       0       0       
      +0       0       0       0       0       0       0       0       0       0       0       0       0       0       0
  5138 ;;      Locals:         0       6       0       0       0       0       0       0       0       0       0       0       
      +0       0       0       0       0       0       0       0       0       0       0       0       0       0       0
  5139 ;;      Temps:          0       4       0       0       0       0       0       0       0       0       0       0       
      +0       0       0       0       0       0       0       0       0       0       0       0       0       0       0
  5140 ;;      Totals:         0      16       0       0       0       0       0       0       0       0       0       0       
      +0       0       0       0       0       0       0       0       0       0       0       0       0       0       0
  5141 ;;Total ram usage:       16 bytes
  5142 ;; Hardware stack levels used:    1
  5143 ;; Hardware stack levels required when called:    1
  5144 ;; This function calls:
  5145 ;;		___ftpack
  5146 ;; This function is called by:
  5147 ;;		_isr
  5148 ;; This function uses a non-reentrant model
  5149 ;;
  5150                           
  5151                           
  5152                           ;psect for function ___ftmul
  5153  02B2                     ___ftmul:	
  5154                           
  5155                           ;incstack = 0
  5156                           ; Regs used in ___ftmul: [wreg+status,2+status,0+pclath+cstack]
  5157  02B2  0020               	movlb	0	; select bank0
  5158  02B3  0820               	movf	___ftmul@f1,w
  5159  02B4  00A6               	movwf	??___ftmul
  5160  02B5  0821               	movf	___ftmul@f1+1,w
  5161  02B6  00A7               	movwf	??___ftmul+1
  5162  02B7  0822               	movf	___ftmul@f1+2,w
  5163  02B8  00A8               	movwf	??___ftmul+2
  5164  02B9  1003               	clrc
  5165  02BA  0D27               	rlf	??___ftmul+1,w
  5166  02BB  0D28               	rlf	??___ftmul+2,w
  5167  02BC  00A9               	movwf	??___ftmul+3
  5168  02BD  0829               	movf	??___ftmul+3,w
  5169  02BE  00AA               	movwf	___ftmul@exp
  5170  02BF  082A               	movf	___ftmul@exp,w
  5171  02C0  1D03               	btfss	3,2
  5172  02C1  2AC9               	goto	i1l1542
  5173  02C2  3000               	movlw	0
  5174  02C3  00A0               	movwf	?___ftmul
  5175  02C4  3000               	movlw	0
  5176  02C5  00A1               	movwf	?___ftmul+1
  5177  02C6  3000               	movlw	0
  5178  02C7  00A2               	movwf	?___ftmul+2
  5179  02C8  0008               	return
  5180  02C9                     i1l1542:	
  5181  02C9  0823               	movf	___ftmul@f2,w
  5182  02CA  00A6               	movwf	??___ftmul
  5183  02CB  0824               	movf	___ftmul@f2+1,w
  5184  02CC  00A7               	movwf	??___ftmul+1
  5185  02CD  0825               	movf	___ftmul@f2+2,w
  5186  02CE  00A8               	movwf	??___ftmul+2
  5187  02CF  1003               	clrc
  5188  02D0  0D27               	rlf	??___ftmul+1,w
  5189  02D1  0D28               	rlf	??___ftmul+2,w
  5190  02D2  00A9               	movwf	??___ftmul+3
  5191  02D3  0829               	movf	??___ftmul+3,w
  5192  02D4  00AF               	movwf	___ftmul@sign
  5193  02D5  082F               	movf	___ftmul@sign,w
  5194  02D6  1D03               	btfss	3,2
  5195  02D7  2ADF               	goto	i1l1548
  5196  02D8  3000               	movlw	0
  5197  02D9  00A0               	movwf	?___ftmul
  5198  02DA  3000               	movlw	0
  5199  02DB  00A1               	movwf	?___ftmul+1
  5200  02DC  3000               	movlw	0
  5201  02DD  00A2               	movwf	?___ftmul+2
  5202  02DE  0008               	return
  5203  02DF                     i1l1548:	
  5204  02DF  082F               	movf	___ftmul@sign,w
  5205  02E0  3E7B               	addlw	123
  5206  02E1  00A6               	movwf	??___ftmul
  5207  02E2  0826               	movf	??___ftmul,w
  5208  02E3  07AA               	addwf	___ftmul@exp,f
  5209  02E4  0820               	movf	___ftmul@f1,w
  5210  02E5  00A6               	movwf	??___ftmul
  5211  02E6  0821               	movf	___ftmul@f1+1,w
  5212  02E7  00A7               	movwf	??___ftmul+1
  5213  02E8  0822               	movf	___ftmul@f1+2,w
  5214  02E9  00A8               	movwf	??___ftmul+2
  5215  02EA  3010               	movlw	16
  5216  02EB                     u114_25:	
  5217  02EB  36A8               	lsrf	??___ftmul+2,f
  5218  02EC  0CA7               	rrf	??___ftmul+1,f
  5219  02ED  0CA6               	rrf	??___ftmul,f
  5220  02EE  0B89               	decfsz	9,f
  5221  02EF  2AEB               	goto	u114_25
  5222  02F0  0826               	movf	??___ftmul,w
  5223  02F1  00A9               	movwf	??___ftmul+3
  5224  02F2  0829               	movf	??___ftmul+3,w
  5225  02F3  00AF               	movwf	___ftmul@sign
  5226  02F4  0823               	movf	___ftmul@f2,w
  5227  02F5  00A6               	movwf	??___ftmul
  5228  02F6  0824               	movf	___ftmul@f2+1,w
  5229  02F7  00A7               	movwf	??___ftmul+1
  5230  02F8  0825               	movf	___ftmul@f2+2,w
  5231  02F9  00A8               	movwf	??___ftmul+2
  5232  02FA  3010               	movlw	16
  5233  02FB                     u115_25:	
  5234  02FB  36A8               	lsrf	??___ftmul+2,f
  5235  02FC  0CA7               	rrf	??___ftmul+1,f
  5236  02FD  0CA6               	rrf	??___ftmul,f
  5237  02FE  0B89               	decfsz	9,f
  5238  02FF  2AFB               	goto	u115_25
  5239  0300  0826               	movf	??___ftmul,w
  5240  0301  00A9               	movwf	??___ftmul+3
  5241  0302  0829               	movf	??___ftmul+3,w
  5242  0303  06AF               	xorwf	___ftmul@sign,f
  5243  0304  3080               	movlw	128
  5244  0305  00A6               	movwf	??___ftmul
  5245  0306  0826               	movf	??___ftmul,w
  5246  0307  05AF               	andwf	___ftmul@sign,f
  5247  0308  17A1               	bsf	___ftmul@f1+1,7
  5248  0309  17A4               	bsf	___ftmul@f2+1,7
  5249  030A  30FF               	movlw	255
  5250  030B  05A3               	andwf	___ftmul@f2,f
  5251  030C  30FF               	movlw	255
  5252  030D  05A4               	andwf	___ftmul@f2+1,f
  5253  030E  3000               	movlw	0
  5254  030F  05A5               	andwf	___ftmul@f2+2,f
  5255  0310  3000               	movlw	0
  5256  0311  00AB               	movwf	___ftmul@f3_as_product
  5257  0312  3000               	movlw	0
  5258  0313  00AC               	movwf	___ftmul@f3_as_product+1
  5259  0314  3000               	movlw	0
  5260  0315  00AD               	movwf	___ftmul@f3_as_product+2
  5261  0316  3007               	movlw	7
  5262  0317  00A6               	movwf	??___ftmul
  5263  0318  0826               	movf	??___ftmul,w
  5264  0319  00AE               	movwf	___ftmul@cntr
  5265  031A                     i1l1560:	
  5266  031A  1C20               	btfss	___ftmul@f1,0
  5267  031B  2B22               	goto	i1l1564
  5268  031C  0823               	movf	___ftmul@f2,w
  5269  031D  07AB               	addwf	___ftmul@f3_as_product,f
  5270  031E  0824               	movf	___ftmul@f2+1,w
  5271  031F  3DAC               	addwfc	___ftmul@f3_as_product+1,f
  5272  0320  0825               	movf	___ftmul@f2+2,w
  5273  0321  3DAD               	addwfc	___ftmul@f3_as_product+2,f
  5274  0322                     i1l1564:	
  5275  0322  3001               	movlw	1
  5276  0323                     u117_25:	
  5277  0323  36A2               	lsrf	___ftmul@f1+2,f
  5278  0324  0CA1               	rrf	___ftmul@f1+1,f
  5279  0325  0CA0               	rrf	___ftmul@f1,f
  5280  0326  0B89               	decfsz	9,f
  5281  0327  2B23               	goto	u117_25
  5282  0328  3001               	movlw	1
  5283  0329                     u118_25:	
  5284  0329  35A3               	lslf	___ftmul@f2,f
  5285  032A  0DA4               	rlf	___ftmul@f2+1,f
  5286  032B  0DA5               	rlf	___ftmul@f2+2,f
  5287  032C  0B89               	decfsz	9,f
  5288  032D  2B29               	goto	u118_25
  5289  032E  3001               	movlw	1
  5290  032F  02AE               	subwf	___ftmul@cntr,f
  5291  0330  1D03               	btfss	3,2
  5292  0331  2B1A               	goto	i1l1560
  5293  0332  3009               	movlw	9
  5294  0333  00A6               	movwf	??___ftmul
  5295  0334  0826               	movf	??___ftmul,w
  5296  0335  00AE               	movwf	___ftmul@cntr
  5297  0336                     i1l1572:	
  5298  0336  1C20               	btfss	___ftmul@f1,0
  5299  0337  2B3E               	goto	i1l1576
  5300  0338  0823               	movf	___ftmul@f2,w
  5301  0339  07AB               	addwf	___ftmul@f3_as_product,f
  5302  033A  0824               	movf	___ftmul@f2+1,w
  5303  033B  3DAC               	addwfc	___ftmul@f3_as_product+1,f
  5304  033C  0825               	movf	___ftmul@f2+2,w
  5305  033D  3DAD               	addwfc	___ftmul@f3_as_product+2,f
  5306  033E                     i1l1576:	
  5307  033E  3001               	movlw	1
  5308  033F                     u121_25:	
  5309  033F  36A2               	lsrf	___ftmul@f1+2,f
  5310  0340  0CA1               	rrf	___ftmul@f1+1,f
  5311  0341  0CA0               	rrf	___ftmul@f1,f
  5312  0342  0B89               	decfsz	9,f
  5313  0343  2B3F               	goto	u121_25
  5314  0344  3001               	movlw	1
  5315  0345                     u122_25:	
  5316  0345  36AD               	lsrf	___ftmul@f3_as_product+2,f
  5317  0346  0CAC               	rrf	___ftmul@f3_as_product+1,f
  5318  0347  0CAB               	rrf	___ftmul@f3_as_product,f
  5319  0348  0B89               	decfsz	9,f
  5320  0349  2B45               	goto	u122_25
  5321  034A  3001               	movlw	1
  5322  034B  02AE               	subwf	___ftmul@cntr,f
  5323  034C  1D03               	btfss	3,2
  5324  034D  2B36               	goto	i1l1572
  5325  034E  082B               	movf	___ftmul@f3_as_product,w
  5326  034F  00F0               	movwf	___ftpack@arg
  5327  0350  082C               	movf	___ftmul@f3_as_product+1,w
  5328  0351  00F1               	movwf	___ftpack@arg+1
  5329  0352  082D               	movf	___ftmul@f3_as_product+2,w
  5330  0353  00F2               	movwf	___ftpack@arg+2
  5331  0354  082A               	movf	___ftmul@exp,w
  5332  0355  00A6               	movwf	??___ftmul
  5333  0356  0826               	movf	??___ftmul,w
  5334  0357  00F3               	movwf	___ftpack@exp
  5335  0358  082F               	movf	___ftmul@sign,w
  5336  0359  00A7               	movwf	??___ftmul+1
  5337  035A  0827               	movf	??___ftmul+1,w
  5338  035B  00F4               	movwf	___ftpack@sign
  5339  035C  3184  2470         	fcall	___ftpack
  5340  035E  0870               	movf	?___ftpack,w
  5341  035F  0020               	movlb	0	; select bank0
  5342  0360  00A0               	movwf	?___ftmul
  5343  0361  0871               	movf	?___ftpack+1,w
  5344  0362  00A1               	movwf	?___ftmul+1
  5345  0363  0872               	movf	?___ftpack+2,w
  5346  0364  00A2               	movwf	?___ftmul+2
  5347  0365  0008               	return
  5348  0366                     __end_of___ftmul:	
  5349                           
  5350                           	psect	text10
  5351  0525                     __ptext10:	
  5352 ;; *************** function ___ftge *****************
  5353 ;; Defined at:
  5354 ;;		line 4 in file "C:\Program Files (x86)\Microchip\xc8\v1.35\sources\common\ftge.c"
  5355 ;; Parameters:    Size  Location     Type
  5356 ;;  ff1             3   16[BANK0 ] float 
  5357 ;;  ff2             3   19[BANK0 ] float 
  5358 ;; Auto vars:     Size  Location     Type
  5359 ;;		None
  5360 ;; Return value:  Size  Location     Type
  5361 ;;		None               void
  5362 ;; Registers used:
  5363 ;;		wreg, status,2, status,0
  5364 ;; Tracked objects:
  5365 ;;		On entry : 0/0
  5366 ;;		On exit  : 0/0
  5367 ;;		Unchanged: 0/0
  5368 ;; Data sizes:     COMMON   BANK0   BANK1   BANK2   BANK3   BANK4   BANK5   BANK6   BANK7   BANK8   BANK9  BANK10  BANK1
      +1  BANK12  BANK13  BANK14  BANK15  BANK16  BANK17  BANK18  BANK19  BANK20  BANK21  BANK22  BANK23  BANK24  BANK25
  5369 ;;      Params:         0       6       0       0       0       0       0       0       0       0       0       0       
      +0       0       0       0       0       0       0       0       0       0       0       0       0       0       0
  5370 ;;      Locals:         0       0       0       0       0       0       0       0       0       0       0       0       
      +0       0       0       0       0       0       0       0       0       0       0       0       0       0       0
  5371 ;;      Temps:          0       3       0       0       0       0       0       0       0       0       0       0       
      +0       0       0       0       0       0       0       0       0       0       0       0       0       0       0
  5372 ;;      Totals:         0       9       0       0       0       0       0       0       0       0       0       0       
      +0       0       0       0       0       0       0       0       0       0       0       0       0       0       0
  5373 ;;Total ram usage:        9 bytes
  5374 ;; Hardware stack levels used:    1
  5375 ;; This function calls:
  5376 ;;		Nothing
  5377 ;; This function is called by:
  5378 ;;		_isr
  5379 ;; This function uses a non-reentrant model
  5380 ;;
  5381                           
  5382                           
  5383                           ;psect for function ___ftge
  5384  0525                     ___ftge:	
  5385                           
  5386                           ;incstack = 0
  5387                           ; Regs used in ___ftge: [wreg+status,2+status,0]
  5388  0525  0020               	movlb	0	; select bank0
  5389  0526  1FB2               	btfss	___ftge@ff1+2,7
  5390  0527  2D3C               	goto	i1l1520
  5391  0528  0930               	comf	___ftge@ff1,w
  5392  0529  00B6               	movwf	??___ftge
  5393  052A  0931               	comf	___ftge@ff1+1,w
  5394  052B  00B7               	movwf	??___ftge+1
  5395  052C  0932               	comf	___ftge@ff1+2,w
  5396  052D  00B8               	movwf	??___ftge+2
  5397  052E  0AB6               	incf	??___ftge,f
  5398  052F  1903               	skipnz
  5399  0530  0AB7               	incf	??___ftge+1,f
  5400  0531  1903               	skipnz
  5401  0532  0AB8               	incf	??___ftge+2,f
  5402  0533  3000               	movlw	0
  5403  0534  0736               	addwf	??___ftge,w
  5404  0535  00B0               	movwf	___ftge@ff1
  5405  0536  3000               	movlw	0
  5406  0537  3D37               	addwfc	??___ftge+1,w
  5407  0538  00B1               	movwf	___ftge@ff1+1
  5408  0539  3080               	movlw	128
  5409  053A  3D38               	addwfc	??___ftge+2,w
  5410  053B  00B2               	movwf	___ftge@ff1+2
  5411  053C                     i1l1520:	
  5412  053C  1FB5               	btfss	___ftge@ff2+2,7
  5413  053D  2D52               	goto	i1l1524
  5414  053E  0933               	comf	___ftge@ff2,w
  5415  053F  00B6               	movwf	??___ftge
  5416  0540  0934               	comf	___ftge@ff2+1,w
  5417  0541  00B7               	movwf	??___ftge+1
  5418  0542  0935               	comf	___ftge@ff2+2,w
  5419  0543  00B8               	movwf	??___ftge+2
  5420  0544  0AB6               	incf	??___ftge,f
  5421  0545  1903               	skipnz
  5422  0546  0AB7               	incf	??___ftge+1,f
  5423  0547  1903               	skipnz
  5424  0548  0AB8               	incf	??___ftge+2,f
  5425  0549  3000               	movlw	0
  5426  054A  0736               	addwf	??___ftge,w
  5427  054B  00B3               	movwf	___ftge@ff2
  5428  054C  3000               	movlw	0
  5429  054D  3D37               	addwfc	??___ftge+1,w
  5430  054E  00B4               	movwf	___ftge@ff2+1
  5431  054F  3080               	movlw	128
  5432  0550  3D38               	addwfc	??___ftge+2,w
  5433  0551  00B5               	movwf	___ftge@ff2+2
  5434  0552                     i1l1524:	
  5435  0552  3080               	movlw	128
  5436  0553  06B2               	xorwf	___ftge@ff1+2,f
  5437  0554  3080               	movlw	128
  5438  0555  06B5               	xorwf	___ftge@ff2+2,f
  5439  0556  0835               	movf	___ftge@ff2+2,w
  5440  0557  0232               	subwf	___ftge@ff1+2,w
  5441  0558  1D03               	skipz
  5442  0559  0008               	return
  5443  055A  0834               	movf	___ftge@ff2+1,w
  5444  055B  0231               	subwf	___ftge@ff1+1,w
  5445  055C  1D03               	skipz
  5446  055D  0008               	return
  5447  055E  0833               	movf	___ftge@ff2,w
  5448  055F  0230               	subwf	___ftge@ff1,w
  5449  0560  0008               	return
  5450  0561                     __end_of___ftge:	
  5451                           
  5452                           	psect	text11
  5453  05C8                     __ptext11:	
  5454 ;; *************** function ___awtoft *****************
  5455 ;; Defined at:
  5456 ;;		line 32 in file "C:\Program Files (x86)\Microchip\xc8\v1.35\sources\common\awtoft.c"
  5457 ;; Parameters:    Size  Location     Type
  5458 ;;  c               2    8[COMMON] int 
  5459 ;; Auto vars:     Size  Location     Type
  5460 ;;  sign            1   13[COMMON] unsigned char 
  5461 ;; Return value:  Size  Location     Type
  5462 ;;                  3    8[COMMON] float 
  5463 ;; Registers used:
  5464 ;;		wreg, status,2, status,0, pclath, cstack
  5465 ;; Tracked objects:
  5466 ;;		On entry : 0/0
  5467 ;;		On exit  : 0/0
  5468 ;;		Unchanged: 0/0
  5469 ;; Data sizes:     COMMON   BANK0   BANK1   BANK2   BANK3   BANK4   BANK5   BANK6   BANK7   BANK8   BANK9  BANK10  BANK1
      +1  BANK12  BANK13  BANK14  BANK15  BANK16  BANK17  BANK18  BANK19  BANK20  BANK21  BANK22  BANK23  BANK24  BANK25
  5470 ;;      Params:         3       0       0       0       0       0       0       0       0       0       0       0       
      +0       0       0       0       0       0       0       0       0       0       0       0       0       0       0
  5471 ;;      Locals:         1       0       0       0       0       0       0       0       0       0       0       0       
      +0       0       0       0       0       0       0       0       0       0       0       0       0       0       0
  5472 ;;      Temps:          2       0       0       0       0       0       0       0       0       0       0       0       
      +0       0       0       0       0       0       0       0       0       0       0       0       0       0       0
  5473 ;;      Totals:         6       0       0       0       0       0       0       0       0       0       0       0       
      +0       0       0       0       0       0       0       0       0       0       0       0       0       0       0
  5474 ;;Total ram usage:        6 bytes
  5475 ;; Hardware stack levels used:    1
  5476 ;; Hardware stack levels required when called:    1
  5477 ;; This function calls:
  5478 ;;		___ftpack
  5479 ;; This function is called by:
  5480 ;;		_isr
  5481 ;; This function uses a non-reentrant model
  5482 ;;
  5483                           
  5484                           
  5485                           ;psect for function ___awtoft
  5486  05C8                     ___awtoft:	
  5487                           
  5488                           ;incstack = 0
  5489                           ; Regs used in ___awtoft: [wreg+status,2+status,0+pclath+cstack]
  5490  05C8  01FD               	clrf	___awtoft@sign
  5491  05C9  1FF9               	btfss	___awtoft@c+1,7
  5492  05CA  2DD2               	goto	i1l1512
  5493  05CB  09F8               	comf	___awtoft@c,f
  5494  05CC  09F9               	comf	___awtoft@c+1,f
  5495  05CD  0AF8               	incf	___awtoft@c,f
  5496  05CE  1903               	skipnz
  5497  05CF  0AF9               	incf	___awtoft@c+1,f
  5498  05D0  01FD               	clrf	___awtoft@sign
  5499  05D1  0AFD               	incf	___awtoft@sign,f
  5500  05D2                     i1l1512:	
  5501  05D2  0878               	movf	___awtoft@c,w
  5502  05D3  00F0               	movwf	___ftpack@arg
  5503  05D4  0879               	movf	___awtoft@c+1,w
  5504  05D5  00F1               	movwf	___ftpack@arg+1
  5505  05D6  01F2               	clrf	___ftpack@arg+2
  5506  05D7  308E               	movlw	142
  5507  05D8  00FB               	movwf	??___awtoft
  5508  05D9  087B               	movf	??___awtoft,w
  5509  05DA  00F3               	movwf	___ftpack@exp
  5510  05DB  087D               	movf	___awtoft@sign,w
  5511  05DC  00FC               	movwf	??___awtoft+1
  5512  05DD  087C               	movf	??___awtoft+1,w
  5513  05DE  00F4               	movwf	___ftpack@sign
  5514  05DF  3184  2470         	fcall	___ftpack
  5515  05E1  0870               	movf	?___ftpack,w
  5516  05E2  00F8               	movwf	?___awtoft
  5517  05E3  0871               	movf	?___ftpack+1,w
  5518  05E4  00F9               	movwf	?___awtoft+1
  5519  05E5  0872               	movf	?___ftpack+2,w
  5520  05E6  00FA               	movwf	?___awtoft+2
  5521  05E7  0008               	return
  5522  05E8                     __end_of___awtoft:	
  5523                           
  5524                           	psect	text12
  5525  0470                     __ptext12:	
  5526 ;; *************** function ___ftpack *****************
  5527 ;; Defined at:
  5528 ;;		line 62 in file "C:\Program Files (x86)\Microchip\xc8\v1.35\sources\common\float.c"
  5529 ;; Parameters:    Size  Location     Type
  5530 ;;  arg             3    0[COMMON] unsigned um
  5531 ;;  exp             1    3[COMMON] unsigned char 
  5532 ;;  sign            1    4[COMMON] unsigned char 
  5533 ;; Auto vars:     Size  Location     Type
  5534 ;;		None
  5535 ;; Return value:  Size  Location     Type
  5536 ;;                  3    0[COMMON] float 
  5537 ;; Registers used:
  5538 ;;		wreg, status,2, status,0
  5539 ;; Tracked objects:
  5540 ;;		On entry : 0/0
  5541 ;;		On exit  : 0/0
  5542 ;;		Unchanged: 0/0
  5543 ;; Data sizes:     COMMON   BANK0   BANK1   BANK2   BANK3   BANK4   BANK5   BANK6   BANK7   BANK8   BANK9  BANK10  BANK1
      +1  BANK12  BANK13  BANK14  BANK15  BANK16  BANK17  BANK18  BANK19  BANK20  BANK21  BANK22  BANK23  BANK24  BANK25
  5544 ;;      Params:         5       0       0       0       0       0       0       0       0       0       0       0       
      +0       0       0       0       0       0       0       0       0       0       0       0       0       0       0
  5545 ;;      Locals:         0       0       0       0       0       0       0       0       0       0       0       0       
      +0       0       0       0       0       0       0       0       0       0       0       0       0       0       0
  5546 ;;      Temps:          3       0       0       0       0       0       0       0       0       0       0       0       
      +0       0       0       0       0       0       0       0       0       0       0       0       0       0       0
  5547 ;;      Totals:         8       0       0       0       0       0       0       0       0       0       0       0       
      +0       0       0       0       0       0       0       0       0       0       0       0       0       0       0
  5548 ;;Total ram usage:        8 bytes
  5549 ;; Hardware stack levels used:    1
  5550 ;; This function calls:
  5551 ;;		Nothing
  5552 ;; This function is called by:
  5553 ;;		___awtoft
  5554 ;;		___ftmul
  5555 ;; This function uses a non-reentrant model
  5556 ;;
  5557                           
  5558                           
  5559                           ;psect for function ___ftpack
  5560  0470                     ___ftpack:	
  5561                           
  5562                           ;incstack = 0
  5563                           ; Regs used in ___ftpack: [wreg+status,2+status,0]
  5564  0470  0873               	movf	___ftpack@exp,w
  5565  0471  1903               	btfsc	3,2
  5566  0472  2C78               	goto	i1l1288
  5567  0473  0872               	movf	___ftpack@arg+2,w
  5568  0474  0471               	iorwf	___ftpack@arg+1,w
  5569  0475  0470               	iorwf	___ftpack@arg,w
  5570  0476  1D03               	skipz
  5571  0477  2C89               	goto	i1l1294
  5572  0478                     i1l1288:	
  5573  0478  3000               	movlw	0
  5574  0479  00F0               	movwf	?___ftpack
  5575  047A  3000               	movlw	0
  5576  047B  00F1               	movwf	?___ftpack+1
  5577  047C  3000               	movlw	0
  5578  047D  00F2               	movwf	?___ftpack+2
  5579  047E  0008               	return
  5580  047F                     i1l1292:	
  5581  047F  3001               	movlw	1
  5582  0480  00F5               	movwf	??___ftpack
  5583  0481  0875               	movf	??___ftpack,w
  5584  0482  07F3               	addwf	___ftpack@exp,f
  5585  0483  3001               	movlw	1
  5586  0484                     u82_25:	
  5587  0484  36F2               	lsrf	___ftpack@arg+2,f
  5588  0485  0CF1               	rrf	___ftpack@arg+1,f
  5589  0486  0CF0               	rrf	___ftpack@arg,f
  5590  0487  0B89               	decfsz	9,f
  5591  0488  2C84               	goto	u82_25
  5592  0489                     i1l1294:	
  5593  0489  30FE               	movlw	254
  5594  048A  0572               	andwf	___ftpack@arg+2,w
  5595  048B  1903               	btfsc	3,2
  5596  048C  2CA2               	goto	i1l547
  5597  048D  2C7F               	goto	i1l1292
  5598  048E                     i1l1296:	
  5599  048E  3001               	movlw	1
  5600  048F  00F5               	movwf	??___ftpack
  5601  0490  0875               	movf	??___ftpack,w
  5602  0491  07F3               	addwf	___ftpack@exp,f
  5603  0492  3001               	movlw	1
  5604  0493  07F0               	addwf	___ftpack@arg,f
  5605  0494  3000               	movlw	0
  5606  0495  1803               	skipnc
  5607  0496  3001               	movlw	1
  5608  0497  07F1               	addwf	___ftpack@arg+1,f
  5609  0498  3000               	movlw	0
  5610  0499  1803               	skipnc
  5611  049A  3001               	movlw	1
  5612  049B  07F2               	addwf	___ftpack@arg+2,f
  5613  049C  3001               	movlw	1
  5614  049D                     u84_25:	
  5615  049D  36F2               	lsrf	___ftpack@arg+2,f
  5616  049E  0CF1               	rrf	___ftpack@arg+1,f
  5617  049F  0CF0               	rrf	___ftpack@arg,f
  5618  04A0  0B89               	decfsz	9,f
  5619  04A1  2C9D               	goto	u84_25
  5620  04A2                     i1l547:	
  5621  04A2  30FF               	movlw	255
  5622  04A3  0572               	andwf	___ftpack@arg+2,w
  5623  04A4  1903               	btfsc	3,2
  5624  04A5  2CAF               	goto	i1l1304
  5625  04A6  2C8E               	goto	i1l1296
  5626  04A7                     i1l1302:	
  5627  04A7  3001               	movlw	1
  5628  04A8  02F3               	subwf	___ftpack@exp,f
  5629  04A9  3001               	movlw	1
  5630  04AA                     u86_25:	
  5631  04AA  35F0               	lslf	___ftpack@arg,f
  5632  04AB  0DF1               	rlf	___ftpack@arg+1,f
  5633  04AC  0DF2               	rlf	___ftpack@arg+2,f
  5634  04AD  0B89               	decfsz	9,f
  5635  04AE  2CAA               	goto	u86_25
  5636  04AF                     i1l1304:	
  5637  04AF  1BF1               	btfsc	___ftpack@arg+1,7
  5638  04B0  2CB5               	goto	i1l554
  5639  04B1  3002               	movlw	2
  5640  04B2  0273               	subwf	___ftpack@exp,w
  5641  04B3  1803               	skipnc
  5642  04B4  2CA7               	goto	i1l1302
  5643  04B5                     i1l554:	
  5644  04B5  1873               	btfsc	___ftpack@exp,0
  5645  04B6  2CBD               	goto	i1l555
  5646  04B7  30FF               	movlw	255
  5647  04B8  05F0               	andwf	___ftpack@arg,f
  5648  04B9  307F               	movlw	127
  5649  04BA  05F1               	andwf	___ftpack@arg+1,f
  5650  04BB  30FF               	movlw	255
  5651  04BC  05F2               	andwf	___ftpack@arg+2,f
  5652  04BD                     i1l555:	
  5653  04BD  1003               	clrc
  5654  04BE  0CF3               	rrf	___ftpack@exp,f
  5655  04BF  0873               	movf	___ftpack@exp,w
  5656  04C0  00F5               	movwf	??___ftpack
  5657  04C1  01F6               	clrf	??___ftpack+1
  5658  04C2  01F7               	clrf	??___ftpack+2
  5659  04C3  3010               	movlw	16
  5660  04C4                     u90_25:	
  5661  04C4  35F5               	lslf	??___ftpack,f
  5662  04C5  0DF6               	rlf	??___ftpack+1,f
  5663  04C6  0DF7               	rlf	??___ftpack+2,f
  5664  04C7  0B89               	decfsz	9,f
  5665  04C8  2CC4               	goto	u90_25
  5666  04C9  0875               	movf	??___ftpack,w
  5667  04CA  04F0               	iorwf	___ftpack@arg,f
  5668  04CB  0876               	movf	??___ftpack+1,w
  5669  04CC  04F1               	iorwf	___ftpack@arg+1,f
  5670  04CD  0877               	movf	??___ftpack+2,w
  5671  04CE  04F2               	iorwf	___ftpack@arg+2,f
  5672  04CF  0874               	movf	___ftpack@sign,w
  5673  04D0  1903               	btfsc	3,2
  5674  04D1  0008               	return
  5675  04D2  17F2               	bsf	___ftpack@arg+2,7
  5676  04D3  0008               	return
  5677  04D4                     __end_of___ftpack:	
  5678                           
  5679                           	psect	text13
  5680  04D4                     __ptext13:	
  5681 ;; *************** function ___awdiv *****************
  5682 ;; Defined at:
  5683 ;;		line 6 in file "C:\Program Files (x86)\Microchip\xc8\v1.35\sources\common\awdiv.c"
  5684 ;; Parameters:    Size  Location     Type
  5685 ;;  divisor         2    0[COMMON] int 
  5686 ;;  dividend        2    2[COMMON] int 
  5687 ;; Auto vars:     Size  Location     Type
  5688 ;;  quotient        2    7[COMMON] int 
  5689 ;;  sign            1    6[COMMON] unsigned char 
  5690 ;;  counter         1    5[COMMON] unsigned char 
  5691 ;; Return value:  Size  Location     Type
  5692 ;;                  2    0[COMMON] int 
  5693 ;; Registers used:
  5694 ;;		wreg, status,2, status,0
  5695 ;; Tracked objects:
  5696 ;;		On entry : 0/0
  5697 ;;		On exit  : 0/0
  5698 ;;		Unchanged: 0/0
  5699 ;; Data sizes:     COMMON   BANK0   BANK1   BANK2   BANK3   BANK4   BANK5   BANK6   BANK7   BANK8   BANK9  BANK10  BANK1
      +1  BANK12  BANK13  BANK14  BANK15  BANK16  BANK17  BANK18  BANK19  BANK20  BANK21  BANK22  BANK23  BANK24  BANK25
  5700 ;;      Params:         4       0       0       0       0       0       0       0       0       0       0       0       
      +0       0       0       0       0       0       0       0       0       0       0       0       0       0       0
  5701 ;;      Locals:         4       0       0       0       0       0       0       0       0       0       0       0       
      +0       0       0       0       0       0       0       0       0       0       0       0       0       0       0
  5702 ;;      Temps:          1       0       0       0       0       0       0       0       0       0       0       0       
      +0       0       0       0       0       0       0       0       0       0       0       0       0       0       0
  5703 ;;      Totals:         9       0       0       0       0       0       0       0       0       0       0       0       
      +0       0       0       0       0       0       0       0       0       0       0       0       0       0       0
  5704 ;;Total ram usage:        9 bytes
  5705 ;; Hardware stack levels used:    1
  5706 ;; This function calls:
  5707 ;;		Nothing
  5708 ;; This function is called by:
  5709 ;;		_isr
  5710 ;; This function uses a non-reentrant model
  5711 ;;
  5712                           
  5713                           
  5714                           ;psect for function ___awdiv
  5715  04D4                     ___awdiv:	
  5716                           
  5717                           ;incstack = 0
  5718                           ; Regs used in ___awdiv: [wreg+status,2+status,0]
  5719  04D4  01F6               	clrf	___awdiv@sign
  5720  04D5  1FF1               	btfss	___awdiv@divisor+1,7
  5721  04D6  2CDE               	goto	i1l1468
  5722  04D7  09F0               	comf	___awdiv@divisor,f
  5723  04D8  09F1               	comf	___awdiv@divisor+1,f
  5724  04D9  0AF0               	incf	___awdiv@divisor,f
  5725  04DA  1903               	skipnz
  5726  04DB  0AF1               	incf	___awdiv@divisor+1,f
  5727  04DC  01F6               	clrf	___awdiv@sign
  5728  04DD  0AF6               	incf	___awdiv@sign,f
  5729  04DE                     i1l1468:	
  5730  04DE  1FF3               	btfss	___awdiv@dividend+1,7
  5731  04DF  2CE9               	goto	i1l1474
  5732  04E0  09F2               	comf	___awdiv@dividend,f
  5733  04E1  09F3               	comf	___awdiv@dividend+1,f
  5734  04E2  0AF2               	incf	___awdiv@dividend,f
  5735  04E3  1903               	skipnz
  5736  04E4  0AF3               	incf	___awdiv@dividend+1,f
  5737  04E5  3001               	movlw	1
  5738  04E6  00F4               	movwf	??___awdiv
  5739  04E7  0874               	movf	??___awdiv,w
  5740  04E8  06F6               	xorwf	___awdiv@sign,f
  5741  04E9                     i1l1474:	
  5742  04E9  01F7               	clrf	___awdiv@quotient
  5743  04EA  01F8               	clrf	___awdiv@quotient+1
  5744  04EB  0870               	movf	___awdiv@divisor,w
  5745  04EC  0471               	iorwf	___awdiv@divisor+1,w
  5746  04ED  1903               	btfsc	3,2
  5747  04EE  2D18               	goto	i1l1496
  5748  04EF  01F5               	clrf	___awdiv@counter
  5749  04F0  0AF5               	incf	___awdiv@counter,f
  5750  04F1                     i1l1484:	
  5751  04F1  1BF1               	btfsc	___awdiv@divisor+1,7
  5752  04F2  2CFD               	goto	i1l1486
  5753  04F3  3001               	movlw	1
  5754  04F4                     u101_25:	
  5755  04F4  35F0               	lslf	___awdiv@divisor,f
  5756  04F5  0DF1               	rlf	___awdiv@divisor+1,f
  5757  04F6  0B89               	decfsz	9,f
  5758  04F7  2CF4               	goto	u101_25
  5759  04F8  3001               	movlw	1
  5760  04F9  00F4               	movwf	??___awdiv
  5761  04FA  0874               	movf	??___awdiv,w
  5762  04FB  07F5               	addwf	___awdiv@counter,f
  5763  04FC  2CF1               	goto	i1l1484
  5764  04FD                     i1l1486:	
  5765  04FD  3001               	movlw	1
  5766  04FE                     u103_25:	
  5767  04FE  35F7               	lslf	___awdiv@quotient,f
  5768  04FF  0DF8               	rlf	___awdiv@quotient+1,f
  5769  0500  0B89               	decfsz	9,f
  5770  0501  2CFE               	goto	u103_25
  5771  0502  0871               	movf	___awdiv@divisor+1,w
  5772  0503  0273               	subwf	___awdiv@dividend+1,w
  5773  0504  1D03               	skipz
  5774  0505  2D08               	goto	u104_25
  5775  0506  0870               	movf	___awdiv@divisor,w
  5776  0507  0272               	subwf	___awdiv@dividend,w
  5777  0508                     u104_25:	
  5778  0508  1C03               	skipc
  5779  0509  2D0F               	goto	i1l1492
  5780  050A  0870               	movf	___awdiv@divisor,w
  5781  050B  02F2               	subwf	___awdiv@dividend,f
  5782  050C  0871               	movf	___awdiv@divisor+1,w
  5783  050D  3BF3               	subwfb	___awdiv@dividend+1,f
  5784  050E  1477               	bsf	___awdiv@quotient,0
  5785  050F                     i1l1492:	
  5786  050F  3001               	movlw	1
  5787  0510                     u105_25:	
  5788  0510  36F1               	lsrf	___awdiv@divisor+1,f
  5789  0511  0CF0               	rrf	___awdiv@divisor,f
  5790  0512  0B89               	decfsz	9,f
  5791  0513  2D10               	goto	u105_25
  5792  0514  3001               	movlw	1
  5793  0515  02F5               	subwf	___awdiv@counter,f
  5794  0516  1D03               	btfss	3,2
  5795  0517  2CFD               	goto	i1l1486
  5796  0518                     i1l1496:	
  5797  0518  0876               	movf	___awdiv@sign,w
  5798  0519  1903               	btfsc	3,2
  5799  051A  2D20               	goto	i1l1500
  5800  051B  09F7               	comf	___awdiv@quotient,f
  5801  051C  09F8               	comf	___awdiv@quotient+1,f
  5802  051D  0AF7               	incf	___awdiv@quotient,f
  5803  051E  1903               	skipnz
  5804  051F  0AF8               	incf	___awdiv@quotient+1,f
  5805  0520                     i1l1500:	
  5806  0520  0878               	movf	___awdiv@quotient+1,w
  5807  0521  00F1               	movwf	?___awdiv+1
  5808  0522  0877               	movf	___awdiv@quotient,w
  5809  0523  00F0               	movwf	?___awdiv
  5810  0524  0008               	return
  5811  0525                     __end_of___awdiv:	
  5812  007E                     btemp	set	126	;btemp
  5813  007E                     int$flags	set	126
  5814  007E                     wtemp	set	126
  5815  007E                     wtemp0	set	126
  5816  0080                     wtemp1	set	128
  5817  0082                     wtemp2	set	130
  5818  0084                     wtemp3	set	132
  5819  0086                     wtemp4	set	134
  5820  0088                     wtemp5	set	136
  5821  007F                     wtemp6	set	127
  5822  007E                     ttemp	set	126
  5823  007E                     ttemp0	set	126
  5824  0081                     ttemp1	set	129
  5825  0084                     ttemp2	set	132
  5826  0087                     ttemp3	set	135
  5827  007F                     ttemp4	set	127
  5828  007E                     ltemp	set	126
  5829  007E                     ltemp0	set	126
  5830  0082                     ltemp1	set	130
  5831  0086                     ltemp2	set	134
  5832  0080                     ltemp3	set	128


Data Sizes:
    Strings     131
    Constant    0
    Data        1
    BSS         12
    Persistent  0
    Stack       0

Auto Spaces:
    Space          Size  Autos    Used
    COMMON           14     14      14
    BANK0            80     38      48
    BANK1            80     11      14
    BANK2            80      0       0
    BANK3            80      0       0
    BANK4            80      0       0
    BANK5            80      0       0
    BANK6            80      0       0
    BANK7            80      0       0
    BANK8            80      0       0
    BANK9            80      0       0
    BANK10           80      0       0
    BANK11           80      0       0
    BANK12           80      0       0
    BANK13           80      0       0
    BANK14           80      0       0
    BANK15           80      0       0
    BANK16           80      0       0
    BANK17           80      0       0
    BANK18           80      0       0
    BANK19           80      0       0
    BANK20           80      0       0
    BANK21           80      0       0
    BANK22           80      0       0
    BANK23           80      0       0
    BANK24           80      0       0
    BANK25           32      0       0

Pointer List with Targets:

    None.

Critical Paths under _main in COMMON

    None.

Critical Paths under _isr in COMMON

    _isr->___awtoft
    ___fttol->___awtoft
    ___ftmul->___awtoft
    ___ftge->___awtoft
    ___awtoft->___ftpack

Critical Paths under _main in BANK0

    _main->_output_ir

Critical Paths under _isr in BANK0

    _isr->___fttol
    ___fttol->___ftmul
    ___ftge->___ftmul

Critical Paths under _main in BANK1

    _main->_output_ir

Critical Paths under _isr in BANK1

    None.

Critical Paths under _main in BANK2

    None.

Critical Paths under _isr in BANK2

    None.

Critical Paths under _main in BANK3

    None.

Critical Paths under _isr in BANK3

    None.

Critical Paths under _main in BANK4

    None.

Critical Paths under _isr in BANK4

    None.

Critical Paths under _main in BANK5

    None.

Critical Paths under _isr in BANK5

    None.

Critical Paths under _main in BANK6

    None.

Critical Paths under _isr in BANK6

    None.

Critical Paths under _main in BANK7

    None.

Critical Paths under _isr in BANK7

    None.

Critical Paths under _main in BANK8

    None.

Critical Paths under _isr in BANK8

    None.

Critical Paths under _main in BANK9

    None.

Critical Paths under _isr in BANK9

    None.

Critical Paths under _main in BANK10

    None.

Critical Paths under _isr in BANK10

    None.

Critical Paths under _main in BANK11

    None.

Critical Paths under _isr in BANK11

    None.

Critical Paths under _main in BANK12

    None.

Critical Paths under _isr in BANK12

    None.

Critical Paths under _main in BANK13

    None.

Critical Paths under _isr in BANK13

    None.

Critical Paths under _main in BANK14

    None.

Critical Paths under _isr in BANK14

    None.

Critical Paths under _main in BANK15

    None.

Critical Paths under _isr in BANK15

    None.

Critical Paths under _main in BANK16

    None.

Critical Paths under _isr in BANK16

    None.

Critical Paths under _main in BANK17

    None.

Critical Paths under _isr in BANK17

    None.

Critical Paths under _main in BANK18

    None.

Critical Paths under _isr in BANK18

    None.

Critical Paths under _main in BANK19

    None.

Critical Paths under _isr in BANK19

    None.

Critical Paths under _main in BANK20

    None.

Critical Paths under _isr in BANK20

    None.

Critical Paths under _main in BANK21

    None.

Critical Paths under _isr in BANK21

    None.

Critical Paths under _main in BANK22

    None.

Critical Paths under _isr in BANK22

    None.

Critical Paths under _main in BANK23

    None.

Critical Paths under _isr in BANK23

    None.

Critical Paths under _main in BANK24

    None.

Critical Paths under _isr in BANK24

    None.

Critical Paths under _main in BANK25

    None.

Critical Paths under _isr in BANK25

    None.

Call Graph Tables:

 ---------------------------------------------------------------------------------
 (Depth) Function   	        Calls       Base Space   Used Autos Params    Refs
 ---------------------------------------------------------------------------------
 (0) _main                                                 7     7      0     337
                                             35 BANK0      3     3      0
                                              7 BANK1      4     4      0
                     _display_health
                            _init_ir
                           _init_isr
                          _init_leds
                           _init_pic
                          _output_ir
 ---------------------------------------------------------------------------------
 (1) _output_ir                                           10     9      1     331
                                             32 BANK0      3     2      1
                                              0 BANK1      7     7      0
 ---------------------------------------------------------------------------------
 (1) _init_pic                                             1     1      0       0
                                             32 BANK0      1     1      0
 ---------------------------------------------------------------------------------
 (1) _init_leds                                            1     1      0       0
                                             32 BANK0      1     1      0
 ---------------------------------------------------------------------------------
 (1) _init_isr                                             0     0      0       0
 ---------------------------------------------------------------------------------
 (1) _init_ir                                              1     1      0       0
                                             32 BANK0      1     1      0
 ---------------------------------------------------------------------------------
 (1) _display_health                                       0     0      0       0
 ---------------------------------------------------------------------------------
 Estimated maximum stack depth 1
 ---------------------------------------------------------------------------------
 (Depth) Function   	        Calls       Base Space   Used Autos Params    Refs
 ---------------------------------------------------------------------------------
 (2) _isr                                                  2     2      0    5317
                                             30 BANK0      2     2      0
                            ___awdiv
                           ___awtoft
                             ___ftge
                            ___ftmul
                            ___fttol
 ---------------------------------------------------------------------------------
 (3) ___fttol                                             14    10      4     305
                                             16 BANK0     14    10      4
                           ___awtoft (ARG)
                            ___ftmul (ARG)
 ---------------------------------------------------------------------------------
 (3) ___ftmul                                             16    10      6    2273
                                              0 BANK0     16    10      6
                           ___awtoft (ARG)
                           ___ftpack
 ---------------------------------------------------------------------------------
 (3) ___ftge                                               9     3      6     348
                                             16 BANK0      9     3      6
                           ___awtoft (ARG)
                            ___ftmul (ARG)
 ---------------------------------------------------------------------------------
 (3) ___awtoft                                             6     3      3    1985
                                              8 COMMON     6     3      3
                           ___ftpack
 ---------------------------------------------------------------------------------
 (4) ___ftpack                                             8     3      5    1629
                                              0 COMMON     8     3      5
 ---------------------------------------------------------------------------------
 (3) ___awdiv                                              9     5      4     406
                                              0 COMMON     9     5      4
 ---------------------------------------------------------------------------------
 Estimated maximum stack depth 4
 ---------------------------------------------------------------------------------

 Call Graph Graphs:

 _main (ROOT)
   _display_health
   _init_ir
   _init_isr
   _init_leds
   _init_pic
   _output_ir

 _isr (ROOT)
   ___awdiv
   ___awtoft
     ___ftpack
   ___ftge
     ___awtoft (ARG)
       ___ftpack
     ___ftmul (ARG)
       ___awtoft (ARG)
         ___ftpack
       ___ftpack (ARG)
   ___ftmul
     ___awtoft (ARG)
       ___ftpack
     ___ftpack (ARG)
   ___fttol
     ___awtoft (ARG)
       ___ftpack
     ___ftmul (ARG)
       ___awtoft (ARG)
         ___ftpack
       ___ftpack (ARG)

 Address spaces:
Name               Size   Autos  Total    Cost      Usage
BIGRAM             7F0      0       0       0        0.0%
EEDATA             100      0       0       0        0.0%
NULL                 0      0       0       0        0.0%
CODE                 0      0       0       0        0.0%
BITCOMMON            E      0       0       1        0.0%
BITSFR0              0      0       0       1        0.0%
SFR0                 0      0       0       1        0.0%
COMMON               E      E       E       2      100.0%
BITSFR1              0      0       0       2        0.0%
SFR1                 0      0       0       2        0.0%
BITSFR2              0      0       0       3        0.0%
SFR2                 0      0       0       3        0.0%
STACK                0      0       0       3        0.0%
BITBANK0            50      0       0       4        0.0%
BITSFR3              0      0       0       4        0.0%
SFR3                 0      0       0       4        0.0%
BANK0               50     26      30       5       60.0%
BITSFR4              0      0       0       5        0.0%
SFR4                 0      0       0       5        0.0%
BITBANK1            50      0       0       6        0.0%
BITSFR5              0      0       0       6        0.0%
SFR5                 0      0       0       6        0.0%
BANK1               50      B       E       7       17.5%
BITSFR6              0      0       0       7        0.0%
SFR6                 0      0       0       7        0.0%
BITBANK2            50      0       0       8        0.0%
BITSFR7              0      0       0       8        0.0%
SFR7                 0      0       0       8        0.0%
BANK2               50      0       0       9        0.0%
BITSFR8              0      0       0       9        0.0%
SFR8                 0      0       0       9        0.0%
BITBANK3            50      0       0      10        0.0%
BITSFR9              0      0       0      10        0.0%
SFR9                 0      0       0      10        0.0%
BANK3               50      0       0      11        0.0%
BITSFR10             0      0       0      11        0.0%
SFR10                0      0       0      11        0.0%
BITBANK4            50      0       0      12        0.0%
BITSFR11             0      0       0      12        0.0%
SFR11                0      0       0      12        0.0%
BANK4               50      0       0      13        0.0%
BITSFR12             0      0       0      13        0.0%
SFR12                0      0       0      13        0.0%
BITSFR13             0      0       0      14        0.0%
SFR13                0      0       0      14        0.0%
ABS                  0      0      4C      14        0.0%
BITBANK5            50      0       0      15        0.0%
BITSFR14             0      0       0      15        0.0%
SFR14                0      0       0      15        0.0%
BANK5               50      0       0      16        0.0%
BITSFR15             0      0       0      16        0.0%
SFR15                0      0       0      16        0.0%
BITBANK6            50      0       0      17        0.0%
BITSFR16             0      0       0      17        0.0%
SFR16                0      0       0      17        0.0%
BANK6               50      0       0      18        0.0%
BITSFR17             0      0       0      18        0.0%
SFR17                0      0       0      18        0.0%
BITBANK7            50      0       0      19        0.0%
BITSFR18             0      0       0      19        0.0%
SFR18                0      0       0      19        0.0%
BANK7               50      0       0      20        0.0%
BITSFR19             0      0       0      20        0.0%
SFR19                0      0       0      20        0.0%
BITBANK8            50      0       0      21        0.0%
BITSFR20             0      0       0      21        0.0%
SFR20                0      0       0      21        0.0%
BANK8               50      0       0      22        0.0%
BITSFR21             0      0       0      22        0.0%
SFR21                0      0       0      22        0.0%
BITBANK9            50      0       0      23        0.0%
BITSFR22             0      0       0      23        0.0%
SFR22                0      0       0      23        0.0%
BANK9               50      0       0      24        0.0%
BITSFR23             0      0       0      24        0.0%
SFR23                0      0       0      24        0.0%
BITBANK10           50      0       0      25        0.0%
BITSFR24             0      0       0      25        0.0%
SFR24                0      0       0      25        0.0%
BANK10              50      0       0      26        0.0%
BITSFR25             0      0       0      26        0.0%
SFR25                0      0       0      26        0.0%
BITBANK11           50      0       0      27        0.0%
BITSFR26             0      0       0      27        0.0%
SFR26                0      0       0      27        0.0%
BITSFR27             0      0       0      28        0.0%
SFR27                0      0       0      28        0.0%
DATA                 0      0      4C      28        0.0%
BANK11              50      0       0      29        0.0%
BITSFR28             0      0       0      29        0.0%
SFR28                0      0       0      29        0.0%
BITBANK12           50      0       0      30        0.0%
BITSFR29             0      0       0      30        0.0%
SFR29                0      0       0      30        0.0%
BANK12              50      0       0      31        0.0%
BITSFR30             0      0       0      31        0.0%
SFR30                0      0       0      31        0.0%
BITBANK13           50      0       0      32        0.0%
BITSFR31             0      0       0      32        0.0%
SFR31                0      0       0      32        0.0%
BANK13              50      0       0      33        0.0%
BITBANK14           50      0       0      34        0.0%
BANK14              50      0       0      35        0.0%
BITBANK15           50      0       0      36        0.0%
BANK15              50      0       0      37        0.0%
BITBANK16           50      0       0      38        0.0%
BANK16              50      0       0      39        0.0%
BITBANK17           50      0       0      40        0.0%
BANK17              50      0       0      41        0.0%
BITBANK18           50      0       0      42        0.0%
BANK18              50      0       0      43        0.0%
BITBANK19           50      0       0      44        0.0%
BANK19              50      0       0      45        0.0%
BITBANK20           50      0       0      46        0.0%
BANK20              50      0       0      47        0.0%
BITBANK21           50      0       0      48        0.0%
BANK21              50      0       0      49        0.0%
BITBANK22           50      0       0      50        0.0%
BANK22              50      0       0      51        0.0%
BITBANK23           50      0       0      52        0.0%
BANK23              50      0       0      53        0.0%
BITBANK24           50      0       0      54        0.0%
BANK24              50      0       0      55        0.0%
BITBANK25           20      0       0      56        0.0%
BANK25              20      0       0      57        0.0%


Microchip Technology PIC Macro Assembler V1.35 build -356382666 
Symbol Table                                                                                   Fri Oct 30 10:40:11 2015

            __CFG_CP$OFF 0000             ___awdiv@sign 0076   __end_of_display_health 060D  
                    l251 01E1                      l246 0174                      l255 024B  
                    l287 060B                      _GIE 005F                      _RB3 006B  
                    _RC4 0074             __CFG_CPD$OFF 0000                      _isr 0004  
           __CFG_BORV$LO 0000                      wreg 0009             __CFG_IESO$ON 0000  
           __CFG_LVP$OFF 0000                     l1742 01DB                     l1762 0248  
                   l1794 05BB                     ?_isr 0070                     STR_1 0457  
                   STR_2 041E                     STR_3 03ED                     STR_4 043D  
                   _BRGH 0CF2                     _CREN 0CEC                     u1607 05AC  
                   u1617 0186                     u1707 020B                     u1627 0192  
                   u1717 0217                     u1565 017F                     u1637 019E  
                   u1807 0299                     u1727 0223                     u1647 01AA  
                   u1817 02A5                     u1585 01EC                     u1737 022F  
                   u1657 01B6                     _PIE4 0094                     u1595 0256  
                   u1747 023B                     u1667 01C2                     u1757 025D  
                   u1677 01CE                     u1767 0269                     u1687 01F3  
                   u1777 0275                     u1697 01FF                     u1787 0281  
                   u1797 028D                     _RCIE 048D                     _RCIF 008D  
                   _TMR1 0016                     _SPEN 0CEF                     _TRMT 0CF1  
                   _TXEN 0CF5                     _SYNC 0CF4             __CFG_WRT$OFF 0000  
          __CFG_FCMEN$ON 0000                     _main 059A             ___ftpack@arg 0070  
            main@pkt_arr 00A7             ___ftpack@exp 0073                     btemp 007E  
                   ltemp 007E                     start 0156                     ttemp 007E  
                   wtemp 007E               _Davgcycles 004A            __CFG_MCLRE$ON 0000  
           ___ftmul@cntr 002E             ___ftmul@sign 002F             ___fttol@exp1 003D  
           ___fttol@lval 0039                    ??_isr 003E                    ?_main 0070  
        ?_display_health 0070          __end_of___awdiv 0525                    _BRG16 0CFB  
          __CFG_WDTE$OFF 0000          __end_of___ftmul 0366          ___awdiv@divisor 0070  
                  _T1CON 0018          __end_of___fttol 03ED                    _IOCAF 0393  
                  _IOCAN 0392                    _IOCAP 0391                    i1l143 0014  
                  i1l160 004A                    i1l152 002E                    i1l146 0151  
                  i1l156 003E                    i1l148 0022                    i1l554 04B5  
                  i1l555 04BD                    i1l547 04A2                    i1l638 03D3  
        ___awdiv@counter 0075                    _RCREG 0199                    _SPBRG 019B  
                  _TRISA 008C                    _TRISB 008D                    _TRISC 008E  
                  u90_25 04C4                    u82_25 0484                    u84_25 049D  
                  u86_25 04AA                    _TXREG 019A            ___awtoft@sign 007D  
        __end_of_init_ir 059A            ___ftpack@sign 0074                    main@i 00AA  
         __CFG_BOREN$OFF 0000                    ltemp0 007E                    ltemp1 0082  
                  ltemp2 0086                    ltemp3 0080                    ttemp0 007E  
                  ttemp1 0081                    ttemp2 0084                    ttemp3 0087  
                  ttemp4 007F                    status 0003                    wtemp0 007E  
                  wtemp1 0080                    wtemp2 0082                    wtemp3 0084  
                  wtemp4 0086                    wtemp5 0088                    wtemp6 007F  
        __initialization 0158             __end_of_main 05C8           __CFG_LPBOR$OFF 0000  
                 ??_main 0043            ___fttol@sign1 0038           __CFG_PLLEN$OFF 0000  
           _stun_counter 004E         ___awdiv@dividend 0072         __end_of___awtoft 05E8  
                 _ANSELA 018C                   _ANSELB 018D         __end_of___ftpack 04D4  
                 u101_25 04F4                   i1l1302 04A7                   i1l1304 04AF  
                 i1l1500 0520                   u103_25 04FE                   i1l1512 05D2  
                 i1l1520 053C                   i1l1610 03AF                   i1l1292 047F  
                 i1l1524 0552                   i1l1620 03D6                   i1l1612 03BD  
                 u104_25 0508                   i1l1294 0489                   i1l1542 02C9  
                 i1l1702 0112                   i1l1296 048E                   i1l1288 0478  
                 i1l1560 031A                   i1l1624 03E4                   i1l1474 04E9  
                 i1l1618 03CA                   i1l1714 0134                   i1l1492 050F  
                 i1l1484 04F1                   i1l1468 04DE                   i1l1572 0336  
                 i1l1564 0322                   i1l1548 02DF                   u105_25 0510  
                 u121_25 033F                   i1l1486 04FD                   i1l1662 002C  
                 i1l1496 0518                   i1l1576 033E                   i1l1592 037F  
                 i1l1656 0020                   i1l1682 0054                   i1l1676 0048  
                 i1l1668 0038                   u122_25 0345                   u114_25 02EB  
                 u115_25 02FB                   u131_25 03CB                   u117_25 0323  
                 u125_25 0386                   u118_25 0329                   u150_25 011C  
                 u151_25 0128                   u128_25 03B0                   _INTCON 000B  
                 u153_25 013E                   u154_25 014A                   u147_25 00FD  
                 u148_25 0109                   _OSCCON 0099           __CFG_PWRTE$OFF 0000  
                 ___ftge 0525                ??___awdiv 0074           __CFG_STVREN$ON 0000  
              ??___ftmul 0026                ??___fttol 0034                   _health 004F  
       __end_of_init_pic 0605         __end_of_init_isr 05F7         ___awdiv@quotient 0077  
  ___ftmul@f3_as_product 002B                ??_init_ir 0040  __end_of__initialization 0169  
             ___ftge@ff1 0030               ___ftge@ff2 0033               ___awtoft@c 0078  
             ___ftmul@f1 0020               ___ftmul@f2 0023               ___fttol@f1 0030  
         __pcstackCOMMON 0070             __pidataBANK0 0614               __pbssBANK0 0046  
             __pbssBANK1 00AB          __CFG_VCAPEN$OFF 0000       __size_of_init_leds 0007  
             __pmaintext 059A                  ?___ftge 0030         ??_display_health 0040  
             __pintentry 0004           output_ir@i_223 00A2           output_ir@i_224 00A4  
              ?___awtoft 0078                ?___ftpack 0070       __size_of_output_ir 0145  
              ?_init_pic 0070                ?_init_isr 0070          __size_of___ftge 003C  
                ___awdiv 04D4                  ___ftmul 02B2                  ___fttol 0366  
             ??___awtoft 007B               ??___ftpack 0075                  __ptext1 016D  
                __ptext2 05F7                  __ptext3 060D                  __ptext4 05E8  
                __ptext5 0561                  __ptext6 0605                  __ptext8 0366  
                __ptext9 02B2                  _init_ir 0561             __size_of_isr 0152  
      __end_of_init_leds 0614                _IOCAFbits 0393     end_of_initialization 0169  
             ??_init_pic 0040               ??_init_isr 0040               _numPackets 004C  
              _PSMC1FEBS 0E99                _PSMC1BLKF 0EAC                _PSMC1ASDC 0E9D  
              _PSMC1BLNK 0E97                _PSMC1BLKR 0EAB                _PSMC1ASDL 0E9E  
              _PSMC1ASDS 0E9F                _PSMC1REBS 0E98                _PSMC1STR0 0EAE  
              _PSMC1STR1 0EAF                _PSMC1SYNC 0E93             __pstringtext 03ED  
      __end_of_output_ir 02B2                _PORTAbits 000C         __CFG_FOSC$INTOSC 0000  
            ___ftmul@exp 002A           __end_of___ftge 0561      start_initialization 0158  
            __end_of_isr 0156                 ??___ftge 0036              __pdataBANK0 004F  
      __size_of___awtoft 0020        __size_of___ftpack 0064                ___latbits 0003  
          __pcstackBANK0 0020            __pcstackBANK1 00A0        __size_of_init_pic 000E  
      __size_of_init_isr 000F                 ?___awdiv 0070                 ?___ftmul 0020  
               ?___fttol 0030                 ?_init_ir 0070          output_ir@amount 0040  
               _P1MDLBIT 7495                _init_leds 060D                 _D1cycles 0046  
               _D2cycles 0048                 _PSMC1DBF 0EAA                 _PSMC1DCH 0EA4  
               _PSMC1DCL 0EA3                 _PSMC1FFA 0EAD                 _PSMC1DBR 0EA9  
               _PSMC1DCS 0E9B                 _PSMC1CLK 0E94                 _PSMC1CON 0E91  
               _PSMC1MDL 0E92                 _PSMC1OEN 0E95                 _PSMC1INT 0EA0  
               _PSMC1PHH 0EA2                 _PSMC1PHL 0EA1                 _PSMC1PHS 0E9A  
               _PSMC1POL 0E96                 _PSMC1PRH 0EA6                 _PSMC1PRL 0EA5  
               _PSMC1PRS 0E9C                main@F7230 00AB                _output_ir 016D  
__size_of_display_health 0008               ?_init_leds 0070         __size_of___awdiv 0051  
       __size_of___ftmul 00B4         __size_of___fttol 0087                 ___awtoft 05C8  
               ___ftpack 0470        output_ir@pkt_type 00A6               ?_output_ir 0040  
       __size_of_init_ir 0039               output_ir@i 00A0                 __ptext10 0525  
               __ptext11 05C8                 __ptext12 0470                 __ptext13 04D4  
          __size_of_main 002E                 _init_pic 05F7                 _init_isr 05E8  
               int$flags 007E              ??_init_leds 0040                 intlevel1 0000  
      __CFG_CLKOUTEN$OFF 0000           _display_health 0605              ??_output_ir 0041  
