

Microchip Technology PIC LITE Macro Assembler V1.35 build -356382666 
                                                                                               Fri Nov 20 14:06:43 2015

Microchip Technology Omniscient Code Generator v1.35 (Free mode) build 201507080246
     1                           	processor	16F1788
     2                           	opt	pw 120
     3                           	opt	lm
     4                           	psect	idataBANK0,global,class=CODE,delta=2
     5                           	psect	stringtext,global,class=STRCODE,delta=2
     6                           	psect	cinit,global,class=CODE,merge=1,delta=2
     7                           	psect	bssCOMMON,global,class=COMMON,space=1,delta=1
     8                           	psect	bssBANK0,global,class=BANK0,space=1,delta=1
     9                           	psect	dataBANK0,global,class=BANK0,space=1,delta=1
    10                           	psect	cstackCOMMON,global,class=COMMON,space=1,delta=1
    11                           	psect	cstackBANK0,global,class=BANK0,space=1,delta=1
    12                           	psect	maintext,global,class=CODE,merge=1,split=1,delta=2
    13                           	psect	text1,local,class=CODE,merge=1,delta=2
    14                           	psect	text2,local,class=CODE,merge=1,delta=2
    15                           	psect	text3,local,class=CODE,merge=1,delta=2
    16                           	psect	text4,local,class=CODE,merge=1,delta=2
    17                           	psect	text5,local,class=CODE,merge=1,delta=2
    18                           	psect	text6,local,class=CODE,merge=1,delta=2
    19                           	psect	text7,local,class=CODE,merge=1,delta=2
    20                           	psect	text8,local,class=CODE,merge=1,delta=2
    21                           	psect	text9,local,class=CODE,merge=1,delta=2
    22                           	psect	text10,local,class=CODE,merge=1,delta=2
    23                           	psect	text11,local,class=CODE,merge=1,delta=2
    24                           	psect	text12,local,class=CODE,merge=1,delta=2
    25                           	psect	text13,local,class=CODE,merge=1,delta=2
    26                           	psect	text14,local,class=CODE,merge=1,delta=2
    27                           	psect	text15,local,class=CODE,merge=1,delta=2
    28                           	psect	text16,local,class=CODE,merge=1,delta=2
    29                           	psect	text17,local,class=CODE,merge=1,delta=2
    30                           	psect	text18,local,class=CODE,merge=1,delta=2
    31                           	psect	text19,local,class=CODE,merge=1,delta=2
    32                           	psect	text20,local,class=CODE,merge=1,delta=2
    33                           	psect	text21,local,class=CODE,merge=1,delta=2
    34                           	psect	text22,local,class=CODE,merge=1,delta=2
    35                           	psect	text23,local,class=CODE,merge=1,delta=2
    36                           	psect	intentry,global,class=CODE,delta=2
    37                           	psect	text25,local,class=CODE,merge=1,delta=2
    38                           	psect	text26,local,class=CODE,merge=1,delta=2
    39                           	psect	text27,local,class=CODE,merge=1,delta=2
    40                           	psect	text28,local,class=CODE,merge=1,delta=2
    41                           	psect	text29,local,class=CODE,merge=1,delta=2
    42                           	psect	text30,local,class=CODE,merge=1,delta=2
    43                           	psect	text31,local,class=CODE,merge=1,delta=2
    44                           	psect	text32,local,class=CODE,merge=1,delta=2
    45                           	psect	text33,local,class=CODE,merge=1,delta=2
    46                           	psect	text34,local,class=CODE,merge=1,delta=2
    47                           	psect	text35,local,class=CODE,merge=1,delta=2
    48                           	psect	text36,local,class=CODE,merge=1,delta=2
    49                           	dabs	1,0x7E,2
    50  0000                     	;# 
    51  0001                     	;# 
    52  0002                     	;# 
    53  0003                     	;# 
    54  0004                     	;# 
    55  0005                     	;# 
    56  0006                     	;# 
    57  0007                     	;# 
    58  0008                     	;# 
    59  0009                     	;# 
    60  000A                     	;# 
    61  000B                     	;# 
    62  000C                     	;# 
    63  000D                     	;# 
    64  000E                     	;# 
    65  0010                     	;# 
    66  0011                     	;# 
    67  0012                     	;# 
    68  0013                     	;# 
    69  0014                     	;# 
    70  0015                     	;# 
    71  0016                     	;# 
    72  0016                     	;# 
    73  0017                     	;# 
    74  0018                     	;# 
    75  0019                     	;# 
    76  001A                     	;# 
    77  001B                     	;# 
    78  001C                     	;# 
    79  008C                     	;# 
    80  008D                     	;# 
    81  008E                     	;# 
    82  0090                     	;# 
    83  0091                     	;# 
    84  0092                     	;# 
    85  0093                     	;# 
    86  0094                     	;# 
    87  0095                     	;# 
    88  0096                     	;# 
    89  0097                     	;# 
    90  0098                     	;# 
    91  0099                     	;# 
    92  009A                     	;# 
    93  009B                     	;# 
    94  009B                     	;# 
    95  009C                     	;# 
    96  009D                     	;# 
    97  009E                     	;# 
    98  009F                     	;# 
    99  010C                     	;# 
   100  010D                     	;# 
   101  010E                     	;# 
   102  0111                     	;# 
   103  0112                     	;# 
   104  0113                     	;# 
   105  0114                     	;# 
   106  0115                     	;# 
   107  0116                     	;# 
   108  0117                     	;# 
   109  0118                     	;# 
   110  0119                     	;# 
   111  011A                     	;# 
   112  011B                     	;# 
   113  011C                     	;# 
   114  011D                     	;# 
   115  011D                     	;# 
   116  011D                     	;# 
   117  011E                     	;# 
   118  011F                     	;# 
   119  018C                     	;# 
   120  018D                     	;# 
   121  018E                     	;# 
   122  0191                     	;# 
   123  0191                     	;# 
   124  0192                     	;# 
   125  0193                     	;# 
   126  0193                     	;# 
   127  0193                     	;# 
   128  0194                     	;# 
   129  0195                     	;# 
   130  0196                     	;# 
   131  0197                     	;# 
   132  0199                     	;# 
   133  0199                     	;# 
   134  0199                     	;# 
   135  019A                     	;# 
   136  019A                     	;# 
   137  019A                     	;# 
   138  019B                     	;# 
   139  019B                     	;# 
   140  019B                     	;# 
   141  019B                     	;# 
   142  019B                     	;# 
   143  019C                     	;# 
   144  019C                     	;# 
   145  019C                     	;# 
   146  019D                     	;# 
   147  019D                     	;# 
   148  019D                     	;# 
   149  019E                     	;# 
   150  019E                     	;# 
   151  019E                     	;# 
   152  019F                     	;# 
   153  019F                     	;# 
   154  019F                     	;# 
   155  019F                     	;# 
   156  019F                     	;# 
   157  020C                     	;# 
   158  020D                     	;# 
   159  020E                     	;# 
   160  0210                     	;# 
   161  0211                     	;# 
   162  0211                     	;# 
   163  0212                     	;# 
   164  0212                     	;# 
   165  0213                     	;# 
   166  0213                     	;# 
   167  0214                     	;# 
   168  0214                     	;# 
   169  0215                     	;# 
   170  0215                     	;# 
   171  0215                     	;# 
   172  0215                     	;# 
   173  0216                     	;# 
   174  0216                     	;# 
   175  0217                     	;# 
   176  0217                     	;# 
   177  028C                     	;# 
   178  028D                     	;# 
   179  028E                     	;# 
   180  0291                     	;# 
   181  0291                     	;# 
   182  0292                     	;# 
   183  0293                     	;# 
   184  0298                     	;# 
   185  0298                     	;# 
   186  0299                     	;# 
   187  029A                     	;# 
   188  030C                     	;# 
   189  030D                     	;# 
   190  030E                     	;# 
   191  0311                     	;# 
   192  0311                     	;# 
   193  0312                     	;# 
   194  0313                     	;# 
   195  038C                     	;# 
   196  038D                     	;# 
   197  038E                     	;# 
   198  0390                     	;# 
   199  0391                     	;# 
   200  0392                     	;# 
   201  0393                     	;# 
   202  0394                     	;# 
   203  0395                     	;# 
   204  0396                     	;# 
   205  0397                     	;# 
   206  0398                     	;# 
   207  0399                     	;# 
   208  039D                     	;# 
   209  039E                     	;# 
   210  039F                     	;# 
   211  0511                     	;# 
   212  0513                     	;# 
   213  051A                     	;# 
   214  0591                     	;# 
   215  0592                     	;# 
   216  0592                     	;# 
   217  0593                     	;# 
   218  0594                     	;# 
   219  0594                     	;# 
   220  0595                     	;# 
   221  0596                     	;# 
   222  0596                     	;# 
   223  0E91                     	;# 
   224  0E92                     	;# 
   225  0E93                     	;# 
   226  0E94                     	;# 
   227  0E95                     	;# 
   228  0E96                     	;# 
   229  0E97                     	;# 
   230  0E98                     	;# 
   231  0E99                     	;# 
   232  0E9A                     	;# 
   233  0E9B                     	;# 
   234  0E9C                     	;# 
   235  0E9D                     	;# 
   236  0E9E                     	;# 
   237  0E9F                     	;# 
   238  0EA0                     	;# 
   239  0EA1                     	;# 
   240  0EA1                     	;# 
   241  0EA2                     	;# 
   242  0EA3                     	;# 
   243  0EA3                     	;# 
   244  0EA4                     	;# 
   245  0EA5                     	;# 
   246  0EA5                     	;# 
   247  0EA6                     	;# 
   248  0EA7                     	;# 
   249  0EA7                     	;# 
   250  0EA8                     	;# 
   251  0EA9                     	;# 
   252  0EAA                     	;# 
   253  0EAB                     	;# 
   254  0EAC                     	;# 
   255  0EAD                     	;# 
   256  0EAE                     	;# 
   257  0EAF                     	;# 
   258  0EB1                     	;# 
   259  0EB2                     	;# 
   260  0EB3                     	;# 
   261  0EB4                     	;# 
   262  0EB5                     	;# 
   263  0EB6                     	;# 
   264  0EB7                     	;# 
   265  0EB8                     	;# 
   266  0EB9                     	;# 
   267  0EBA                     	;# 
   268  0EBB                     	;# 
   269  0EBC                     	;# 
   270  0EBD                     	;# 
   271  0EBE                     	;# 
   272  0EBF                     	;# 
   273  0EC0                     	;# 
   274  0EC1                     	;# 
   275  0EC1                     	;# 
   276  0EC2                     	;# 
   277  0EC3                     	;# 
   278  0EC3                     	;# 
   279  0EC4                     	;# 
   280  0EC5                     	;# 
   281  0EC5                     	;# 
   282  0EC6                     	;# 
   283  0EC7                     	;# 
   284  0EC7                     	;# 
   285  0EC8                     	;# 
   286  0EC9                     	;# 
   287  0ECA                     	;# 
   288  0ECB                     	;# 
   289  0ECC                     	;# 
   290  0ECD                     	;# 
   291  0ECE                     	;# 
   292  0ECF                     	;# 
   293  0ED1                     	;# 
   294  0ED2                     	;# 
   295  0ED3                     	;# 
   296  0ED4                     	;# 
   297  0ED5                     	;# 
   298  0ED6                     	;# 
   299  0ED7                     	;# 
   300  0ED8                     	;# 
   301  0ED9                     	;# 
   302  0EDA                     	;# 
   303  0EDB                     	;# 
   304  0EDC                     	;# 
   305  0EDD                     	;# 
   306  0EDE                     	;# 
   307  0EDF                     	;# 
   308  0EE0                     	;# 
   309  0EE1                     	;# 
   310  0EE1                     	;# 
   311  0EE2                     	;# 
   312  0EE3                     	;# 
   313  0EE3                     	;# 
   314  0EE4                     	;# 
   315  0EE5                     	;# 
   316  0EE5                     	;# 
   317  0EE6                     	;# 
   318  0EE7                     	;# 
   319  0EE7                     	;# 
   320  0EE8                     	;# 
   321  0EE9                     	;# 
   322  0EEA                     	;# 
   323  0EEB                     	;# 
   324  0EEC                     	;# 
   325  0EED                     	;# 
   326  0EEE                     	;# 
   327  0EEF                     	;# 
   328  0F11                     	;# 
   329  0F12                     	;# 
   330  0F13                     	;# 
   331  0F14                     	;# 
   332  0F15                     	;# 
   333  0F16                     	;# 
   334  0F17                     	;# 
   335  0F18                     	;# 
   336  0F19                     	;# 
   337  0F1A                     	;# 
   338  0F1B                     	;# 
   339  0F1C                     	;# 
   340  0F1D                     	;# 
   341  0F1E                     	;# 
   342  0F1F                     	;# 
   343  0F20                     	;# 
   344  0F21                     	;# 
   345  0F21                     	;# 
   346  0F22                     	;# 
   347  0F23                     	;# 
   348  0F23                     	;# 
   349  0F24                     	;# 
   350  0F25                     	;# 
   351  0F25                     	;# 
   352  0F26                     	;# 
   353  0F27                     	;# 
   354  0F27                     	;# 
   355  0F28                     	;# 
   356  0F29                     	;# 
   357  0F2A                     	;# 
   358  0F2B                     	;# 
   359  0F2C                     	;# 
   360  0F2D                     	;# 
   361  0F2E                     	;# 
   362  0F2F                     	;# 
   363  0FE4                     	;# 
   364  0FE5                     	;# 
   365  0FE6                     	;# 
   366  0FE7                     	;# 
   367  0FE8                     	;# 
   368  0FE9                     	;# 
   369  0FEA                     	;# 
   370  0FEB                     	;# 
   371  0FED                     	;# 
   372  0FEE                     	;# 
   373  0FEF                     	;# 
   374  0000                     	;# 
   375  0001                     	;# 
   376  0002                     	;# 
   377  0003                     	;# 
   378  0004                     	;# 
   379  0005                     	;# 
   380  0006                     	;# 
   381  0007                     	;# 
   382  0008                     	;# 
   383  0009                     	;# 
   384  000A                     	;# 
   385  000B                     	;# 
   386  000C                     	;# 
   387  000D                     	;# 
   388  000E                     	;# 
   389  0010                     	;# 
   390  0011                     	;# 
   391  0012                     	;# 
   392  0013                     	;# 
   393  0014                     	;# 
   394  0015                     	;# 
   395  0016                     	;# 
   396  0016                     	;# 
   397  0017                     	;# 
   398  0018                     	;# 
   399  0019                     	;# 
   400  001A                     	;# 
   401  001B                     	;# 
   402  001C                     	;# 
   403  008C                     	;# 
   404  008D                     	;# 
   405  008E                     	;# 
   406  0090                     	;# 
   407  0091                     	;# 
   408  0092                     	;# 
   409  0093                     	;# 
   410  0094                     	;# 
   411  0095                     	;# 
   412  0096                     	;# 
   413  0097                     	;# 
   414  0098                     	;# 
   415  0099                     	;# 
   416  009A                     	;# 
   417  009B                     	;# 
   418  009B                     	;# 
   419  009C                     	;# 
   420  009D                     	;# 
   421  009E                     	;# 
   422  009F                     	;# 
   423  010C                     	;# 
   424  010D                     	;# 
   425  010E                     	;# 
   426  0111                     	;# 
   427  0112                     	;# 
   428  0113                     	;# 
   429  0114                     	;# 
   430  0115                     	;# 
   431  0116                     	;# 
   432  0117                     	;# 
   433  0118                     	;# 
   434  0119                     	;# 
   435  011A                     	;# 
   436  011B                     	;# 
   437  011C                     	;# 
   438  011D                     	;# 
   439  011D                     	;# 
   440  011D                     	;# 
   441  011E                     	;# 
   442  011F                     	;# 
   443  018C                     	;# 
   444  018D                     	;# 
   445  018E                     	;# 
   446  0191                     	;# 
   447  0191                     	;# 
   448  0192                     	;# 
   449  0193                     	;# 
   450  0193                     	;# 
   451  0193                     	;# 
   452  0194                     	;# 
   453  0195                     	;# 
   454  0196                     	;# 
   455  0197                     	;# 
   456  0199                     	;# 
   457  0199                     	;# 
   458  0199                     	;# 
   459  019A                     	;# 
   460  019A                     	;# 
   461  019A                     	;# 
   462  019B                     	;# 
   463  019B                     	;# 
   464  019B                     	;# 
   465  019B                     	;# 
   466  019B                     	;# 
   467  019C                     	;# 
   468  019C                     	;# 
   469  019C                     	;# 
   470  019D                     	;# 
   471  019D                     	;# 
   472  019D                     	;# 
   473  019E                     	;# 
   474  019E                     	;# 
   475  019E                     	;# 
   476  019F                     	;# 
   477  019F                     	;# 
   478  019F                     	;# 
   479  019F                     	;# 
   480  019F                     	;# 
   481  020C                     	;# 
   482  020D                     	;# 
   483  020E                     	;# 
   484  0210                     	;# 
   485  0211                     	;# 
   486  0211                     	;# 
   487  0212                     	;# 
   488  0212                     	;# 
   489  0213                     	;# 
   490  0213                     	;# 
   491  0214                     	;# 
   492  0214                     	;# 
   493  0215                     	;# 
   494  0215                     	;# 
   495  0215                     	;# 
   496  0215                     	;# 
   497  0216                     	;# 
   498  0216                     	;# 
   499  0217                     	;# 
   500  0217                     	;# 
   501  028C                     	;# 
   502  028D                     	;# 
   503  028E                     	;# 
   504  0291                     	;# 
   505  0291                     	;# 
   506  0292                     	;# 
   507  0293                     	;# 
   508  0298                     	;# 
   509  0298                     	;# 
   510  0299                     	;# 
   511  029A                     	;# 
   512  030C                     	;# 
   513  030D                     	;# 
   514  030E                     	;# 
   515  0311                     	;# 
   516  0311                     	;# 
   517  0312                     	;# 
   518  0313                     	;# 
   519  038C                     	;# 
   520  038D                     	;# 
   521  038E                     	;# 
   522  0390                     	;# 
   523  0391                     	;# 
   524  0392                     	;# 
   525  0393                     	;# 
   526  0394                     	;# 
   527  0395                     	;# 
   528  0396                     	;# 
   529  0397                     	;# 
   530  0398                     	;# 
   531  0399                     	;# 
   532  039D                     	;# 
   533  039E                     	;# 
   534  039F                     	;# 
   535  0511                     	;# 
   536  0513                     	;# 
   537  051A                     	;# 
   538  0591                     	;# 
   539  0592                     	;# 
   540  0592                     	;# 
   541  0593                     	;# 
   542  0594                     	;# 
   543  0594                     	;# 
   544  0595                     	;# 
   545  0596                     	;# 
   546  0596                     	;# 
   547  0E91                     	;# 
   548  0E92                     	;# 
   549  0E93                     	;# 
   550  0E94                     	;# 
   551  0E95                     	;# 
   552  0E96                     	;# 
   553  0E97                     	;# 
   554  0E98                     	;# 
   555  0E99                     	;# 
   556  0E9A                     	;# 
   557  0E9B                     	;# 
   558  0E9C                     	;# 
   559  0E9D                     	;# 
   560  0E9E                     	;# 
   561  0E9F                     	;# 
   562  0EA0                     	;# 
   563  0EA1                     	;# 
   564  0EA1                     	;# 
   565  0EA2                     	;# 
   566  0EA3                     	;# 
   567  0EA3                     	;# 
   568  0EA4                     	;# 
   569  0EA5                     	;# 
   570  0EA5                     	;# 
   571  0EA6                     	;# 
   572  0EA7                     	;# 
   573  0EA7                     	;# 
   574  0EA8                     	;# 
   575  0EA9                     	;# 
   576  0EAA                     	;# 
   577  0EAB                     	;# 
   578  0EAC                     	;# 
   579  0EAD                     	;# 
   580  0EAE                     	;# 
   581  0EAF                     	;# 
   582  0EB1                     	;# 
   583  0EB2                     	;# 
   584  0EB3                     	;# 
   585  0EB4                     	;# 
   586  0EB5                     	;# 
   587  0EB6                     	;# 
   588  0EB7                     	;# 
   589  0EB8                     	;# 
   590  0EB9                     	;# 
   591  0EBA                     	;# 
   592  0EBB                     	;# 
   593  0EBC                     	;# 
   594  0EBD                     	;# 
   595  0EBE                     	;# 
   596  0EBF                     	;# 
   597  0EC0                     	;# 
   598  0EC1                     	;# 
   599  0EC1                     	;# 
   600  0EC2                     	;# 
   601  0EC3                     	;# 
   602  0EC3                     	;# 
   603  0EC4                     	;# 
   604  0EC5                     	;# 
   605  0EC5                     	;# 
   606  0EC6                     	;# 
   607  0EC7                     	;# 
   608  0EC7                     	;# 
   609  0EC8                     	;# 
   610  0EC9                     	;# 
   611  0ECA                     	;# 
   612  0ECB                     	;# 
   613  0ECC                     	;# 
   614  0ECD                     	;# 
   615  0ECE                     	;# 
   616  0ECF                     	;# 
   617  0ED1                     	;# 
   618  0ED2                     	;# 
   619  0ED3                     	;# 
   620  0ED4                     	;# 
   621  0ED5                     	;# 
   622  0ED6                     	;# 
   623  0ED7                     	;# 
   624  0ED8                     	;# 
   625  0ED9                     	;# 
   626  0EDA                     	;# 
   627  0EDB                     	;# 
   628  0EDC                     	;# 
   629  0EDD                     	;# 
   630  0EDE                     	;# 
   631  0EDF                     	;# 
   632  0EE0                     	;# 
   633  0EE1                     	;# 
   634  0EE1                     	;# 
   635  0EE2                     	;# 
   636  0EE3                     	;# 
   637  0EE3                     	;# 
   638  0EE4                     	;# 
   639  0EE5                     	;# 
   640  0EE5                     	;# 
   641  0EE6                     	;# 
   642  0EE7                     	;# 
   643  0EE7                     	;# 
   644  0EE8                     	;# 
   645  0EE9                     	;# 
   646  0EEA                     	;# 
   647  0EEB                     	;# 
   648  0EEC                     	;# 
   649  0EED                     	;# 
   650  0EEE                     	;# 
   651  0EEF                     	;# 
   652  0F11                     	;# 
   653  0F12                     	;# 
   654  0F13                     	;# 
   655  0F14                     	;# 
   656  0F15                     	;# 
   657  0F16                     	;# 
   658  0F17                     	;# 
   659  0F18                     	;# 
   660  0F19                     	;# 
   661  0F1A                     	;# 
   662  0F1B                     	;# 
   663  0F1C                     	;# 
   664  0F1D                     	;# 
   665  0F1E                     	;# 
   666  0F1F                     	;# 
   667  0F20                     	;# 
   668  0F21                     	;# 
   669  0F21                     	;# 
   670  0F22                     	;# 
   671  0F23                     	;# 
   672  0F23                     	;# 
   673  0F24                     	;# 
   674  0F25                     	;# 
   675  0F25                     	;# 
   676  0F26                     	;# 
   677  0F27                     	;# 
   678  0F27                     	;# 
   679  0F28                     	;# 
   680  0F29                     	;# 
   681  0F2A                     	;# 
   682  0F2B                     	;# 
   683  0F2C                     	;# 
   684  0F2D                     	;# 
   685  0F2E                     	;# 
   686  0F2F                     	;# 
   687  0FE4                     	;# 
   688  0FE5                     	;# 
   689  0FE6                     	;# 
   690  0FE7                     	;# 
   691  0FE8                     	;# 
   692  0FE9                     	;# 
   693  0FEA                     	;# 
   694  0FEB                     	;# 
   695  0FED                     	;# 
   696  0FEE                     	;# 
   697  0FEF                     	;# 
   698  0000                     	;# 
   699  0001                     	;# 
   700  0002                     	;# 
   701  0003                     	;# 
   702  0004                     	;# 
   703  0005                     	;# 
   704  0006                     	;# 
   705  0007                     	;# 
   706  0008                     	;# 
   707  0009                     	;# 
   708  000A                     	;# 
   709  000B                     	;# 
   710  000C                     	;# 
   711  000D                     	;# 
   712  000E                     	;# 
   713  0010                     	;# 
   714  0011                     	;# 
   715  0012                     	;# 
   716  0013                     	;# 
   717  0014                     	;# 
   718  0015                     	;# 
   719  0016                     	;# 
   720  0016                     	;# 
   721  0017                     	;# 
   722  0018                     	;# 
   723  0019                     	;# 
   724  001A                     	;# 
   725  001B                     	;# 
   726  001C                     	;# 
   727  008C                     	;# 
   728  008D                     	;# 
   729  008E                     	;# 
   730  0090                     	;# 
   731  0091                     	;# 
   732  0092                     	;# 
   733  0093                     	;# 
   734  0094                     	;# 
   735  0095                     	;# 
   736  0096                     	;# 
   737  0097                     	;# 
   738  0098                     	;# 
   739  0099                     	;# 
   740  009A                     	;# 
   741  009B                     	;# 
   742  009B                     	;# 
   743  009C                     	;# 
   744  009D                     	;# 
   745  009E                     	;# 
   746  009F                     	;# 
   747  010C                     	;# 
   748  010D                     	;# 
   749  010E                     	;# 
   750  0111                     	;# 
   751  0112                     	;# 
   752  0113                     	;# 
   753  0114                     	;# 
   754  0115                     	;# 
   755  0116                     	;# 
   756  0117                     	;# 
   757  0118                     	;# 
   758  0119                     	;# 
   759  011A                     	;# 
   760  011B                     	;# 
   761  011C                     	;# 
   762  011D                     	;# 
   763  011D                     	;# 
   764  011D                     	;# 
   765  011E                     	;# 
   766  011F                     	;# 
   767  018C                     	;# 
   768  018D                     	;# 
   769  018E                     	;# 
   770  0191                     	;# 
   771  0191                     	;# 
   772  0192                     	;# 
   773  0193                     	;# 
   774  0193                     	;# 
   775  0193                     	;# 
   776  0194                     	;# 
   777  0195                     	;# 
   778  0196                     	;# 
   779  0197                     	;# 
   780  0199                     	;# 
   781  0199                     	;# 
   782  0199                     	;# 
   783  019A                     	;# 
   784  019A                     	;# 
   785  019A                     	;# 
   786  019B                     	;# 
   787  019B                     	;# 
   788  019B                     	;# 
   789  019B                     	;# 
   790  019B                     	;# 
   791  019C                     	;# 
   792  019C                     	;# 
   793  019C                     	;# 
   794  019D                     	;# 
   795  019D                     	;# 
   796  019D                     	;# 
   797  019E                     	;# 
   798  019E                     	;# 
   799  019E                     	;# 
   800  019F                     	;# 
   801  019F                     	;# 
   802  019F                     	;# 
   803  019F                     	;# 
   804  019F                     	;# 
   805  020C                     	;# 
   806  020D                     	;# 
   807  020E                     	;# 
   808  0210                     	;# 
   809  0211                     	;# 
   810  0211                     	;# 
   811  0212                     	;# 
   812  0212                     	;# 
   813  0213                     	;# 
   814  0213                     	;# 
   815  0214                     	;# 
   816  0214                     	;# 
   817  0215                     	;# 
   818  0215                     	;# 
   819  0215                     	;# 
   820  0215                     	;# 
   821  0216                     	;# 
   822  0216                     	;# 
   823  0217                     	;# 
   824  0217                     	;# 
   825  028C                     	;# 
   826  028D                     	;# 
   827  028E                     	;# 
   828  0291                     	;# 
   829  0291                     	;# 
   830  0292                     	;# 
   831  0293                     	;# 
   832  0298                     	;# 
   833  0298                     	;# 
   834  0299                     	;# 
   835  029A                     	;# 
   836  030C                     	;# 
   837  030D                     	;# 
   838  030E                     	;# 
   839  0311                     	;# 
   840  0311                     	;# 
   841  0312                     	;# 
   842  0313                     	;# 
   843  038C                     	;# 
   844  038D                     	;# 
   845  038E                     	;# 
   846  0390                     	;# 
   847  0391                     	;# 
   848  0392                     	;# 
   849  0393                     	;# 
   850  0394                     	;# 
   851  0395                     	;# 
   852  0396                     	;# 
   853  0397                     	;# 
   854  0398                     	;# 
   855  0399                     	;# 
   856  039D                     	;# 
   857  039E                     	;# 
   858  039F                     	;# 
   859  0511                     	;# 
   860  0513                     	;# 
   861  051A                     	;# 
   862  0591                     	;# 
   863  0592                     	;# 
   864  0592                     	;# 
   865  0593                     	;# 
   866  0594                     	;# 
   867  0594                     	;# 
   868  0595                     	;# 
   869  0596                     	;# 
   870  0596                     	;# 
   871  0E91                     	;# 
   872  0E92                     	;# 
   873  0E93                     	;# 
   874  0E94                     	;# 
   875  0E95                     	;# 
   876  0E96                     	;# 
   877  0E97                     	;# 
   878  0E98                     	;# 
   879  0E99                     	;# 
   880  0E9A                     	;# 
   881  0E9B                     	;# 
   882  0E9C                     	;# 
   883  0E9D                     	;# 
   884  0E9E                     	;# 
   885  0E9F                     	;# 
   886  0EA0                     	;# 
   887  0EA1                     	;# 
   888  0EA1                     	;# 
   889  0EA2                     	;# 
   890  0EA3                     	;# 
   891  0EA3                     	;# 
   892  0EA4                     	;# 
   893  0EA5                     	;# 
   894  0EA5                     	;# 
   895  0EA6                     	;# 
   896  0EA7                     	;# 
   897  0EA7                     	;# 
   898  0EA8                     	;# 
   899  0EA9                     	;# 
   900  0EAA                     	;# 
   901  0EAB                     	;# 
   902  0EAC                     	;# 
   903  0EAD                     	;# 
   904  0EAE                     	;# 
   905  0EAF                     	;# 
   906  0EB1                     	;# 
   907  0EB2                     	;# 
   908  0EB3                     	;# 
   909  0EB4                     	;# 
   910  0EB5                     	;# 
   911  0EB6                     	;# 
   912  0EB7                     	;# 
   913  0EB8                     	;# 
   914  0EB9                     	;# 
   915  0EBA                     	;# 
   916  0EBB                     	;# 
   917  0EBC                     	;# 
   918  0EBD                     	;# 
   919  0EBE                     	;# 
   920  0EBF                     	;# 
   921  0EC0                     	;# 
   922  0EC1                     	;# 
   923  0EC1                     	;# 
   924  0EC2                     	;# 
   925  0EC3                     	;# 
   926  0EC3                     	;# 
   927  0EC4                     	;# 
   928  0EC5                     	;# 
   929  0EC5                     	;# 
   930  0EC6                     	;# 
   931  0EC7                     	;# 
   932  0EC7                     	;# 
   933  0EC8                     	;# 
   934  0EC9                     	;# 
   935  0ECA                     	;# 
   936  0ECB                     	;# 
   937  0ECC                     	;# 
   938  0ECD                     	;# 
   939  0ECE                     	;# 
   940  0ECF                     	;# 
   941  0ED1                     	;# 
   942  0ED2                     	;# 
   943  0ED3                     	;# 
   944  0ED4                     	;# 
   945  0ED5                     	;# 
   946  0ED6                     	;# 
   947  0ED7                     	;# 
   948  0ED8                     	;# 
   949  0ED9                     	;# 
   950  0EDA                     	;# 
   951  0EDB                     	;# 
   952  0EDC                     	;# 
   953  0EDD                     	;# 
   954  0EDE                     	;# 
   955  0EDF                     	;# 
   956  0EE0                     	;# 
   957  0EE1                     	;# 
   958  0EE1                     	;# 
   959  0EE2                     	;# 
   960  0EE3                     	;# 
   961  0EE3                     	;# 
   962  0EE4                     	;# 
   963  0EE5                     	;# 
   964  0EE5                     	;# 
   965  0EE6                     	;# 
   966  0EE7                     	;# 
   967  0EE7                     	;# 
   968  0EE8                     	;# 
   969  0EE9                     	;# 
   970  0EEA                     	;# 
   971  0EEB                     	;# 
   972  0EEC                     	;# 
   973  0EED                     	;# 
   974  0EEE                     	;# 
   975  0EEF                     	;# 
   976  0F11                     	;# 
   977  0F12                     	;# 
   978  0F13                     	;# 
   979  0F14                     	;# 
   980  0F15                     	;# 
   981  0F16                     	;# 
   982  0F17                     	;# 
   983  0F18                     	;# 
   984  0F19                     	;# 
   985  0F1A                     	;# 
   986  0F1B                     	;# 
   987  0F1C                     	;# 
   988  0F1D                     	;# 
   989  0F1E                     	;# 
   990  0F1F                     	;# 
   991  0F20                     	;# 
   992  0F21                     	;# 
   993  0F21                     	;# 
   994  0F22                     	;# 
   995  0F23                     	;# 
   996  0F23                     	;# 
   997  0F24                     	;# 
   998  0F25                     	;# 
   999  0F25                     	;# 
  1000  0F26                     	;# 
  1001  0F27                     	;# 
  1002  0F27                     	;# 
  1003  0F28                     	;# 
  1004  0F29                     	;# 
  1005  0F2A                     	;# 
  1006  0F2B                     	;# 
  1007  0F2C                     	;# 
  1008  0F2D                     	;# 
  1009  0F2E                     	;# 
  1010  0F2F                     	;# 
  1011  0FE4                     	;# 
  1012  0FE5                     	;# 
  1013  0FE6                     	;# 
  1014  0FE7                     	;# 
  1015  0FE8                     	;# 
  1016  0FE9                     	;# 
  1017  0FEA                     	;# 
  1018  0FEB                     	;# 
  1019  0FED                     	;# 
  1020  0FEE                     	;# 
  1021  0FEF                     	;# 
  1022  0000                     	;# 
  1023  0001                     	;# 
  1024  0002                     	;# 
  1025  0003                     	;# 
  1026  0004                     	;# 
  1027  0005                     	;# 
  1028  0006                     	;# 
  1029  0007                     	;# 
  1030  0008                     	;# 
  1031  0009                     	;# 
  1032  000A                     	;# 
  1033  000B                     	;# 
  1034  000C                     	;# 
  1035  000D                     	;# 
  1036  000E                     	;# 
  1037  0010                     	;# 
  1038  0011                     	;# 
  1039  0012                     	;# 
  1040  0013                     	;# 
  1041  0014                     	;# 
  1042  0015                     	;# 
  1043  0016                     	;# 
  1044  0016                     	;# 
  1045  0017                     	;# 
  1046  0018                     	;# 
  1047  0019                     	;# 
  1048  001A                     	;# 
  1049  001B                     	;# 
  1050  001C                     	;# 
  1051  008C                     	;# 
  1052  008D                     	;# 
  1053  008E                     	;# 
  1054  0090                     	;# 
  1055  0091                     	;# 
  1056  0092                     	;# 
  1057  0093                     	;# 
  1058  0094                     	;# 
  1059  0095                     	;# 
  1060  0096                     	;# 
  1061  0097                     	;# 
  1062  0098                     	;# 
  1063  0099                     	;# 
  1064  009A                     	;# 
  1065  009B                     	;# 
  1066  009B                     	;# 
  1067  009C                     	;# 
  1068  009D                     	;# 
  1069  009E                     	;# 
  1070  009F                     	;# 
  1071  010C                     	;# 
  1072  010D                     	;# 
  1073  010E                     	;# 
  1074  0111                     	;# 
  1075  0112                     	;# 
  1076  0113                     	;# 
  1077  0114                     	;# 
  1078  0115                     	;# 
  1079  0116                     	;# 
  1080  0117                     	;# 
  1081  0118                     	;# 
  1082  0119                     	;# 
  1083  011A                     	;# 
  1084  011B                     	;# 
  1085  011C                     	;# 
  1086  011D                     	;# 
  1087  011D                     	;# 
  1088  011D                     	;# 
  1089  011E                     	;# 
  1090  011F                     	;# 
  1091  018C                     	;# 
  1092  018D                     	;# 
  1093  018E                     	;# 
  1094  0191                     	;# 
  1095  0191                     	;# 
  1096  0192                     	;# 
  1097  0193                     	;# 
  1098  0193                     	;# 
  1099  0193                     	;# 
  1100  0194                     	;# 
  1101  0195                     	;# 
  1102  0196                     	;# 
  1103  0197                     	;# 
  1104  0199                     	;# 
  1105  0199                     	;# 
  1106  0199                     	;# 
  1107  019A                     	;# 
  1108  019A                     	;# 
  1109  019A                     	;# 
  1110  019B                     	;# 
  1111  019B                     	;# 
  1112  019B                     	;# 
  1113  019B                     	;# 
  1114  019B                     	;# 
  1115  019C                     	;# 
  1116  019C                     	;# 
  1117  019C                     	;# 
  1118  019D                     	;# 
  1119  019D                     	;# 
  1120  019D                     	;# 
  1121  019E                     	;# 
  1122  019E                     	;# 
  1123  019E                     	;# 
  1124  019F                     	;# 
  1125  019F                     	;# 
  1126  019F                     	;# 
  1127  019F                     	;# 
  1128  019F                     	;# 
  1129  020C                     	;# 
  1130  020D                     	;# 
  1131  020E                     	;# 
  1132  0210                     	;# 
  1133  0211                     	;# 
  1134  0211                     	;# 
  1135  0212                     	;# 
  1136  0212                     	;# 
  1137  0213                     	;# 
  1138  0213                     	;# 
  1139  0214                     	;# 
  1140  0214                     	;# 
  1141  0215                     	;# 
  1142  0215                     	;# 
  1143  0215                     	;# 
  1144  0215                     	;# 
  1145  0216                     	;# 
  1146  0216                     	;# 
  1147  0217                     	;# 
  1148  0217                     	;# 
  1149  028C                     	;# 
  1150  028D                     	;# 
  1151  028E                     	;# 
  1152  0291                     	;# 
  1153  0291                     	;# 
  1154  0292                     	;# 
  1155  0293                     	;# 
  1156  0298                     	;# 
  1157  0298                     	;# 
  1158  0299                     	;# 
  1159  029A                     	;# 
  1160  030C                     	;# 
  1161  030D                     	;# 
  1162  030E                     	;# 
  1163  0311                     	;# 
  1164  0311                     	;# 
  1165  0312                     	;# 
  1166  0313                     	;# 
  1167  038C                     	;# 
  1168  038D                     	;# 
  1169  038E                     	;# 
  1170  0390                     	;# 
  1171  0391                     	;# 
  1172  0392                     	;# 
  1173  0393                     	;# 
  1174  0394                     	;# 
  1175  0395                     	;# 
  1176  0396                     	;# 
  1177  0397                     	;# 
  1178  0398                     	;# 
  1179  0399                     	;# 
  1180  039D                     	;# 
  1181  039E                     	;# 
  1182  039F                     	;# 
  1183  0511                     	;# 
  1184  0513                     	;# 
  1185  051A                     	;# 
  1186  0591                     	;# 
  1187  0592                     	;# 
  1188  0592                     	;# 
  1189  0593                     	;# 
  1190  0594                     	;# 
  1191  0594                     	;# 
  1192  0595                     	;# 
  1193  0596                     	;# 
  1194  0596                     	;# 
  1195  0E91                     	;# 
  1196  0E92                     	;# 
  1197  0E93                     	;# 
  1198  0E94                     	;# 
  1199  0E95                     	;# 
  1200  0E96                     	;# 
  1201  0E97                     	;# 
  1202  0E98                     	;# 
  1203  0E99                     	;# 
  1204  0E9A                     	;# 
  1205  0E9B                     	;# 
  1206  0E9C                     	;# 
  1207  0E9D                     	;# 
  1208  0E9E                     	;# 
  1209  0E9F                     	;# 
  1210  0EA0                     	;# 
  1211  0EA1                     	;# 
  1212  0EA1                     	;# 
  1213  0EA2                     	;# 
  1214  0EA3                     	;# 
  1215  0EA3                     	;# 
  1216  0EA4                     	;# 
  1217  0EA5                     	;# 
  1218  0EA5                     	;# 
  1219  0EA6                     	;# 
  1220  0EA7                     	;# 
  1221  0EA7                     	;# 
  1222  0EA8                     	;# 
  1223  0EA9                     	;# 
  1224  0EAA                     	;# 
  1225  0EAB                     	;# 
  1226  0EAC                     	;# 
  1227  0EAD                     	;# 
  1228  0EAE                     	;# 
  1229  0EAF                     	;# 
  1230  0EB1                     	;# 
  1231  0EB2                     	;# 
  1232  0EB3                     	;# 
  1233  0EB4                     	;# 
  1234  0EB5                     	;# 
  1235  0EB6                     	;# 
  1236  0EB7                     	;# 
  1237  0EB8                     	;# 
  1238  0EB9                     	;# 
  1239  0EBA                     	;# 
  1240  0EBB                     	;# 
  1241  0EBC                     	;# 
  1242  0EBD                     	;# 
  1243  0EBE                     	;# 
  1244  0EBF                     	;# 
  1245  0EC0                     	;# 
  1246  0EC1                     	;# 
  1247  0EC1                     	;# 
  1248  0EC2                     	;# 
  1249  0EC3                     	;# 
  1250  0EC3                     	;# 
  1251  0EC4                     	;# 
  1252  0EC5                     	;# 
  1253  0EC5                     	;# 
  1254  0EC6                     	;# 
  1255  0EC7                     	;# 
  1256  0EC7                     	;# 
  1257  0EC8                     	;# 
  1258  0EC9                     	;# 
  1259  0ECA                     	;# 
  1260  0ECB                     	;# 
  1261  0ECC                     	;# 
  1262  0ECD                     	;# 
  1263  0ECE                     	;# 
  1264  0ECF                     	;# 
  1265  0ED1                     	;# 
  1266  0ED2                     	;# 
  1267  0ED3                     	;# 
  1268  0ED4                     	;# 
  1269  0ED5                     	;# 
  1270  0ED6                     	;# 
  1271  0ED7                     	;# 
  1272  0ED8                     	;# 
  1273  0ED9                     	;# 
  1274  0EDA                     	;# 
  1275  0EDB                     	;# 
  1276  0EDC                     	;# 
  1277  0EDD                     	;# 
  1278  0EDE                     	;# 
  1279  0EDF                     	;# 
  1280  0EE0                     	;# 
  1281  0EE1                     	;# 
  1282  0EE1                     	;# 
  1283  0EE2                     	;# 
  1284  0EE3                     	;# 
  1285  0EE3                     	;# 
  1286  0EE4                     	;# 
  1287  0EE5                     	;# 
  1288  0EE5                     	;# 
  1289  0EE6                     	;# 
  1290  0EE7                     	;# 
  1291  0EE7                     	;# 
  1292  0EE8                     	;# 
  1293  0EE9                     	;# 
  1294  0EEA                     	;# 
  1295  0EEB                     	;# 
  1296  0EEC                     	;# 
  1297  0EED                     	;# 
  1298  0EEE                     	;# 
  1299  0EEF                     	;# 
  1300  0F11                     	;# 
  1301  0F12                     	;# 
  1302  0F13                     	;# 
  1303  0F14                     	;# 
  1304  0F15                     	;# 
  1305  0F16                     	;# 
  1306  0F17                     	;# 
  1307  0F18                     	;# 
  1308  0F19                     	;# 
  1309  0F1A                     	;# 
  1310  0F1B                     	;# 
  1311  0F1C                     	;# 
  1312  0F1D                     	;# 
  1313  0F1E                     	;# 
  1314  0F1F                     	;# 
  1315  0F20                     	;# 
  1316  0F21                     	;# 
  1317  0F21                     	;# 
  1318  0F22                     	;# 
  1319  0F23                     	;# 
  1320  0F23                     	;# 
  1321  0F24                     	;# 
  1322  0F25                     	;# 
  1323  0F25                     	;# 
  1324  0F26                     	;# 
  1325  0F27                     	;# 
  1326  0F27                     	;# 
  1327  0F28                     	;# 
  1328  0F29                     	;# 
  1329  0F2A                     	;# 
  1330  0F2B                     	;# 
  1331  0F2C                     	;# 
  1332  0F2D                     	;# 
  1333  0F2E                     	;# 
  1334  0F2F                     	;# 
  1335  0FE4                     	;# 
  1336  0FE5                     	;# 
  1337  0FE6                     	;# 
  1338  0FE7                     	;# 
  1339  0FE8                     	;# 
  1340  0FE9                     	;# 
  1341  0FEA                     	;# 
  1342  0FEB                     	;# 
  1343  0FED                     	;# 
  1344  0FEE                     	;# 
  1345  0FEF                     	;# 
  1346  0000                     	;# 
  1347  0001                     	;# 
  1348  0002                     	;# 
  1349  0003                     	;# 
  1350  0004                     	;# 
  1351  0005                     	;# 
  1352  0006                     	;# 
  1353  0007                     	;# 
  1354  0008                     	;# 
  1355  0009                     	;# 
  1356  000A                     	;# 
  1357  000B                     	;# 
  1358  000C                     	;# 
  1359  000D                     	;# 
  1360  000E                     	;# 
  1361  0010                     	;# 
  1362  0011                     	;# 
  1363  0012                     	;# 
  1364  0013                     	;# 
  1365  0014                     	;# 
  1366  0015                     	;# 
  1367  0016                     	;# 
  1368  0016                     	;# 
  1369  0017                     	;# 
  1370  0018                     	;# 
  1371  0019                     	;# 
  1372  001A                     	;# 
  1373  001B                     	;# 
  1374  001C                     	;# 
  1375  008C                     	;# 
  1376  008D                     	;# 
  1377  008E                     	;# 
  1378  0090                     	;# 
  1379  0091                     	;# 
  1380  0092                     	;# 
  1381  0093                     	;# 
  1382  0094                     	;# 
  1383  0095                     	;# 
  1384  0096                     	;# 
  1385  0097                     	;# 
  1386  0098                     	;# 
  1387  0099                     	;# 
  1388  009A                     	;# 
  1389  009B                     	;# 
  1390  009B                     	;# 
  1391  009C                     	;# 
  1392  009D                     	;# 
  1393  009E                     	;# 
  1394  009F                     	;# 
  1395  010C                     	;# 
  1396  010D                     	;# 
  1397  010E                     	;# 
  1398  0111                     	;# 
  1399  0112                     	;# 
  1400  0113                     	;# 
  1401  0114                     	;# 
  1402  0115                     	;# 
  1403  0116                     	;# 
  1404  0117                     	;# 
  1405  0118                     	;# 
  1406  0119                     	;# 
  1407  011A                     	;# 
  1408  011B                     	;# 
  1409  011C                     	;# 
  1410  011D                     	;# 
  1411  011D                     	;# 
  1412  011D                     	;# 
  1413  011E                     	;# 
  1414  011F                     	;# 
  1415  018C                     	;# 
  1416  018D                     	;# 
  1417  018E                     	;# 
  1418  0191                     	;# 
  1419  0191                     	;# 
  1420  0192                     	;# 
  1421  0193                     	;# 
  1422  0193                     	;# 
  1423  0193                     	;# 
  1424  0194                     	;# 
  1425  0195                     	;# 
  1426  0196                     	;# 
  1427  0197                     	;# 
  1428  0199                     	;# 
  1429  0199                     	;# 
  1430  0199                     	;# 
  1431  019A                     	;# 
  1432  019A                     	;# 
  1433  019A                     	;# 
  1434  019B                     	;# 
  1435  019B                     	;# 
  1436  019B                     	;# 
  1437  019B                     	;# 
  1438  019B                     	;# 
  1439  019C                     	;# 
  1440  019C                     	;# 
  1441  019C                     	;# 
  1442  019D                     	;# 
  1443  019D                     	;# 
  1444  019D                     	;# 
  1445  019E                     	;# 
  1446  019E                     	;# 
  1447  019E                     	;# 
  1448  019F                     	;# 
  1449  019F                     	;# 
  1450  019F                     	;# 
  1451  019F                     	;# 
  1452  019F                     	;# 
  1453  020C                     	;# 
  1454  020D                     	;# 
  1455  020E                     	;# 
  1456  0210                     	;# 
  1457  0211                     	;# 
  1458  0211                     	;# 
  1459  0212                     	;# 
  1460  0212                     	;# 
  1461  0213                     	;# 
  1462  0213                     	;# 
  1463  0214                     	;# 
  1464  0214                     	;# 
  1465  0215                     	;# 
  1466  0215                     	;# 
  1467  0215                     	;# 
  1468  0215                     	;# 
  1469  0216                     	;# 
  1470  0216                     	;# 
  1471  0217                     	;# 
  1472  0217                     	;# 
  1473  028C                     	;# 
  1474  028D                     	;# 
  1475  028E                     	;# 
  1476  0291                     	;# 
  1477  0291                     	;# 
  1478  0292                     	;# 
  1479  0293                     	;# 
  1480  0298                     	;# 
  1481  0298                     	;# 
  1482  0299                     	;# 
  1483  029A                     	;# 
  1484  030C                     	;# 
  1485  030D                     	;# 
  1486  030E                     	;# 
  1487  0311                     	;# 
  1488  0311                     	;# 
  1489  0312                     	;# 
  1490  0313                     	;# 
  1491  038C                     	;# 
  1492  038D                     	;# 
  1493  038E                     	;# 
  1494  0390                     	;# 
  1495  0391                     	;# 
  1496  0392                     	;# 
  1497  0393                     	;# 
  1498  0394                     	;# 
  1499  0395                     	;# 
  1500  0396                     	;# 
  1501  0397                     	;# 
  1502  0398                     	;# 
  1503  0399                     	;# 
  1504  039D                     	;# 
  1505  039E                     	;# 
  1506  039F                     	;# 
  1507  0511                     	;# 
  1508  0513                     	;# 
  1509  051A                     	;# 
  1510  0591                     	;# 
  1511  0592                     	;# 
  1512  0592                     	;# 
  1513  0593                     	;# 
  1514  0594                     	;# 
  1515  0594                     	;# 
  1516  0595                     	;# 
  1517  0596                     	;# 
  1518  0596                     	;# 
  1519  0E91                     	;# 
  1520  0E92                     	;# 
  1521  0E93                     	;# 
  1522  0E94                     	;# 
  1523  0E95                     	;# 
  1524  0E96                     	;# 
  1525  0E97                     	;# 
  1526  0E98                     	;# 
  1527  0E99                     	;# 
  1528  0E9A                     	;# 
  1529  0E9B                     	;# 
  1530  0E9C                     	;# 
  1531  0E9D                     	;# 
  1532  0E9E                     	;# 
  1533  0E9F                     	;# 
  1534  0EA0                     	;# 
  1535  0EA1                     	;# 
  1536  0EA1                     	;# 
  1537  0EA2                     	;# 
  1538  0EA3                     	;# 
  1539  0EA3                     	;# 
  1540  0EA4                     	;# 
  1541  0EA5                     	;# 
  1542  0EA5                     	;# 
  1543  0EA6                     	;# 
  1544  0EA7                     	;# 
  1545  0EA7                     	;# 
  1546  0EA8                     	;# 
  1547  0EA9                     	;# 
  1548  0EAA                     	;# 
  1549  0EAB                     	;# 
  1550  0EAC                     	;# 
  1551  0EAD                     	;# 
  1552  0EAE                     	;# 
  1553  0EAF                     	;# 
  1554  0EB1                     	;# 
  1555  0EB2                     	;# 
  1556  0EB3                     	;# 
  1557  0EB4                     	;# 
  1558  0EB5                     	;# 
  1559  0EB6                     	;# 
  1560  0EB7                     	;# 
  1561  0EB8                     	;# 
  1562  0EB9                     	;# 
  1563  0EBA                     	;# 
  1564  0EBB                     	;# 
  1565  0EBC                     	;# 
  1566  0EBD                     	;# 
  1567  0EBE                     	;# 
  1568  0EBF                     	;# 
  1569  0EC0                     	;# 
  1570  0EC1                     	;# 
  1571  0EC1                     	;# 
  1572  0EC2                     	;# 
  1573  0EC3                     	;# 
  1574  0EC3                     	;# 
  1575  0EC4                     	;# 
  1576  0EC5                     	;# 
  1577  0EC5                     	;# 
  1578  0EC6                     	;# 
  1579  0EC7                     	;# 
  1580  0EC7                     	;# 
  1581  0EC8                     	;# 
  1582  0EC9                     	;# 
  1583  0ECA                     	;# 
  1584  0ECB                     	;# 
  1585  0ECC                     	;# 
  1586  0ECD                     	;# 
  1587  0ECE                     	;# 
  1588  0ECF                     	;# 
  1589  0ED1                     	;# 
  1590  0ED2                     	;# 
  1591  0ED3                     	;# 
  1592  0ED4                     	;# 
  1593  0ED5                     	;# 
  1594  0ED6                     	;# 
  1595  0ED7                     	;# 
  1596  0ED8                     	;# 
  1597  0ED9                     	;# 
  1598  0EDA                     	;# 
  1599  0EDB                     	;# 
  1600  0EDC                     	;# 
  1601  0EDD                     	;# 
  1602  0EDE                     	;# 
  1603  0EDF                     	;# 
  1604  0EE0                     	;# 
  1605  0EE1                     	;# 
  1606  0EE1                     	;# 
  1607  0EE2                     	;# 
  1608  0EE3                     	;# 
  1609  0EE3                     	;# 
  1610  0EE4                     	;# 
  1611  0EE5                     	;# 
  1612  0EE5                     	;# 
  1613  0EE6                     	;# 
  1614  0EE7                     	;# 
  1615  0EE7                     	;# 
  1616  0EE8                     	;# 
  1617  0EE9                     	;# 
  1618  0EEA                     	;# 
  1619  0EEB                     	;# 
  1620  0EEC                     	;# 
  1621  0EED                     	;# 
  1622  0EEE                     	;# 
  1623  0EEF                     	;# 
  1624  0F11                     	;# 
  1625  0F12                     	;# 
  1626  0F13                     	;# 
  1627  0F14                     	;# 
  1628  0F15                     	;# 
  1629  0F16                     	;# 
  1630  0F17                     	;# 
  1631  0F18                     	;# 
  1632  0F19                     	;# 
  1633  0F1A                     	;# 
  1634  0F1B                     	;# 
  1635  0F1C                     	;# 
  1636  0F1D                     	;# 
  1637  0F1E                     	;# 
  1638  0F1F                     	;# 
  1639  0F20                     	;# 
  1640  0F21                     	;# 
  1641  0F21                     	;# 
  1642  0F22                     	;# 
  1643  0F23                     	;# 
  1644  0F23                     	;# 
  1645  0F24                     	;# 
  1646  0F25                     	;# 
  1647  0F25                     	;# 
  1648  0F26                     	;# 
  1649  0F27                     	;# 
  1650  0F27                     	;# 
  1651  0F28                     	;# 
  1652  0F29                     	;# 
  1653  0F2A                     	;# 
  1654  0F2B                     	;# 
  1655  0F2C                     	;# 
  1656  0F2D                     	;# 
  1657  0F2E                     	;# 
  1658  0F2F                     	;# 
  1659  0FE4                     	;# 
  1660  0FE5                     	;# 
  1661  0FE6                     	;# 
  1662  0FE7                     	;# 
  1663  0FE8                     	;# 
  1664  0FE9                     	;# 
  1665  0FEA                     	;# 
  1666  0FEB                     	;# 
  1667  0FED                     	;# 
  1668  0FEE                     	;# 
  1669  0FEF                     	;# 
  1670  0000                     	;# 
  1671  0001                     	;# 
  1672  0002                     	;# 
  1673  0003                     	;# 
  1674  0004                     	;# 
  1675  0005                     	;# 
  1676  0006                     	;# 
  1677  0007                     	;# 
  1678  0008                     	;# 
  1679  0009                     	;# 
  1680  000A                     	;# 
  1681  000B                     	;# 
  1682  000C                     	;# 
  1683  000D                     	;# 
  1684  000E                     	;# 
  1685  0010                     	;# 
  1686  0011                     	;# 
  1687  0012                     	;# 
  1688  0013                     	;# 
  1689  0014                     	;# 
  1690  0015                     	;# 
  1691  0016                     	;# 
  1692  0016                     	;# 
  1693  0017                     	;# 
  1694  0018                     	;# 
  1695  0019                     	;# 
  1696  001A                     	;# 
  1697  001B                     	;# 
  1698  001C                     	;# 
  1699  008C                     	;# 
  1700  008D                     	;# 
  1701  008E                     	;# 
  1702  0090                     	;# 
  1703  0091                     	;# 
  1704  0092                     	;# 
  1705  0093                     	;# 
  1706  0094                     	;# 
  1707  0095                     	;# 
  1708  0096                     	;# 
  1709  0097                     	;# 
  1710  0098                     	;# 
  1711  0099                     	;# 
  1712  009A                     	;# 
  1713  009B                     	;# 
  1714  009B                     	;# 
  1715  009C                     	;# 
  1716  009D                     	;# 
  1717  009E                     	;# 
  1718  009F                     	;# 
  1719  010C                     	;# 
  1720  010D                     	;# 
  1721  010E                     	;# 
  1722  0111                     	;# 
  1723  0112                     	;# 
  1724  0113                     	;# 
  1725  0114                     	;# 
  1726  0115                     	;# 
  1727  0116                     	;# 
  1728  0117                     	;# 
  1729  0118                     	;# 
  1730  0119                     	;# 
  1731  011A                     	;# 
  1732  011B                     	;# 
  1733  011C                     	;# 
  1734  011D                     	;# 
  1735  011D                     	;# 
  1736  011D                     	;# 
  1737  011E                     	;# 
  1738  011F                     	;# 
  1739  018C                     	;# 
  1740  018D                     	;# 
  1741  018E                     	;# 
  1742  0191                     	;# 
  1743  0191                     	;# 
  1744  0192                     	;# 
  1745  0193                     	;# 
  1746  0193                     	;# 
  1747  0193                     	;# 
  1748  0194                     	;# 
  1749  0195                     	;# 
  1750  0196                     	;# 
  1751  0197                     	;# 
  1752  0199                     	;# 
  1753  0199                     	;# 
  1754  0199                     	;# 
  1755  019A                     	;# 
  1756  019A                     	;# 
  1757  019A                     	;# 
  1758  019B                     	;# 
  1759  019B                     	;# 
  1760  019B                     	;# 
  1761  019B                     	;# 
  1762  019B                     	;# 
  1763  019C                     	;# 
  1764  019C                     	;# 
  1765  019C                     	;# 
  1766  019D                     	;# 
  1767  019D                     	;# 
  1768  019D                     	;# 
  1769  019E                     	;# 
  1770  019E                     	;# 
  1771  019E                     	;# 
  1772  019F                     	;# 
  1773  019F                     	;# 
  1774  019F                     	;# 
  1775  019F                     	;# 
  1776  019F                     	;# 
  1777  020C                     	;# 
  1778  020D                     	;# 
  1779  020E                     	;# 
  1780  0210                     	;# 
  1781  0211                     	;# 
  1782  0211                     	;# 
  1783  0212                     	;# 
  1784  0212                     	;# 
  1785  0213                     	;# 
  1786  0213                     	;# 
  1787  0214                     	;# 
  1788  0214                     	;# 
  1789  0215                     	;# 
  1790  0215                     	;# 
  1791  0215                     	;# 
  1792  0215                     	;# 
  1793  0216                     	;# 
  1794  0216                     	;# 
  1795  0217                     	;# 
  1796  0217                     	;# 
  1797  028C                     	;# 
  1798  028D                     	;# 
  1799  028E                     	;# 
  1800  0291                     	;# 
  1801  0291                     	;# 
  1802  0292                     	;# 
  1803  0293                     	;# 
  1804  0298                     	;# 
  1805  0298                     	;# 
  1806  0299                     	;# 
  1807  029A                     	;# 
  1808  030C                     	;# 
  1809  030D                     	;# 
  1810  030E                     	;# 
  1811  0311                     	;# 
  1812  0311                     	;# 
  1813  0312                     	;# 
  1814  0313                     	;# 
  1815  038C                     	;# 
  1816  038D                     	;# 
  1817  038E                     	;# 
  1818  0390                     	;# 
  1819  0391                     	;# 
  1820  0392                     	;# 
  1821  0393                     	;# 
  1822  0394                     	;# 
  1823  0395                     	;# 
  1824  0396                     	;# 
  1825  0397                     	;# 
  1826  0398                     	;# 
  1827  0399                     	;# 
  1828  039D                     	;# 
  1829  039E                     	;# 
  1830  039F                     	;# 
  1831  0511                     	;# 
  1832  0513                     	;# 
  1833  051A                     	;# 
  1834  0591                     	;# 
  1835  0592                     	;# 
  1836  0592                     	;# 
  1837  0593                     	;# 
  1838  0594                     	;# 
  1839  0594                     	;# 
  1840  0595                     	;# 
  1841  0596                     	;# 
  1842  0596                     	;# 
  1843  0E91                     	;# 
  1844  0E92                     	;# 
  1845  0E93                     	;# 
  1846  0E94                     	;# 
  1847  0E95                     	;# 
  1848  0E96                     	;# 
  1849  0E97                     	;# 
  1850  0E98                     	;# 
  1851  0E99                     	;# 
  1852  0E9A                     	;# 
  1853  0E9B                     	;# 
  1854  0E9C                     	;# 
  1855  0E9D                     	;# 
  1856  0E9E                     	;# 
  1857  0E9F                     	;# 
  1858  0EA0                     	;# 
  1859  0EA1                     	;# 
  1860  0EA1                     	;# 
  1861  0EA2                     	;# 
  1862  0EA3                     	;# 
  1863  0EA3                     	;# 
  1864  0EA4                     	;# 
  1865  0EA5                     	;# 
  1866  0EA5                     	;# 
  1867  0EA6                     	;# 
  1868  0EA7                     	;# 
  1869  0EA7                     	;# 
  1870  0EA8                     	;# 
  1871  0EA9                     	;# 
  1872  0EAA                     	;# 
  1873  0EAB                     	;# 
  1874  0EAC                     	;# 
  1875  0EAD                     	;# 
  1876  0EAE                     	;# 
  1877  0EAF                     	;# 
  1878  0EB1                     	;# 
  1879  0EB2                     	;# 
  1880  0EB3                     	;# 
  1881  0EB4                     	;# 
  1882  0EB5                     	;# 
  1883  0EB6                     	;# 
  1884  0EB7                     	;# 
  1885  0EB8                     	;# 
  1886  0EB9                     	;# 
  1887  0EBA                     	;# 
  1888  0EBB                     	;# 
  1889  0EBC                     	;# 
  1890  0EBD                     	;# 
  1891  0EBE                     	;# 
  1892  0EBF                     	;# 
  1893  0EC0                     	;# 
  1894  0EC1                     	;# 
  1895  0EC1                     	;# 
  1896  0EC2                     	;# 
  1897  0EC3                     	;# 
  1898  0EC3                     	;# 
  1899  0EC4                     	;# 
  1900  0EC5                     	;# 
  1901  0EC5                     	;# 
  1902  0EC6                     	;# 
  1903  0EC7                     	;# 
  1904  0EC7                     	;# 
  1905  0EC8                     	;# 
  1906  0EC9                     	;# 
  1907  0ECA                     	;# 
  1908  0ECB                     	;# 
  1909  0ECC                     	;# 
  1910  0ECD                     	;# 
  1911  0ECE                     	;# 
  1912  0ECF                     	;# 
  1913  0ED1                     	;# 
  1914  0ED2                     	;# 
  1915  0ED3                     	;# 
  1916  0ED4                     	;# 
  1917  0ED5                     	;# 
  1918  0ED6                     	;# 
  1919  0ED7                     	;# 
  1920  0ED8                     	;# 
  1921  0ED9                     	;# 
  1922  0EDA                     	;# 
  1923  0EDB                     	;# 
  1924  0EDC                     	;# 
  1925  0EDD                     	;# 
  1926  0EDE                     	;# 
  1927  0EDF                     	;# 
  1928  0EE0                     	;# 
  1929  0EE1                     	;# 
  1930  0EE1                     	;# 
  1931  0EE2                     	;# 
  1932  0EE3                     	;# 
  1933  0EE3                     	;# 
  1934  0EE4                     	;# 
  1935  0EE5                     	;# 
  1936  0EE5                     	;# 
  1937  0EE6                     	;# 
  1938  0EE7                     	;# 
  1939  0EE7                     	;# 
  1940  0EE8                     	;# 
  1941  0EE9                     	;# 
  1942  0EEA                     	;# 
  1943  0EEB                     	;# 
  1944  0EEC                     	;# 
  1945  0EED                     	;# 
  1946  0EEE                     	;# 
  1947  0EEF                     	;# 
  1948  0F11                     	;# 
  1949  0F12                     	;# 
  1950  0F13                     	;# 
  1951  0F14                     	;# 
  1952  0F15                     	;# 
  1953  0F16                     	;# 
  1954  0F17                     	;# 
  1955  0F18                     	;# 
  1956  0F19                     	;# 
  1957  0F1A                     	;# 
  1958  0F1B                     	;# 
  1959  0F1C                     	;# 
  1960  0F1D                     	;# 
  1961  0F1E                     	;# 
  1962  0F1F                     	;# 
  1963  0F20                     	;# 
  1964  0F21                     	;# 
  1965  0F21                     	;# 
  1966  0F22                     	;# 
  1967  0F23                     	;# 
  1968  0F23                     	;# 
  1969  0F24                     	;# 
  1970  0F25                     	;# 
  1971  0F25                     	;# 
  1972  0F26                     	;# 
  1973  0F27                     	;# 
  1974  0F27                     	;# 
  1975  0F28                     	;# 
  1976  0F29                     	;# 
  1977  0F2A                     	;# 
  1978  0F2B                     	;# 
  1979  0F2C                     	;# 
  1980  0F2D                     	;# 
  1981  0F2E                     	;# 
  1982  0F2F                     	;# 
  1983  0FE4                     	;# 
  1984  0FE5                     	;# 
  1985  0FE6                     	;# 
  1986  0FE7                     	;# 
  1987  0FE8                     	;# 
  1988  0FE9                     	;# 
  1989  0FEA                     	;# 
  1990  0FEB                     	;# 
  1991  0FED                     	;# 
  1992  0FEE                     	;# 
  1993  0FEF                     	;# 
  1994  0000                     	;# 
  1995  0001                     	;# 
  1996  0002                     	;# 
  1997  0003                     	;# 
  1998  0004                     	;# 
  1999  0005                     	;# 
  2000  0006                     	;# 
  2001  0007                     	;# 
  2002  0008                     	;# 
  2003  0009                     	;# 
  2004  000A                     	;# 
  2005  000B                     	;# 
  2006  000C                     	;# 
  2007  000D                     	;# 
  2008  000E                     	;# 
  2009  0010                     	;# 
  2010  0011                     	;# 
  2011  0012                     	;# 
  2012  0013                     	;# 
  2013  0014                     	;# 
  2014  0015                     	;# 
  2015  0016                     	;# 
  2016  0016                     	;# 
  2017  0017                     	;# 
  2018  0018                     	;# 
  2019  0019                     	;# 
  2020  001A                     	;# 
  2021  001B                     	;# 
  2022  001C                     	;# 
  2023  008C                     	;# 
  2024  008D                     	;# 
  2025  008E                     	;# 
  2026  0090                     	;# 
  2027  0091                     	;# 
  2028  0092                     	;# 
  2029  0093                     	;# 
  2030  0094                     	;# 
  2031  0095                     	;# 
  2032  0096                     	;# 
  2033  0097                     	;# 
  2034  0098                     	;# 
  2035  0099                     	;# 
  2036  009A                     	;# 
  2037  009B                     	;# 
  2038  009B                     	;# 
  2039  009C                     	;# 
  2040  009D                     	;# 
  2041  009E                     	;# 
  2042  009F                     	;# 
  2043  010C                     	;# 
  2044  010D                     	;# 
  2045  010E                     	;# 
  2046  0111                     	;# 
  2047  0112                     	;# 
  2048  0113                     	;# 
  2049  0114                     	;# 
  2050  0115                     	;# 
  2051  0116                     	;# 
  2052  0117                     	;# 
  2053  0118                     	;# 
  2054  0119                     	;# 
  2055  011A                     	;# 
  2056  011B                     	;# 
  2057  011C                     	;# 
  2058  011D                     	;# 
  2059  011D                     	;# 
  2060  011D                     	;# 
  2061  011E                     	;# 
  2062  011F                     	;# 
  2063  018C                     	;# 
  2064  018D                     	;# 
  2065  018E                     	;# 
  2066  0191                     	;# 
  2067  0191                     	;# 
  2068  0192                     	;# 
  2069  0193                     	;# 
  2070  0193                     	;# 
  2071  0193                     	;# 
  2072  0194                     	;# 
  2073  0195                     	;# 
  2074  0196                     	;# 
  2075  0197                     	;# 
  2076  0199                     	;# 
  2077  0199                     	;# 
  2078  0199                     	;# 
  2079  019A                     	;# 
  2080  019A                     	;# 
  2081  019A                     	;# 
  2082  019B                     	;# 
  2083  019B                     	;# 
  2084  019B                     	;# 
  2085  019B                     	;# 
  2086  019B                     	;# 
  2087  019C                     	;# 
  2088  019C                     	;# 
  2089  019C                     	;# 
  2090  019D                     	;# 
  2091  019D                     	;# 
  2092  019D                     	;# 
  2093  019E                     	;# 
  2094  019E                     	;# 
  2095  019E                     	;# 
  2096  019F                     	;# 
  2097  019F                     	;# 
  2098  019F                     	;# 
  2099  019F                     	;# 
  2100  019F                     	;# 
  2101  020C                     	;# 
  2102  020D                     	;# 
  2103  020E                     	;# 
  2104  0210                     	;# 
  2105  0211                     	;# 
  2106  0211                     	;# 
  2107  0212                     	;# 
  2108  0212                     	;# 
  2109  0213                     	;# 
  2110  0213                     	;# 
  2111  0214                     	;# 
  2112  0214                     	;# 
  2113  0215                     	;# 
  2114  0215                     	;# 
  2115  0215                     	;# 
  2116  0215                     	;# 
  2117  0216                     	;# 
  2118  0216                     	;# 
  2119  0217                     	;# 
  2120  0217                     	;# 
  2121  028C                     	;# 
  2122  028D                     	;# 
  2123  028E                     	;# 
  2124  0291                     	;# 
  2125  0291                     	;# 
  2126  0292                     	;# 
  2127  0293                     	;# 
  2128  0298                     	;# 
  2129  0298                     	;# 
  2130  0299                     	;# 
  2131  029A                     	;# 
  2132  030C                     	;# 
  2133  030D                     	;# 
  2134  030E                     	;# 
  2135  0311                     	;# 
  2136  0311                     	;# 
  2137  0312                     	;# 
  2138  0313                     	;# 
  2139  038C                     	;# 
  2140  038D                     	;# 
  2141  038E                     	;# 
  2142  0390                     	;# 
  2143  0391                     	;# 
  2144  0392                     	;# 
  2145  0393                     	;# 
  2146  0394                     	;# 
  2147  0395                     	;# 
  2148  0396                     	;# 
  2149  0397                     	;# 
  2150  0398                     	;# 
  2151  0399                     	;# 
  2152  039D                     	;# 
  2153  039E                     	;# 
  2154  039F                     	;# 
  2155  0511                     	;# 
  2156  0513                     	;# 
  2157  051A                     	;# 
  2158  0591                     	;# 
  2159  0592                     	;# 
  2160  0592                     	;# 
  2161  0593                     	;# 
  2162  0594                     	;# 
  2163  0594                     	;# 
  2164  0595                     	;# 
  2165  0596                     	;# 
  2166  0596                     	;# 
  2167  0E91                     	;# 
  2168  0E92                     	;# 
  2169  0E93                     	;# 
  2170  0E94                     	;# 
  2171  0E95                     	;# 
  2172  0E96                     	;# 
  2173  0E97                     	;# 
  2174  0E98                     	;# 
  2175  0E99                     	;# 
  2176  0E9A                     	;# 
  2177  0E9B                     	;# 
  2178  0E9C                     	;# 
  2179  0E9D                     	;# 
  2180  0E9E                     	;# 
  2181  0E9F                     	;# 
  2182  0EA0                     	;# 
  2183  0EA1                     	;# 
  2184  0EA1                     	;# 
  2185  0EA2                     	;# 
  2186  0EA3                     	;# 
  2187  0EA3                     	;# 
  2188  0EA4                     	;# 
  2189  0EA5                     	;# 
  2190  0EA5                     	;# 
  2191  0EA6                     	;# 
  2192  0EA7                     	;# 
  2193  0EA7                     	;# 
  2194  0EA8                     	;# 
  2195  0EA9                     	;# 
  2196  0EAA                     	;# 
  2197  0EAB                     	;# 
  2198  0EAC                     	;# 
  2199  0EAD                     	;# 
  2200  0EAE                     	;# 
  2201  0EAF                     	;# 
  2202  0EB1                     	;# 
  2203  0EB2                     	;# 
  2204  0EB3                     	;# 
  2205  0EB4                     	;# 
  2206  0EB5                     	;# 
  2207  0EB6                     	;# 
  2208  0EB7                     	;# 
  2209  0EB8                     	;# 
  2210  0EB9                     	;# 
  2211  0EBA                     	;# 
  2212  0EBB                     	;# 
  2213  0EBC                     	;# 
  2214  0EBD                     	;# 
  2215  0EBE                     	;# 
  2216  0EBF                     	;# 
  2217  0EC0                     	;# 
  2218  0EC1                     	;# 
  2219  0EC1                     	;# 
  2220  0EC2                     	;# 
  2221  0EC3                     	;# 
  2222  0EC3                     	;# 
  2223  0EC4                     	;# 
  2224  0EC5                     	;# 
  2225  0EC5                     	;# 
  2226  0EC6                     	;# 
  2227  0EC7                     	;# 
  2228  0EC7                     	;# 
  2229  0EC8                     	;# 
  2230  0EC9                     	;# 
  2231  0ECA                     	;# 
  2232  0ECB                     	;# 
  2233  0ECC                     	;# 
  2234  0ECD                     	;# 
  2235  0ECE                     	;# 
  2236  0ECF                     	;# 
  2237  0ED1                     	;# 
  2238  0ED2                     	;# 
  2239  0ED3                     	;# 
  2240  0ED4                     	;# 
  2241  0ED5                     	;# 
  2242  0ED6                     	;# 
  2243  0ED7                     	;# 
  2244  0ED8                     	;# 
  2245  0ED9                     	;# 
  2246  0EDA                     	;# 
  2247  0EDB                     	;# 
  2248  0EDC                     	;# 
  2249  0EDD                     	;# 
  2250  0EDE                     	;# 
  2251  0EDF                     	;# 
  2252  0EE0                     	;# 
  2253  0EE1                     	;# 
  2254  0EE1                     	;# 
  2255  0EE2                     	;# 
  2256  0EE3                     	;# 
  2257  0EE3                     	;# 
  2258  0EE4                     	;# 
  2259  0EE5                     	;# 
  2260  0EE5                     	;# 
  2261  0EE6                     	;# 
  2262  0EE7                     	;# 
  2263  0EE7                     	;# 
  2264  0EE8                     	;# 
  2265  0EE9                     	;# 
  2266  0EEA                     	;# 
  2267  0EEB                     	;# 
  2268  0EEC                     	;# 
  2269  0EED                     	;# 
  2270  0EEE                     	;# 
  2271  0EEF                     	;# 
  2272  0F11                     	;# 
  2273  0F12                     	;# 
  2274  0F13                     	;# 
  2275  0F14                     	;# 
  2276  0F15                     	;# 
  2277  0F16                     	;# 
  2278  0F17                     	;# 
  2279  0F18                     	;# 
  2280  0F19                     	;# 
  2281  0F1A                     	;# 
  2282  0F1B                     	;# 
  2283  0F1C                     	;# 
  2284  0F1D                     	;# 
  2285  0F1E                     	;# 
  2286  0F1F                     	;# 
  2287  0F20                     	;# 
  2288  0F21                     	;# 
  2289  0F21                     	;# 
  2290  0F22                     	;# 
  2291  0F23                     	;# 
  2292  0F23                     	;# 
  2293  0F24                     	;# 
  2294  0F25                     	;# 
  2295  0F25                     	;# 
  2296  0F26                     	;# 
  2297  0F27                     	;# 
  2298  0F27                     	;# 
  2299  0F28                     	;# 
  2300  0F29                     	;# 
  2301  0F2A                     	;# 
  2302  0F2B                     	;# 
  2303  0F2C                     	;# 
  2304  0F2D                     	;# 
  2305  0F2E                     	;# 
  2306  0F2F                     	;# 
  2307  0FE4                     	;# 
  2308  0FE5                     	;# 
  2309  0FE6                     	;# 
  2310  0FE7                     	;# 
  2311  0FE8                     	;# 
  2312  0FE9                     	;# 
  2313  0FEA                     	;# 
  2314  0FEB                     	;# 
  2315  0FED                     	;# 
  2316  0FEE                     	;# 
  2317  0FEF                     	;# 
  2318  0000                     	;# 
  2319  0001                     	;# 
  2320  0002                     	;# 
  2321  0003                     	;# 
  2322  0004                     	;# 
  2323  0005                     	;# 
  2324  0006                     	;# 
  2325  0007                     	;# 
  2326  0008                     	;# 
  2327  0009                     	;# 
  2328  000A                     	;# 
  2329  000B                     	;# 
  2330  000C                     	;# 
  2331  000D                     	;# 
  2332  000E                     	;# 
  2333  0010                     	;# 
  2334  0011                     	;# 
  2335  0012                     	;# 
  2336  0013                     	;# 
  2337  0014                     	;# 
  2338  0015                     	;# 
  2339  0016                     	;# 
  2340  0016                     	;# 
  2341  0017                     	;# 
  2342  0018                     	;# 
  2343  0019                     	;# 
  2344  001A                     	;# 
  2345  001B                     	;# 
  2346  001C                     	;# 
  2347  008C                     	;# 
  2348  008D                     	;# 
  2349  008E                     	;# 
  2350  0090                     	;# 
  2351  0091                     	;# 
  2352  0092                     	;# 
  2353  0093                     	;# 
  2354  0094                     	;# 
  2355  0095                     	;# 
  2356  0096                     	;# 
  2357  0097                     	;# 
  2358  0098                     	;# 
  2359  0099                     	;# 
  2360  009A                     	;# 
  2361  009B                     	;# 
  2362  009B                     	;# 
  2363  009C                     	;# 
  2364  009D                     	;# 
  2365  009E                     	;# 
  2366  009F                     	;# 
  2367  010C                     	;# 
  2368  010D                     	;# 
  2369  010E                     	;# 
  2370  0111                     	;# 
  2371  0112                     	;# 
  2372  0113                     	;# 
  2373  0114                     	;# 
  2374  0115                     	;# 
  2375  0116                     	;# 
  2376  0117                     	;# 
  2377  0118                     	;# 
  2378  0119                     	;# 
  2379  011A                     	;# 
  2380  011B                     	;# 
  2381  011C                     	;# 
  2382  011D                     	;# 
  2383  011D                     	;# 
  2384  011D                     	;# 
  2385  011E                     	;# 
  2386  011F                     	;# 
  2387  018C                     	;# 
  2388  018D                     	;# 
  2389  018E                     	;# 
  2390  0191                     	;# 
  2391  0191                     	;# 
  2392  0192                     	;# 
  2393  0193                     	;# 
  2394  0193                     	;# 
  2395  0193                     	;# 
  2396  0194                     	;# 
  2397  0195                     	;# 
  2398  0196                     	;# 
  2399  0197                     	;# 
  2400  0199                     	;# 
  2401  0199                     	;# 
  2402  0199                     	;# 
  2403  019A                     	;# 
  2404  019A                     	;# 
  2405  019A                     	;# 
  2406  019B                     	;# 
  2407  019B                     	;# 
  2408  019B                     	;# 
  2409  019B                     	;# 
  2410  019B                     	;# 
  2411  019C                     	;# 
  2412  019C                     	;# 
  2413  019C                     	;# 
  2414  019D                     	;# 
  2415  019D                     	;# 
  2416  019D                     	;# 
  2417  019E                     	;# 
  2418  019E                     	;# 
  2419  019E                     	;# 
  2420  019F                     	;# 
  2421  019F                     	;# 
  2422  019F                     	;# 
  2423  019F                     	;# 
  2424  019F                     	;# 
  2425  020C                     	;# 
  2426  020D                     	;# 
  2427  020E                     	;# 
  2428  0210                     	;# 
  2429  0211                     	;# 
  2430  0211                     	;# 
  2431  0212                     	;# 
  2432  0212                     	;# 
  2433  0213                     	;# 
  2434  0213                     	;# 
  2435  0214                     	;# 
  2436  0214                     	;# 
  2437  0215                     	;# 
  2438  0215                     	;# 
  2439  0215                     	;# 
  2440  0215                     	;# 
  2441  0216                     	;# 
  2442  0216                     	;# 
  2443  0217                     	;# 
  2444  0217                     	;# 
  2445  028C                     	;# 
  2446  028D                     	;# 
  2447  028E                     	;# 
  2448  0291                     	;# 
  2449  0291                     	;# 
  2450  0292                     	;# 
  2451  0293                     	;# 
  2452  0298                     	;# 
  2453  0298                     	;# 
  2454  0299                     	;# 
  2455  029A                     	;# 
  2456  030C                     	;# 
  2457  030D                     	;# 
  2458  030E                     	;# 
  2459  0311                     	;# 
  2460  0311                     	;# 
  2461  0312                     	;# 
  2462  0313                     	;# 
  2463  038C                     	;# 
  2464  038D                     	;# 
  2465  038E                     	;# 
  2466  0390                     	;# 
  2467  0391                     	;# 
  2468  0392                     	;# 
  2469  0393                     	;# 
  2470  0394                     	;# 
  2471  0395                     	;# 
  2472  0396                     	;# 
  2473  0397                     	;# 
  2474  0398                     	;# 
  2475  0399                     	;# 
  2476  039D                     	;# 
  2477  039E                     	;# 
  2478  039F                     	;# 
  2479  0511                     	;# 
  2480  0513                     	;# 
  2481  051A                     	;# 
  2482  0591                     	;# 
  2483  0592                     	;# 
  2484  0592                     	;# 
  2485  0593                     	;# 
  2486  0594                     	;# 
  2487  0594                     	;# 
  2488  0595                     	;# 
  2489  0596                     	;# 
  2490  0596                     	;# 
  2491  0E91                     	;# 
  2492  0E92                     	;# 
  2493  0E93                     	;# 
  2494  0E94                     	;# 
  2495  0E95                     	;# 
  2496  0E96                     	;# 
  2497  0E97                     	;# 
  2498  0E98                     	;# 
  2499  0E99                     	;# 
  2500  0E9A                     	;# 
  2501  0E9B                     	;# 
  2502  0E9C                     	;# 
  2503  0E9D                     	;# 
  2504  0E9E                     	;# 
  2505  0E9F                     	;# 
  2506  0EA0                     	;# 
  2507  0EA1                     	;# 
  2508  0EA1                     	;# 
  2509  0EA2                     	;# 
  2510  0EA3                     	;# 
  2511  0EA3                     	;# 
  2512  0EA4                     	;# 
  2513  0EA5                     	;# 
  2514  0EA5                     	;# 
  2515  0EA6                     	;# 
  2516  0EA7                     	;# 
  2517  0EA7                     	;# 
  2518  0EA8                     	;# 
  2519  0EA9                     	;# 
  2520  0EAA                     	;# 
  2521  0EAB                     	;# 
  2522  0EAC                     	;# 
  2523  0EAD                     	;# 
  2524  0EAE                     	;# 
  2525  0EAF                     	;# 
  2526  0EB1                     	;# 
  2527  0EB2                     	;# 
  2528  0EB3                     	;# 
  2529  0EB4                     	;# 
  2530  0EB5                     	;# 
  2531  0EB6                     	;# 
  2532  0EB7                     	;# 
  2533  0EB8                     	;# 
  2534  0EB9                     	;# 
  2535  0EBA                     	;# 
  2536  0EBB                     	;# 
  2537  0EBC                     	;# 
  2538  0EBD                     	;# 
  2539  0EBE                     	;# 
  2540  0EBF                     	;# 
  2541  0EC0                     	;# 
  2542  0EC1                     	;# 
  2543  0EC1                     	;# 
  2544  0EC2                     	;# 
  2545  0EC3                     	;# 
  2546  0EC3                     	;# 
  2547  0EC4                     	;# 
  2548  0EC5                     	;# 
  2549  0EC5                     	;# 
  2550  0EC6                     	;# 
  2551  0EC7                     	;# 
  2552  0EC7                     	;# 
  2553  0EC8                     	;# 
  2554  0EC9                     	;# 
  2555  0ECA                     	;# 
  2556  0ECB                     	;# 
  2557  0ECC                     	;# 
  2558  0ECD                     	;# 
  2559  0ECE                     	;# 
  2560  0ECF                     	;# 
  2561  0ED1                     	;# 
  2562  0ED2                     	;# 
  2563  0ED3                     	;# 
  2564  0ED4                     	;# 
  2565  0ED5                     	;# 
  2566  0ED6                     	;# 
  2567  0ED7                     	;# 
  2568  0ED8                     	;# 
  2569  0ED9                     	;# 
  2570  0EDA                     	;# 
  2571  0EDB                     	;# 
  2572  0EDC                     	;# 
  2573  0EDD                     	;# 
  2574  0EDE                     	;# 
  2575  0EDF                     	;# 
  2576  0EE0                     	;# 
  2577  0EE1                     	;# 
  2578  0EE1                     	;# 
  2579  0EE2                     	;# 
  2580  0EE3                     	;# 
  2581  0EE3                     	;# 
  2582  0EE4                     	;# 
  2583  0EE5                     	;# 
  2584  0EE5                     	;# 
  2585  0EE6                     	;# 
  2586  0EE7                     	;# 
  2587  0EE7                     	;# 
  2588  0EE8                     	;# 
  2589  0EE9                     	;# 
  2590  0EEA                     	;# 
  2591  0EEB                     	;# 
  2592  0EEC                     	;# 
  2593  0EED                     	;# 
  2594  0EEE                     	;# 
  2595  0EEF                     	;# 
  2596  0F11                     	;# 
  2597  0F12                     	;# 
  2598  0F13                     	;# 
  2599  0F14                     	;# 
  2600  0F15                     	;# 
  2601  0F16                     	;# 
  2602  0F17                     	;# 
  2603  0F18                     	;# 
  2604  0F19                     	;# 
  2605  0F1A                     	;# 
  2606  0F1B                     	;# 
  2607  0F1C                     	;# 
  2608  0F1D                     	;# 
  2609  0F1E                     	;# 
  2610  0F1F                     	;# 
  2611  0F20                     	;# 
  2612  0F21                     	;# 
  2613  0F21                     	;# 
  2614  0F22                     	;# 
  2615  0F23                     	;# 
  2616  0F23                     	;# 
  2617  0F24                     	;# 
  2618  0F25                     	;# 
  2619  0F25                     	;# 
  2620  0F26                     	;# 
  2621  0F27                     	;# 
  2622  0F27                     	;# 
  2623  0F28                     	;# 
  2624  0F29                     	;# 
  2625  0F2A                     	;# 
  2626  0F2B                     	;# 
  2627  0F2C                     	;# 
  2628  0F2D                     	;# 
  2629  0F2E                     	;# 
  2630  0F2F                     	;# 
  2631  0FE4                     	;# 
  2632  0FE5                     	;# 
  2633  0FE6                     	;# 
  2634  0FE7                     	;# 
  2635  0FE8                     	;# 
  2636  0FE9                     	;# 
  2637  0FEA                     	;# 
  2638  0FEB                     	;# 
  2639  0FED                     	;# 
  2640  0FEE                     	;# 
  2641  0FEF                     	;# 
  2642  0000                     	;# 
  2643  0001                     	;# 
  2644  0002                     	;# 
  2645  0003                     	;# 
  2646  0004                     	;# 
  2647  0005                     	;# 
  2648  0006                     	;# 
  2649  0007                     	;# 
  2650  0008                     	;# 
  2651  0009                     	;# 
  2652  000A                     	;# 
  2653  000B                     	;# 
  2654  000C                     	;# 
  2655  000D                     	;# 
  2656  000E                     	;# 
  2657  0010                     	;# 
  2658  0011                     	;# 
  2659  0012                     	;# 
  2660  0013                     	;# 
  2661  0014                     	;# 
  2662  0015                     	;# 
  2663  0016                     	;# 
  2664  0016                     	;# 
  2665  0017                     	;# 
  2666  0018                     	;# 
  2667  0019                     	;# 
  2668  001A                     	;# 
  2669  001B                     	;# 
  2670  001C                     	;# 
  2671  008C                     	;# 
  2672  008D                     	;# 
  2673  008E                     	;# 
  2674  0090                     	;# 
  2675  0091                     	;# 
  2676  0092                     	;# 
  2677  0093                     	;# 
  2678  0094                     	;# 
  2679  0095                     	;# 
  2680  0096                     	;# 
  2681  0097                     	;# 
  2682  0098                     	;# 
  2683  0099                     	;# 
  2684  009A                     	;# 
  2685  009B                     	;# 
  2686  009B                     	;# 
  2687  009C                     	;# 
  2688  009D                     	;# 
  2689  009E                     	;# 
  2690  009F                     	;# 
  2691  010C                     	;# 
  2692  010D                     	;# 
  2693  010E                     	;# 
  2694  0111                     	;# 
  2695  0112                     	;# 
  2696  0113                     	;# 
  2697  0114                     	;# 
  2698  0115                     	;# 
  2699  0116                     	;# 
  2700  0117                     	;# 
  2701  0118                     	;# 
  2702  0119                     	;# 
  2703  011A                     	;# 
  2704  011B                     	;# 
  2705  011C                     	;# 
  2706  011D                     	;# 
  2707  011D                     	;# 
  2708  011D                     	;# 
  2709  011E                     	;# 
  2710  011F                     	;# 
  2711  018C                     	;# 
  2712  018D                     	;# 
  2713  018E                     	;# 
  2714  0191                     	;# 
  2715  0191                     	;# 
  2716  0192                     	;# 
  2717  0193                     	;# 
  2718  0193                     	;# 
  2719  0193                     	;# 
  2720  0194                     	;# 
  2721  0195                     	;# 
  2722  0196                     	;# 
  2723  0197                     	;# 
  2724  0199                     	;# 
  2725  0199                     	;# 
  2726  0199                     	;# 
  2727  019A                     	;# 
  2728  019A                     	;# 
  2729  019A                     	;# 
  2730  019B                     	;# 
  2731  019B                     	;# 
  2732  019B                     	;# 
  2733  019B                     	;# 
  2734  019B                     	;# 
  2735  019C                     	;# 
  2736  019C                     	;# 
  2737  019C                     	;# 
  2738  019D                     	;# 
  2739  019D                     	;# 
  2740  019D                     	;# 
  2741  019E                     	;# 
  2742  019E                     	;# 
  2743  019E                     	;# 
  2744  019F                     	;# 
  2745  019F                     	;# 
  2746  019F                     	;# 
  2747  019F                     	;# 
  2748  019F                     	;# 
  2749  020C                     	;# 
  2750  020D                     	;# 
  2751  020E                     	;# 
  2752  0210                     	;# 
  2753  0211                     	;# 
  2754  0211                     	;# 
  2755  0212                     	;# 
  2756  0212                     	;# 
  2757  0213                     	;# 
  2758  0213                     	;# 
  2759  0214                     	;# 
  2760  0214                     	;# 
  2761  0215                     	;# 
  2762  0215                     	;# 
  2763  0215                     	;# 
  2764  0215                     	;# 
  2765  0216                     	;# 
  2766  0216                     	;# 
  2767  0217                     	;# 
  2768  0217                     	;# 
  2769  028C                     	;# 
  2770  028D                     	;# 
  2771  028E                     	;# 
  2772  0291                     	;# 
  2773  0291                     	;# 
  2774  0292                     	;# 
  2775  0293                     	;# 
  2776  0298                     	;# 
  2777  0298                     	;# 
  2778  0299                     	;# 
  2779  029A                     	;# 
  2780  030C                     	;# 
  2781  030D                     	;# 
  2782  030E                     	;# 
  2783  0311                     	;# 
  2784  0311                     	;# 
  2785  0312                     	;# 
  2786  0313                     	;# 
  2787  038C                     	;# 
  2788  038D                     	;# 
  2789  038E                     	;# 
  2790  0390                     	;# 
  2791  0391                     	;# 
  2792  0392                     	;# 
  2793  0393                     	;# 
  2794  0394                     	;# 
  2795  0395                     	;# 
  2796  0396                     	;# 
  2797  0397                     	;# 
  2798  0398                     	;# 
  2799  0399                     	;# 
  2800  039D                     	;# 
  2801  039E                     	;# 
  2802  039F                     	;# 
  2803  0511                     	;# 
  2804  0513                     	;# 
  2805  051A                     	;# 
  2806  0591                     	;# 
  2807  0592                     	;# 
  2808  0592                     	;# 
  2809  0593                     	;# 
  2810  0594                     	;# 
  2811  0594                     	;# 
  2812  0595                     	;# 
  2813  0596                     	;# 
  2814  0596                     	;# 
  2815  0E91                     	;# 
  2816  0E92                     	;# 
  2817  0E93                     	;# 
  2818  0E94                     	;# 
  2819  0E95                     	;# 
  2820  0E96                     	;# 
  2821  0E97                     	;# 
  2822  0E98                     	;# 
  2823  0E99                     	;# 
  2824  0E9A                     	;# 
  2825  0E9B                     	;# 
  2826  0E9C                     	;# 
  2827  0E9D                     	;# 
  2828  0E9E                     	;# 
  2829  0E9F                     	;# 
  2830  0EA0                     	;# 
  2831  0EA1                     	;# 
  2832  0EA1                     	;# 
  2833  0EA2                     	;# 
  2834  0EA3                     	;# 
  2835  0EA3                     	;# 
  2836  0EA4                     	;# 
  2837  0EA5                     	;# 
  2838  0EA5                     	;# 
  2839  0EA6                     	;# 
  2840  0EA7                     	;# 
  2841  0EA7                     	;# 
  2842  0EA8                     	;# 
  2843  0EA9                     	;# 
  2844  0EAA                     	;# 
  2845  0EAB                     	;# 
  2846  0EAC                     	;# 
  2847  0EAD                     	;# 
  2848  0EAE                     	;# 
  2849  0EAF                     	;# 
  2850  0EB1                     	;# 
  2851  0EB2                     	;# 
  2852  0EB3                     	;# 
  2853  0EB4                     	;# 
  2854  0EB5                     	;# 
  2855  0EB6                     	;# 
  2856  0EB7                     	;# 
  2857  0EB8                     	;# 
  2858  0EB9                     	;# 
  2859  0EBA                     	;# 
  2860  0EBB                     	;# 
  2861  0EBC                     	;# 
  2862  0EBD                     	;# 
  2863  0EBE                     	;# 
  2864  0EBF                     	;# 
  2865  0EC0                     	;# 
  2866  0EC1                     	;# 
  2867  0EC1                     	;# 
  2868  0EC2                     	;# 
  2869  0EC3                     	;# 
  2870  0EC3                     	;# 
  2871  0EC4                     	;# 
  2872  0EC5                     	;# 
  2873  0EC5                     	;# 
  2874  0EC6                     	;# 
  2875  0EC7                     	;# 
  2876  0EC7                     	;# 
  2877  0EC8                     	;# 
  2878  0EC9                     	;# 
  2879  0ECA                     	;# 
  2880  0ECB                     	;# 
  2881  0ECC                     	;# 
  2882  0ECD                     	;# 
  2883  0ECE                     	;# 
  2884  0ECF                     	;# 
  2885  0ED1                     	;# 
  2886  0ED2                     	;# 
  2887  0ED3                     	;# 
  2888  0ED4                     	;# 
  2889  0ED5                     	;# 
  2890  0ED6                     	;# 
  2891  0ED7                     	;# 
  2892  0ED8                     	;# 
  2893  0ED9                     	;# 
  2894  0EDA                     	;# 
  2895  0EDB                     	;# 
  2896  0EDC                     	;# 
  2897  0EDD                     	;# 
  2898  0EDE                     	;# 
  2899  0EDF                     	;# 
  2900  0EE0                     	;# 
  2901  0EE1                     	;# 
  2902  0EE1                     	;# 
  2903  0EE2                     	;# 
  2904  0EE3                     	;# 
  2905  0EE3                     	;# 
  2906  0EE4                     	;# 
  2907  0EE5                     	;# 
  2908  0EE5                     	;# 
  2909  0EE6                     	;# 
  2910  0EE7                     	;# 
  2911  0EE7                     	;# 
  2912  0EE8                     	;# 
  2913  0EE9                     	;# 
  2914  0EEA                     	;# 
  2915  0EEB                     	;# 
  2916  0EEC                     	;# 
  2917  0EED                     	;# 
  2918  0EEE                     	;# 
  2919  0EEF                     	;# 
  2920  0F11                     	;# 
  2921  0F12                     	;# 
  2922  0F13                     	;# 
  2923  0F14                     	;# 
  2924  0F15                     	;# 
  2925  0F16                     	;# 
  2926  0F17                     	;# 
  2927  0F18                     	;# 
  2928  0F19                     	;# 
  2929  0F1A                     	;# 
  2930  0F1B                     	;# 
  2931  0F1C                     	;# 
  2932  0F1D                     	;# 
  2933  0F1E                     	;# 
  2934  0F1F                     	;# 
  2935  0F20                     	;# 
  2936  0F21                     	;# 
  2937  0F21                     	;# 
  2938  0F22                     	;# 
  2939  0F23                     	;# 
  2940  0F23                     	;# 
  2941  0F24                     	;# 
  2942  0F25                     	;# 
  2943  0F25                     	;# 
  2944  0F26                     	;# 
  2945  0F27                     	;# 
  2946  0F27                     	;# 
  2947  0F28                     	;# 
  2948  0F29                     	;# 
  2949  0F2A                     	;# 
  2950  0F2B                     	;# 
  2951  0F2C                     	;# 
  2952  0F2D                     	;# 
  2953  0F2E                     	;# 
  2954  0F2F                     	;# 
  2955  0FE4                     	;# 
  2956  0FE5                     	;# 
  2957  0FE6                     	;# 
  2958  0FE7                     	;# 
  2959  0FE8                     	;# 
  2960  0FE9                     	;# 
  2961  0FEA                     	;# 
  2962  0FEB                     	;# 
  2963  0FED                     	;# 
  2964  0FEE                     	;# 
  2965  0FEF                     	;# 
  2966                           
  2967                           	psect	idataBANK0
  2968  0003                     __pidataBANK0:	
  2969                           
  2970                           ;initializer for _health
  2971  0003  3432               	retlw	50
  2972                           
  2973                           	psect	stringtext
  2974  1800                     __pstringtext:	
  2975  1800                     determine_sword_was_swung@midpoint:	
  2976  1800  3400               	retlw	0
  2977  1801  3410               	retlw	16
  2978  1802                     __end_ofdetermine_sword_was_swung@midpoint:	
  2979  1802                     determine_sword_was_swung@neg_shock_thresh:	
  2980  1802  3418               	retlw	24
  2981  1803  340C               	retlw	12
  2982  1804                     __end_ofdetermine_sword_was_swung@neg_shock_thresh:	
  2983  1804                     determine_sword_was_swung@pos_shock_thresh:	
  2984  1804  34E8               	retlw	232
  2985  1805  3413               	retlw	19
  2986  1806                     __end_ofdetermine_sword_was_swung@pos_shock_thresh:	
  2987  0016                     _TMR1	set	22
  2988  000B                     _INTCON	set	11
  2989  0011                     _PIR1bits	set	17
  2990  000D                     _PORTBbits	set	13
  2991  0018                     _T1CON	set	24
  2992  005F                     _GIE	set	95
  2993  0061                     _RA1	set	97
  2994  006A                     _RB2	set	106
  2995  006B                     _RB3	set	107
  2996  0077                     _RC7	set	119
  2997  008D                     _RCIF	set	141
  2998  009B                     _ADRES	set	155
  2999  009D                     _ADCON0	set	157
  3000  009E                     _ADCON1	set	158
  3001  009F                     _ADCON2	set	159
  3002  0099                     _OSCCON	set	153
  3003  0094                     _PIE4	set	148
  3004  008C                     _TRISA	set	140
  3005  008D                     _TRISB	set	141
  3006  008D                     _TRISBbits	set	141
  3007  008E                     _TRISC	set	142
  3008  04E9                     _ADGO	set	1257
  3009  048D                     _RCIE	set	1165
  3010  010D                     _LATBbits	set	269
  3011  08EC                     _SCKSEL	set	2284
  3012  08EB                     _SDISEL	set	2283
  3013  08ED                     _SDOSEL	set	2285
  3014  018C                     _ANSELA	set	396
  3015  018D                     _ANSELB	set	397
  3016  0199                     _RCREG	set	409
  3017  019B                     _SPBRG	set	411
  3018  019A                     _TXREG	set	410
  3019  0CFB                     _BRG16	set	3323
  3020  0CF2                     _BRGH	set	3314
  3021  0CEC                     _CREN	set	3308
  3022  0CEF                     _SPEN	set	3311
  3023  0CF4                     _SYNC	set	3316
  3024  0CF1                     _TRMT	set	3313
  3025  0CF5                     _TXEN	set	3317
  3026  0211                     _SSPBUF	set	529
  3027  0215                     _SSPCON1	set	533
  3028  0215                     _SSPCON1bits	set	533
  3029  10AD                     _SSPEN	set	4269
  3030  106A                     _WPUB2	set	4202
  3031  106B                     _WPUB3	set	4203
  3032  0393                     _IOCAF	set	915
  3033  0393                     _IOCAFbits	set	915
  3034  0392                     _IOCAN	set	914
  3035  0391                     _IOCAP	set	913
  3036  1C99                     _IOCAF1	set	7321
  3037  0E9D                     _PSMC1ASDC	set	3741
  3038  0E9E                     _PSMC1ASDL	set	3742
  3039  0E9F                     _PSMC1ASDS	set	3743
  3040  0EAC                     _PSMC1BLKF	set	3756
  3041  0EAB                     _PSMC1BLKR	set	3755
  3042  0E97                     _PSMC1BLNK	set	3735
  3043  0E94                     _PSMC1CLK	set	3732
  3044  0E91                     _PSMC1CON	set	3729
  3045  0EAA                     _PSMC1DBF	set	3754
  3046  0EA9                     _PSMC1DBR	set	3753
  3047  0EA4                     _PSMC1DCH	set	3748
  3048  0EA3                     _PSMC1DCL	set	3747
  3049  0E9B                     _PSMC1DCS	set	3739
  3050  0E99                     _PSMC1FEBS	set	3737
  3051  0EAD                     _PSMC1FFA	set	3757
  3052  0EA0                     _PSMC1INT	set	3744
  3053  0E92                     _PSMC1MDL	set	3730
  3054  0E95                     _PSMC1OEN	set	3733
  3055  0EA2                     _PSMC1PHH	set	3746
  3056  0EA1                     _PSMC1PHL	set	3745
  3057  0E9A                     _PSMC1PHS	set	3738
  3058  0E96                     _PSMC1POL	set	3734
  3059  0EA6                     _PSMC1PRH	set	3750
  3060  0EA5                     _PSMC1PRL	set	3749
  3061  0E9C                     _PSMC1PRS	set	3740
  3062  0E98                     _PSMC1REBS	set	3736
  3063  0EAE                     _PSMC1STR0	set	3758
  3064  0EAF                     _PSMC1STR1	set	3759
  3065  0E93                     _PSMC1SYNC	set	3731
  3066  0EBD                     _PSMC2ASDC	set	3773
  3067  0EBE                     _PSMC2ASDL	set	3774
  3068  0EBF                     _PSMC2ASDS	set	3775
  3069  0ECC                     _PSMC2BLKF	set	3788
  3070  0ECB                     _PSMC2BLKR	set	3787
  3071  0EB7                     _PSMC2BLNK	set	3767
  3072  0EB4                     _PSMC2CLK	set	3764
  3073  0EB1                     _PSMC2CON	set	3761
  3074  0ECA                     _PSMC2DBF	set	3786
  3075  0EC9                     _PSMC2DBR	set	3785
  3076  0EC4                     _PSMC2DCH	set	3780
  3077  0EC3                     _PSMC2DCL	set	3779
  3078  0EBB                     _PSMC2DCS	set	3771
  3079  0EB9                     _PSMC2FEBS	set	3769
  3080  0ECD                     _PSMC2FFA	set	3789
  3081  0EC0                     _PSMC2INT	set	3776
  3082  0EB2                     _PSMC2MDL	set	3762
  3083  0EB5                     _PSMC2OEN	set	3765
  3084  0EC2                     _PSMC2PHH	set	3778
  3085  0EC1                     _PSMC2PHL	set	3777
  3086  0EBA                     _PSMC2PHS	set	3770
  3087  0EB6                     _PSMC2POL	set	3766
  3088  0EC6                     _PSMC2PRH	set	3782
  3089  0EC5                     _PSMC2PRL	set	3781
  3090  0EBC                     _PSMC2PRS	set	3772
  3091  0EB8                     _PSMC2REBS	set	3768
  3092  0ECE                     _PSMC2STR0	set	3790
  3093  0ECF                     _PSMC2STR1	set	3791
  3094  0EB3                     _PSMC2SYNC	set	3763
  3095  0EDD                     _PSMC3ASDC	set	3805
  3096  0EDE                     _PSMC3ASDL	set	3806
  3097  0EDF                     _PSMC3ASDS	set	3807
  3098  0EEC                     _PSMC3BLKF	set	3820
  3099  0EEB                     _PSMC3BLKR	set	3819
  3100  0ED7                     _PSMC3BLNK	set	3799
  3101  0ED4                     _PSMC3CLK	set	3796
  3102  0ED1                     _PSMC3CON	set	3793
  3103  0EEA                     _PSMC3DBF	set	3818
  3104  0EE9                     _PSMC3DBR	set	3817
  3105  0EE4                     _PSMC3DCH	set	3812
  3106  0EE3                     _PSMC3DCL	set	3811
  3107  0EDB                     _PSMC3DCS	set	3803
  3108  0ED9                     _PSMC3FEBS	set	3801
  3109  0EED                     _PSMC3FFA	set	3821
  3110  0EE0                     _PSMC3INT	set	3808
  3111  0ED2                     _PSMC3MDL	set	3794
  3112  0ED5                     _PSMC3OEN	set	3797
  3113  0EE2                     _PSMC3PHH	set	3810
  3114  0EE1                     _PSMC3PHL	set	3809
  3115  0EDA                     _PSMC3PHS	set	3802
  3116  0ED6                     _PSMC3POL	set	3798
  3117  0EE6                     _PSMC3PRH	set	3814
  3118  0EE5                     _PSMC3PRL	set	3813
  3119  0EDC                     _PSMC3PRS	set	3804
  3120  0ED8                     _PSMC3REBS	set	3800
  3121  0EEE                     _PSMC3STR0	set	3822
  3122  0EEF                     _PSMC3STR1	set	3823
  3123  0ED3                     _PSMC3SYNC	set	3795
  3124  7495                     _P1MDLBIT	set	29845
  3125  758E                     _PSMC2LD	set	30094
  3126  768E                     _PSMC3LD	set	30350
  3127  0F1D                     _PSMC4ASDC	set	3869
  3128  0F1E                     _PSMC4ASDL	set	3870
  3129  0F1F                     _PSMC4ASDS	set	3871
  3130  0F2C                     _PSMC4BLKF	set	3884
  3131  0F2B                     _PSMC4BLKR	set	3883
  3132  0F17                     _PSMC4BLNK	set	3863
  3133  0F14                     _PSMC4CLK	set	3860
  3134  0F11                     _PSMC4CON	set	3857
  3135  0F2A                     _PSMC4DBF	set	3882
  3136  0F29                     _PSMC4DBR	set	3881
  3137  0F24                     _PSMC4DCH	set	3876
  3138  0F23                     _PSMC4DCL	set	3875
  3139  0F1B                     _PSMC4DCS	set	3867
  3140  0F19                     _PSMC4FEBS	set	3865
  3141  0F2D                     _PSMC4FFA	set	3885
  3142  0F20                     _PSMC4INT	set	3872
  3143  0F12                     _PSMC4MDL	set	3858
  3144  0F15                     _PSMC4OEN	set	3861
  3145  0F22                     _PSMC4PHH	set	3874
  3146  0F21                     _PSMC4PHL	set	3873
  3147  0F1A                     _PSMC4PHS	set	3866
  3148  0F16                     _PSMC4POL	set	3862
  3149  0F26                     _PSMC4PRH	set	3878
  3150  0F25                     _PSMC4PRL	set	3877
  3151  0F1C                     _PSMC4PRS	set	3868
  3152  0F18                     _PSMC4REBS	set	3864
  3153  0F2E                     _PSMC4STR0	set	3886
  3154  0F2F                     _PSMC4STR1	set	3887
  3155  0F13                     _PSMC4SYNC	set	3859
  3156  788E                     _PSMC4LD	set	30862
  3157  1806                     STR_3:	
  3158  1806  340A               	retlw	10
  3159  1807  340D               	retlw	13
  3160  1808  3447               	retlw	71	;'G'
  3161  1809  346F               	retlw	111	;'o'
  3162  180A  346F               	retlw	111	;'o'
  3163  180B  3464               	retlw	100	;'d'
  3164  180C  3420               	retlw	32	;' '
  3165  180D  346A               	retlw	106	;'j'
  3166  180E  346F               	retlw	111	;'o'
  3167  180F  3462               	retlw	98	;'b'
  3168  1810  342E               	retlw	46	;'.'
  3169  1811  3420               	retlw	32	;' '
  3170  1812  3459               	retlw	89	;'Y'
  3171  1813  346F               	retlw	111	;'o'
  3172  1814  3475               	retlw	117	;'u'
  3173  1815  3420               	retlw	32	;' '
  3174  1816  346B               	retlw	107	;'k'
  3175  1817  346E               	retlw	110	;'n'
  3176  1818  346F               	retlw	111	;'o'
  3177  1819  3477               	retlw	119	;'w'
  3178  181A  3420               	retlw	32	;' '
  3179  181B  3468               	retlw	104	;'h'
  3180  181C  346F               	retlw	111	;'o'
  3181  181D  3477               	retlw	119	;'w'
  3182  181E  3420               	retlw	32	;' '
  3183  181F  3474               	retlw	116	;'t'
  3184  1820  346F               	retlw	111	;'o'
  3185  1821  3420               	retlw	32	;' '
  3186  1822  3472               	retlw	114	;'r'
  3187  1823  3465               	retlw	101	;'e'
  3188  1824  3461               	retlw	97	;'a'
  3189  1825  3464               	retlw	100	;'d'
  3190  1826  3420               	retlw	32	;' '
  3191  1827  3469               	retlw	105	;'i'
  3192  1828  346E               	retlw	110	;'n'
  3193  1829  3473               	retlw	115	;'s'
  3194  182A  3474               	retlw	116	;'t'
  3195  182B  3472               	retlw	114	;'r'
  3196  182C  3475               	retlw	117	;'u'
  3197  182D  3463               	retlw	99	;'c'
  3198  182E  3474               	retlw	116	;'t'
  3199  182F  3469               	retlw	105	;'i'
  3200  1830  346F               	retlw	111	;'o'
  3201  1831  346E               	retlw	110	;'n'
  3202  1832  3473               	retlw	115	;'s'
  3203  1833  342E               	retlw	46	;'.'
  3204  1834  340A               	retlw	10
  3205  1835  340A               	retlw	10
  3206  1836  3400               	retlw	0
  3207  1837                     STR_2:	
  3208  1837  3450               	retlw	80	;'P'
  3209  1838  346C               	retlw	108	;'l'
  3210  1839  3465               	retlw	101	;'e'
  3211  183A  3461               	retlw	97	;'a'
  3212  183B  3473               	retlw	115	;'s'
  3213  183C  3465               	retlw	101	;'e'
  3214  183D  3420               	retlw	32	;' '
  3215  183E  3465               	retlw	101	;'e'
  3216  183F  346E               	retlw	110	;'n'
  3217  1840  3474               	retlw	116	;'t'
  3218  1841  3465               	retlw	101	;'e'
  3219  1842  3472               	retlw	114	;'r'
  3220  1843  3420               	retlw	32	;' '
  3221  1844  3474               	retlw	116	;'t'
  3222  1845  3468               	retlw	104	;'h'
  3223  1846  3465               	retlw	101	;'e'
  3224  1847  3420               	retlw	32	;' '
  3225  1848  3463               	retlw	99	;'c'
  3226  1849  3468               	retlw	104	;'h'
  3227  184A  3461               	retlw	97	;'a'
  3228  184B  3472               	retlw	114	;'r'
  3229  184C  3461               	retlw	97	;'a'
  3230  184D  3463               	retlw	99	;'c'
  3231  184E  3474               	retlw	116	;'t'
  3232  184F  3465               	retlw	101	;'e'
  3233  1850  3472               	retlw	114	;'r'
  3234  1851  3420               	retlw	32	;' '
  3235  1852  3441               	retlw	65	;'A'
  3236  1853  343A               	retlw	58	;':'
  3237  1854  3420               	retlw	32	;' '
  3238  1855  3400               	retlw	0
  3239  1856                     STR_4:	
  3240  1856  340A               	retlw	10
  3241  1857  340D               	retlw	13
  3242  1858  3457               	retlw	87	;'W'
  3243  1859  3472               	retlw	114	;'r'
  3244  185A  346F               	retlw	111	;'o'
  3245  185B  346E               	retlw	110	;'n'
  3246  185C  3467               	retlw	103	;'g'
  3247  185D  3420               	retlw	32	;' '
  3248  185E  346B               	retlw	107	;'k'
  3249  185F  3465               	retlw	101	;'e'
  3250  1860  3479               	retlw	121	;'y'
  3251  1861  342E               	retlw	46	;'.'
  3252  1862  3420               	retlw	32	;' '
  3253  1863  3454               	retlw	84	;'T'
  3254  1864  3472               	retlw	114	;'r'
  3255  1865  3479               	retlw	121	;'y'
  3256  1866  3420               	retlw	32	;' '
  3257  1867  3461               	retlw	97	;'a'
  3258  1868  3467               	retlw	103	;'g'
  3259  1869  3461               	retlw	97	;'a'
  3260  186A  3469               	retlw	105	;'i'
  3261  186B  346E               	retlw	110	;'n'
  3262  186C  342E               	retlw	46	;'.'
  3263  186D  340A               	retlw	10
  3264  186E  340D               	retlw	13
  3265  186F  3400               	retlw	0
  3266  1870                     STR_1:	
  3267  1870  340A               	retlw	10
  3268  1871  340D               	retlw	13
  3269  1872  344D               	retlw	77	;'M'
  3270  1873  3461               	retlw	97	;'a'
  3271  1874  3469               	retlw	105	;'i'
  3272  1875  346E               	retlw	110	;'n'
  3273  1876  3420               	retlw	32	;' '
  3274  1877  344C               	retlw	76	;'L'
  3275  1878  346F               	retlw	111	;'o'
  3276  1879  346F               	retlw	111	;'o'
  3277  187A  3470               	retlw	112	;'p'
  3278  187B  3420               	retlw	32	;' '
  3279  187C  3449               	retlw	73	;'I'
  3280  187D  346E               	retlw	110	;'n'
  3281  187E  3464               	retlw	100	;'d'
  3282  187F  3469               	retlw	105	;'i'
  3283  1880  3476               	retlw	118	;'v'
  3284  1881  3469               	retlw	105	;'i'
  3285  1882  3464               	retlw	100	;'d'
  3286  1883  3475               	retlw	117	;'u'
  3287  1884  3461               	retlw	97	;'a'
  3288  1885  346C               	retlw	108	;'l'
  3289  1886  340A               	retlw	10
  3290  1887  340D               	retlw	13
  3291  1888  3400               	retlw	0
  3292                           
  3293                           ; #config settings
  3294  0000                     
  3295                           	psect	cinit
  3296  002B                     start_initialization:	
  3297  002B                     __initialization:	
  3298                           
  3299                           ; Clear objects allocated to COMMON
  3300  002B  01FD               	clrf	__pbssCOMMON& (0+127)
  3301                           
  3302                           ; Clear objects allocated to BANK0
  3303  002C  01CB               	clrf	__pbssBANK0& (0+127)
  3304  002D  01CC               	clrf	(__pbssBANK0+1)& (0+127)
  3305  002E  01CD               	clrf	(__pbssBANK0+2)& (0+127)
  3306  002F  01CE               	clrf	(__pbssBANK0+3)& (0+127)
  3307  0030  01CF               	clrf	(__pbssBANK0+4)& (0+127)
  3308  0031  01D0               	clrf	(__pbssBANK0+5)& (0+127)
  3309  0032  01D1               	clrf	(__pbssBANK0+6)& (0+127)
  3310  0033  01D2               	clrf	(__pbssBANK0+7)& (0+127)
  3311  0034  01D3               	clrf	(__pbssBANK0+8)& (0+127)
  3312  0035  01D4               	clrf	(__pbssBANK0+9)& (0+127)
  3313  0036  01D5               	clrf	(__pbssBANK0+10)& (0+127)
  3314  0037  01D6               	clrf	(__pbssBANK0+11)& (0+127)
  3315                           
  3316                           ; Initialize objects allocated to BANK0
  3317  0038  3180  2003         	fcall	__pidataBANK0	;fetch initializer
  3318  003A  00D7               	movwf	__pdataBANK0& (0+127)
  3319  003B                     end_of_initialization:	
  3320                           ;End of C runtime variable initialization code
  3321                           
  3322  003B                     __end_of__initialization:	
  3323  003B  107E               	bcf	int$flags,0	;clear compiler interrupt flag (level 1)
  3324  003C  0020               	movlb	0
  3325  003D  3193  2B6E         	ljmp	_main	;jump to C main() function
  3326                           
  3327                           	psect	bssCOMMON
  3328  007D                     __pbssCOMMON:	
  3329  007D                     _stun_counter:	
  3330  007D                     	ds	1
  3331                           
  3332                           	psect	bssBANK0
  3333  004B                     __pbssBANK0:	
  3334  004B                     main@F7258:	
  3335  004B                     	ds	3
  3336  004E                     _D1cycles:	
  3337  004E                     	ds	2
  3338  0050                     _D2cycles:	
  3339  0050                     	ds	2
  3340  0052                     _Davgcycles:	
  3341  0052                     	ds	2
  3342  0054                     _numPackets:	
  3343  0054                     	ds	2
  3344  0056                     _damage_received:	
  3345  0056                     	ds	1
  3346                           
  3347                           	psect	dataBANK0
  3348  0057                     __pdataBANK0:	
  3349  0057                     _health:	
  3350  0057                     	ds	1
  3351                           
  3352                           	psect	cstackCOMMON
  3353  0070                     __pcstackCOMMON:	
  3354  0070                     ?_init_pic:	
  3355  0070                     ?_init_ir:	
  3356                           ; 0 bytes @ 0x0
  3357                           
  3358  0070                     ?_init_accel:	
  3359                           ; 0 bytes @ 0x0
  3360                           
  3361  0070                     ?_init_leds:	
  3362                           ; 0 bytes @ 0x0
  3363                           
  3364  0070                     ?_init_isr:	
  3365                           ; 0 bytes @ 0x0
  3366                           
  3367  0070                     ?_init_conn:	
  3368                           ; 0 bytes @ 0x0
  3369                           
  3370  0070                     ?_display_health:	
  3371                           ; 0 bytes @ 0x0
  3372                           
  3373  0070                     ?_play_sound:	
  3374                           ; 0 bytes @ 0x0
  3375                           
  3376  0070                     ?_display_blade_lights:	
  3377                           ; 0 bytes @ 0x0
  3378                           
  3379  0070                     ?_determine_packets_to_send:	
  3380                           ; 0 bytes @ 0x0
  3381                           
  3382  0070                     ?_leds_off:	
  3383                           ; 0 bytes @ 0x0
  3384                           
  3385  0070                     ?_led_start:	
  3386                           ; 0 bytes @ 0x0
  3387                           
  3388  0070                     ?_led_end:	
  3389                           ; 0 bytes @ 0x0
  3390                           
  3391  0070                     ?_isr:	
  3392                           ; 0 bytes @ 0x0
  3393                           
  3394  0070                     ?_writespi:	
  3395                           ; 0 bytes @ 0x0
  3396                           
  3397  0070                     ?i1_display_health:	
  3398                           ; 0 bytes @ 0x0
  3399                           
  3400  0070                     ??i1_display_health:	
  3401                           ; 0 bytes @ 0x0
  3402                           
  3403  0070                     ?i1_display_blade_lights:	
  3404                           ; 0 bytes @ 0x0
  3405                           
  3406  0070                     ?i1_writespi:	
  3407                           ; 0 bytes @ 0x0
  3408                           
  3409  0070                     ??i1_writespi:	
  3410                           ; 0 bytes @ 0x0
  3411                           
  3412  0070                     ?i1_led_start:	
  3413                           ; 0 bytes @ 0x0
  3414                           
  3415  0070                     ?i1_led_end:	
  3416                           ; 0 bytes @ 0x0
  3417                           
  3418  0070                     ?i1_leds_off:	
  3419                           ; 0 bytes @ 0x0
  3420                           
  3421  0070                     ?_determine_sword_was_swung:	
  3422                           ; 0 bytes @ 0x0
  3423                           
  3424  0070                     ?_determine_omega_mode_active:	
  3425                           ; 1 bytes @ 0x0
  3426                           
  3427  0070                     ?_main:	
  3428                           ; 1 bytes @ 0x0
  3429                           
  3430                           
  3431                           ; 2 bytes @ 0x0
  3432  0070                     	ds	1
  3433  0071                     i1writespi@TempVar:	
  3434                           
  3435                           ; 1 bytes @ 0x1
  3436  0071                     	ds	1
  3437  0072                     i1writespi@data_out:	
  3438                           
  3439                           ; 1 bytes @ 0x2
  3440  0072                     	ds	1
  3441  0073                     ??i1_led_start:	
  3442  0073                     ??i1_led_end:	
  3443                           ; 0 bytes @ 0x3
  3444                           
  3445  0073                     ?i1_led_command:	
  3446                           ; 0 bytes @ 0x3
  3447                           
  3448  0073                     ?i1_led1_command:	
  3449                           ; 0 bytes @ 0x3
  3450                           
  3451  0073                     ?i1_led2_command:	
  3452                           ; 0 bytes @ 0x3
  3453                           
  3454  0073                     ?i1_led3_command:	
  3455                           ; 0 bytes @ 0x3
  3456                           
  3457  0073                     ?i1_led4_command:	
  3458                           ; 0 bytes @ 0x3
  3459                           
  3460  0073                     ?i1_led5_command:	
  3461                           ; 0 bytes @ 0x3
  3462                           
  3463  0073                     ??i1_leds_off:	
  3464                           ; 0 bytes @ 0x3
  3465                           
  3466  0073                     i1led_command@red:	
  3467                           ; 0 bytes @ 0x3
  3468                           
  3469  0073                     i1led1_command@red:	
  3470                           ; 1 bytes @ 0x3
  3471                           
  3472  0073                     i1led2_command@red:	
  3473                           ; 1 bytes @ 0x3
  3474                           
  3475  0073                     i1led3_command@red:	
  3476                           ; 1 bytes @ 0x3
  3477                           
  3478  0073                     i1led4_command@red:	
  3479                           ; 1 bytes @ 0x3
  3480                           
  3481  0073                     i1led5_command@red:	
  3482                           ; 1 bytes @ 0x3
  3483                           
  3484                           
  3485                           ; 1 bytes @ 0x3
  3486  0073                     	ds	1
  3487  0074                     i1led_command@green:	
  3488  0074                     i1led1_command@green:	
  3489                           ; 1 bytes @ 0x4
  3490                           
  3491  0074                     i1led2_command@green:	
  3492                           ; 1 bytes @ 0x4
  3493                           
  3494  0074                     i1led3_command@green:	
  3495                           ; 1 bytes @ 0x4
  3496                           
  3497  0074                     i1led4_command@green:	
  3498                           ; 1 bytes @ 0x4
  3499                           
  3500  0074                     i1led5_command@green:	
  3501                           ; 1 bytes @ 0x4
  3502                           
  3503  0074                     i1led_start@i:	
  3504                           ; 1 bytes @ 0x4
  3505                           
  3506  0074                     i1led_end@i:	
  3507                           ; 2 bytes @ 0x4
  3508                           
  3509                           
  3510                           ; 2 bytes @ 0x4
  3511  0074                     	ds	1
  3512  0075                     i1led_command@blue:	
  3513  0075                     i1led1_command@blue:	
  3514                           ; 1 bytes @ 0x5
  3515                           
  3516  0075                     i1led2_command@blue:	
  3517                           ; 1 bytes @ 0x5
  3518                           
  3519  0075                     i1led3_command@blue:	
  3520                           ; 1 bytes @ 0x5
  3521                           
  3522  0075                     i1led4_command@blue:	
  3523                           ; 1 bytes @ 0x5
  3524                           
  3525  0075                     i1led5_command@blue:	
  3526                           ; 1 bytes @ 0x5
  3527                           
  3528  0075                     i1leds_off@i:	
  3529                           ; 1 bytes @ 0x5
  3530                           
  3531                           
  3532                           ; 2 bytes @ 0x5
  3533  0075                     	ds	1
  3534  0076                     ??i1_led_command:	
  3535  0076                     ??i1_led1_command:	
  3536                           ; 0 bytes @ 0x6
  3537                           
  3538  0076                     ??i1_led2_command:	
  3539                           ; 0 bytes @ 0x6
  3540                           
  3541  0076                     ??i1_led3_command:	
  3542                           ; 0 bytes @ 0x6
  3543                           
  3544  0076                     ??i1_led4_command:	
  3545                           ; 0 bytes @ 0x6
  3546                           
  3547  0076                     ??i1_led5_command:	
  3548                           ; 0 bytes @ 0x6
  3549                           
  3550  0076                     i1led_command@brightness:	
  3551                           ; 0 bytes @ 0x6
  3552                           
  3553                           
  3554                           ; 1 bytes @ 0x6
  3555  0076                     	ds	1
  3556  0077                     i1leds_off@i_669:	
  3557                           
  3558                           ; 2 bytes @ 0x7
  3559  0077                     	ds	1
  3560  0078                     i1led1_command@brightness:	
  3561  0078                     i1led2_command@brightness:	
  3562                           ; 1 bytes @ 0x8
  3563                           
  3564  0078                     i1led3_command@brightness:	
  3565                           ; 1 bytes @ 0x8
  3566                           
  3567  0078                     i1led4_command@brightness:	
  3568                           ; 1 bytes @ 0x8
  3569                           
  3570  0078                     i1led5_command@brightness:	
  3571                           ; 1 bytes @ 0x8
  3572                           
  3573                           
  3574                           ; 1 bytes @ 0x8
  3575  0078                     	ds	1
  3576  0079                     i1led1_command@i:	
  3577  0079                     i1led2_command@i:	
  3578                           ; 2 bytes @ 0x9
  3579                           
  3580  0079                     i1led3_command@i:	
  3581                           ; 2 bytes @ 0x9
  3582                           
  3583  0079                     i1led4_command@i:	
  3584                           ; 2 bytes @ 0x9
  3585                           
  3586  0079                     i1led5_command@i:	
  3587                           ; 2 bytes @ 0x9
  3588                           
  3589                           
  3590                           ; 2 bytes @ 0x9
  3591  0079                     	ds	2
  3592  007B                     i1led1_command@i_624:	
  3593  007B                     i1led2_command@i_631:	
  3594                           ; 2 bytes @ 0xB
  3595                           
  3596  007B                     i1led3_command@i_638:	
  3597                           ; 2 bytes @ 0xB
  3598                           
  3599  007B                     i1led4_command@i_645:	
  3600                           ; 2 bytes @ 0xB
  3601                           
  3602  007B                     i1led5_command@i_652:	
  3603                           ; 2 bytes @ 0xB
  3604                           
  3605                           
  3606                           ; 2 bytes @ 0xB
  3607  007B                     	ds	2
  3608                           
  3609                           	psect	cstackBANK0
  3610  0020                     __pcstackBANK0:	
  3611  0020                     ??i1_display_blade_lights:	
  3612                           
  3613                           ; 0 bytes @ 0x0
  3614  0020                     	ds	3
  3615  0023                     i1display_blade_lights@mode:	
  3616                           
  3617                           ; 1 bytes @ 0x3
  3618  0023                     	ds	1
  3619  0024                     i1display_blade_lights@i:	
  3620                           
  3621                           ; 1 bytes @ 0x4
  3622  0024                     	ds	1
  3623  0025                     i1display_blade_lights@i_591:	
  3624                           
  3625                           ; 1 bytes @ 0x5
  3626  0025                     	ds	1
  3627  0026                     i1display_blade_lights@brightness:	
  3628                           
  3629                           ; 1 bytes @ 0x6
  3630  0026                     	ds	1
  3631  0027                     i1display_blade_lights@red:	
  3632                           
  3633                           ; 1 bytes @ 0x7
  3634  0027                     	ds	1
  3635  0028                     i1display_blade_lights@green:	
  3636                           
  3637                           ; 1 bytes @ 0x8
  3638  0028                     	ds	1
  3639  0029                     i1display_blade_lights@blue:	
  3640                           
  3641                           ; 1 bytes @ 0x9
  3642  0029                     	ds	1
  3643  002A                     ??_isr:	
  3644                           
  3645                           ; 0 bytes @ 0xA
  3646  002A                     	ds	2
  3647  002C                     ??_init_pic:	
  3648  002C                     ??_init_ir:	
  3649                           ; 0 bytes @ 0xC
  3650                           
  3651  002C                     ??_init_accel:	
  3652                           ; 0 bytes @ 0xC
  3653                           
  3654  002C                     ??_init_isr:	
  3655                           ; 0 bytes @ 0xC
  3656                           
  3657  002C                     ??_init_conn:	
  3658                           ; 0 bytes @ 0xC
  3659                           
  3660  002C                     ??_display_health:	
  3661                           ; 0 bytes @ 0xC
  3662                           
  3663  002C                     ??_determine_sword_was_swung:	
  3664                           ; 0 bytes @ 0xC
  3665                           
  3666  002C                     ??_determine_omega_mode_active:	
  3667                           ; 0 bytes @ 0xC
  3668                           
  3669  002C                     ??_play_sound:	
  3670                           ; 0 bytes @ 0xC
  3671                           
  3672  002C                     ??_determine_packets_to_send:	
  3673                           ; 0 bytes @ 0xC
  3674                           
  3675  002C                     ?_output_ir:	
  3676                           ; 0 bytes @ 0xC
  3677                           
  3678  002C                     ??_writespi:	
  3679                           ; 0 bytes @ 0xC
  3680                           
  3681  002C                     output_ir@amount:	
  3682                           ; 0 bytes @ 0xC
  3683                           
  3684                           
  3685                           ; 1 bytes @ 0xC
  3686  002C                     	ds	1
  3687  002D                     ??_output_ir:	
  3688  002D                     determine_packets_to_send@packets:	
  3689                           ; 0 bytes @ 0xD
  3690                           
  3691  002D                     writespi@TempVar:	
  3692                           ; 1 bytes @ 0xD
  3693                           
  3694                           
  3695                           ; 1 bytes @ 0xD
  3696  002D                     	ds	1
  3697  002E                     determine_sword_was_swung@xh:	
  3698  002E                     writespi@data_out:	
  3699                           ; 1 bytes @ 0xE
  3700                           
  3701                           
  3702                           ; 1 bytes @ 0xE
  3703  002E                     	ds	1
  3704  002F                     ??_leds_off:	
  3705  002F                     ?_led1_command:	
  3706                           ; 0 bytes @ 0xF
  3707                           
  3708  002F                     ?_led2_command:	
  3709                           ; 0 bytes @ 0xF
  3710                           
  3711  002F                     ?_led3_command:	
  3712                           ; 0 bytes @ 0xF
  3713                           
  3714  002F                     ?_led4_command:	
  3715                           ; 0 bytes @ 0xF
  3716                           
  3717  002F                     ?_led5_command:	
  3718                           ; 0 bytes @ 0xF
  3719                           
  3720  002F                     ??_led_start:	
  3721                           ; 0 bytes @ 0xF
  3722                           
  3723  002F                     ?_led_command:	
  3724                           ; 0 bytes @ 0xF
  3725                           
  3726  002F                     ??_led_end:	
  3727                           ; 0 bytes @ 0xF
  3728                           
  3729  002F                     determine_sword_was_swung@yh:	
  3730                           ; 0 bytes @ 0xF
  3731                           
  3732  002F                     play_sound@sound_selection:	
  3733                           ; 1 bytes @ 0xF
  3734                           
  3735  002F                     led_command@red:	
  3736                           ; 1 bytes @ 0xF
  3737                           
  3738  002F                     led1_command@red:	
  3739                           ; 1 bytes @ 0xF
  3740                           
  3741  002F                     led2_command@red:	
  3742                           ; 1 bytes @ 0xF
  3743                           
  3744  002F                     led3_command@red:	
  3745                           ; 1 bytes @ 0xF
  3746                           
  3747  002F                     led4_command@red:	
  3748                           ; 1 bytes @ 0xF
  3749                           
  3750  002F                     led5_command@red:	
  3751                           ; 1 bytes @ 0xF
  3752                           
  3753  002F                     output_ir@i:	
  3754                           ; 1 bytes @ 0xF
  3755                           
  3756                           
  3757                           ; 2 bytes @ 0xF
  3758  002F                     	ds	1
  3759  0030                     determine_sword_was_swung@zh:	
  3760  0030                     led_command@green:	
  3761                           ; 1 bytes @ 0x10
  3762                           
  3763  0030                     led1_command@green:	
  3764                           ; 1 bytes @ 0x10
  3765                           
  3766  0030                     led2_command@green:	
  3767                           ; 1 bytes @ 0x10
  3768                           
  3769  0030                     led3_command@green:	
  3770                           ; 1 bytes @ 0x10
  3771                           
  3772  0030                     led4_command@green:	
  3773                           ; 1 bytes @ 0x10
  3774                           
  3775  0030                     led5_command@green:	
  3776                           ; 1 bytes @ 0x10
  3777                           
  3778  0030                     led_start@i:	
  3779                           ; 1 bytes @ 0x10
  3780                           
  3781  0030                     led_end@i:	
  3782                           ; 2 bytes @ 0x10
  3783                           
  3784                           
  3785                           ; 2 bytes @ 0x10
  3786  0030                     	ds	1
  3787  0031                     determine_sword_was_swung@xl:	
  3788  0031                     led_command@blue:	
  3789                           ; 1 bytes @ 0x11
  3790                           
  3791  0031                     led1_command@blue:	
  3792                           ; 1 bytes @ 0x11
  3793                           
  3794  0031                     led2_command@blue:	
  3795                           ; 1 bytes @ 0x11
  3796                           
  3797  0031                     led3_command@blue:	
  3798                           ; 1 bytes @ 0x11
  3799                           
  3800  0031                     led4_command@blue:	
  3801                           ; 1 bytes @ 0x11
  3802                           
  3803  0031                     led5_command@blue:	
  3804                           ; 1 bytes @ 0x11
  3805                           
  3806  0031                     output_ir@i_295:	
  3807                           ; 1 bytes @ 0x11
  3808                           
  3809  0031                     leds_off@i:	
  3810                           ; 2 bytes @ 0x11
  3811                           
  3812                           
  3813                           ; 2 bytes @ 0x11
  3814  0031                     	ds	1
  3815  0032                     ??_led1_command:	
  3816  0032                     ??_led2_command:	
  3817                           ; 0 bytes @ 0x12
  3818                           
  3819  0032                     ??_led3_command:	
  3820                           ; 0 bytes @ 0x12
  3821                           
  3822  0032                     ??_led4_command:	
  3823                           ; 0 bytes @ 0x12
  3824                           
  3825  0032                     ??_led5_command:	
  3826                           ; 0 bytes @ 0x12
  3827                           
  3828  0032                     ??_led_command:	
  3829                           ; 0 bytes @ 0x12
  3830                           
  3831  0032                     determine_sword_was_swung@yl:	
  3832                           ; 0 bytes @ 0x12
  3833                           
  3834  0032                     led_command@brightness:	
  3835                           ; 1 bytes @ 0x12
  3836                           
  3837                           
  3838                           ; 1 bytes @ 0x12
  3839  0032                     	ds	1
  3840  0033                     determine_sword_was_swung@zl:	
  3841  0033                     output_ir@i_296:	
  3842                           ; 1 bytes @ 0x13
  3843                           
  3844  0033                     leds_off@i_669:	
  3845                           ; 2 bytes @ 0x13
  3846                           
  3847                           
  3848                           ; 2 bytes @ 0x13
  3849  0033                     	ds	1
  3850  0034                     led1_command@brightness:	
  3851  0034                     led2_command@brightness:	
  3852                           ; 1 bytes @ 0x14
  3853                           
  3854  0034                     led3_command@brightness:	
  3855                           ; 1 bytes @ 0x14
  3856                           
  3857  0034                     led4_command@brightness:	
  3858                           ; 1 bytes @ 0x14
  3859                           
  3860  0034                     led5_command@brightness:	
  3861                           ; 1 bytes @ 0x14
  3862                           
  3863  0034                     determine_sword_was_swung@x_pos_thresh:	
  3864                           ; 1 bytes @ 0x14
  3865                           
  3866                           
  3867                           ; 2 bytes @ 0x14
  3868  0034                     	ds	1
  3869  0035                     ??_init_leds:	
  3870  0035                     output_ir@pkt_type:	
  3871                           ; 0 bytes @ 0x15
  3872                           
  3873  0035                     led1_command@i:	
  3874                           ; 1 bytes @ 0x15
  3875                           
  3876  0035                     led2_command@i:	
  3877                           ; 2 bytes @ 0x15
  3878                           
  3879  0035                     led3_command@i:	
  3880                           ; 2 bytes @ 0x15
  3881                           
  3882  0035                     led4_command@i:	
  3883                           ; 2 bytes @ 0x15
  3884                           
  3885  0035                     led5_command@i:	
  3886                           ; 2 bytes @ 0x15
  3887                           
  3888                           
  3889                           ; 2 bytes @ 0x15
  3890  0035                     	ds	1
  3891  0036                     determine_sword_was_swung@x_neg_thresh:	
  3892                           
  3893                           ; 2 bytes @ 0x16
  3894  0036                     	ds	1
  3895  0037                     led1_command@i_624:	
  3896  0037                     led2_command@i_631:	
  3897                           ; 2 bytes @ 0x17
  3898                           
  3899  0037                     led3_command@i_638:	
  3900                           ; 2 bytes @ 0x17
  3901                           
  3902  0037                     led4_command@i_645:	
  3903                           ; 2 bytes @ 0x17
  3904                           
  3905  0037                     led5_command@i_652:	
  3906                           ; 2 bytes @ 0x17
  3907                           
  3908                           
  3909                           ; 2 bytes @ 0x17
  3910  0037                     	ds	1
  3911  0038                     determine_sword_was_swung@y_pos_thresh:	
  3912                           
  3913                           ; 2 bytes @ 0x18
  3914  0038                     	ds	1
  3915  0039                     ??_display_blade_lights:	
  3916                           
  3917                           ; 0 bytes @ 0x19
  3918  0039                     	ds	1
  3919  003A                     determine_sword_was_swung@y_neg_thresh:	
  3920                           
  3921                           ; 2 bytes @ 0x1A
  3922  003A                     	ds	2
  3923  003C                     display_blade_lights@i:	
  3924  003C                     determine_sword_was_swung@z_pos_thresh:	
  3925                           ; 1 bytes @ 0x1C
  3926                           
  3927                           
  3928                           ; 2 bytes @ 0x1C
  3929  003C                     	ds	1
  3930  003D                     display_blade_lights@i_591:	
  3931                           
  3932                           ; 1 bytes @ 0x1D
  3933  003D                     	ds	1
  3934  003E                     display_blade_lights@mode:	
  3935  003E                     determine_sword_was_swung@z_neg_thresh:	
  3936                           ; 1 bytes @ 0x1E
  3937                           
  3938                           
  3939                           ; 2 bytes @ 0x1E
  3940  003E                     	ds	1
  3941  003F                     display_blade_lights@brightness:	
  3942                           
  3943                           ; 1 bytes @ 0x1F
  3944  003F                     	ds	1
  3945  0040                     display_blade_lights@red:	
  3946  0040                     determine_sword_was_swung@x:	
  3947                           ; 1 bytes @ 0x20
  3948                           
  3949                           
  3950                           ; 2 bytes @ 0x20
  3951  0040                     	ds	1
  3952  0041                     display_blade_lights@green:	
  3953                           
  3954                           ; 1 bytes @ 0x21
  3955  0041                     	ds	1
  3956  0042                     display_blade_lights@blue:	
  3957  0042                     determine_sword_was_swung@y:	
  3958                           ; 1 bytes @ 0x22
  3959                           
  3960                           
  3961                           ; 2 bytes @ 0x22
  3962  0042                     	ds	2
  3963  0044                     determine_sword_was_swung@z:	
  3964                           
  3965                           ; 2 bytes @ 0x24
  3966  0044                     	ds	2
  3967  0046                     ??_main:	
  3968                           
  3969                           ; 0 bytes @ 0x26
  3970  0046                     	ds	1
  3971  0047                     main@pkt_arr:	
  3972                           
  3973                           ; 3 bytes @ 0x27
  3974  0047                     	ds	3
  3975  004A                     main@i:	
  3976                           
  3977                           ; 1 bytes @ 0x2A
  3978  004A                     	ds	1
  3979                           
  3980                           	psect	maintext
  3981  136E                     __pmaintext:	
  3982 ;;
  3983 ;;Main: autosize = 0, tempsize = 1, incstack = 0, save=0
  3984 ;;
  3985 ;; *************** function _main *****************
  3986 ;; Defined at:
  3987 ;;		line 17 in file "../../source/main.c"
  3988 ;; Parameters:    Size  Location     Type
  3989 ;;		None
  3990 ;; Auto vars:     Size  Location     Type
  3991 ;;  pkt_arr         3   39[BANK0 ] unsigned char [3]
  3992 ;;  i               1   42[BANK0 ] unsigned char 
  3993 ;; Return value:  Size  Location     Type
  3994 ;;                  2   58[None  ] int 
  3995 ;; Registers used:
  3996 ;;		wreg, fsr0l, fsr0h, fsr1l, fsr1h, status,2, status,0, pclath, cstack
  3997 ;; Tracked objects:
  3998 ;;		On entry : B1F/0
  3999 ;;		On exit  : 0/0
  4000 ;;		Unchanged: 0/0
  4001 ;; Data sizes:     COMMON   BANK0   BANK1   BANK2   BANK3   BANK4   BANK5   BANK6   BANK7   BANK8   BANK9  BANK10  BANK1
      +1  BANK12  BANK13  BANK14  BANK15  BANK16  BANK17  BANK18  BANK19  BANK20  BANK21  BANK22  BANK23  BANK24  BANK25
  4002 ;;      Params:         0       0       0       0       0       0       0       0       0       0       0       0       
      +0       0       0       0       0       0       0       0       0       0       0       0       0       0       0
  4003 ;;      Locals:         0       4       0       0       0       0       0       0       0       0       0       0       
      +0       0       0       0       0       0       0       0       0       0       0       0       0       0       0
  4004 ;;      Temps:          0       1       0       0       0       0       0       0       0       0       0       0       
      +0       0       0       0       0       0       0       0       0       0       0       0       0       0       0
  4005 ;;      Totals:         0       5       0       0       0       0       0       0       0       0       0       0       
      +0       0       0       0       0       0       0       0       0       0       0       0       0       0       0
  4006 ;;Total ram usage:        5 bytes
  4007 ;; Hardware stack levels required when called:    7
  4008 ;; This function calls:
  4009 ;;		_determine_omega_mode_active
  4010 ;;		_determine_packets_to_send
  4011 ;;		_determine_sword_was_swung
  4012 ;;		_display_blade_lights
  4013 ;;		_display_health
  4014 ;;		_init_accel
  4015 ;;		_init_conn
  4016 ;;		_init_ir
  4017 ;;		_init_isr
  4018 ;;		_init_leds
  4019 ;;		_init_pic
  4020 ;;		_output_ir
  4021 ;;		_play_sound
  4022 ;; This function is called by:
  4023 ;;		Startup code after reset
  4024 ;; This function uses a non-reentrant model
  4025 ;;
  4026                           
  4027                           
  4028                           ;psect for function _main
  4029  136E                     _main:	
  4030                           
  4031                           ;main.c: 19: char pkt_arr[] = {0, 0, 0};
  4032                           
  4033                           ;incstack = 0
  4034                           ; Regs used in _main: [wreg-fsr1h+status,2+status,0+pclath+cstack]
  4035  136E  0020               	movlb	0	; select bank0
  4036  136F  084B               	movf	main@F7258,w
  4037  1370  00C7               	movwf	main@pkt_arr
  4038  1371  084C               	movf	main@F7258+1,w
  4039  1372  00C8               	movwf	main@pkt_arr+1
  4040  1373  084D               	movf	main@F7258+2,w
  4041  1374  00C9               	movwf	main@pkt_arr+2
  4042                           
  4043                           ;main.c: 20: unsigned char i = 0;
  4044  1375  01CA               	clrf	main@i
  4045                           
  4046                           ;main.c: 23: init_pic();
  4047  1376  3193  2341  3193   	fcall	_init_pic
  4048                           
  4049                           ;main.c: 27: init_ir();
  4050  1379  3188  2003  3193   	fcall	_init_ir
  4051                           
  4052                           ;main.c: 28: init_accel();
  4053  137C  3192  2295  3193   	fcall	_init_accel
  4054                           
  4055                           ;main.c: 29: init_leds();
  4056  137F  3186  269A  3193   	fcall	_init_leds
  4057                           
  4058                           ;main.c: 30: init_isr();
  4059  1382  3192  223D  3193   	fcall	_init_isr
  4060                           
  4061                           ;main.c: 31: init_conn();
  4062  1385  3188  2000  3193   	fcall	_init_conn
  4063  1388                     l3749:	
  4064                           ;main.c: 48: while(1)
  4065                           
  4066                           
  4067                           ;main.c: 49: {
  4068                           ;main.c: 134: display_health();
  4069  1388  3194  2464  3193   	fcall	_display_health
  4070                           
  4071                           ;main.c: 135: if( determine_sword_was_swung() )
  4072  138B  3185  2596  3193   	fcall	_determine_sword_was_swung
  4073  138E  3A00               	xorlw	0
  4074  138F  1903               	skipnz
  4075  1390  2B88               	goto	l3749
  4076                           
  4077                           ;main.c: 136: {
  4078                           ;main.c: 137: if(!determine_omega_mode_active())
  4079  1391  3192  2238  3193   	fcall	_determine_omega_mode_active
  4080  1394  3A00               	xorlw	0
  4081  1395  1D03               	skipz
  4082  1396  2BC7               	goto	l3777
  4083                           
  4084                           ;main.c: 138: {
  4085                           ;main.c: 139: play_sound(0);
  4086  1397  3000               	movlw	0
  4087  1398  3193  2317  3193   	fcall	_play_sound
  4088                           
  4089                           ;main.c: 140: display_blade_lights(0);
  4090  139B  3000               	movlw	0
  4091  139C  3180  203F  3193   	fcall	_display_blade_lights
  4092                           
  4093                           ;main.c: 142: determine_packets_to_send(&pkt_arr);
  4094  139F  3047               	movlw	(low (main@pkt_arr| 0))& (0+255)
  4095  13A0  3192  22EE  3193   	fcall	_determine_packets_to_send
  4096                           
  4097                           ;main.c: 144: for(i = 3; i > 0; --i)
  4098  13A3  3003               	movlw	3
  4099  13A4  0020               	movlb	0	; select bank0
  4100  13A5  00C6               	movwf	??_main
  4101  13A6  0846               	movf	??_main,w
  4102  13A7  00CA               	movwf	main@i
  4103  13A8                     L1:	
  4104  13A8  084A               	movf	main@i,w
  4105  13A9  1903               	btfsc	3,2
  4106  13AA  2B88               	goto	l3749
  4107                           
  4108                           ;main.c: 145: {
  4109                           ;main.c: 146: if(pkt_arr[i-1] > 0)
  4110  13AB  084A               	movf	main@i,w
  4111  13AC  3EFF               	addlw	255
  4112  13AD  3E47               	addlw	(low (main@pkt_arr| 0))& (0+255)
  4113  13AE  0086               	movwf	6
  4114  13AF  0187               	clrf	7
  4115  13B0  0801               	movf	1,w
  4116  13B1  1903               	btfsc	3,2
  4117  13B2  2BC3               	goto	l3773
  4118                           
  4119                           ;main.c: 147: {
  4120                           ;main.c: 148: GIE = 0;
  4121  13B3  138B               	bcf	11,7	;volatile
  4122                           
  4123                           ;main.c: 149: output_ir(i-1, pkt_arr[i-1]);
  4124  13B4  084A               	movf	main@i,w
  4125  13B5  3EFF               	addlw	255
  4126  13B6  3E47               	addlw	(low (main@pkt_arr| 0))& (0+255)
  4127  13B7  0086               	movwf	6
  4128  13B8  0187               	clrf	7
  4129  13B9  0801               	movf	1,w
  4130  13BA  00C6               	movwf	??_main
  4131  13BB  0846               	movf	??_main,w
  4132  13BC  00AC               	movwf	output_ir@amount
  4133  13BD  084A               	movf	main@i,w
  4134  13BE  3EFF               	addlw	255
  4135  13BF  3184  2457  3193   	fcall	_output_ir
  4136                           
  4137                           ;main.c: 150: GIE = 1;
  4138  13C2  178B               	bsf	11,7	;volatile
  4139  13C3                     l3773:	
  4140  13C3  3001               	movlw	1
  4141  13C4  0020               	movlb	0	; select bank0
  4142  13C5  02CA               	subwf	main@i,f
  4143  13C6  2BA8               	goto	L1
  4144  13C7                     l3777:	
  4145                           ;main.c: 151: }
  4146                           ;main.c: 152: }
  4147                           ;main.c: 153: }
  4148                           
  4149                           
  4150                           ;main.c: 154: else
  4151                           ;main.c: 155: {
  4152                           ;main.c: 156: play_sound(1);
  4153  13C7  3001               	movlw	1
  4154  13C8  3193  2317  3193   	fcall	_play_sound
  4155                           
  4156                           ;main.c: 157: display_blade_lights(1);
  4157  13CB  3001               	movlw	1
  4158  13CC  3180  203F  3193   	fcall	_display_blade_lights
  4159  13CF  2B88               	goto	l3749
  4160  13D0                     __end_of_main:	
  4161                           
  4162                           	psect	text1
  4163  1317                     __ptext1:	
  4164 ;; *************** function _play_sound *****************
  4165 ;; Defined at:
  4166 ;;		line 3 in file "../../source/audio.c"
  4167 ;; Parameters:    Size  Location     Type
  4168 ;;  sound_select    1    wreg     unsigned char 
  4169 ;; Auto vars:     Size  Location     Type
  4170 ;;  sound_select    1   15[BANK0 ] unsigned char 
  4171 ;; Return value:  Size  Location     Type
  4172 ;;		None               void
  4173 ;; Registers used:
  4174 ;;		wreg, status,2, status,0
  4175 ;; Tracked objects:
  4176 ;;		On entry : 0/0
  4177 ;;		On exit  : 0/0
  4178 ;;		Unchanged: 0/0
  4179 ;; Data sizes:     COMMON   BANK0   BANK1   BANK2   BANK3   BANK4   BANK5   BANK6   BANK7   BANK8   BANK9  BANK10  BANK1
      +1  BANK12  BANK13  BANK14  BANK15  BANK16  BANK17  BANK18  BANK19  BANK20  BANK21  BANK22  BANK23  BANK24  BANK25
  4180 ;;      Params:         0       0       0       0       0       0       0       0       0       0       0       0       
      +0       0       0       0       0       0       0       0       0       0       0       0       0       0       0
  4181 ;;      Locals:         0       1       0       0       0       0       0       0       0       0       0       0       
      +0       0       0       0       0       0       0       0       0       0       0       0       0       0       0
  4182 ;;      Temps:          0       3       0       0       0       0       0       0       0       0       0       0       
      +0       0       0       0       0       0       0       0       0       0       0       0       0       0       0
  4183 ;;      Totals:         0       4       0       0       0       0       0       0       0       0       0       0       
      +0       0       0       0       0       0       0       0       0       0       0       0       0       0       0
  4184 ;;Total ram usage:        4 bytes
  4185 ;; Hardware stack levels used:    1
  4186 ;; Hardware stack levels required when called:    4
  4187 ;; This function calls:
  4188 ;;		Nothing
  4189 ;; This function is called by:
  4190 ;;		_main
  4191 ;; This function uses a non-reentrant model
  4192 ;;
  4193                           
  4194                           
  4195                           ;psect for function _play_sound
  4196  1317                     _play_sound:	
  4197                           
  4198                           ;incstack = 0
  4199                           ; Regs used in _play_sound: [wreg+status,2+status,0]
  4200                           ;play_sound@sound_selection stored from wreg
  4201  1317  0020               	movlb	0	; select bank0
  4202  1318  00AF               	movwf	play_sound@sound_selection
  4203                           
  4204                           ;audio.c: 5: if( sound_selection == 0 )
  4205  1319  082F               	movf	play_sound@sound_selection,w
  4206  131A  1D03               	btfss	3,2
  4207  131B  2B2D               	goto	l3391
  4208                           
  4209                           ;audio.c: 6: {
  4210                           ;audio.c: 7: RB3 = 0;
  4211  131C  118D               	bcf	13,3	;volatile
  4212                           
  4213                           ;audio.c: 8: _delay((unsigned long)((150)*(32000000/4000.0)));
  4214  131D  3007               	movlw	7
  4215  131E  00AE               	movwf	??_play_sound+2
  4216  131F  3017               	movlw	23
  4217  1320  00AD               	movwf	??_play_sound+1
  4218  1321  306F               	movlw	111
  4219  1322  00AC               	movwf	??_play_sound
  4220  1323                     u2397:	
  4221  1323  0BAC               	decfsz	??_play_sound,f
  4222  1324  2B23               	goto	u2397
  4223  1325  0BAD               	decfsz	??_play_sound+1,f
  4224  1326  2B23               	goto	u2397
  4225  1327  0BAE               	decfsz	??_play_sound+2,f
  4226  1328  2B23               	goto	u2397
  4227  1329  0000               	nop
  4228                           
  4229                           ;audio.c: 9: RB3 = 1;
  4230  132A  0020               	movlb	0	; select bank0
  4231  132B  158D               	bsf	13,3	;volatile
  4232                           
  4233                           ;audio.c: 10: }
  4234  132C  0008               	return
  4235  132D                     l3391:	
  4236                           
  4237                           ;audio.c: 11: else if( sound_selection == 1 )
  4238  132D  032F               	decf	play_sound@sound_selection,w
  4239  132E  1D03               	btfss	3,2
  4240  132F  0008               	return
  4241                           
  4242                           ;audio.c: 12: {
  4243                           ;audio.c: 13: RB2 = 0;
  4244  1330  110D               	bcf	13,2	;volatile
  4245                           
  4246                           ;audio.c: 14: _delay((unsigned long)((150)*(32000000/4000.0)));
  4247  1331  3007               	movlw	7
  4248  1332  00AE               	movwf	??_play_sound+2
  4249  1333  3017               	movlw	23
  4250  1334  00AD               	movwf	??_play_sound+1
  4251  1335  306F               	movlw	111
  4252  1336  00AC               	movwf	??_play_sound
  4253  1337                     u2407:	
  4254  1337  0BAC               	decfsz	??_play_sound,f
  4255  1338  2B37               	goto	u2407
  4256  1339  0BAD               	decfsz	??_play_sound+1,f
  4257  133A  2B37               	goto	u2407
  4258  133B  0BAE               	decfsz	??_play_sound+2,f
  4259  133C  2B37               	goto	u2407
  4260  133D  0000               	nop
  4261                           
  4262                           ;audio.c: 15: RB2 = 1;
  4263  133E  0020               	movlb	0	; select bank0
  4264  133F  150D               	bsf	13,2	;volatile
  4265  1340  0008               	return
  4266  1341                     __end_of_play_sound:	
  4267                           
  4268                           	psect	text2
  4269  0457                     __ptext2:	
  4270 ;; *************** function _output_ir *****************
  4271 ;; Defined at:
  4272 ;;		line 41 in file "../../source/ir.c"
  4273 ;; Parameters:    Size  Location     Type
  4274 ;;  pkt_type        1    wreg     unsigned char 
  4275 ;;  amount          1   12[BANK0 ] unsigned char 
  4276 ;; Auto vars:     Size  Location     Type
  4277 ;;  pkt_type        1   21[BANK0 ] unsigned char 
  4278 ;;  i               2   19[BANK0 ] int 
  4279 ;;  i               2   17[BANK0 ] int 
  4280 ;;  i               2   15[BANK0 ] int 
  4281 ;; Return value:  Size  Location     Type
  4282 ;;		None               void
  4283 ;; Registers used:
  4284 ;;		wreg, status,2, status,0
  4285 ;; Tracked objects:
  4286 ;;		On entry : 0/0
  4287 ;;		On exit  : 0/0
  4288 ;;		Unchanged: 0/0
  4289 ;; Data sizes:     COMMON   BANK0   BANK1   BANK2   BANK3   BANK4   BANK5   BANK6   BANK7   BANK8   BANK9  BANK10  BANK1
      +1  BANK12  BANK13  BANK14  BANK15  BANK16  BANK17  BANK18  BANK19  BANK20  BANK21  BANK22  BANK23  BANK24  BANK25
  4290 ;;      Params:         0       1       0       0       0       0       0       0       0       0       0       0       
      +0       0       0       0       0       0       0       0       0       0       0       0       0       0       0
  4291 ;;      Locals:         0       7       0       0       0       0       0       0       0       0       0       0       
      +0       0       0       0       0       0       0       0       0       0       0       0       0       0       0
  4292 ;;      Temps:          0       2       0       0       0       0       0       0       0       0       0       0       
      +0       0       0       0       0       0       0       0       0       0       0       0       0       0       0
  4293 ;;      Totals:         0      10       0       0       0       0       0       0       0       0       0       0       
      +0       0       0       0       0       0       0       0       0       0       0       0       0       0       0
  4294 ;;Total ram usage:       10 bytes
  4295 ;; Hardware stack levels used:    1
  4296 ;; Hardware stack levels required when called:    4
  4297 ;; This function calls:
  4298 ;;		Nothing
  4299 ;; This function is called by:
  4300 ;;		_main
  4301 ;; This function uses a non-reentrant model
  4302 ;;
  4303                           
  4304                           
  4305                           ;psect for function _output_ir
  4306  0457                     _output_ir:	
  4307                           
  4308                           ;incstack = 0
  4309                           ; Regs used in _output_ir: [wreg+status,2+status,0]
  4310                           ;output_ir@pkt_type stored from wreg
  4311  0457  0020               	movlb	0	; select bank0
  4312  0458  00B5               	movwf	output_ir@pkt_type
  4313                           
  4314                           ;ir.c: 43: if(pkt_type == 0)
  4315  0459  0835               	movf	output_ir@pkt_type,w
  4316  045A  1D03               	btfss	3,2
  4317  045B  2CC3               	goto	l3513
  4318                           
  4319                           ;ir.c: 44: {
  4320                           ;ir.c: 45: for(int i = 0;i < amount;i++){
  4321  045C  01AF               	clrf	output_ir@i
  4322  045D  01B0               	clrf	output_ir@i+1
  4323  045E                     l254:	
  4324  045E  0830               	movf	output_ir@i+1,w
  4325  045F  3A80               	xorlw	128
  4326  0460  00AD               	movwf	??_output_ir
  4327  0461  3080               	movlw	128
  4328  0462  022D               	subwf	??_output_ir,w
  4329  0463  1D03               	skipz
  4330  0464  2C67               	goto	u2085
  4331  0465  082C               	movf	output_ir@amount,w
  4332  0466  022F               	subwf	output_ir@i,w
  4333  0467                     u2085:	
  4334  0467  1803               	btfsc	3,0
  4335  0468  0008               	return
  4336                           
  4337                           ;ir.c: 47: P1MDLBIT = 1;
  4338  0469  003D               	movlb	29	; select bank29
  4339  046A  1692               	bsf	18,5	;volatile
  4340                           
  4341                           ;ir.c: 48: _delay((unsigned long)((178)*(32000000/4000000.0)));
  4342  046B  30ED               	movlw	237
  4343  046C  0020               	movlb	0	; select bank0
  4344  046D  00AD               	movwf	??_output_ir
  4345  046E                     u2417:	
  4346  046E  3200               	nop2
  4347  046F  0000               	nop
  4348  0470  0BAD               	decfsz	??_output_ir,f
  4349  0471  2C6E               	goto	u2417
  4350  0472  0000               	nop
  4351                           
  4352                           ;ir.c: 49: P1MDLBIT = 0;
  4353  0473  003D               	movlb	29	; select bank29
  4354  0474  1292               	bcf	18,5	;volatile
  4355                           
  4356                           ;ir.c: 50: _delay((unsigned long)((2678-178)*(32000000/4000000.0)));
  4357  0475  301A               	movlw	26
  4358  0476  0020               	movlb	0	; select bank0
  4359  0477  00AE               	movwf	??_output_ir+1
  4360  0478  30F8               	movlw	248
  4361  0479  00AD               	movwf	??_output_ir
  4362  047A                     u2427:	
  4363  047A  0BAD               	decfsz	??_output_ir,f
  4364  047B  2C7A               	goto	u2427
  4365  047C  0BAE               	decfsz	??_output_ir+1,f
  4366  047D  2C7A               	goto	u2427
  4367  047E  0000               	nop
  4368                           
  4369                           ;ir.c: 53: P1MDLBIT = 1;
  4370  047F  003D               	movlb	29	; select bank29
  4371  0480  1692               	bsf	18,5	;volatile
  4372                           
  4373                           ;ir.c: 54: _delay((unsigned long)((357)*(32000000/4000000.0)));
  4374  0481  3004               	movlw	4
  4375  0482  0020               	movlb	0	; select bank0
  4376  0483  00AE               	movwf	??_output_ir+1
  4377  0484  30B4               	movlw	180
  4378  0485  00AD               	movwf	??_output_ir
  4379  0486                     u2437:	
  4380  0486  0BAD               	decfsz	??_output_ir,f
  4381  0487  2C86               	goto	u2437
  4382  0488  0BAE               	decfsz	??_output_ir+1,f
  4383  0489  2C86               	goto	u2437
  4384  048A  0000               	nop
  4385                           
  4386                           ;ir.c: 55: P1MDLBIT = 0;
  4387  048B  003D               	movlb	29	; select bank29
  4388  048C  1292               	bcf	18,5	;volatile
  4389                           
  4390                           ;ir.c: 56: _delay((unsigned long)((2678-357)*(32000000/4000000.0)));
  4391  048D  3019               	movlw	25
  4392  048E  0020               	movlb	0	; select bank0
  4393  048F  00AE               	movwf	??_output_ir+1
  4394  0490  301B               	movlw	27
  4395  0491  00AD               	movwf	??_output_ir
  4396  0492                     u2447:	
  4397  0492  0BAD               	decfsz	??_output_ir,f
  4398  0493  2C92               	goto	u2447
  4399  0494  0BAE               	decfsz	??_output_ir+1,f
  4400  0495  2C92               	goto	u2447
  4401  0496  3200               	nop2
  4402                           
  4403                           ;ir.c: 57: P1MDLBIT = 1;
  4404  0497  003D               	movlb	29	; select bank29
  4405  0498  1692               	bsf	18,5	;volatile
  4406                           
  4407                           ;ir.c: 58: _delay((unsigned long)((357)*(32000000/4000000.0)));
  4408  0499  3004               	movlw	4
  4409  049A  0020               	movlb	0	; select bank0
  4410  049B  00AE               	movwf	??_output_ir+1
  4411  049C  30B4               	movlw	180
  4412  049D  00AD               	movwf	??_output_ir
  4413  049E                     u2457:	
  4414  049E  0BAD               	decfsz	??_output_ir,f
  4415  049F  2C9E               	goto	u2457
  4416  04A0  0BAE               	decfsz	??_output_ir+1,f
  4417  04A1  2C9E               	goto	u2457
  4418  04A2  0000               	nop
  4419                           
  4420                           ;ir.c: 59: P1MDLBIT = 0;
  4421  04A3  003D               	movlb	29	; select bank29
  4422  04A4  1292               	bcf	18,5	;volatile
  4423                           
  4424                           ;ir.c: 60: _delay((unsigned long)((2678-357)*(32000000/4000000.0)));
  4425  04A5  3019               	movlw	25
  4426  04A6  0020               	movlb	0	; select bank0
  4427  04A7  00AE               	movwf	??_output_ir+1
  4428  04A8  301B               	movlw	27
  4429  04A9  00AD               	movwf	??_output_ir
  4430  04AA                     u2467:	
  4431  04AA  0BAD               	decfsz	??_output_ir,f
  4432  04AB  2CAA               	goto	u2467
  4433  04AC  0BAE               	decfsz	??_output_ir+1,f
  4434  04AD  2CAA               	goto	u2467
  4435  04AE  3200               	nop2
  4436                           
  4437                           ;ir.c: 63: P1MDLBIT = 1;
  4438  04AF  003D               	movlb	29	; select bank29
  4439  04B0  1692               	bsf	18,5	;volatile
  4440                           
  4441                           ;ir.c: 64: _delay((unsigned long)((2678)*(32000000/4000000.0)));
  4442  04B1  301C               	movlw	28
  4443  04B2  0020               	movlb	0	; select bank0
  4444  04B3  00AE               	movwf	??_output_ir+1
  4445  04B4  30D1               	movlw	209
  4446  04B5  00AD               	movwf	??_output_ir
  4447  04B6                     u2477:	
  4448  04B6  0BAD               	decfsz	??_output_ir,f
  4449  04B7  2CB6               	goto	u2477
  4450  04B8  0BAE               	decfsz	??_output_ir+1,f
  4451  04B9  2CB6               	goto	u2477
  4452  04BA  3200               	nop2
  4453                           
  4454                           ;ir.c: 65: P1MDLBIT = 0;
  4455  04BB  003D               	movlb	29	; select bank29
  4456  04BC  1292               	bcf	18,5	;volatile
  4457  04BD  3001               	movlw	1
  4458  04BE  0020               	movlb	0	; select bank0
  4459  04BF  07AF               	addwf	output_ir@i,f
  4460  04C0  3000               	movlw	0
  4461  04C1  3DB0               	addwfc	output_ir@i+1,f
  4462  04C2  2C5E               	goto	l254
  4463  04C3                     l3513:	
  4464                           ;ir.c: 66: }
  4465                           ;ir.c: 68: }
  4466                           
  4467                           
  4468                           ;ir.c: 69: else if(pkt_type == 1)
  4469  04C3  0020               	movlb	0	; select bank0
  4470  04C4  0335               	decf	output_ir@pkt_type,w
  4471  04C5  1D03               	btfss	3,2
  4472  04C6  2D2E               	goto	l3533
  4473                           
  4474                           ;ir.c: 70: {
  4475                           ;ir.c: 71: for(int i = 0;i < amount;i++){
  4476  04C7  01B1               	clrf	output_ir@i_295
  4477  04C8  01B2               	clrf	output_ir@i_295+1
  4478  04C9                     l259:	
  4479  04C9  0832               	movf	output_ir@i_295+1,w
  4480  04CA  3A80               	xorlw	128
  4481  04CB  00AD               	movwf	??_output_ir
  4482  04CC  3080               	movlw	128
  4483  04CD  022D               	subwf	??_output_ir,w
  4484  04CE  1D03               	skipz
  4485  04CF  2CD2               	goto	u2105
  4486  04D0  082C               	movf	output_ir@amount,w
  4487  04D1  0231               	subwf	output_ir@i_295,w
  4488  04D2                     u2105:	
  4489  04D2  1803               	btfsc	3,0
  4490  04D3  0008               	return
  4491                           
  4492                           ;ir.c: 73: P1MDLBIT = 1;
  4493  04D4  003D               	movlb	29	; select bank29
  4494  04D5  1692               	bsf	18,5	;volatile
  4495                           
  4496                           ;ir.c: 74: _delay((unsigned long)((178)*(32000000/4000000.0)));
  4497  04D6  30ED               	movlw	237
  4498  04D7  0020               	movlb	0	; select bank0
  4499  04D8  00AD               	movwf	??_output_ir
  4500  04D9                     u2487:	
  4501  04D9  3200               	nop2
  4502  04DA  0000               	nop
  4503  04DB  0BAD               	decfsz	??_output_ir,f
  4504  04DC  2CD9               	goto	u2487
  4505  04DD  0000               	nop
  4506                           
  4507                           ;ir.c: 75: P1MDLBIT = 0;
  4508  04DE  003D               	movlb	29	; select bank29
  4509  04DF  1292               	bcf	18,5	;volatile
  4510                           
  4511                           ;ir.c: 76: _delay((unsigned long)((2678-178)*(32000000/4000000.0)));
  4512  04E0  301A               	movlw	26
  4513  04E1  0020               	movlb	0	; select bank0
  4514  04E2  00AE               	movwf	??_output_ir+1
  4515  04E3  30F8               	movlw	248
  4516  04E4  00AD               	movwf	??_output_ir
  4517  04E5                     u2497:	
  4518  04E5  0BAD               	decfsz	??_output_ir,f
  4519  04E6  2CE5               	goto	u2497
  4520  04E7  0BAE               	decfsz	??_output_ir+1,f
  4521  04E8  2CE5               	goto	u2497
  4522  04E9  0000               	nop
  4523                           
  4524                           ;ir.c: 79: P1MDLBIT = 1;
  4525  04EA  003D               	movlb	29	; select bank29
  4526  04EB  1692               	bsf	18,5	;volatile
  4527                           
  4528                           ;ir.c: 80: _delay((unsigned long)((535)*(32000000/4000000.0)));
  4529  04EC  3006               	movlw	6
  4530  04ED  0020               	movlb	0	; select bank0
  4531  04EE  00AE               	movwf	??_output_ir+1
  4532  04EF  308D               	movlw	141
  4533  04F0  00AD               	movwf	??_output_ir
  4534  04F1                     u2507:	
  4535  04F1  0BAD               	decfsz	??_output_ir,f
  4536  04F2  2CF1               	goto	u2507
  4537  04F3  0BAE               	decfsz	??_output_ir+1,f
  4538  04F4  2CF1               	goto	u2507
  4539  04F5  3200               	nop2
  4540                           
  4541                           ;ir.c: 81: P1MDLBIT = 0;
  4542  04F6  003D               	movlb	29	; select bank29
  4543  04F7  1292               	bcf	18,5	;volatile
  4544                           
  4545                           ;ir.c: 82: _delay((unsigned long)((2678-535)*(32000000/4000000.0)));
  4546  04F8  3017               	movlw	23
  4547  04F9  0020               	movlb	0	; select bank0
  4548  04FA  00AE               	movwf	??_output_ir+1
  4549  04FB  3042               	movlw	66
  4550  04FC  00AD               	movwf	??_output_ir
  4551  04FD                     u2517:	
  4552  04FD  0BAD               	decfsz	??_output_ir,f
  4553  04FE  2CFD               	goto	u2517
  4554  04FF  0BAE               	decfsz	??_output_ir+1,f
  4555  0500  2CFD               	goto	u2517
  4556  0501  0000               	nop
  4557                           
  4558                           ;ir.c: 83: P1MDLBIT = 1;
  4559  0502  003D               	movlb	29	; select bank29
  4560  0503  1692               	bsf	18,5	;volatile
  4561                           
  4562                           ;ir.c: 84: _delay((unsigned long)((535)*(32000000/4000000.0)));
  4563  0504  3006               	movlw	6
  4564  0505  0020               	movlb	0	; select bank0
  4565  0506  00AE               	movwf	??_output_ir+1
  4566  0507  308D               	movlw	141
  4567  0508  00AD               	movwf	??_output_ir
  4568  0509                     u2527:	
  4569  0509  0BAD               	decfsz	??_output_ir,f
  4570  050A  2D09               	goto	u2527
  4571  050B  0BAE               	decfsz	??_output_ir+1,f
  4572  050C  2D09               	goto	u2527
  4573  050D  3200               	nop2
  4574                           
  4575                           ;ir.c: 85: P1MDLBIT = 0;
  4576  050E  003D               	movlb	29	; select bank29
  4577  050F  1292               	bcf	18,5	;volatile
  4578                           
  4579                           ;ir.c: 86: _delay((unsigned long)((2678-535)*(32000000/4000000.0)));
  4580  0510  3017               	movlw	23
  4581  0511  0020               	movlb	0	; select bank0
  4582  0512  00AE               	movwf	??_output_ir+1
  4583  0513  3042               	movlw	66
  4584  0514  00AD               	movwf	??_output_ir
  4585  0515                     u2537:	
  4586  0515  0BAD               	decfsz	??_output_ir,f
  4587  0516  2D15               	goto	u2537
  4588  0517  0BAE               	decfsz	??_output_ir+1,f
  4589  0518  2D15               	goto	u2537
  4590  0519  0000               	nop
  4591                           
  4592                           ;ir.c: 89: P1MDLBIT = 1;
  4593  051A  003D               	movlb	29	; select bank29
  4594  051B  1692               	bsf	18,5	;volatile
  4595                           
  4596                           ;ir.c: 90: _delay((unsigned long)((2678)*(32000000/4000000.0)));
  4597  051C  301C               	movlw	28
  4598  051D  0020               	movlb	0	; select bank0
  4599  051E  00AE               	movwf	??_output_ir+1
  4600  051F  30D1               	movlw	209
  4601  0520  00AD               	movwf	??_output_ir
  4602  0521                     u2547:	
  4603  0521  0BAD               	decfsz	??_output_ir,f
  4604  0522  2D21               	goto	u2547
  4605  0523  0BAE               	decfsz	??_output_ir+1,f
  4606  0524  2D21               	goto	u2547
  4607  0525  3200               	nop2
  4608                           
  4609                           ;ir.c: 91: P1MDLBIT = 0;
  4610  0526  003D               	movlb	29	; select bank29
  4611  0527  1292               	bcf	18,5	;volatile
  4612  0528  3001               	movlw	1
  4613  0529  0020               	movlb	0	; select bank0
  4614  052A  07B1               	addwf	output_ir@i_295,f
  4615  052B  3000               	movlw	0
  4616  052C  3DB2               	addwfc	output_ir@i_295+1,f
  4617  052D  2CC9               	goto	l259
  4618  052E                     l3533:	
  4619                           ;ir.c: 92: }
  4620                           ;ir.c: 93: }
  4621                           
  4622                           
  4623                           ;ir.c: 94: else
  4624                           ;ir.c: 95: {
  4625                           ;ir.c: 96: for(int i = 0;i < amount;i++){
  4626  052E  0020               	movlb	0	; select bank0
  4627  052F  01B3               	clrf	output_ir@i_296
  4628  0530  01B4               	clrf	output_ir@i_296+1
  4629  0531                     l263:	
  4630  0531  0834               	movf	output_ir@i_296+1,w
  4631  0532  3A80               	xorlw	128
  4632  0533  00AD               	movwf	??_output_ir
  4633  0534  3080               	movlw	128
  4634  0535  022D               	subwf	??_output_ir,w
  4635  0536  1D03               	skipz
  4636  0537  2D3A               	goto	u2115
  4637  0538  082C               	movf	output_ir@amount,w
  4638  0539  0233               	subwf	output_ir@i_296,w
  4639  053A                     u2115:	
  4640  053A  1803               	btfsc	3,0
  4641  053B  0008               	return
  4642                           
  4643                           ;ir.c: 98: P1MDLBIT = 1;
  4644  053C  003D               	movlb	29	; select bank29
  4645  053D  1692               	bsf	18,5	;volatile
  4646                           
  4647                           ;ir.c: 99: _delay((unsigned long)((178)*(32000000/4000000.0)));
  4648  053E  30ED               	movlw	237
  4649  053F  0020               	movlb	0	; select bank0
  4650  0540  00AD               	movwf	??_output_ir
  4651  0541                     u2557:	
  4652  0541  3200               	nop2
  4653  0542  0000               	nop
  4654  0543  0BAD               	decfsz	??_output_ir,f
  4655  0544  2D41               	goto	u2557
  4656  0545  0000               	nop
  4657                           
  4658                           ;ir.c: 100: P1MDLBIT = 0;
  4659  0546  003D               	movlb	29	; select bank29
  4660  0547  1292               	bcf	18,5	;volatile
  4661                           
  4662                           ;ir.c: 101: _delay((unsigned long)((2678-178)*(32000000/4000000.0)));
  4663  0548  301A               	movlw	26
  4664  0549  0020               	movlb	0	; select bank0
  4665  054A  00AE               	movwf	??_output_ir+1
  4666  054B  30F8               	movlw	248
  4667  054C  00AD               	movwf	??_output_ir
  4668  054D                     u2567:	
  4669  054D  0BAD               	decfsz	??_output_ir,f
  4670  054E  2D4D               	goto	u2567
  4671  054F  0BAE               	decfsz	??_output_ir+1,f
  4672  0550  2D4D               	goto	u2567
  4673  0551  0000               	nop
  4674                           
  4675                           ;ir.c: 104: P1MDLBIT = 1;
  4676  0552  003D               	movlb	29	; select bank29
  4677  0553  1692               	bsf	18,5	;volatile
  4678                           
  4679                           ;ir.c: 105: _delay((unsigned long)((714)*(32000000/4000000.0)));
  4680  0554  3008               	movlw	8
  4681  0555  0020               	movlb	0	; select bank0
  4682  0556  00AE               	movwf	??_output_ir+1
  4683  0557  3069               	movlw	105
  4684  0558  00AD               	movwf	??_output_ir
  4685  0559                     u2577:	
  4686  0559  0BAD               	decfsz	??_output_ir,f
  4687  055A  2D59               	goto	u2577
  4688  055B  0BAE               	decfsz	??_output_ir+1,f
  4689  055C  2D59               	goto	u2577
  4690  055D  3200               	nop2
  4691                           
  4692                           ;ir.c: 106: P1MDLBIT = 0;
  4693  055E  003D               	movlb	29	; select bank29
  4694  055F  1292               	bcf	18,5	;volatile
  4695                           
  4696                           ;ir.c: 107: _delay((unsigned long)((2678-714)*(32000000/4000000.0)));
  4697  0560  3015               	movlw	21
  4698  0561  0020               	movlb	0	; select bank0
  4699  0562  00AE               	movwf	??_output_ir+1
  4700  0563  3066               	movlw	102
  4701  0564  00AD               	movwf	??_output_ir
  4702  0565                     u2587:	
  4703  0565  0BAD               	decfsz	??_output_ir,f
  4704  0566  2D65               	goto	u2587
  4705  0567  0BAE               	decfsz	??_output_ir+1,f
  4706  0568  2D65               	goto	u2587
  4707  0569  0000               	nop
  4708                           
  4709                           ;ir.c: 108: P1MDLBIT = 1;
  4710  056A  003D               	movlb	29	; select bank29
  4711  056B  1692               	bsf	18,5	;volatile
  4712                           
  4713                           ;ir.c: 109: _delay((unsigned long)((714)*(32000000/4000000.0)));
  4714  056C  3008               	movlw	8
  4715  056D  0020               	movlb	0	; select bank0
  4716  056E  00AE               	movwf	??_output_ir+1
  4717  056F  3069               	movlw	105
  4718  0570  00AD               	movwf	??_output_ir
  4719  0571                     u2597:	
  4720  0571  0BAD               	decfsz	??_output_ir,f
  4721  0572  2D71               	goto	u2597
  4722  0573  0BAE               	decfsz	??_output_ir+1,f
  4723  0574  2D71               	goto	u2597
  4724  0575  3200               	nop2
  4725                           
  4726                           ;ir.c: 110: P1MDLBIT = 0;
  4727  0576  003D               	movlb	29	; select bank29
  4728  0577  1292               	bcf	18,5	;volatile
  4729                           
  4730                           ;ir.c: 111: _delay((unsigned long)((2678-714)*(32000000/4000000.0)));
  4731  0578  3015               	movlw	21
  4732  0579  0020               	movlb	0	; select bank0
  4733  057A  00AE               	movwf	??_output_ir+1
  4734  057B  3066               	movlw	102
  4735  057C  00AD               	movwf	??_output_ir
  4736  057D                     u2607:	
  4737  057D  0BAD               	decfsz	??_output_ir,f
  4738  057E  2D7D               	goto	u2607
  4739  057F  0BAE               	decfsz	??_output_ir+1,f
  4740  0580  2D7D               	goto	u2607
  4741  0581  0000               	nop
  4742                           
  4743                           ;ir.c: 114: P1MDLBIT = 1;
  4744  0582  003D               	movlb	29	; select bank29
  4745  0583  1692               	bsf	18,5	;volatile
  4746                           
  4747                           ;ir.c: 115: _delay((unsigned long)((2678)*(32000000/4000000.0)));
  4748  0584  301C               	movlw	28
  4749  0585  0020               	movlb	0	; select bank0
  4750  0586  00AE               	movwf	??_output_ir+1
  4751  0587  30D1               	movlw	209
  4752  0588  00AD               	movwf	??_output_ir
  4753  0589                     u2617:	
  4754  0589  0BAD               	decfsz	??_output_ir,f
  4755  058A  2D89               	goto	u2617
  4756  058B  0BAE               	decfsz	??_output_ir+1,f
  4757  058C  2D89               	goto	u2617
  4758  058D  3200               	nop2
  4759                           
  4760                           ;ir.c: 116: P1MDLBIT = 0;
  4761  058E  003D               	movlb	29	; select bank29
  4762  058F  1292               	bcf	18,5	;volatile
  4763  0590  3001               	movlw	1
  4764  0591  0020               	movlb	0	; select bank0
  4765  0592  07B3               	addwf	output_ir@i_296,f
  4766  0593  3000               	movlw	0
  4767  0594  3DB4               	addwfc	output_ir@i_296+1,f
  4768  0595  2D31               	goto	l263
  4769  0596                     __end_of_output_ir:	
  4770                           
  4771                           	psect	text3
  4772  1341                     __ptext3:	
  4773 ;; *************** function _init_pic *****************
  4774 ;; Defined at:
  4775 ;;		line 333 in file "../../source/main.c"
  4776 ;; Parameters:    Size  Location     Type
  4777 ;;		None
  4778 ;; Auto vars:     Size  Location     Type
  4779 ;;		None
  4780 ;; Return value:  Size  Location     Type
  4781 ;;		None               void
  4782 ;; Registers used:
  4783 ;;		wreg, status,2, status,0
  4784 ;; Tracked objects:
  4785 ;;		On entry : 0/0
  4786 ;;		On exit  : 0/0
  4787 ;;		Unchanged: 0/0
  4788 ;; Data sizes:     COMMON   BANK0   BANK1   BANK2   BANK3   BANK4   BANK5   BANK6   BANK7   BANK8   BANK9  BANK10  BANK1
      +1  BANK12  BANK13  BANK14  BANK15  BANK16  BANK17  BANK18  BANK19  BANK20  BANK21  BANK22  BANK23  BANK24  BANK25
  4789 ;;      Params:         0       0       0       0       0       0       0       0       0       0       0       0       
      +0       0       0       0       0       0       0       0       0       0       0       0       0       0       0
  4790 ;;      Locals:         0       0       0       0       0       0       0       0       0       0       0       0       
      +0       0       0       0       0       0       0       0       0       0       0       0       0       0       0
  4791 ;;      Temps:          0       3       0       0       0       0       0       0       0       0       0       0       
      +0       0       0       0       0       0       0       0       0       0       0       0       0       0       0
  4792 ;;      Totals:         0       3       0       0       0       0       0       0       0       0       0       0       
      +0       0       0       0       0       0       0       0       0       0       0       0       0       0       0
  4793 ;;Total ram usage:        3 bytes
  4794 ;; Hardware stack levels used:    1
  4795 ;; Hardware stack levels required when called:    4
  4796 ;; This function calls:
  4797 ;;		Nothing
  4798 ;; This function is called by:
  4799 ;;		_main
  4800 ;; This function uses a non-reentrant model
  4801 ;;
  4802                           
  4803                           
  4804                           ;psect for function _init_pic
  4805  1341                     _init_pic:	
  4806                           
  4807                           ;main.c: 336: ANSELA = 0;
  4808                           
  4809                           ;incstack = 0
  4810                           ; Regs used in _init_pic: [wreg+status,2+status,0]
  4811  1341  0023               	movlb	3	; select bank3
  4812  1342  018C               	clrf	12	;volatile
  4813                           
  4814                           ;main.c: 337: ANSELB = 0;
  4815  1343  018D               	clrf	13	;volatile
  4816                           
  4817                           ;main.c: 340: LATBbits.LATB2 = 1;
  4818  1344  0022               	movlb	2	; select bank2
  4819  1345  150D               	bsf	13,2	;volatile
  4820                           
  4821                           ;main.c: 341: LATBbits.LATB3 = 1;
  4822  1346  158D               	bsf	13,3	;volatile
  4823                           
  4824                           ;main.c: 342: PORTBbits.RB2 = 1;
  4825  1347  0020               	movlb	0	; select bank0
  4826  1348  150D               	bsf	13,2	;volatile
  4827                           
  4828                           ;main.c: 343: PORTBbits.RB3 = 1;
  4829  1349  158D               	bsf	13,3	;volatile
  4830                           
  4831                           ;main.c: 346: WPUB2 = 1;
  4832  134A  0024               	movlb	4	; select bank4
  4833  134B  150D               	bsf	13,2	;volatile
  4834                           
  4835                           ;main.c: 347: WPUB3 = 1;
  4836  134C  158D               	bsf	13,3	;volatile
  4837                           
  4838                           ;main.c: 350: OSCCON |= 0b11111000;
  4839  134D  30F8               	movlw	248
  4840  134E  0020               	movlb	0	; select bank0
  4841  134F  00AC               	movwf	??_init_pic
  4842  1350  082C               	movf	??_init_pic,w
  4843  1351  0021               	movlb	1	; select bank1
  4844  1352  0499               	iorwf	25,f	;volatile
  4845                           
  4846                           ;main.c: 352: _delay((unsigned long)((100)*(32000000/4000.0)));
  4847  1353  3005               	movlw	5
  4848  1354  0020               	movlb	0	; select bank0
  4849  1355  00AE               	movwf	??_init_pic+2
  4850  1356  300F               	movlw	15
  4851  1357  00AD               	movwf	??_init_pic+1
  4852  1358  30F4               	movlw	244
  4853  1359  00AC               	movwf	??_init_pic
  4854  135A                     u2627:	
  4855  135A  0BAC               	decfsz	??_init_pic,f
  4856  135B  2B5A               	goto	u2627
  4857  135C  0BAD               	decfsz	??_init_pic+1,f
  4858  135D  2B5A               	goto	u2627
  4859  135E  0BAE               	decfsz	??_init_pic+2,f
  4860  135F  2B5A               	goto	u2627
  4861                           
  4862                           ;main.c: 355: TRISB &= 0b11110011;
  4863  1360  30F3               	movlw	243
  4864  1361  0020               	movlb	0	; select bank0
  4865  1362  00AC               	movwf	??_init_pic
  4866  1363  082C               	movf	??_init_pic,w
  4867  1364  0021               	movlb	1	; select bank1
  4868  1365  058D               	andwf	13,f	;volatile
  4869                           
  4870                           ;main.c: 356: RB2 = 1;
  4871  1366  0020               	movlb	0	; select bank0
  4872  1367  150D               	bsf	13,2	;volatile
  4873                           
  4874                           ;main.c: 357: RB3 = 1;
  4875  1368  158D               	bsf	13,3	;volatile
  4876                           
  4877                           ;main.c: 360: if(RB2 == 0 || RB3 == 0)
  4878  1369  190D               	btfsc	13,2	;volatile
  4879  136A  1D8D               	btfss	13,3	;volatile
  4880  136B  0001               	reset	;# 
  4881                           
  4882                           ;main.c: 363: }
  4883                           ;main.c: 366: GIE = 1;
  4884  136C  178B               	bsf	11,7	;volatile
  4885  136D  0008               	return
  4886  136E                     __end_of_init_pic:	
  4887                           
  4888                           	psect	text4
  4889  069A                     __ptext4:	
  4890 ;; *************** function _init_leds *****************
  4891 ;; Defined at:
  4892 ;;		line 40 in file "../../source/lighting.c"
  4893 ;; Parameters:    Size  Location     Type
  4894 ;;		None
  4895 ;; Auto vars:     Size  Location     Type
  4896 ;;		None
  4897 ;; Return value:  Size  Location     Type
  4898 ;;		None               void
  4899 ;; Registers used:
  4900 ;;		wreg, status,2, status,0, pclath, cstack
  4901 ;; Tracked objects:
  4902 ;;		On entry : 0/0
  4903 ;;		On exit  : 0/0
  4904 ;;		Unchanged: 0/0
  4905 ;; Data sizes:     COMMON   BANK0   BANK1   BANK2   BANK3   BANK4   BANK5   BANK6   BANK7   BANK8   BANK9  BANK10  BANK1
      +1  BANK12  BANK13  BANK14  BANK15  BANK16  BANK17  BANK18  BANK19  BANK20  BANK21  BANK22  BANK23  BANK24  BANK25
  4906 ;;      Params:         0       0       0       0       0       0       0       0       0       0       0       0       
      +0       0       0       0       0       0       0       0       0       0       0       0       0       0       0
  4907 ;;      Locals:         0       0       0       0       0       0       0       0       0       0       0       0       
      +0       0       0       0       0       0       0       0       0       0       0       0       0       0       0
  4908 ;;      Temps:          0       1       0       0       0       0       0       0       0       0       0       0       
      +0       0       0       0       0       0       0       0       0       0       0       0       0       0       0
  4909 ;;      Totals:         0       1       0       0       0       0       0       0       0       0       0       0       
      +0       0       0       0       0       0       0       0       0       0       0       0       0       0       0
  4910 ;;Total ram usage:        1 bytes
  4911 ;; Hardware stack levels used:    1
  4912 ;; Hardware stack levels required when called:    6
  4913 ;; This function calls:
  4914 ;;		_leds_off
  4915 ;; This function is called by:
  4916 ;;		_main
  4917 ;; This function uses a non-reentrant model
  4918 ;;
  4919                           
  4920                           
  4921                           ;psect for function _init_leds
  4922  069A                     _init_leds:	
  4923                           
  4924                           ;lighting.c: 43: TRISC &= 0b10001111;
  4925                           
  4926                           ;incstack = 0
  4927                           ; Regs used in _init_leds: [wreg+status,2+status,0+pclath+cstack]
  4928  069A  308F               	movlw	143
  4929  069B  0020               	movlb	0	; select bank0
  4930  069C  00B5               	movwf	??_init_leds
  4931  069D  0835               	movf	??_init_leds,w
  4932  069E  0021               	movlb	1	; select bank1
  4933  069F  058E               	andwf	14,f	;volatile
  4934                           
  4935                           ;lighting.c: 46: TRISBbits.TRISB7 = 0;
  4936  06A0  138D               	bcf	13,7	;volatile
  4937                           
  4938                           ;lighting.c: 47: TRISBbits.TRISB5 = 0;
  4939  06A1  128D               	bcf	13,5	;volatile
  4940                           
  4941                           ;lighting.c: 51: PSMC2CON = 0x00;
  4942  06A2  003D               	movlb	29	; select bank29
  4943  06A3  01B1               	clrf	49	;volatile
  4944                           
  4945                           ;lighting.c: 52: PSMC2MDL = 0x00;
  4946  06A4  01B2               	clrf	50	;volatile
  4947                           
  4948                           ;lighting.c: 53: PSMC2SYNC = 0x00;
  4949  06A5  01B3               	clrf	51	;volatile
  4950                           
  4951                           ;lighting.c: 54: PSMC2CLK = 0x00;
  4952  06A6  01B4               	clrf	52	;volatile
  4953                           
  4954                           ;lighting.c: 55: PSMC2POL = 0x00;
  4955  06A7  01B6               	clrf	54	;volatile
  4956                           
  4957                           ;lighting.c: 56: PSMC2BLNK = 0x00;
  4958  06A8  01B7               	clrf	55	;volatile
  4959                           
  4960                           ;lighting.c: 57: PSMC2REBS = 0x00;
  4961  06A9  01B8               	clrf	56	;volatile
  4962                           
  4963                           ;lighting.c: 58: PSMC2FEBS = 0x00;
  4964  06AA  01B9               	clrf	57	;volatile
  4965                           
  4966                           ;lighting.c: 59: PSMC2PHS = 0x01;
  4967  06AB  3001               	movlw	1
  4968  06AC  00BA               	movwf	58	;volatile
  4969                           
  4970                           ;lighting.c: 60: PSMC2DCS = 0x01;
  4971  06AD  3001               	movlw	1
  4972  06AE  00BB               	movwf	59	;volatile
  4973                           
  4974                           ;lighting.c: 61: PSMC2PRS = 0x01;
  4975  06AF  3001               	movlw	1
  4976  06B0  00BC               	movwf	60	;volatile
  4977                           
  4978                           ;lighting.c: 62: PSMC2ASDC = 0x00;
  4979  06B1  01BD               	clrf	61	;volatile
  4980                           
  4981                           ;lighting.c: 63: PSMC2ASDL = 0x01;
  4982  06B2  3001               	movlw	1
  4983  06B3  00BE               	movwf	62	;volatile
  4984                           
  4985                           ;lighting.c: 64: PSMC2ASDS = 0x00;
  4986  06B4  01BF               	clrf	63	;volatile
  4987                           
  4988                           ;lighting.c: 65: PSMC2PHH = 0x00;
  4989  06B5  01C2               	clrf	66	;volatile
  4990                           
  4991                           ;lighting.c: 66: PSMC2PHL = 0x00;
  4992  06B6  01C1               	clrf	65	;volatile
  4993                           
  4994                           ;lighting.c: 67: PSMC2DCH = 0x01;
  4995  06B7  3001               	movlw	1
  4996  06B8  00C4               	movwf	68	;volatile
  4997                           
  4998                           ;lighting.c: 68: PSMC2DCL = 0xF4;
  4999  06B9  30F4               	movlw	244
  5000  06BA  00C3               	movwf	67	;volatile
  5001                           
  5002                           ;lighting.c: 69: PSMC2PRH = 0x03;
  5003  06BB  3003               	movlw	3
  5004  06BC  00C6               	movwf	70	;volatile
  5005                           
  5006                           ;lighting.c: 70: PSMC2PRL = 0xE7;
  5007  06BD  30E7               	movlw	231
  5008  06BE  00C5               	movwf	69	;volatile
  5009                           
  5010                           ;lighting.c: 71: PSMC2DBR = 0x00;
  5011  06BF  01C9               	clrf	73	;volatile
  5012                           
  5013                           ;lighting.c: 72: PSMC2DBF = 0x00;
  5014  06C0  01CA               	clrf	74	;volatile
  5015                           
  5016                           ;lighting.c: 73: PSMC2FFA = 0x00;
  5017  06C1  01CD               	clrf	77	;volatile
  5018                           
  5019                           ;lighting.c: 74: PSMC2BLKR = 0x00;
  5020  06C2  01CB               	clrf	75	;volatile
  5021                           
  5022                           ;lighting.c: 75: PSMC2BLKF = 0x00;
  5023  06C3  01CC               	clrf	76	;volatile
  5024                           
  5025                           ;lighting.c: 76: PSMC2STR0 = 0x01;
  5026  06C4  3001               	movlw	1
  5027  06C5  00CE               	movwf	78	;volatile
  5028                           
  5029                           ;lighting.c: 77: PSMC2STR1 = 0x00;
  5030  06C6  01CF               	clrf	79	;volatile
  5031                           
  5032                           ;lighting.c: 78: PSMC2INT = 0x00;
  5033  06C7  01C0               	clrf	64	;volatile
  5034                           
  5035                           ;lighting.c: 79: PSMC2OEN = 0x01;
  5036  06C8  3001               	movlw	1
  5037  06C9  00B5               	movwf	53	;volatile
  5038                           
  5039                           ;lighting.c: 80: PSMC2CON = 0x80;
  5040  06CA  3080               	movlw	128
  5041  06CB  00B1               	movwf	49	;volatile
  5042                           
  5043                           ;lighting.c: 81: PIE4 &= 0xDD;
  5044  06CC  30DD               	movlw	221
  5045  06CD  0020               	movlb	0	; select bank0
  5046  06CE  00B5               	movwf	??_init_leds
  5047  06CF  0835               	movf	??_init_leds,w
  5048  06D0  0021               	movlb	1	; select bank1
  5049  06D1  0594               	andwf	20,f	;volatile
  5050                           
  5051                           ;lighting.c: 82: PIE4 |= 0x00;
  5052  06D2  0814               	movf	20,w	;volatile
  5053                           
  5054                           ;lighting.c: 85: PSMC3CON = 0x00;
  5055  06D3  003D               	movlb	29	; select bank29
  5056  06D4  01D1               	clrf	81	;volatile
  5057                           
  5058                           ;lighting.c: 86: PSMC3MDL = 0x00;
  5059  06D5  01D2               	clrf	82	;volatile
  5060                           
  5061                           ;lighting.c: 87: PSMC3SYNC = 0x02;
  5062  06D6  3002               	movlw	2
  5063  06D7  00D3               	movwf	83	;volatile
  5064                           
  5065                           ;lighting.c: 88: PSMC3CLK = 0x00;
  5066  06D8  01D4               	clrf	84	;volatile
  5067                           
  5068                           ;lighting.c: 89: PSMC3POL = 0x00;
  5069  06D9  01D6               	clrf	86	;volatile
  5070                           
  5071                           ;lighting.c: 90: PSMC3BLNK = 0x00;
  5072  06DA  01D7               	clrf	87	;volatile
  5073                           
  5074                           ;lighting.c: 91: PSMC3REBS = 0x00;
  5075  06DB  01D8               	clrf	88	;volatile
  5076                           
  5077                           ;lighting.c: 92: PSMC3FEBS = 0x00;
  5078  06DC  01D9               	clrf	89	;volatile
  5079                           
  5080                           ;lighting.c: 93: PSMC3PHS = 0x01;
  5081  06DD  3001               	movlw	1
  5082  06DE  00DA               	movwf	90	;volatile
  5083                           
  5084                           ;lighting.c: 94: PSMC3DCS = 0x01;
  5085  06DF  3001               	movlw	1
  5086  06E0  00DB               	movwf	91	;volatile
  5087                           
  5088                           ;lighting.c: 95: PSMC3PRS = 0x01;
  5089  06E1  3001               	movlw	1
  5090  06E2  00DC               	movwf	92	;volatile
  5091                           
  5092                           ;lighting.c: 96: PSMC3ASDC = 0x00;
  5093  06E3  01DD               	clrf	93	;volatile
  5094                           
  5095                           ;lighting.c: 97: PSMC3ASDL = 0x01;
  5096  06E4  3001               	movlw	1
  5097  06E5  00DE               	movwf	94	;volatile
  5098                           
  5099                           ;lighting.c: 98: PSMC3ASDS = 0x00;
  5100  06E6  01DF               	clrf	95	;volatile
  5101                           
  5102                           ;lighting.c: 99: PSMC3PHH = 0x00;
  5103  06E7  01E2               	clrf	98	;volatile
  5104                           
  5105                           ;lighting.c: 100: PSMC3PHL = 0x00;
  5106  06E8  01E1               	clrf	97	;volatile
  5107                           
  5108                           ;lighting.c: 101: PSMC3DCH = 0x01;
  5109  06E9  3001               	movlw	1
  5110  06EA  00E4               	movwf	100	;volatile
  5111                           
  5112                           ;lighting.c: 102: PSMC3DCL = 0xF4;
  5113  06EB  30F4               	movlw	244
  5114  06EC  00E3               	movwf	99	;volatile
  5115                           
  5116                           ;lighting.c: 103: PSMC3PRH = 0x03;
  5117  06ED  3003               	movlw	3
  5118  06EE  00E6               	movwf	102	;volatile
  5119                           
  5120                           ;lighting.c: 104: PSMC3PRL = 0xE7;
  5121  06EF  30E7               	movlw	231
  5122  06F0  00E5               	movwf	101	;volatile
  5123                           
  5124                           ;lighting.c: 105: PSMC3DBR = 0x00;
  5125  06F1  01E9               	clrf	105	;volatile
  5126                           
  5127                           ;lighting.c: 106: PSMC3DBF = 0x00;
  5128  06F2  01EA               	clrf	106	;volatile
  5129                           
  5130                           ;lighting.c: 107: PSMC3FFA = 0x00;
  5131  06F3  01ED               	clrf	109	;volatile
  5132                           
  5133                           ;lighting.c: 108: PSMC3BLKR = 0x00;
  5134  06F4  01EB               	clrf	107	;volatile
  5135                           
  5136                           ;lighting.c: 109: PSMC3BLKF = 0x00;
  5137  06F5  01EC               	clrf	108	;volatile
  5138                           
  5139                           ;lighting.c: 110: PSMC3STR0 = 0x01;
  5140  06F6  3001               	movlw	1
  5141  06F7  00EE               	movwf	110	;volatile
  5142                           
  5143                           ;lighting.c: 111: PSMC3STR1 = 0x00;
  5144  06F8  01EF               	clrf	111	;volatile
  5145                           
  5146                           ;lighting.c: 112: PSMC3INT = 0x00;
  5147  06F9  01E0               	clrf	96	;volatile
  5148                           
  5149                           ;lighting.c: 113: PSMC3OEN = 0x01;
  5150  06FA  3001               	movlw	1
  5151  06FB  00D5               	movwf	85	;volatile
  5152                           
  5153                           ;lighting.c: 114: PSMC3CON = 0x80;
  5154  06FC  3080               	movlw	128
  5155  06FD  00D1               	movwf	81	;volatile
  5156                           
  5157                           ;lighting.c: 115: PIE4 &= 0xBB;
  5158  06FE  30BB               	movlw	187
  5159  06FF  0020               	movlb	0	; select bank0
  5160  0700  00B5               	movwf	??_init_leds
  5161  0701  0835               	movf	??_init_leds,w
  5162  0702  0021               	movlb	1	; select bank1
  5163  0703  0594               	andwf	20,f	;volatile
  5164                           
  5165                           ;lighting.c: 116: PIE4 |= 0x00;
  5166  0704  0814               	movf	20,w	;volatile
  5167                           
  5168                           ;lighting.c: 119: PSMC4CON = 0x00;
  5169  0705  003E               	movlb	30	; select bank30
  5170  0706  0191               	clrf	17	;volatile
  5171                           
  5172                           ;lighting.c: 120: PSMC4MDL = 0x00;
  5173  0707  0192               	clrf	18	;volatile
  5174                           
  5175                           ;lighting.c: 121: PSMC4SYNC = 0x02;
  5176  0708  3002               	movlw	2
  5177  0709  0093               	movwf	19	;volatile
  5178                           
  5179                           ;lighting.c: 122: PSMC4CLK = 0x00;
  5180  070A  0194               	clrf	20	;volatile
  5181                           
  5182                           ;lighting.c: 123: PSMC4POL = 0x00;
  5183  070B  0196               	clrf	22	;volatile
  5184                           
  5185                           ;lighting.c: 124: PSMC4BLNK = 0x00;
  5186  070C  0197               	clrf	23	;volatile
  5187                           
  5188                           ;lighting.c: 125: PSMC4REBS = 0x00;
  5189  070D  0198               	clrf	24	;volatile
  5190                           
  5191                           ;lighting.c: 126: PSMC4FEBS = 0x00;
  5192  070E  0199               	clrf	25	;volatile
  5193                           
  5194                           ;lighting.c: 127: PSMC4PHS = 0x01;
  5195  070F  3001               	movlw	1
  5196  0710  009A               	movwf	26	;volatile
  5197                           
  5198                           ;lighting.c: 128: PSMC4DCS = 0x01;
  5199  0711  3001               	movlw	1
  5200  0712  009B               	movwf	27	;volatile
  5201                           
  5202                           ;lighting.c: 129: PSMC4PRS = 0x01;
  5203  0713  3001               	movlw	1
  5204  0714  009C               	movwf	28	;volatile
  5205                           
  5206                           ;lighting.c: 130: PSMC4ASDC = 0x00;
  5207  0715  019D               	clrf	29	;volatile
  5208                           
  5209                           ;lighting.c: 131: PSMC4ASDL = 0x02;
  5210  0716  3002               	movlw	2
  5211  0717  009E               	movwf	30	;volatile
  5212                           
  5213                           ;lighting.c: 132: PSMC4ASDS = 0x00;
  5214  0718  019F               	clrf	31	;volatile
  5215                           
  5216                           ;lighting.c: 133: PSMC4PHH = 0x00;
  5217  0719  01A2               	clrf	34	;volatile
  5218                           
  5219                           ;lighting.c: 134: PSMC4PHL = 0x00;
  5220  071A  01A1               	clrf	33	;volatile
  5221                           
  5222                           ;lighting.c: 135: PSMC4DCH = 0x01;
  5223  071B  3001               	movlw	1
  5224  071C  00A4               	movwf	36	;volatile
  5225                           
  5226                           ;lighting.c: 136: PSMC4DCL = 0xF4;
  5227  071D  30F4               	movlw	244
  5228  071E  00A3               	movwf	35	;volatile
  5229                           
  5230                           ;lighting.c: 137: PSMC4PRH = 0x03;
  5231  071F  3003               	movlw	3
  5232  0720  00A6               	movwf	38	;volatile
  5233                           
  5234                           ;lighting.c: 138: PSMC4PRL = 0xE7;
  5235  0721  30E7               	movlw	231
  5236  0722  00A5               	movwf	37	;volatile
  5237                           
  5238                           ;lighting.c: 139: PSMC4DBR = 0x00;
  5239  0723  01A9               	clrf	41	;volatile
  5240                           
  5241                           ;lighting.c: 140: PSMC4DBF = 0x00;
  5242  0724  01AA               	clrf	42	;volatile
  5243                           
  5244                           ;lighting.c: 141: PSMC4FFA = 0x00;
  5245  0725  01AD               	clrf	45	;volatile
  5246                           
  5247                           ;lighting.c: 142: PSMC4BLKR = 0x00;
  5248  0726  01AB               	clrf	43	;volatile
  5249                           
  5250                           ;lighting.c: 143: PSMC4BLKF = 0x00;
  5251  0727  01AC               	clrf	44	;volatile
  5252                           
  5253                           ;lighting.c: 144: PSMC4STR0 = 0x02;
  5254  0728  3002               	movlw	2
  5255  0729  00AE               	movwf	46	;volatile
  5256                           
  5257                           ;lighting.c: 145: PSMC4STR1 = 0x00;
  5258  072A  01AF               	clrf	47	;volatile
  5259                           
  5260                           ;lighting.c: 146: PSMC4INT = 0x00;
  5261  072B  01A0               	clrf	32	;volatile
  5262                           
  5263                           ;lighting.c: 147: PSMC4OEN = 0x02;
  5264  072C  3002               	movlw	2
  5265  072D  0095               	movwf	21	;volatile
  5266                           
  5267                           ;lighting.c: 148: PSMC4CON = 0x80;
  5268  072E  3080               	movlw	128
  5269  072F  0091               	movwf	17	;volatile
  5270                           
  5271                           ;lighting.c: 149: PIE4 &= 0x77;
  5272  0730  3077               	movlw	119
  5273  0731  0020               	movlb	0	; select bank0
  5274  0732  00B5               	movwf	??_init_leds
  5275  0733  0835               	movf	??_init_leds,w
  5276  0734  0021               	movlb	1	; select bank1
  5277  0735  0594               	andwf	20,f	;volatile
  5278                           
  5279                           ;lighting.c: 150: PIE4 |= 0x00;
  5280  0736  0814               	movf	20,w	;volatile
  5281                           
  5282                           ;lighting.c: 154: SSPEN = 0;
  5283  0737  0024               	movlb	4	; select bank4
  5284  0738  1295               	bcf	21,5	;volatile
  5285                           
  5286                           ;lighting.c: 155: SSPCON1 = 0b00100000;
  5287  0739  3020               	movlw	32
  5288  073A  0095               	movwf	21	;volatile
  5289                           
  5290                           ;lighting.c: 156: SCKSEL = 1;
  5291  073B  0022               	movlb	2	; select bank2
  5292  073C  161D               	bsf	29,4	;volatile
  5293                           
  5294                           ;lighting.c: 157: SDOSEL = 1;
  5295  073D  169D               	bsf	29,5	;volatile
  5296                           
  5297                           ;lighting.c: 158: SDISEL = 1;
  5298  073E  159D               	bsf	29,3	;volatile
  5299                           
  5300                           ;lighting.c: 160: SSPEN = 1;
  5301  073F  0024               	movlb	4	; select bank4
  5302  0740  1695               	bsf	21,5	;volatile
  5303                           
  5304                           ;lighting.c: 163: leds_off();
  5305  0741  3188  20D7         	fcall	_leds_off
  5306  0743  0008               	return
  5307  0744                     __end_of_init_leds:	
  5308                           
  5309                           	psect	text5
  5310  123D                     __ptext5:	
  5311 ;; *************** function _init_isr *****************
  5312 ;; Defined at:
  5313 ;;		line 19 in file "../../source/interrupt.c"
  5314 ;; Parameters:    Size  Location     Type
  5315 ;;		None
  5316 ;; Auto vars:     Size  Location     Type
  5317 ;;		None
  5318 ;; Return value:  Size  Location     Type
  5319 ;;		None               void
  5320 ;; Registers used:
  5321 ;;		wreg, status,2
  5322 ;; Tracked objects:
  5323 ;;		On entry : 0/0
  5324 ;;		On exit  : 0/0
  5325 ;;		Unchanged: 0/0
  5326 ;; Data sizes:     COMMON   BANK0   BANK1   BANK2   BANK3   BANK4   BANK5   BANK6   BANK7   BANK8   BANK9  BANK10  BANK1
      +1  BANK12  BANK13  BANK14  BANK15  BANK16  BANK17  BANK18  BANK19  BANK20  BANK21  BANK22  BANK23  BANK24  BANK25
  5327 ;;      Params:         0       0       0       0       0       0       0       0       0       0       0       0       
      +0       0       0       0       0       0       0       0       0       0       0       0       0       0       0
  5328 ;;      Locals:         0       0       0       0       0       0       0       0       0       0       0       0       
      +0       0       0       0       0       0       0       0       0       0       0       0       0       0       0
  5329 ;;      Temps:          0       0       0       0       0       0       0       0       0       0       0       0       
      +0       0       0       0       0       0       0       0       0       0       0       0       0       0       0
  5330 ;;      Totals:         0       0       0       0       0       0       0       0       0       0       0       0       
      +0       0       0       0       0       0       0       0       0       0       0       0       0       0       0
  5331 ;;Total ram usage:        0 bytes
  5332 ;; Hardware stack levels used:    1
  5333 ;; Hardware stack levels required when called:    4
  5334 ;; This function calls:
  5335 ;;		Nothing
  5336 ;; This function is called by:
  5337 ;;		_main
  5338 ;; This function uses a non-reentrant model
  5339 ;;
  5340                           
  5341                           
  5342                           ;psect for function _init_isr
  5343  123D                     _init_isr:	
  5344                           
  5345                           ;interrupt.c: 21: INTCON = 0b11011000;
  5346                           
  5347                           ;incstack = 0
  5348                           ; Regs used in _init_isr: [wreg+status,2]
  5349  123D  30D8               	movlw	216
  5350  123E  008B               	movwf	11	;volatile
  5351                           
  5352                           ;interrupt.c: 24: IOCAP = IOCAP | 0b00010010;
  5353  123F  0027               	movlb	7	; select bank7
  5354  1240  0811               	movf	17,w	;volatile
  5355  1241  3812               	iorlw	18
  5356  1242  0091               	movwf	17	;volatile
  5357                           
  5358                           ;interrupt.c: 27: IOCAN = IOCAN | 0b00010000;
  5359  1243  0812               	movf	18,w	;volatile
  5360  1244  3810               	iorlw	16
  5361  1245  0092               	movwf	18	;volatile
  5362                           
  5363                           ;interrupt.c: 31: T1CON = 0b00110001;
  5364  1246  3031               	movlw	49
  5365  1247  0020               	movlb	0	; select bank0
  5366  1248  0098               	movwf	24	;volatile
  5367                           
  5368                           ;interrupt.c: 34: TRISA |= 0b00010000;
  5369  1249  0021               	movlb	1	; select bank1
  5370  124A  160C               	bsf	12,4	;volatile
  5371  124B  0008               	return
  5372  124C                     __end_of_init_isr:	
  5373                           
  5374                           	psect	text6
  5375  0803                     __ptext6:	
  5376 ;; *************** function _init_ir *****************
  5377 ;; Defined at:
  5378 ;;		line 3 in file "../../source/ir.c"
  5379 ;; Parameters:    Size  Location     Type
  5380 ;;		None
  5381 ;; Auto vars:     Size  Location     Type
  5382 ;;		None
  5383 ;; Return value:  Size  Location     Type
  5384 ;;		None               void
  5385 ;; Registers used:
  5386 ;;		wreg, status,2, status,0
  5387 ;; Tracked objects:
  5388 ;;		On entry : 0/0
  5389 ;;		On exit  : 0/0
  5390 ;;		Unchanged: 0/0
  5391 ;; Data sizes:     COMMON   BANK0   BANK1   BANK2   BANK3   BANK4   BANK5   BANK6   BANK7   BANK8   BANK9  BANK10  BANK1
      +1  BANK12  BANK13  BANK14  BANK15  BANK16  BANK17  BANK18  BANK19  BANK20  BANK21  BANK22  BANK23  BANK24  BANK25
  5392 ;;      Params:         0       0       0       0       0       0       0       0       0       0       0       0       
      +0       0       0       0       0       0       0       0       0       0       0       0       0       0       0
  5393 ;;      Locals:         0       0       0       0       0       0       0       0       0       0       0       0       
      +0       0       0       0       0       0       0       0       0       0       0       0       0       0       0
  5394 ;;      Temps:          0       1       0       0       0       0       0       0       0       0       0       0       
      +0       0       0       0       0       0       0       0       0       0       0       0       0       0       0
  5395 ;;      Totals:         0       1       0       0       0       0       0       0       0       0       0       0       
      +0       0       0       0       0       0       0       0       0       0       0       0       0       0       0
  5396 ;;Total ram usage:        1 bytes
  5397 ;; Hardware stack levels used:    1
  5398 ;; Hardware stack levels required when called:    4
  5399 ;; This function calls:
  5400 ;;		Nothing
  5401 ;; This function is called by:
  5402 ;;		_main
  5403 ;; This function uses a non-reentrant model
  5404 ;;
  5405                           
  5406                           
  5407                           ;psect for function _init_ir
  5408  0803                     _init_ir:	
  5409                           
  5410                           ;ir.c: 5: TRISC &= 0b11110111;
  5411                           
  5412                           ;incstack = 0
  5413                           ; Regs used in _init_ir: [wreg+status,2+status,0]
  5414  0803  30F7               	movlw	247
  5415  0804  0020               	movlb	0	; select bank0
  5416  0805  00AC               	movwf	??_init_ir
  5417  0806  082C               	movf	??_init_ir,w
  5418  0807  0021               	movlb	1	; select bank1
  5419  0808  058E               	andwf	14,f	;volatile
  5420                           
  5421                           ;ir.c: 7: PSMC1CON = 0x00;
  5422  0809  003D               	movlb	29	; select bank29
  5423  080A  0191               	clrf	17	;volatile
  5424                           
  5425                           ;ir.c: 8: PSMC1MDL = 0x80;
  5426  080B  3080               	movlw	128
  5427  080C  0092               	movwf	18	;volatile
  5428                           
  5429                           ;ir.c: 9: PSMC1SYNC = 0x00;
  5430  080D  0193               	clrf	19	;volatile
  5431                           
  5432                           ;ir.c: 10: PSMC1CLK = 0x00;
  5433  080E  0194               	clrf	20	;volatile
  5434                           
  5435                           ;ir.c: 11: PSMC1POL = 0x00;
  5436  080F  0196               	clrf	22	;volatile
  5437                           
  5438                           ;ir.c: 12: PSMC1BLNK = 0x00;
  5439  0810  0197               	clrf	23	;volatile
  5440                           
  5441                           ;ir.c: 13: PSMC1REBS = 0x00;
  5442  0811  0198               	clrf	24	;volatile
  5443                           
  5444                           ;ir.c: 14: PSMC1FEBS = 0x00;
  5445  0812  0199               	clrf	25	;volatile
  5446                           
  5447                           ;ir.c: 15: PSMC1PHS = 0x01;
  5448  0813  3001               	movlw	1
  5449  0814  009A               	movwf	26	;volatile
  5450                           
  5451                           ;ir.c: 16: PSMC1DCS = 0x01;
  5452  0815  3001               	movlw	1
  5453  0816  009B               	movwf	27	;volatile
  5454                           
  5455                           ;ir.c: 17: PSMC1PRS = 0x01;
  5456  0817  3001               	movlw	1
  5457  0818  009C               	movwf	28	;volatile
  5458                           
  5459                           ;ir.c: 18: PSMC1ASDC = 0x00;
  5460  0819  019D               	clrf	29	;volatile
  5461                           
  5462                           ;ir.c: 19: PSMC1ASDL = 0x08;
  5463  081A  3008               	movlw	8
  5464  081B  009E               	movwf	30	;volatile
  5465                           
  5466                           ;ir.c: 20: PSMC1ASDS = 0x00;
  5467  081C  019F               	clrf	31	;volatile
  5468                           
  5469                           ;ir.c: 21: PSMC1PHH = 0x00;
  5470  081D  01A2               	clrf	34	;volatile
  5471                           
  5472                           ;ir.c: 22: PSMC1PHL = 0x00;
  5473  081E  01A1               	clrf	33	;volatile
  5474                           
  5475                           ;ir.c: 23: PSMC1DCH = 0x01;
  5476  081F  3001               	movlw	1
  5477  0820  00A4               	movwf	36	;volatile
  5478                           
  5479                           ;ir.c: 24: PSMC1DCL = 0x6A;
  5480  0821  306A               	movlw	106
  5481  0822  00A3               	movwf	35	;volatile
  5482                           
  5483                           ;ir.c: 25: PSMC1PRH = 0x02;
  5484  0823  3002               	movlw	2
  5485  0824  00A6               	movwf	38	;volatile
  5486                           
  5487                           ;ir.c: 26: PSMC1PRL = 0x3A;
  5488  0825  303A               	movlw	58
  5489  0826  00A5               	movwf	37	;volatile
  5490                           
  5491                           ;ir.c: 27: PSMC1DBR = 0x00;
  5492  0827  01A9               	clrf	41	;volatile
  5493                           
  5494                           ;ir.c: 28: PSMC1DBF = 0x00;
  5495  0828  01AA               	clrf	42	;volatile
  5496                           
  5497                           ;ir.c: 29: PSMC1FFA = 0x00;
  5498  0829  01AD               	clrf	45	;volatile
  5499                           
  5500                           ;ir.c: 30: PSMC1BLKR = 0x00;
  5501  082A  01AB               	clrf	43	;volatile
  5502                           
  5503                           ;ir.c: 31: PSMC1BLKF = 0x00;
  5504  082B  01AC               	clrf	44	;volatile
  5505                           
  5506                           ;ir.c: 32: PSMC1STR0 = 0x08;
  5507  082C  3008               	movlw	8
  5508  082D  00AE               	movwf	46	;volatile
  5509                           
  5510                           ;ir.c: 33: PSMC1STR1 = 0x00;
  5511  082E  01AF               	clrf	47	;volatile
  5512                           
  5513                           ;ir.c: 34: PSMC1INT = 0x00;
  5514  082F  01A0               	clrf	32	;volatile
  5515                           
  5516                           ;ir.c: 35: PSMC1OEN = 0x08;
  5517  0830  3008               	movlw	8
  5518  0831  0095               	movwf	21	;volatile
  5519                           
  5520                           ;ir.c: 36: PSMC1CON = 0x80;
  5521  0832  3080               	movlw	128
  5522  0833  0091               	movwf	17	;volatile
  5523                           
  5524                           ;ir.c: 37: PIE4 &= 0xEE;
  5525  0834  30EE               	movlw	238
  5526  0835  0020               	movlb	0	; select bank0
  5527  0836  00AC               	movwf	??_init_ir
  5528  0837  082C               	movf	??_init_ir,w
  5529  0838  0021               	movlb	1	; select bank1
  5530  0839  0594               	andwf	20,f	;volatile
  5531                           
  5532                           ;ir.c: 38: PIE4 |= 0x00;
  5533  083A  0814               	movf	20,w	;volatile
  5534  083B  0008               	return
  5535  083C                     __end_of_init_ir:	
  5536                           
  5537                           	psect	text7
  5538  0800                     __ptext7:	
  5539 ;; *************** function _init_conn *****************
  5540 ;; Defined at:
  5541 ;;		line 3 in file "../../source/blade_connection.c"
  5542 ;; Parameters:    Size  Location     Type
  5543 ;;		None
  5544 ;; Auto vars:     Size  Location     Type
  5545 ;;		None
  5546 ;; Return value:  Size  Location     Type
  5547 ;;		None               void
  5548 ;; Registers used:
  5549 ;;		None
  5550 ;; Tracked objects:
  5551 ;;		On entry : 0/0
  5552 ;;		On exit  : 0/0
  5553 ;;		Unchanged: 0/0
  5554 ;; Data sizes:     COMMON   BANK0   BANK1   BANK2   BANK3   BANK4   BANK5   BANK6   BANK7   BANK8   BANK9  BANK10  BANK1
      +1  BANK12  BANK13  BANK14  BANK15  BANK16  BANK17  BANK18  BANK19  BANK20  BANK21  BANK22  BANK23  BANK24  BANK25
  5555 ;;      Params:         0       0       0       0       0       0       0       0       0       0       0       0       
      +0       0       0       0       0       0       0       0       0       0       0       0       0       0       0
  5556 ;;      Locals:         0       0       0       0       0       0       0       0       0       0       0       0       
      +0       0       0       0       0       0       0       0       0       0       0       0       0       0       0
  5557 ;;      Temps:          0       0       0       0       0       0       0       0       0       0       0       0       
      +0       0       0       0       0       0       0       0       0       0       0       0       0       0       0
  5558 ;;      Totals:         0       0       0       0       0       0       0       0       0       0       0       0       
      +0       0       0       0       0       0       0       0       0       0       0       0       0       0       0
  5559 ;;Total ram usage:        0 bytes
  5560 ;; Hardware stack levels used:    1
  5561 ;; Hardware stack levels required when called:    4
  5562 ;; This function calls:
  5563 ;;		Nothing
  5564 ;; This function is called by:
  5565 ;;		_main
  5566 ;; This function uses a non-reentrant model
  5567 ;;
  5568                           
  5569                           
  5570                           ;psect for function _init_conn
  5571  0800                     _init_conn:	
  5572                           
  5573                           ;blade_connection.c: 6: TRISA |= 0b00000010;
  5574                           
  5575                           ;incstack = 0
  5576                           ; Regs used in _init_conn: []
  5577  0800  0021               	movlb	1	; select bank1
  5578  0801  148C               	bsf	12,1	;volatile
  5579  0802  0008               	return
  5580  0803                     __end_of_init_conn:	
  5581                           
  5582                           	psect	text8
  5583  1295                     __ptext8:	
  5584 ;; *************** function _init_accel *****************
  5585 ;; Defined at:
  5586 ;;		line 138 in file "../../source/accelerometer.c"
  5587 ;; Parameters:    Size  Location     Type
  5588 ;;		None
  5589 ;; Auto vars:     Size  Location     Type
  5590 ;;		None
  5591 ;; Return value:  Size  Location     Type
  5592 ;;		None               void
  5593 ;; Registers used:
  5594 ;;		wreg, status,2, status,0
  5595 ;; Tracked objects:
  5596 ;;		On entry : 0/0
  5597 ;;		On exit  : 0/0
  5598 ;;		Unchanged: 0/0
  5599 ;; Data sizes:     COMMON   BANK0   BANK1   BANK2   BANK3   BANK4   BANK5   BANK6   BANK7   BANK8   BANK9  BANK10  BANK1
      +1  BANK12  BANK13  BANK14  BANK15  BANK16  BANK17  BANK18  BANK19  BANK20  BANK21  BANK22  BANK23  BANK24  BANK25
  5600 ;;      Params:         0       0       0       0       0       0       0       0       0       0       0       0       
      +0       0       0       0       0       0       0       0       0       0       0       0       0       0       0
  5601 ;;      Locals:         0       0       0       0       0       0       0       0       0       0       0       0       
      +0       0       0       0       0       0       0       0       0       0       0       0       0       0       0
  5602 ;;      Temps:          0       1       0       0       0       0       0       0       0       0       0       0       
      +0       0       0       0       0       0       0       0       0       0       0       0       0       0       0
  5603 ;;      Totals:         0       1       0       0       0       0       0       0       0       0       0       0       
      +0       0       0       0       0       0       0       0       0       0       0       0       0       0       0
  5604 ;;Total ram usage:        1 bytes
  5605 ;; Hardware stack levels used:    1
  5606 ;; Hardware stack levels required when called:    4
  5607 ;; This function calls:
  5608 ;;		Nothing
  5609 ;; This function is called by:
  5610 ;;		_main
  5611 ;; This function uses a non-reentrant model
  5612 ;;
  5613                           
  5614                           
  5615                           ;psect for function _init_accel
  5616  1295                     _init_accel:	
  5617                           
  5618                           ;accelerometer.c: 140: ADCON0 = 0;
  5619                           
  5620                           ;incstack = 0
  5621                           ; Regs used in _init_accel: [wreg+status,2+status,0]
  5622  1295  0021               	movlb	1	; select bank1
  5623  1296  019D               	clrf	29	;volatile
  5624                           
  5625                           ;accelerometer.c: 141: ADCON1 = 0b10000000;
  5626  1297  3080               	movlw	128
  5627  1298  009E               	movwf	30	;volatile
  5628                           
  5629                           ;accelerometer.c: 142: ADCON2 = 0b00001111;
  5630  1299  300F               	movlw	15
  5631  129A  009F               	movwf	31	;volatile
  5632                           
  5633                           ;accelerometer.c: 145: TRISA |= 0b00101100;
  5634  129B  302C               	movlw	44
  5635  129C  0020               	movlb	0	; select bank0
  5636  129D  00AC               	movwf	??_init_accel
  5637  129E  082C               	movf	??_init_accel,w
  5638  129F  0021               	movlb	1	; select bank1
  5639  12A0  048C               	iorwf	12,f	;volatile
  5640                           
  5641                           ;accelerometer.c: 146: ANSELA |= 0b00101100;
  5642  12A1  302C               	movlw	44
  5643  12A2  0020               	movlb	0	; select bank0
  5644  12A3  00AC               	movwf	??_init_accel
  5645  12A4  082C               	movf	??_init_accel,w
  5646  12A5  0023               	movlb	3	; select bank3
  5647  12A6  048C               	iorwf	12,f	;volatile
  5648                           
  5649                           ;accelerometer.c: 149: TRISC |= 10000000;
  5650  12A7  0021               	movlb	1	; select bank1
  5651  12A8  178E               	bsf	14,7	;volatile
  5652  12A9  0008               	return
  5653  12AA                     __end_of_init_accel:	
  5654                           
  5655                           	psect	text9
  5656  1464                     __ptext9:	
  5657 ;; *************** function _display_health *****************
  5658 ;; Defined at:
  5659 ;;		line 166 in file "../../source/lighting.c"
  5660 ;; Parameters:    Size  Location     Type
  5661 ;;		None
  5662 ;; Auto vars:     Size  Location     Type
  5663 ;;		None
  5664 ;; Return value:  Size  Location     Type
  5665 ;;		None               void
  5666 ;; Registers used:
  5667 ;;		wreg, status,2, status,0
  5668 ;; Tracked objects:
  5669 ;;		On entry : 0/0
  5670 ;;		On exit  : 0/0
  5671 ;;		Unchanged: 0/0
  5672 ;; Data sizes:     COMMON   BANK0   BANK1   BANK2   BANK3   BANK4   BANK5   BANK6   BANK7   BANK8   BANK9  BANK10  BANK1
      +1  BANK12  BANK13  BANK14  BANK15  BANK16  BANK17  BANK18  BANK19  BANK20  BANK21  BANK22  BANK23  BANK24  BANK25
  5673 ;;      Params:         0       0       0       0       0       0       0       0       0       0       0       0       
      +0       0       0       0       0       0       0       0       0       0       0       0       0       0       0
  5674 ;;      Locals:         0       0       0       0       0       0       0       0       0       0       0       0       
      +0       0       0       0       0       0       0       0       0       0       0       0       0       0       0
  5675 ;;      Temps:          0       3       0       0       0       0       0       0       0       0       0       0       
      +0       0       0       0       0       0       0       0       0       0       0       0       0       0       0
  5676 ;;      Totals:         0       3       0       0       0       0       0       0       0       0       0       0       
      +0       0       0       0       0       0       0       0       0       0       0       0       0       0       0
  5677 ;;Total ram usage:        3 bytes
  5678 ;; Hardware stack levels used:    1
  5679 ;; Hardware stack levels required when called:    4
  5680 ;; This function calls:
  5681 ;;		Nothing
  5682 ;; This function is called by:
  5683 ;;		_main
  5684 ;; This function uses a non-reentrant model
  5685 ;;
  5686                           
  5687                           
  5688                           ;psect for function _display_health
  5689  1464                     _display_health:	
  5690  1464                     l3259:	
  5691                           ;lighting.c: 168: while(health == 0)
  5692                           
  5693                           ;incstack = 0
  5694                           ; Regs used in _display_health: [wreg+status,2+status,0]
  5695                           
  5696  1464  0020               	movlb	0	; select bank0
  5697  1465  0857               	movf	_health,w
  5698  1466  1D03               	btfss	3,2
  5699  1467  2CAF               	goto	l3261
  5700                           
  5701                           ;lighting.c: 169: {
  5702                           ;lighting.c: 172: PSMC2DCH = 0xFF;
  5703  1468  30FF               	movlw	255
  5704  1469  003D               	movlb	29	; select bank29
  5705  146A  00C4               	movwf	68	;volatile
  5706                           
  5707                           ;lighting.c: 173: PSMC2DCL = 0xFF;
  5708  146B  30FF               	movlw	255
  5709  146C  00C3               	movwf	67	;volatile
  5710                           
  5711                           ;lighting.c: 174: PSMC2LD = 1;
  5712  146D  1731               	bsf	49,6	;volatile
  5713                           
  5714                           ;lighting.c: 176: PSMC3DCH = 0xFF;
  5715  146E  30FF               	movlw	255
  5716  146F  00E4               	movwf	100	;volatile
  5717                           
  5718                           ;lighting.c: 177: PSMC3DCL = 0xFF;
  5719  1470  30FF               	movlw	255
  5720  1471  00E3               	movwf	99	;volatile
  5721                           
  5722                           ;lighting.c: 178: PSMC3LD = 1;
  5723  1472  1751               	bsf	81,6	;volatile
  5724                           
  5725                           ;lighting.c: 180: PSMC4DCH = 0x00;
  5726  1473  003E               	movlb	30	; select bank30
  5727  1474  01A4               	clrf	36	;volatile
  5728                           
  5729                           ;lighting.c: 181: PSMC4DCL = 0x00;
  5730  1475  01A3               	clrf	35	;volatile
  5731                           
  5732                           ;lighting.c: 182: PSMC4LD = 1;
  5733  1476  1711               	bsf	17,6	;volatile
  5734                           
  5735                           ;lighting.c: 184: PSMC2LD = 1;
  5736  1477  003D               	movlb	29	; select bank29
  5737  1478  1731               	bsf	49,6	;volatile
  5738                           
  5739                           ;lighting.c: 185: PSMC3LD = 1;
  5740  1479  1751               	bsf	81,6	;volatile
  5741                           
  5742                           ;lighting.c: 186: PSMC4LD = 1;
  5743  147A  003E               	movlb	30	; select bank30
  5744  147B  1711               	bsf	17,6	;volatile
  5745                           
  5746                           ;lighting.c: 188: _delay((unsigned long)((500)*(32000000/4000.0)));
  5747  147C  3015               	movlw	21
  5748  147D  0020               	movlb	0	; select bank0
  5749  147E  00AE               	movwf	??_display_health+2
  5750  147F  304B               	movlw	75
  5751  1480  00AD               	movwf	??_display_health+1
  5752  1481  30D1               	movlw	209
  5753  1482  00AC               	movwf	??_display_health
  5754  1483                     u2637:	
  5755  1483  0BAC               	decfsz	??_display_health,f
  5756  1484  2C83               	goto	u2637
  5757  1485  0BAD               	decfsz	??_display_health+1,f
  5758  1486  2C83               	goto	u2637
  5759  1487  0BAE               	decfsz	??_display_health+2,f
  5760  1488  2C83               	goto	u2637
  5761  1489  0000               	nop
  5762                           
  5763                           ;lighting.c: 192: PSMC2DCH = 0xFF;
  5764  148A  30FF               	movlw	255
  5765  148B  003D               	movlb	29	; select bank29
  5766  148C  00C4               	movwf	68	;volatile
  5767                           
  5768                           ;lighting.c: 193: PSMC2DCL = 0xFF;
  5769  148D  30FF               	movlw	255
  5770  148E  00C3               	movwf	67	;volatile
  5771                           
  5772                           ;lighting.c: 194: PSMC2LD = 1;
  5773  148F  1731               	bsf	49,6	;volatile
  5774                           
  5775                           ;lighting.c: 196: PSMC3DCH = 0xFF;
  5776  1490  30FF               	movlw	255
  5777  1491  00E4               	movwf	100	;volatile
  5778                           
  5779                           ;lighting.c: 197: PSMC3DCL = 0xFF;
  5780  1492  30FF               	movlw	255
  5781  1493  00E3               	movwf	99	;volatile
  5782                           
  5783                           ;lighting.c: 198: PSMC3LD = 1;
  5784  1494  1751               	bsf	81,6	;volatile
  5785                           
  5786                           ;lighting.c: 200: PSMC4DCH = 0xFF;
  5787  1495  30FF               	movlw	255
  5788  1496  003E               	movlb	30	; select bank30
  5789  1497  00A4               	movwf	36	;volatile
  5790                           
  5791                           ;lighting.c: 201: PSMC4DCL = 0xFF;
  5792  1498  30FF               	movlw	255
  5793  1499  00A3               	movwf	35	;volatile
  5794                           
  5795                           ;lighting.c: 202: PSMC4LD = 1;
  5796  149A  1711               	bsf	17,6	;volatile
  5797                           
  5798                           ;lighting.c: 204: PSMC2LD = 1;
  5799  149B  003D               	movlb	29	; select bank29
  5800  149C  1731               	bsf	49,6	;volatile
  5801                           
  5802                           ;lighting.c: 205: PSMC3LD = 1;
  5803  149D  1751               	bsf	81,6	;volatile
  5804                           
  5805                           ;lighting.c: 206: PSMC4LD = 1;
  5806  149E  003E               	movlb	30	; select bank30
  5807  149F  1711               	bsf	17,6	;volatile
  5808                           
  5809                           ;lighting.c: 208: _delay((unsigned long)((500)*(32000000/4000.0)));
  5810  14A0  3015               	movlw	21
  5811  14A1  0020               	movlb	0	; select bank0
  5812  14A2  00AE               	movwf	??_display_health+2
  5813  14A3  304B               	movlw	75
  5814  14A4  00AD               	movwf	??_display_health+1
  5815  14A5  30D1               	movlw	209
  5816  14A6  00AC               	movwf	??_display_health
  5817  14A7                     u2647:	
  5818  14A7  0BAC               	decfsz	??_display_health,f
  5819  14A8  2CA7               	goto	u2647
  5820  14A9  0BAD               	decfsz	??_display_health+1,f
  5821  14AA  2CA7               	goto	u2647
  5822  14AB  0BAE               	decfsz	??_display_health+2,f
  5823  14AC  2CA7               	goto	u2647
  5824  14AD  0000               	nop
  5825  14AE  2C64               	goto	l3259
  5826  14AF                     l3261:	
  5827                           
  5828                           ;lighting.c: 209: }
  5829                           ;lighting.c: 211: if(health <= 10)
  5830  14AF  300B               	movlw	11
  5831  14B0  0257               	subwf	_health,w
  5832  14B1  1803               	skipnc
  5833  14B2  2CC8               	goto	l3281
  5834                           
  5835                           ;lighting.c: 212: {
  5836                           ;lighting.c: 215: PSMC2DCH = 0xFF;
  5837  14B3  30FF               	movlw	255
  5838  14B4  003D               	movlb	29	; select bank29
  5839  14B5  00C4               	movwf	68	;volatile
  5840                           
  5841                           ;lighting.c: 216: PSMC2DCL = 0xFF;
  5842  14B6  30FF               	movlw	255
  5843  14B7  00C3               	movwf	67	;volatile
  5844                           
  5845                           ;lighting.c: 217: PSMC2LD = 1;
  5846  14B8  1731               	bsf	49,6	;volatile
  5847                           
  5848                           ;lighting.c: 219: PSMC3DCH = 0xFF;
  5849  14B9  30FF               	movlw	255
  5850  14BA  00E4               	movwf	100	;volatile
  5851                           
  5852                           ;lighting.c: 220: PSMC3DCL = 0xFF;
  5853  14BB  30FF               	movlw	255
  5854  14BC  00E3               	movwf	99	;volatile
  5855                           
  5856                           ;lighting.c: 221: PSMC3LD = 1;
  5857  14BD  1751               	bsf	81,6	;volatile
  5858                           
  5859                           ;lighting.c: 223: PSMC4DCH = 0x00;
  5860  14BE  003E               	movlb	30	; select bank30
  5861  14BF  01A4               	clrf	36	;volatile
  5862                           
  5863                           ;lighting.c: 224: PSMC4DCL = 0x00;
  5864  14C0  01A3               	clrf	35	;volatile
  5865                           
  5866                           ;lighting.c: 225: PSMC4LD = 1;
  5867  14C1  1711               	bsf	17,6	;volatile
  5868                           
  5869                           ;lighting.c: 227: PSMC2LD = 1;
  5870  14C2  003D               	movlb	29	; select bank29
  5871  14C3  1731               	bsf	49,6	;volatile
  5872                           
  5873                           ;lighting.c: 228: PSMC3LD = 1;
  5874  14C4  1751               	bsf	81,6	;volatile
  5875                           
  5876                           ;lighting.c: 229: PSMC4LD = 1;
  5877  14C5  003E               	movlb	30	; select bank30
  5878  14C6  1711               	bsf	17,6	;volatile
  5879                           
  5880                           ;lighting.c: 230: }
  5881  14C7  0008               	return
  5882  14C8                     l3281:	
  5883                           
  5884                           ;lighting.c: 231: else if(10 < health && health < 35)
  5885  14C8  300B               	movlw	11
  5886  14C9  0020               	movlb	0	; select bank0
  5887  14CA  0257               	subwf	_health,w
  5888  14CB  1C03               	skipc
  5889  14CC  2CE5               	goto	l3305
  5890  14CD  3023               	movlw	35
  5891  14CE  0257               	subwf	_health,w
  5892  14CF  1803               	skipnc
  5893  14D0  2CE5               	goto	l3305
  5894                           
  5895                           ;lighting.c: 232: {
  5896                           ;lighting.c: 235: PSMC2DCH = 0x00;
  5897  14D1  003D               	movlb	29	; select bank29
  5898  14D2  01C4               	clrf	68	;volatile
  5899                           
  5900                           ;lighting.c: 236: PSMC2DCL = 0x00;
  5901  14D3  01C3               	clrf	67	;volatile
  5902                           
  5903                           ;lighting.c: 237: PSMC2LD = 1;
  5904  14D4  1731               	bsf	49,6	;volatile
  5905                           
  5906                           ;lighting.c: 239: PSMC3DCH = 0xFF;
  5907  14D5  30FF               	movlw	255
  5908  14D6  00E4               	movwf	100	;volatile
  5909                           
  5910                           ;lighting.c: 240: PSMC3DCL = 0xFF;
  5911  14D7  30FF               	movlw	255
  5912  14D8  00E3               	movwf	99	;volatile
  5913                           
  5914                           ;lighting.c: 241: PSMC3LD = 1;
  5915  14D9  1751               	bsf	81,6	;volatile
  5916                           
  5917                           ;lighting.c: 243: PSMC4DCH = 0x00;
  5918  14DA  003E               	movlb	30	; select bank30
  5919  14DB  01A4               	clrf	36	;volatile
  5920                           
  5921                           ;lighting.c: 244: PSMC4DCL = 0xFF;
  5922  14DC  30FF               	movlw	255
  5923  14DD  00A3               	movwf	35	;volatile
  5924                           
  5925                           ;lighting.c: 245: PSMC4LD = 1;
  5926  14DE  1711               	bsf	17,6	;volatile
  5927                           
  5928                           ;lighting.c: 247: PSMC2LD = 1;
  5929  14DF  003D               	movlb	29	; select bank29
  5930  14E0  1731               	bsf	49,6	;volatile
  5931                           
  5932                           ;lighting.c: 248: PSMC3LD = 1;
  5933  14E1  1751               	bsf	81,6	;volatile
  5934                           
  5935                           ;lighting.c: 249: PSMC4LD = 1;
  5936  14E2  003E               	movlb	30	; select bank30
  5937  14E3  1711               	bsf	17,6	;volatile
  5938                           
  5939                           ;lighting.c: 250: }
  5940  14E4  0008               	return
  5941  14E5                     l3305:	
  5942                           
  5943                           ;lighting.c: 251: else
  5944                           ;lighting.c: 252: {
  5945                           ;lighting.c: 255: PSMC2DCH = 0x00;
  5946  14E5  003D               	movlb	29	; select bank29
  5947  14E6  01C4               	clrf	68	;volatile
  5948                           
  5949                           ;lighting.c: 256: PSMC2DCL = 0x00;
  5950  14E7  01C3               	clrf	67	;volatile
  5951                           
  5952                           ;lighting.c: 257: PSMC2LD = 1;
  5953  14E8  1731               	bsf	49,6	;volatile
  5954                           
  5955                           ;lighting.c: 259: PSMC3DCH = 0xFF;
  5956  14E9  30FF               	movlw	255
  5957  14EA  00E4               	movwf	100	;volatile
  5958                           
  5959                           ;lighting.c: 260: PSMC3DCL = 0xFF;
  5960  14EB  30FF               	movlw	255
  5961  14EC  00E3               	movwf	99	;volatile
  5962                           
  5963                           ;lighting.c: 261: PSMC3LD = 1;
  5964  14ED  1751               	bsf	81,6	;volatile
  5965                           
  5966                           ;lighting.c: 263: PSMC4DCH = 0xFF;
  5967  14EE  30FF               	movlw	255
  5968  14EF  003E               	movlb	30	; select bank30
  5969  14F0  00A4               	movwf	36	;volatile
  5970                           
  5971                           ;lighting.c: 264: PSMC4DCL = 0xFF;
  5972  14F1  30FF               	movlw	255
  5973  14F2  00A3               	movwf	35	;volatile
  5974                           
  5975                           ;lighting.c: 265: PSMC4LD = 1;
  5976  14F3  1711               	bsf	17,6	;volatile
  5977                           
  5978                           ;lighting.c: 267: PSMC2LD = 1;
  5979  14F4  003D               	movlb	29	; select bank29
  5980  14F5  1731               	bsf	49,6	;volatile
  5981                           
  5982                           ;lighting.c: 268: PSMC3LD = 1;
  5983  14F6  1751               	bsf	81,6	;volatile
  5984                           
  5985                           ;lighting.c: 269: PSMC4LD = 1;
  5986  14F7  003E               	movlb	30	; select bank30
  5987  14F8  1711               	bsf	17,6	;volatile
  5988  14F9  0008               	return
  5989  14FA                     __end_of_display_health:	
  5990                           
  5991                           	psect	text10
  5992  003F                     __ptext10:	
  5993 ;; *************** function _display_blade_lights *****************
  5994 ;; Defined at:
  5995 ;;		line 273 in file "../../source/lighting.c"
  5996 ;; Parameters:    Size  Location     Type
  5997 ;;  mode            1    wreg     unsigned char 
  5998 ;; Auto vars:     Size  Location     Type
  5999 ;;  mode            1   30[BANK0 ] unsigned char 
  6000 ;;  i               1   29[BANK0 ] unsigned char 
  6001 ;;  i               1   28[BANK0 ] unsigned char 
  6002 ;;  blue            1   34[BANK0 ] unsigned char 
  6003 ;;  green           1   33[BANK0 ] unsigned char 
  6004 ;;  red             1   32[BANK0 ] unsigned char 
  6005 ;;  brightness      1   31[BANK0 ] unsigned char 
  6006 ;; Return value:  Size  Location     Type
  6007 ;;		None               void
  6008 ;; Registers used:
  6009 ;;		wreg, status,2, status,0, pclath, cstack
  6010 ;; Tracked objects:
  6011 ;;		On entry : 0/0
  6012 ;;		On exit  : 0/0
  6013 ;;		Unchanged: 0/0
  6014 ;; Data sizes:     COMMON   BANK0   BANK1   BANK2   BANK3   BANK4   BANK5   BANK6   BANK7   BANK8   BANK9  BANK10  BANK1
      +1  BANK12  BANK13  BANK14  BANK15  BANK16  BANK17  BANK18  BANK19  BANK20  BANK21  BANK22  BANK23  BANK24  BANK25
  6015 ;;      Params:         0       0       0       0       0       0       0       0       0       0       0       0       
      +0       0       0       0       0       0       0       0       0       0       0       0       0       0       0
  6016 ;;      Locals:         0       7       0       0       0       0       0       0       0       0       0       0       
      +0       0       0       0       0       0       0       0       0       0       0       0       0       0       0
  6017 ;;      Temps:          0       3       0       0       0       0       0       0       0       0       0       0       
      +0       0       0       0       0       0       0       0       0       0       0       0       0       0       0
  6018 ;;      Totals:         0      10       0       0       0       0       0       0       0       0       0       0       
      +0       0       0       0       0       0       0       0       0       0       0       0       0       0       0
  6019 ;;Total ram usage:       10 bytes
  6020 ;; Hardware stack levels used:    1
  6021 ;; Hardware stack levels required when called:    6
  6022 ;; This function calls:
  6023 ;;		_led1_command
  6024 ;;		_led2_command
  6025 ;;		_led3_command
  6026 ;;		_led4_command
  6027 ;;		_led5_command
  6028 ;;		_led_command
  6029 ;;		_led_end
  6030 ;;		_led_start
  6031 ;;		_leds_off
  6032 ;; This function is called by:
  6033 ;;		_main
  6034 ;; This function uses a non-reentrant model
  6035 ;;
  6036                           
  6037                           
  6038                           ;psect for function _display_blade_lights
  6039  003F                     _display_blade_lights:	
  6040                           
  6041                           ;incstack = 0
  6042                           ; Regs used in _display_blade_lights: [wreg+status,2+status,0+pclath+cstack]
  6043                           ;display_blade_lights@mode stored from wreg
  6044  003F  0020               	movlb	0	; select bank0
  6045  0040  00BE               	movwf	display_blade_lights@mode
  6046                           
  6047                           ;lighting.c: 275: unsigned char red = 0;
  6048  0041  01C0               	clrf	display_blade_lights@red
  6049                           
  6050                           ;lighting.c: 276: unsigned char green = 0;
  6051  0042  01C1               	clrf	display_blade_lights@green
  6052                           
  6053                           ;lighting.c: 277: unsigned char blue = 0;
  6054  0043  01C2               	clrf	display_blade_lights@blue
  6055                           
  6056                           ;lighting.c: 278: unsigned char brightness = 0xFF;
  6057  0044  30FF               	movlw	255
  6058  0045  00B9               	movwf	??_display_blade_lights
  6059  0046  0839               	movf	??_display_blade_lights,w
  6060  0047  00BF               	movwf	display_blade_lights@brightness
  6061                           
  6062                           ;lighting.c: 285: red = 0xFF;
  6063  0048  30FF               	movlw	255
  6064  0049  00B9               	movwf	??_display_blade_lights
  6065  004A  0839               	movf	??_display_blade_lights,w
  6066  004B  00C0               	movwf	display_blade_lights@red
  6067                           
  6068                           ;lighting.c: 286: green = 0x2F;
  6069  004C  302F               	movlw	47
  6070  004D  00B9               	movwf	??_display_blade_lights
  6071  004E  0839               	movf	??_display_blade_lights,w
  6072  004F  00C1               	movwf	display_blade_lights@green
  6073                           
  6074                           ;lighting.c: 287: blue = 0x00;
  6075  0050  01C2               	clrf	display_blade_lights@blue
  6076                           
  6077                           ;lighting.c: 298: if( (mode == 0)
  6078                           ;lighting.c: 299: || (mode == 1) )
  6079  0051  083E               	movf	display_blade_lights@mode,w
  6080  0052  1D03               	btfss	3,2
  6081  0053  033E               	decf	display_blade_lights@mode,w
  6082  0054  1D03               	btfss	3,2
  6083  0055  292B               	goto	l3443
  6084                           
  6085                           ;lighting.c: 300: {
  6086                           ;lighting.c: 302: led1_command(brightness, red, green, blue);
  6087  0056  0840               	movf	display_blade_lights@red,w
  6088  0057  00B9               	movwf	??_display_blade_lights
  6089  0058  0839               	movf	??_display_blade_lights,w
  6090  0059  00AF               	movwf	led1_command@red
  6091  005A  0841               	movf	display_blade_lights@green,w
  6092  005B  00BA               	movwf	??_display_blade_lights+1
  6093  005C  083A               	movf	??_display_blade_lights+1,w
  6094  005D  00B0               	movwf	led1_command@green
  6095  005E  0842               	movf	display_blade_lights@blue,w
  6096  005F  00BB               	movwf	??_display_blade_lights+2
  6097  0060  083B               	movf	??_display_blade_lights+2,w
  6098  0061  00B1               	movwf	led1_command@blue
  6099  0062  083F               	movf	display_blade_lights@brightness,w
  6100  0063  3189  2176  3180   	fcall	_led1_command
  6101                           
  6102                           ;lighting.c: 303: _delay((unsigned long)((50)*(32000000/4000.0)));
  6103  0066  3003               	movlw	3
  6104  0067  0020               	movlb	0	; select bank0
  6105  0068  00BB               	movwf	??_display_blade_lights+2
  6106  0069  3008               	movlw	8
  6107  006A  00BA               	movwf	??_display_blade_lights+1
  6108  006B  3078               	movlw	120
  6109  006C  00B9               	movwf	??_display_blade_lights
  6110  006D                     u2657:	
  6111  006D  0BB9               	decfsz	??_display_blade_lights,f
  6112  006E  286D               	goto	u2657
  6113  006F  0BBA               	decfsz	??_display_blade_lights+1,f
  6114  0070  286D               	goto	u2657
  6115  0071  0BBB               	decfsz	??_display_blade_lights+2,f
  6116  0072  286D               	goto	u2657
  6117                           
  6118                           ;lighting.c: 305: led2_command(brightness, red, green, blue);
  6119  0073  0020               	movlb	0	; select bank0
  6120  0074  0840               	movf	display_blade_lights@red,w
  6121  0075  00B9               	movwf	??_display_blade_lights
  6122  0076  0839               	movf	??_display_blade_lights,w
  6123  0077  00AF               	movwf	led2_command@red
  6124  0078  0841               	movf	display_blade_lights@green,w
  6125  0079  00BA               	movwf	??_display_blade_lights+1
  6126  007A  083A               	movf	??_display_blade_lights+1,w
  6127  007B  00B0               	movwf	led2_command@green
  6128  007C  0842               	movf	display_blade_lights@blue,w
  6129  007D  00BB               	movwf	??_display_blade_lights+2
  6130  007E  083B               	movf	??_display_blade_lights+2,w
  6131  007F  00B1               	movwf	led2_command@blue
  6132  0080  083F               	movf	display_blade_lights@brightness,w
  6133  0081  318A  221A  3180   	fcall	_led2_command
  6134                           
  6135                           ;lighting.c: 306: _delay((unsigned long)((50)*(32000000/4000.0)));
  6136  0084  3003               	movlw	3
  6137  0085  0020               	movlb	0	; select bank0
  6138  0086  00BB               	movwf	??_display_blade_lights+2
  6139  0087  3008               	movlw	8
  6140  0088  00BA               	movwf	??_display_blade_lights+1
  6141  0089  3078               	movlw	120
  6142  008A  00B9               	movwf	??_display_blade_lights
  6143  008B                     u2667:	
  6144  008B  0BB9               	decfsz	??_display_blade_lights,f
  6145  008C  288B               	goto	u2667
  6146  008D  0BBA               	decfsz	??_display_blade_lights+1,f
  6147  008E  288B               	goto	u2667
  6148  008F  0BBB               	decfsz	??_display_blade_lights+2,f
  6149  0090  288B               	goto	u2667
  6150                           
  6151                           ;lighting.c: 308: led3_command(brightness, red, green, blue);
  6152  0091  0020               	movlb	0	; select bank0
  6153  0092  0840               	movf	display_blade_lights@red,w
  6154  0093  00B9               	movwf	??_display_blade_lights
  6155  0094  0839               	movf	??_display_blade_lights,w
  6156  0095  00AF               	movwf	led3_command@red
  6157  0096  0841               	movf	display_blade_lights@green,w
  6158  0097  00BA               	movwf	??_display_blade_lights+1
  6159  0098  083A               	movf	??_display_blade_lights+1,w
  6160  0099  00B0               	movwf	led3_command@green
  6161  009A  0842               	movf	display_blade_lights@blue,w
  6162  009B  00BB               	movwf	??_display_blade_lights+2
  6163  009C  083B               	movf	??_display_blade_lights+2,w
  6164  009D  00B1               	movwf	led3_command@blue
  6165  009E  083F               	movf	display_blade_lights@brightness,w
  6166  009F  318A  22BE  3180   	fcall	_led3_command
  6167                           
  6168                           ;lighting.c: 309: _delay((unsigned long)((50)*(32000000/4000.0)));
  6169  00A2  3003               	movlw	3
  6170  00A3  0020               	movlb	0	; select bank0
  6171  00A4  00BB               	movwf	??_display_blade_lights+2
  6172  00A5  3008               	movlw	8
  6173  00A6  00BA               	movwf	??_display_blade_lights+1
  6174  00A7  3078               	movlw	120
  6175  00A8  00B9               	movwf	??_display_blade_lights
  6176  00A9                     u2677:	
  6177  00A9  0BB9               	decfsz	??_display_blade_lights,f
  6178  00AA  28A9               	goto	u2677
  6179  00AB  0BBA               	decfsz	??_display_blade_lights+1,f
  6180  00AC  28A9               	goto	u2677
  6181  00AD  0BBB               	decfsz	??_display_blade_lights+2,f
  6182  00AE  28A9               	goto	u2677
  6183                           
  6184                           ;lighting.c: 311: led4_command(brightness, red, green, blue);
  6185  00AF  0020               	movlb	0	; select bank0
  6186  00B0  0840               	movf	display_blade_lights@red,w
  6187  00B1  00B9               	movwf	??_display_blade_lights
  6188  00B2  0839               	movf	??_display_blade_lights,w
  6189  00B3  00AF               	movwf	led4_command@red
  6190  00B4  0841               	movf	display_blade_lights@green,w
  6191  00B5  00BA               	movwf	??_display_blade_lights+1
  6192  00B6  083A               	movf	??_display_blade_lights+1,w
  6193  00B7  00B0               	movwf	led4_command@green
  6194  00B8  0842               	movf	display_blade_lights@blue,w
  6195  00B9  00BB               	movwf	??_display_blade_lights+2
  6196  00BA  083B               	movf	??_display_blade_lights+2,w
  6197  00BB  00B1               	movwf	led4_command@blue
  6198  00BC  083F               	movf	display_blade_lights@brightness,w
  6199  00BD  318B  2362  3180   	fcall	_led4_command
  6200                           
  6201                           ;lighting.c: 312: _delay((unsigned long)((50)*(32000000/4000.0)));
  6202  00C0  3003               	movlw	3
  6203  00C1  0020               	movlb	0	; select bank0
  6204  00C2  00BB               	movwf	??_display_blade_lights+2
  6205  00C3  3008               	movlw	8
  6206  00C4  00BA               	movwf	??_display_blade_lights+1
  6207  00C5  3078               	movlw	120
  6208  00C6  00B9               	movwf	??_display_blade_lights
  6209  00C7                     u2687:	
  6210  00C7  0BB9               	decfsz	??_display_blade_lights,f
  6211  00C8  28C7               	goto	u2687
  6212  00C9  0BBA               	decfsz	??_display_blade_lights+1,f
  6213  00CA  28C7               	goto	u2687
  6214  00CB  0BBB               	decfsz	??_display_blade_lights+2,f
  6215  00CC  28C7               	goto	u2687
  6216                           
  6217                           ;lighting.c: 314: led5_command(brightness, red, green, blue);
  6218  00CD  0020               	movlb	0	; select bank0
  6219  00CE  0840               	movf	display_blade_lights@red,w
  6220  00CF  00B9               	movwf	??_display_blade_lights
  6221  00D0  0839               	movf	??_display_blade_lights,w
  6222  00D1  00AF               	movwf	led5_command@red
  6223  00D2  0841               	movf	display_blade_lights@green,w
  6224  00D3  00BA               	movwf	??_display_blade_lights+1
  6225  00D4  083A               	movf	??_display_blade_lights+1,w
  6226  00D5  00B0               	movwf	led5_command@green
  6227  00D6  0842               	movf	display_blade_lights@blue,w
  6228  00D7  00BB               	movwf	??_display_blade_lights+2
  6229  00D8  083B               	movf	??_display_blade_lights+2,w
  6230  00D9  00B1               	movwf	led5_command@blue
  6231  00DA  083F               	movf	display_blade_lights@brightness,w
  6232  00DB  3187  2744  3180   	fcall	_led5_command
  6233                           
  6234                           ;lighting.c: 315: _delay((unsigned long)((50)*(32000000/4000.0)));
  6235  00DE  3003               	movlw	3
  6236  00DF  0020               	movlb	0	; select bank0
  6237  00E0  00BB               	movwf	??_display_blade_lights+2
  6238  00E1  3008               	movlw	8
  6239  00E2  00BA               	movwf	??_display_blade_lights+1
  6240  00E3  3078               	movlw	120
  6241  00E4  00B9               	movwf	??_display_blade_lights
  6242  00E5                     u2697:	
  6243  00E5  0BB9               	decfsz	??_display_blade_lights,f
  6244  00E6  28E5               	goto	u2697
  6245  00E7  0BBA               	decfsz	??_display_blade_lights+1,f
  6246  00E8  28E5               	goto	u2697
  6247  00E9  0BBB               	decfsz	??_display_blade_lights+2,f
  6248  00EA  28E5               	goto	u2697
  6249                           
  6250                           ;lighting.c: 323: for(unsigned char i = 0; i < 4; ++i)
  6251  00EB  0020               	movlb	0	; select bank0
  6252  00EC  01BC               	clrf	display_blade_lights@i
  6253  00ED                     L2:	
  6254  00ED  3004               	movlw	4
  6255  00EE  023C               	subwf	display_blade_lights@i,w
  6256  00EF  1803               	btfsc	3,0
  6257  00F0  2C54               	goto	l3479
  6258                           
  6259                           ;lighting.c: 324: {
  6260                           ;lighting.c: 326: led5_command(brightness, red, green, blue);
  6261  00F1  0840               	movf	display_blade_lights@red,w
  6262  00F2  00B9               	movwf	??_display_blade_lights
  6263  00F3  0839               	movf	??_display_blade_lights,w
  6264  00F4  00AF               	movwf	led5_command@red
  6265  00F5  0841               	movf	display_blade_lights@green,w
  6266  00F6  00BA               	movwf	??_display_blade_lights+1
  6267  00F7  083A               	movf	??_display_blade_lights+1,w
  6268  00F8  00B0               	movwf	led5_command@green
  6269  00F9  0842               	movf	display_blade_lights@blue,w
  6270  00FA  00BB               	movwf	??_display_blade_lights+2
  6271  00FB  083B               	movf	??_display_blade_lights+2,w
  6272  00FC  00B1               	movwf	led5_command@blue
  6273  00FD  083F               	movf	display_blade_lights@brightness,w
  6274  00FE  3187  2744  3180   	fcall	_led5_command
  6275                           
  6276                           ;lighting.c: 327: _delay((unsigned long)((25)*(32000000/4000.0)));
  6277  0101  3002               	movlw	2
  6278  0102  0020               	movlb	0	; select bank0
  6279  0103  00BB               	movwf	??_display_blade_lights+2
  6280  0104  3004               	movlw	4
  6281  0105  00BA               	movwf	??_display_blade_lights+1
  6282  0106  30BA               	movlw	186
  6283  0107  00B9               	movwf	??_display_blade_lights
  6284  0108                     u2707:	
  6285  0108  0BB9               	decfsz	??_display_blade_lights,f
  6286  0109  2908               	goto	u2707
  6287  010A  0BBA               	decfsz	??_display_blade_lights+1,f
  6288  010B  2908               	goto	u2707
  6289  010C  0BBB               	decfsz	??_display_blade_lights+2,f
  6290  010D  2908               	goto	u2707
  6291  010E  0000               	nop
  6292                           
  6293                           ;lighting.c: 329: led5_command(0xFF, 0, 0, 0);
  6294  010F  0020               	movlb	0	; select bank0
  6295  0110  01AF               	clrf	led5_command@red
  6296  0111  01B0               	clrf	led5_command@green
  6297  0112  01B1               	clrf	led5_command@blue
  6298  0113  30FF               	movlw	255
  6299  0114  3187  2744  3180   	fcall	_led5_command
  6300                           
  6301                           ;lighting.c: 330: _delay((unsigned long)((25)*(32000000/4000.0)));
  6302  0117  3002               	movlw	2
  6303  0118  0020               	movlb	0	; select bank0
  6304  0119  00BB               	movwf	??_display_blade_lights+2
  6305  011A  3004               	movlw	4
  6306  011B  00BA               	movwf	??_display_blade_lights+1
  6307  011C  30BA               	movlw	186
  6308  011D  00B9               	movwf	??_display_blade_lights
  6309  011E                     u2717:	
  6310  011E  0BB9               	decfsz	??_display_blade_lights,f
  6311  011F  291E               	goto	u2717
  6312  0120  0BBA               	decfsz	??_display_blade_lights+1,f
  6313  0121  291E               	goto	u2717
  6314  0122  0BBB               	decfsz	??_display_blade_lights+2,f
  6315  0123  291E               	goto	u2717
  6316  0124  0000               	nop
  6317  0125  3001               	movlw	1
  6318  0126  0020               	movlb	0	; select bank0
  6319  0127  00B9               	movwf	??_display_blade_lights
  6320  0128  0839               	movf	??_display_blade_lights,w
  6321  0129  07BC               	addwf	display_blade_lights@i,f
  6322  012A  28ED               	goto	L2
  6323  012B                     l3443:	
  6324                           ;lighting.c: 331: }
  6325                           ;lighting.c: 332: }
  6326                           
  6327                           
  6328                           ;lighting.c: 333: else if( mode == 2 )
  6329  012B  3002               	movlw	2
  6330  012C  063E               	xorwf	display_blade_lights@mode,w
  6331  012D  1D03               	btfss	3,2
  6332  012E  2B9B               	goto	l3447
  6333                           
  6334                           ;lighting.c: 334: {
  6335                           ;lighting.c: 335: led_start();
  6336  012F  3187  27E8  3180   	fcall	_led_start
  6337                           
  6338                           ;lighting.c: 336: led_command(0xFF, 0, 0xFF, 0);
  6339  0132  0020               	movlb	0	; select bank0
  6340  0133  01AF               	clrf	led_command@red
  6341  0134  30FF               	movlw	255
  6342  0135  00B9               	movwf	??_display_blade_lights
  6343  0136  0839               	movf	??_display_blade_lights,w
  6344  0137  00B0               	movwf	led_command@green
  6345  0138  01B1               	clrf	led_command@blue
  6346  0139  30FF               	movlw	255
  6347  013A  3192  2280  3180   	fcall	_led_command
  6348                           
  6349                           ;lighting.c: 337: led_end();
  6350  013D  3192  22D6  3180   	fcall	_led_end
  6351                           
  6352                           ;lighting.c: 339: led_start();
  6353  0140  3187  27E8  3180   	fcall	_led_start
  6354                           
  6355                           ;lighting.c: 340: led_command(0xFF, 0xFF, 0x2F, 0);
  6356  0143  30FF               	movlw	255
  6357  0144  0020               	movlb	0	; select bank0
  6358  0145  00B9               	movwf	??_display_blade_lights
  6359  0146  0839               	movf	??_display_blade_lights,w
  6360  0147  00AF               	movwf	led_command@red
  6361  0148  302F               	movlw	47
  6362  0149  00BA               	movwf	??_display_blade_lights+1
  6363  014A  083A               	movf	??_display_blade_lights+1,w
  6364  014B  00B0               	movwf	led_command@green
  6365  014C  01B1               	clrf	led_command@blue
  6366  014D  30FF               	movlw	255
  6367  014E  3192  2280  3180   	fcall	_led_command
  6368                           
  6369                           ;lighting.c: 341: led_command(0xFF, 0, 0xFF, 0);
  6370  0151  0020               	movlb	0	; select bank0
  6371  0152  01AF               	clrf	led_command@red
  6372  0153  30FF               	movlw	255
  6373  0154  00B9               	movwf	??_display_blade_lights
  6374  0155  0839               	movf	??_display_blade_lights,w
  6375  0156  00B0               	movwf	led_command@green
  6376  0157  01B1               	clrf	led_command@blue
  6377  0158  30FF               	movlw	255
  6378  0159  3192  2280  3180   	fcall	_led_command
  6379                           
  6380                           ;lighting.c: 342: led_end();
  6381  015C  3192  22D6  3180   	fcall	_led_end
  6382                           
  6383                           ;lighting.c: 344: led_start();
  6384  015F  3187  27E8  3180   	fcall	_led_start
  6385                           
  6386                           ;lighting.c: 345: led_command(0xFF, 0, 0, 0xFF);
  6387  0162  0020               	movlb	0	; select bank0
  6388  0163  01AF               	clrf	led_command@red
  6389  0164  01B0               	clrf	led_command@green
  6390  0165  30FF               	movlw	255
  6391  0166  00B9               	movwf	??_display_blade_lights
  6392  0167  0839               	movf	??_display_blade_lights,w
  6393  0168  00B1               	movwf	led_command@blue
  6394  0169  30FF               	movlw	255
  6395  016A  3192  2280  3180   	fcall	_led_command
  6396                           
  6397                           ;lighting.c: 346: led_command(0xFF, 0xFF, 0x2F, 0);
  6398  016D  30FF               	movlw	255
  6399  016E  0020               	movlb	0	; select bank0
  6400  016F  00B9               	movwf	??_display_blade_lights
  6401  0170  0839               	movf	??_display_blade_lights,w
  6402  0171  00AF               	movwf	led_command@red
  6403  0172  302F               	movlw	47
  6404  0173  00BA               	movwf	??_display_blade_lights+1
  6405  0174  083A               	movf	??_display_blade_lights+1,w
  6406  0175  00B0               	movwf	led_command@green
  6407  0176  01B1               	clrf	led_command@blue
  6408  0177  30FF               	movlw	255
  6409  0178  3192  2280  3180   	fcall	_led_command
  6410                           
  6411                           ;lighting.c: 347: led_command(0xFF, 0, 0xFF, 0);
  6412  017B  0020               	movlb	0	; select bank0
  6413  017C  01AF               	clrf	led_command@red
  6414  017D  30FF               	movlw	255
  6415  017E  00B9               	movwf	??_display_blade_lights
  6416  017F  0839               	movf	??_display_blade_lights,w
  6417  0180  00B0               	movwf	led_command@green
  6418  0181  01B1               	clrf	led_command@blue
  6419  0182  30FF               	movlw	255
  6420  0183  3192  2280  3180   	fcall	_led_command
  6421                           
  6422                           ;lighting.c: 348: led_end();
  6423  0186  3192  22D6  3180   	fcall	_led_end
  6424                           
  6425                           ;lighting.c: 350: led_start();
  6426  0189  3187  27E8  3180   	fcall	_led_start
  6427                           
  6428                           ;lighting.c: 351: led_command(0xFF, 0xFF, 0, 0);
  6429  018C  30FF               	movlw	255
  6430  018D  0020               	movlb	0	; select bank0
  6431  018E  00B9               	movwf	??_display_blade_lights
  6432  018F  0839               	movf	??_display_blade_lights,w
  6433  0190  00AF               	movwf	led_command@red
  6434  0191  01B0               	clrf	led_command@green
  6435  0192  01B1               	clrf	led_command@blue
  6436  0193  30FF               	movlw	255
  6437  0194  3192  2280  3180   	fcall	_led_command
  6438                           
  6439                           ;lighting.c: 352: led_command(0xFF, 0, 0, 0xFF);
  6440  0197  0020               	movlb	0	; select bank0
  6441  0198  01AF               	clrf	led_command@red
  6442  0199  01B0               	clrf	led_command@green
  6443  019A  30FF               	movlw	255
  6444  019B  00B9               	movwf	??_display_blade_lights
  6445  019C  0839               	movf	??_display_blade_lights,w
  6446  019D  00B1               	movwf	led_command@blue
  6447  019E  30FF               	movlw	255
  6448  019F  3192  2280  3180   	fcall	_led_command
  6449                           
  6450                           ;lighting.c: 353: led_command(0xFF, 0xFF, 0x2F, 0);
  6451  01A2  30FF               	movlw	255
  6452  01A3  0020               	movlb	0	; select bank0
  6453  01A4  00B9               	movwf	??_display_blade_lights
  6454  01A5  0839               	movf	??_display_blade_lights,w
  6455  01A6  00AF               	movwf	led_command@red
  6456  01A7  302F               	movlw	47
  6457  01A8  00BA               	movwf	??_display_blade_lights+1
  6458  01A9  083A               	movf	??_display_blade_lights+1,w
  6459  01AA  00B0               	movwf	led_command@green
  6460  01AB  01B1               	clrf	led_command@blue
  6461  01AC  30FF               	movlw	255
  6462  01AD  3192  2280  3180   	fcall	_led_command
  6463                           
  6464                           ;lighting.c: 354: led_command(0xFF, 0, 0xFF, 0);
  6465  01B0  0020               	movlb	0	; select bank0
  6466  01B1  01AF               	clrf	led_command@red
  6467  01B2  30FF               	movlw	255
  6468  01B3  00B9               	movwf	??_display_blade_lights
  6469  01B4  0839               	movf	??_display_blade_lights,w
  6470  01B5  00B0               	movwf	led_command@green
  6471  01B6  01B1               	clrf	led_command@blue
  6472  01B7  30FF               	movlw	255
  6473  01B8  3192  2280  3180   	fcall	_led_command
  6474                           
  6475                           ;lighting.c: 355: led_end();
  6476  01BB  3192  22D6  3180   	fcall	_led_end
  6477                           
  6478                           ;lighting.c: 357: led_start();
  6479  01BE  3187  27E8  3180   	fcall	_led_start
  6480                           
  6481                           ;lighting.c: 358: led_command(0, 0, 0, 0);
  6482  01C1  0020               	movlb	0	; select bank0
  6483  01C2  01AF               	clrf	led_command@red
  6484  01C3  01B0               	clrf	led_command@green
  6485  01C4  01B1               	clrf	led_command@blue
  6486  01C5  3000               	movlw	0
  6487  01C6  3192  2280  3180   	fcall	_led_command
  6488                           
  6489                           ;lighting.c: 359: led_command(0xFF, 0xFF, 0, 0);
  6490  01C9  30FF               	movlw	255
  6491  01CA  0020               	movlb	0	; select bank0
  6492  01CB  00B9               	movwf	??_display_blade_lights
  6493  01CC  0839               	movf	??_display_blade_lights,w
  6494  01CD  00AF               	movwf	led_command@red
  6495  01CE  01B0               	clrf	led_command@green
  6496  01CF  01B1               	clrf	led_command@blue
  6497  01D0  30FF               	movlw	255
  6498  01D1  3192  2280  3180   	fcall	_led_command
  6499                           
  6500                           ;lighting.c: 360: led_command(0xFF, 0, 0, 0xFF);
  6501  01D4  0020               	movlb	0	; select bank0
  6502  01D5  01AF               	clrf	led_command@red
  6503  01D6  01B0               	clrf	led_command@green
  6504  01D7  30FF               	movlw	255
  6505  01D8  00B9               	movwf	??_display_blade_lights
  6506  01D9  0839               	movf	??_display_blade_lights,w
  6507  01DA  00B1               	movwf	led_command@blue
  6508  01DB  30FF               	movlw	255
  6509  01DC  3192  2280  3180   	fcall	_led_command
  6510                           
  6511                           ;lighting.c: 361: led_command(0xFF, 0xFF, 0x2F, 0);
  6512  01DF  30FF               	movlw	255
  6513  01E0  0020               	movlb	0	; select bank0
  6514  01E1  00B9               	movwf	??_display_blade_lights
  6515  01E2  0839               	movf	??_display_blade_lights,w
  6516  01E3  00AF               	movwf	led_command@red
  6517  01E4  302F               	movlw	47
  6518  01E5  00BA               	movwf	??_display_blade_lights+1
  6519  01E6  083A               	movf	??_display_blade_lights+1,w
  6520  01E7  00B0               	movwf	led_command@green
  6521  01E8  01B1               	clrf	led_command@blue
  6522  01E9  30FF               	movlw	255
  6523  01EA  3192  2280  3180   	fcall	_led_command
  6524                           
  6525                           ;lighting.c: 362: led_command(0xFF, 0, 0xFF, 0);
  6526  01ED  0020               	movlb	0	; select bank0
  6527  01EE  01AF               	clrf	led_command@red
  6528  01EF  30FF               	movlw	255
  6529  01F0  00B9               	movwf	??_display_blade_lights
  6530  01F1  0839               	movf	??_display_blade_lights,w
  6531  01F2  00B0               	movwf	led_command@green
  6532  01F3  01B1               	clrf	led_command@blue
  6533  01F4  30FF               	movlw	255
  6534  01F5  3192  2280  3180   	fcall	_led_command
  6535                           
  6536                           ;lighting.c: 363: led_end();
  6537  01F8  3192  22D6  3180   	fcall	_led_end
  6538                           
  6539                           ;lighting.c: 365: led_start();
  6540  01FB  3187  27E8  3180   	fcall	_led_start
  6541                           
  6542                           ;lighting.c: 366: led_command(0, 0, 0, 0);
  6543  01FE  0020               	movlb	0	; select bank0
  6544  01FF  01AF               	clrf	led_command@red
  6545  0200  01B0               	clrf	led_command@green
  6546  0201  01B1               	clrf	led_command@blue
  6547  0202  3000               	movlw	0
  6548  0203  3192  2280  3180   	fcall	_led_command
  6549                           
  6550                           ;lighting.c: 367: led_command(0, 0, 0, 0);
  6551  0206  0020               	movlb	0	; select bank0
  6552  0207  01AF               	clrf	led_command@red
  6553  0208  01B0               	clrf	led_command@green
  6554  0209  01B1               	clrf	led_command@blue
  6555  020A  3000               	movlw	0
  6556  020B  3192  2280  3180   	fcall	_led_command
  6557                           
  6558                           ;lighting.c: 368: led_command(0xFF, 0xFF, 0, 0);
  6559  020E  30FF               	movlw	255
  6560  020F  0020               	movlb	0	; select bank0
  6561  0210  00B9               	movwf	??_display_blade_lights
  6562  0211  0839               	movf	??_display_blade_lights,w
  6563  0212  00AF               	movwf	led_command@red
  6564  0213  01B0               	clrf	led_command@green
  6565  0214  01B1               	clrf	led_command@blue
  6566  0215  30FF               	movlw	255
  6567  0216  3192  2280  3180   	fcall	_led_command
  6568                           
  6569                           ;lighting.c: 369: led_command(0xFF, 0, 0, 0xFF);
  6570  0219  0020               	movlb	0	; select bank0
  6571  021A  01AF               	clrf	led_command@red
  6572  021B  01B0               	clrf	led_command@green
  6573  021C  30FF               	movlw	255
  6574  021D  00B9               	movwf	??_display_blade_lights
  6575  021E  0839               	movf	??_display_blade_lights,w
  6576  021F  00B1               	movwf	led_command@blue
  6577  0220  30FF               	movlw	255
  6578  0221  3192  2280  3180   	fcall	_led_command
  6579                           
  6580                           ;lighting.c: 370: led_command(0xFF, 0xFF, 0x2F, 0);
  6581  0224  30FF               	movlw	255
  6582  0225  0020               	movlb	0	; select bank0
  6583  0226  00B9               	movwf	??_display_blade_lights
  6584  0227  0839               	movf	??_display_blade_lights,w
  6585  0228  00AF               	movwf	led_command@red
  6586  0229  302F               	movlw	47
  6587  022A  00BA               	movwf	??_display_blade_lights+1
  6588  022B  083A               	movf	??_display_blade_lights+1,w
  6589  022C  00B0               	movwf	led_command@green
  6590  022D  01B1               	clrf	led_command@blue
  6591  022E  30FF               	movlw	255
  6592  022F  3192  2280  3180   	fcall	_led_command
  6593                           
  6594                           ;lighting.c: 371: led_command(0xFF, 0, 0xFF, 0);
  6595  0232  0020               	movlb	0	; select bank0
  6596  0233  01AF               	clrf	led_command@red
  6597  0234  30FF               	movlw	255
  6598  0235  00B9               	movwf	??_display_blade_lights
  6599  0236  0839               	movf	??_display_blade_lights,w
  6600  0237  00B0               	movwf	led_command@green
  6601  0238  01B1               	clrf	led_command@blue
  6602  0239  30FF               	movlw	255
  6603  023A  3192  2280  3180   	fcall	_led_command
  6604                           
  6605                           ;lighting.c: 372: led_end();
  6606  023D  3192  22D6  3180   	fcall	_led_end
  6607                           
  6608                           ;lighting.c: 374: led_start();
  6609  0240  3187  27E8  3180   	fcall	_led_start
  6610                           
  6611                           ;lighting.c: 375: led_command(0, 0, 0, 0);
  6612  0243  0020               	movlb	0	; select bank0
  6613  0244  01AF               	clrf	led_command@red
  6614  0245  01B0               	clrf	led_command@green
  6615  0246  01B1               	clrf	led_command@blue
  6616  0247  3000               	movlw	0
  6617  0248  3192  2280  3180   	fcall	_led_command
  6618                           
  6619                           ;lighting.c: 376: led_command(0, 0, 0, 0);
  6620  024B  0020               	movlb	0	; select bank0
  6621  024C  01AF               	clrf	led_command@red
  6622  024D  01B0               	clrf	led_command@green
  6623  024E  01B1               	clrf	led_command@blue
  6624  024F  3000               	movlw	0
  6625  0250  3192  2280  3180   	fcall	_led_command
  6626                           
  6627                           ;lighting.c: 377: led_command(0, 0, 0, 0);
  6628  0253  0020               	movlb	0	; select bank0
  6629  0254  01AF               	clrf	led_command@red
  6630  0255  01B0               	clrf	led_command@green
  6631  0256  01B1               	clrf	led_command@blue
  6632  0257  3000               	movlw	0
  6633  0258  3192  2280  3180   	fcall	_led_command
  6634                           
  6635                           ;lighting.c: 378: led_command(0xFF, 0xFF, 0, 0);
  6636  025B  30FF               	movlw	255
  6637  025C  0020               	movlb	0	; select bank0
  6638  025D  00B9               	movwf	??_display_blade_lights
  6639  025E  0839               	movf	??_display_blade_lights,w
  6640  025F  00AF               	movwf	led_command@red
  6641  0260  01B0               	clrf	led_command@green
  6642  0261  01B1               	clrf	led_command@blue
  6643  0262  30FF               	movlw	255
  6644  0263  3192  2280  3180   	fcall	_led_command
  6645                           
  6646                           ;lighting.c: 379: led_command(0xFF, 0, 0, 0xFF);
  6647  0266  0020               	movlb	0	; select bank0
  6648  0267  01AF               	clrf	led_command@red
  6649  0268  01B0               	clrf	led_command@green
  6650  0269  30FF               	movlw	255
  6651  026A  00B9               	movwf	??_display_blade_lights
  6652  026B  0839               	movf	??_display_blade_lights,w
  6653  026C  00B1               	movwf	led_command@blue
  6654  026D  30FF               	movlw	255
  6655  026E  3192  2280  3180   	fcall	_led_command
  6656                           
  6657                           ;lighting.c: 380: led_command(0xFF, 0xFF, 0x2F, 0);
  6658  0271  30FF               	movlw	255
  6659  0272  0020               	movlb	0	; select bank0
  6660  0273  00B9               	movwf	??_display_blade_lights
  6661  0274  0839               	movf	??_display_blade_lights,w
  6662  0275  00AF               	movwf	led_command@red
  6663  0276  302F               	movlw	47
  6664  0277  00BA               	movwf	??_display_blade_lights+1
  6665  0278  083A               	movf	??_display_blade_lights+1,w
  6666  0279  00B0               	movwf	led_command@green
  6667  027A  01B1               	clrf	led_command@blue
  6668  027B  30FF               	movlw	255
  6669  027C  3192  2280  3180   	fcall	_led_command
  6670                           
  6671                           ;lighting.c: 381: led_command(0xFF, 0, 0xFF, 0);
  6672  027F  0020               	movlb	0	; select bank0
  6673  0280  01AF               	clrf	led_command@red
  6674  0281  30FF               	movlw	255
  6675  0282  00B9               	movwf	??_display_blade_lights
  6676  0283  0839               	movf	??_display_blade_lights,w
  6677  0284  00B0               	movwf	led_command@green
  6678  0285  01B1               	clrf	led_command@blue
  6679  0286  30FF               	movlw	255
  6680  0287  3192  2280  3180   	fcall	_led_command
  6681                           
  6682                           ;lighting.c: 382: led_end();
  6683  028A  3192  22D6  3180   	fcall	_led_end
  6684                           
  6685                           ;lighting.c: 384: led_start();
  6686  028D  3187  27E8  3180   	fcall	_led_start
  6687                           
  6688                           ;lighting.c: 385: led_command(0, 0, 0, 0);
  6689  0290  0020               	movlb	0	; select bank0
  6690  0291  01AF               	clrf	led_command@red
  6691  0292  01B0               	clrf	led_command@green
  6692  0293  01B1               	clrf	led_command@blue
  6693  0294  3000               	movlw	0
  6694  0295  3192  2280  3180   	fcall	_led_command
  6695                           
  6696                           ;lighting.c: 386: led_command(0, 0, 0, 0);
  6697  0298  0020               	movlb	0	; select bank0
  6698  0299  01AF               	clrf	led_command@red
  6699  029A  01B0               	clrf	led_command@green
  6700  029B  01B1               	clrf	led_command@blue
  6701  029C  3000               	movlw	0
  6702  029D  3192  2280  3180   	fcall	_led_command
  6703                           
  6704                           ;lighting.c: 387: led_command(0, 0, 0, 0);
  6705  02A0  0020               	movlb	0	; select bank0
  6706  02A1  01AF               	clrf	led_command@red
  6707  02A2  01B0               	clrf	led_command@green
  6708  02A3  01B1               	clrf	led_command@blue
  6709  02A4  3000               	movlw	0
  6710  02A5  3192  2280  3180   	fcall	_led_command
  6711                           
  6712                           ;lighting.c: 388: led_command(0, 0, 0, 0);
  6713  02A8  0020               	movlb	0	; select bank0
  6714  02A9  01AF               	clrf	led_command@red
  6715  02AA  01B0               	clrf	led_command@green
  6716  02AB  01B1               	clrf	led_command@blue
  6717  02AC  3000               	movlw	0
  6718  02AD  3192  2280  3180   	fcall	_led_command
  6719                           
  6720                           ;lighting.c: 389: led_command(0xFF, 0xFF, 0, 0);
  6721  02B0  30FF               	movlw	255
  6722  02B1  0020               	movlb	0	; select bank0
  6723  02B2  00B9               	movwf	??_display_blade_lights
  6724  02B3  0839               	movf	??_display_blade_lights,w
  6725  02B4  00AF               	movwf	led_command@red
  6726  02B5  01B0               	clrf	led_command@green
  6727  02B6  01B1               	clrf	led_command@blue
  6728  02B7  30FF               	movlw	255
  6729  02B8  3192  2280  3180   	fcall	_led_command
  6730                           
  6731                           ;lighting.c: 390: led_command(0xFF, 0, 0, 0xFF);
  6732  02BB  0020               	movlb	0	; select bank0
  6733  02BC  01AF               	clrf	led_command@red
  6734  02BD  01B0               	clrf	led_command@green
  6735  02BE  30FF               	movlw	255
  6736  02BF  00B9               	movwf	??_display_blade_lights
  6737  02C0  0839               	movf	??_display_blade_lights,w
  6738  02C1  00B1               	movwf	led_command@blue
  6739  02C2  30FF               	movlw	255
  6740  02C3  3192  2280  3180   	fcall	_led_command
  6741                           
  6742                           ;lighting.c: 391: led_command(0xFF, 0xFF, 0x2F, 0);
  6743  02C6  30FF               	movlw	255
  6744  02C7  0020               	movlb	0	; select bank0
  6745  02C8  00B9               	movwf	??_display_blade_lights
  6746  02C9  0839               	movf	??_display_blade_lights,w
  6747  02CA  00AF               	movwf	led_command@red
  6748  02CB  302F               	movlw	47
  6749  02CC  00BA               	movwf	??_display_blade_lights+1
  6750  02CD  083A               	movf	??_display_blade_lights+1,w
  6751  02CE  00B0               	movwf	led_command@green
  6752  02CF  01B1               	clrf	led_command@blue
  6753  02D0  30FF               	movlw	255
  6754  02D1  3192  2280  3180   	fcall	_led_command
  6755                           
  6756                           ;lighting.c: 392: led_end();
  6757  02D4  3192  22D6  3180   	fcall	_led_end
  6758                           
  6759                           ;lighting.c: 394: led_start();
  6760  02D7  3187  27E8  3180   	fcall	_led_start
  6761                           
  6762                           ;lighting.c: 395: led_command(0, 0, 0, 0);
  6763  02DA  0020               	movlb	0	; select bank0
  6764  02DB  01AF               	clrf	led_command@red
  6765  02DC  01B0               	clrf	led_command@green
  6766  02DD  01B1               	clrf	led_command@blue
  6767  02DE  3000               	movlw	0
  6768  02DF  3192  2280  3180   	fcall	_led_command
  6769                           
  6770                           ;lighting.c: 396: led_command(0, 0, 0, 0);
  6771  02E2  0020               	movlb	0	; select bank0
  6772  02E3  01AF               	clrf	led_command@red
  6773  02E4  01B0               	clrf	led_command@green
  6774  02E5  01B1               	clrf	led_command@blue
  6775  02E6  3000               	movlw	0
  6776  02E7  3192  2280  3180   	fcall	_led_command
  6777                           
  6778                           ;lighting.c: 397: led_command(0, 0, 0, 0);
  6779  02EA  0020               	movlb	0	; select bank0
  6780  02EB  01AF               	clrf	led_command@red
  6781  02EC  01B0               	clrf	led_command@green
  6782  02ED  01B1               	clrf	led_command@blue
  6783  02EE  3000               	movlw	0
  6784  02EF  3192  2280  3180   	fcall	_led_command
  6785                           
  6786                           ;lighting.c: 398: led_command(0, 0, 0, 0);
  6787  02F2  0020               	movlb	0	; select bank0
  6788  02F3  01AF               	clrf	led_command@red
  6789  02F4  01B0               	clrf	led_command@green
  6790  02F5  01B1               	clrf	led_command@blue
  6791  02F6  3000               	movlw	0
  6792  02F7  3192  2280  3180   	fcall	_led_command
  6793                           
  6794                           ;lighting.c: 399: led_command(0, 0, 0, 0);
  6795  02FA  0020               	movlb	0	; select bank0
  6796  02FB  01AF               	clrf	led_command@red
  6797  02FC  01B0               	clrf	led_command@green
  6798  02FD  01B1               	clrf	led_command@blue
  6799  02FE  3000               	movlw	0
  6800  02FF  3192  2280  3180   	fcall	_led_command
  6801                           
  6802                           ;lighting.c: 400: led_command(0xFF, 0xFF, 0, 0);
  6803  0302  30FF               	movlw	255
  6804  0303  0020               	movlb	0	; select bank0
  6805  0304  00B9               	movwf	??_display_blade_lights
  6806  0305  0839               	movf	??_display_blade_lights,w
  6807  0306  00AF               	movwf	led_command@red
  6808  0307  01B0               	clrf	led_command@green
  6809  0308  01B1               	clrf	led_command@blue
  6810  0309  30FF               	movlw	255
  6811  030A  3192  2280  3180   	fcall	_led_command
  6812                           
  6813                           ;lighting.c: 401: led_command(0xFF, 0, 0, 0xFF);
  6814  030D  0020               	movlb	0	; select bank0
  6815  030E  01AF               	clrf	led_command@red
  6816  030F  01B0               	clrf	led_command@green
  6817  0310  30FF               	movlw	255
  6818  0311  00B9               	movwf	??_display_blade_lights
  6819  0312  0839               	movf	??_display_blade_lights,w
  6820  0313  00B1               	movwf	led_command@blue
  6821  0314  30FF               	movlw	255
  6822  0315  3192  2280  3180   	fcall	_led_command
  6823                           
  6824                           ;lighting.c: 402: led_end();
  6825  0318  3192  22D6  3180   	fcall	_led_end
  6826                           
  6827                           ;lighting.c: 404: led_start();
  6828  031B  3187  27E8  3180   	fcall	_led_start
  6829                           
  6830                           ;lighting.c: 405: led_command(0, 0, 0, 0);
  6831  031E  0020               	movlb	0	; select bank0
  6832  031F  01AF               	clrf	led_command@red
  6833  0320  01B0               	clrf	led_command@green
  6834  0321  01B1               	clrf	led_command@blue
  6835  0322  3000               	movlw	0
  6836  0323  3192  2280  3180   	fcall	_led_command
  6837                           
  6838                           ;lighting.c: 406: led_command(0, 0, 0, 0);
  6839  0326  0020               	movlb	0	; select bank0
  6840  0327  01AF               	clrf	led_command@red
  6841  0328  01B0               	clrf	led_command@green
  6842  0329  01B1               	clrf	led_command@blue
  6843  032A  3000               	movlw	0
  6844  032B  3192  2280  3180   	fcall	_led_command
  6845                           
  6846                           ;lighting.c: 407: led_command(0, 0, 0, 0);
  6847  032E  0020               	movlb	0	; select bank0
  6848  032F  01AF               	clrf	led_command@red
  6849  0330  01B0               	clrf	led_command@green
  6850  0331  01B1               	clrf	led_command@blue
  6851  0332  3000               	movlw	0
  6852  0333  3192  2280  3180   	fcall	_led_command
  6853                           
  6854                           ;lighting.c: 408: led_command(0, 0, 0, 0);
  6855  0336  0020               	movlb	0	; select bank0
  6856  0337  01AF               	clrf	led_command@red
  6857  0338  01B0               	clrf	led_command@green
  6858  0339  01B1               	clrf	led_command@blue
  6859  033A  3000               	movlw	0
  6860  033B  3192  2280  3180   	fcall	_led_command
  6861                           
  6862                           ;lighting.c: 409: led_command(0, 0, 0, 0);
  6863  033E  0020               	movlb	0	; select bank0
  6864  033F  01AF               	clrf	led_command@red
  6865  0340  01B0               	clrf	led_command@green
  6866  0341  01B1               	clrf	led_command@blue
  6867  0342  3000               	movlw	0
  6868  0343  3192  2280  3180   	fcall	_led_command
  6869                           
  6870                           ;lighting.c: 410: led_command(0, 0, 0, 0);
  6871  0346  0020               	movlb	0	; select bank0
  6872  0347  01AF               	clrf	led_command@red
  6873  0348  01B0               	clrf	led_command@green
  6874  0349  01B1               	clrf	led_command@blue
  6875  034A  3000               	movlw	0
  6876  034B  3192  2280  3180   	fcall	_led_command
  6877                           
  6878                           ;lighting.c: 411: led_command(0xFF, 0xFF, 0, 0);
  6879  034E  30FF               	movlw	255
  6880  034F  0020               	movlb	0	; select bank0
  6881  0350  00B9               	movwf	??_display_blade_lights
  6882  0351  0839               	movf	??_display_blade_lights,w
  6883  0352  00AF               	movwf	led_command@red
  6884  0353  01B0               	clrf	led_command@green
  6885  0354  01B1               	clrf	led_command@blue
  6886  0355  30FF               	movlw	255
  6887  0356  3192  2280  3180   	fcall	_led_command
  6888                           
  6889                           ;lighting.c: 412: led_end();
  6890  0359  3192  22D6  3180   	fcall	_led_end
  6891                           
  6892                           ;lighting.c: 414: led_start();
  6893  035C  3187  27E8  3180   	fcall	_led_start
  6894                           
  6895                           ;lighting.c: 415: led_command(0, 0, 0, 0);
  6896  035F  0020               	movlb	0	; select bank0
  6897  0360  01AF               	clrf	led_command@red
  6898  0361  01B0               	clrf	led_command@green
  6899  0362  01B1               	clrf	led_command@blue
  6900  0363  3000               	movlw	0
  6901  0364  3192  2280  3180   	fcall	_led_command
  6902                           
  6903                           ;lighting.c: 416: led_command(0, 0, 0, 0);
  6904  0367  0020               	movlb	0	; select bank0
  6905  0368  01AF               	clrf	led_command@red
  6906  0369  01B0               	clrf	led_command@green
  6907  036A  01B1               	clrf	led_command@blue
  6908  036B  3000               	movlw	0
  6909  036C  3192  2280  3180   	fcall	_led_command
  6910                           
  6911                           ;lighting.c: 417: led_command(0, 0, 0, 0);
  6912  036F  0020               	movlb	0	; select bank0
  6913  0370  01AF               	clrf	led_command@red
  6914  0371  01B0               	clrf	led_command@green
  6915  0372  01B1               	clrf	led_command@blue
  6916  0373  3000               	movlw	0
  6917  0374  3192  2280  3180   	fcall	_led_command
  6918                           
  6919                           ;lighting.c: 418: led_command(0, 0, 0, 0);
  6920  0377  0020               	movlb	0	; select bank0
  6921  0378  01AF               	clrf	led_command@red
  6922  0379  01B0               	clrf	led_command@green
  6923  037A  01B1               	clrf	led_command@blue
  6924  037B  3000               	movlw	0
  6925  037C  3192  2280  3180   	fcall	_led_command
  6926                           
  6927                           ;lighting.c: 419: led_command(0, 0, 0, 0);
  6928  037F  0020               	movlb	0	; select bank0
  6929  0380  01AF               	clrf	led_command@red
  6930  0381  01B0               	clrf	led_command@green
  6931  0382  01B1               	clrf	led_command@blue
  6932  0383  3000               	movlw	0
  6933  0384  3192  2280  3180   	fcall	_led_command
  6934                           
  6935                           ;lighting.c: 420: led_command(0, 0, 0, 0);
  6936  0387  0020               	movlb	0	; select bank0
  6937  0388  01AF               	clrf	led_command@red
  6938  0389  01B0               	clrf	led_command@green
  6939  038A  01B1               	clrf	led_command@blue
  6940  038B  3000               	movlw	0
  6941  038C  3192  2280  3180   	fcall	_led_command
  6942                           
  6943                           ;lighting.c: 421: led_command(0, 0, 0, 0);
  6944  038F  0020               	movlb	0	; select bank0
  6945  0390  01AF               	clrf	led_command@red
  6946  0391  01B0               	clrf	led_command@green
  6947  0392  01B1               	clrf	led_command@blue
  6948  0393  3000               	movlw	0
  6949  0394  3192  2280  3180   	fcall	_led_command
  6950                           
  6951                           ;lighting.c: 422: led_end();
  6952  0397  3192  22D6  3180   	fcall	_led_end
  6953                           
  6954                           ;lighting.c: 502: }
  6955  039A  2C54               	goto	l3479
  6956  039B                     l3447:	
  6957                           
  6958                           ;lighting.c: 503: else if( mode == 3 )
  6959  039B  3003               	movlw	3
  6960  039C  0020               	movlb	0	; select bank0
  6961  039D  063E               	xorwf	display_blade_lights@mode,w
  6962  039E  1D03               	btfss	3,2
  6963  039F  2C54               	goto	l3479
  6964                           
  6965                           ;lighting.c: 504: {
  6966                           ;lighting.c: 506: led5_command(0xFF, 0xFF, 0, 0);
  6967  03A0  30FF               	movlw	255
  6968  03A1  00B9               	movwf	??_display_blade_lights
  6969  03A2  0839               	movf	??_display_blade_lights,w
  6970  03A3  00AF               	movwf	led5_command@red
  6971  03A4  01B0               	clrf	led5_command@green
  6972  03A5  01B1               	clrf	led5_command@blue
  6973  03A6  30FF               	movlw	255
  6974  03A7  3187  2744  3180   	fcall	_led5_command
  6975                           
  6976                           ;lighting.c: 507: _delay((unsigned long)((50)*(32000000/4000.0)));
  6977  03AA  3003               	movlw	3
  6978  03AB  0020               	movlb	0	; select bank0
  6979  03AC  00BB               	movwf	??_display_blade_lights+2
  6980  03AD  3008               	movlw	8
  6981  03AE  00BA               	movwf	??_display_blade_lights+1
  6982  03AF  3078               	movlw	120
  6983  03B0  00B9               	movwf	??_display_blade_lights
  6984  03B1                     u2727:	
  6985  03B1  0BB9               	decfsz	??_display_blade_lights,f
  6986  03B2  2BB1               	goto	u2727
  6987  03B3  0BBA               	decfsz	??_display_blade_lights+1,f
  6988  03B4  2BB1               	goto	u2727
  6989  03B5  0BBB               	decfsz	??_display_blade_lights+2,f
  6990  03B6  2BB1               	goto	u2727
  6991                           
  6992                           ;lighting.c: 509: led4_command(0xFF, 0xFF, 0, 0);
  6993  03B7  30FF               	movlw	255
  6994  03B8  0020               	movlb	0	; select bank0
  6995  03B9  00B9               	movwf	??_display_blade_lights
  6996  03BA  0839               	movf	??_display_blade_lights,w
  6997  03BB  00AF               	movwf	led4_command@red
  6998  03BC  01B0               	clrf	led4_command@green
  6999  03BD  01B1               	clrf	led4_command@blue
  7000  03BE  30FF               	movlw	255
  7001  03BF  318B  2362  3180   	fcall	_led4_command
  7002                           
  7003                           ;lighting.c: 510: _delay((unsigned long)((50)*(32000000/4000.0)));
  7004  03C2  3003               	movlw	3
  7005  03C3  0020               	movlb	0	; select bank0
  7006  03C4  00BB               	movwf	??_display_blade_lights+2
  7007  03C5  3008               	movlw	8
  7008  03C6  00BA               	movwf	??_display_blade_lights+1
  7009  03C7  3078               	movlw	120
  7010  03C8  00B9               	movwf	??_display_blade_lights
  7011  03C9                     u2737:	
  7012  03C9  0BB9               	decfsz	??_display_blade_lights,f
  7013  03CA  2BC9               	goto	u2737
  7014  03CB  0BBA               	decfsz	??_display_blade_lights+1,f
  7015  03CC  2BC9               	goto	u2737
  7016  03CD  0BBB               	decfsz	??_display_blade_lights+2,f
  7017  03CE  2BC9               	goto	u2737
  7018                           
  7019                           ;lighting.c: 512: led3_command(0xFF, 0xFF, 0, 0);
  7020  03CF  30FF               	movlw	255
  7021  03D0  0020               	movlb	0	; select bank0
  7022  03D1  00B9               	movwf	??_display_blade_lights
  7023  03D2  0839               	movf	??_display_blade_lights,w
  7024  03D3  00AF               	movwf	led3_command@red
  7025  03D4  01B0               	clrf	led3_command@green
  7026  03D5  01B1               	clrf	led3_command@blue
  7027  03D6  30FF               	movlw	255
  7028  03D7  318A  22BE  3180   	fcall	_led3_command
  7029                           
  7030                           ;lighting.c: 513: _delay((unsigned long)((50)*(32000000/4000.0)));
  7031  03DA  3003               	movlw	3
  7032  03DB  0020               	movlb	0	; select bank0
  7033  03DC  00BB               	movwf	??_display_blade_lights+2
  7034  03DD  3008               	movlw	8
  7035  03DE  00BA               	movwf	??_display_blade_lights+1
  7036  03DF  3078               	movlw	120
  7037  03E0  00B9               	movwf	??_display_blade_lights
  7038  03E1                     u2747:	
  7039  03E1  0BB9               	decfsz	??_display_blade_lights,f
  7040  03E2  2BE1               	goto	u2747
  7041  03E3  0BBA               	decfsz	??_display_blade_lights+1,f
  7042  03E4  2BE1               	goto	u2747
  7043  03E5  0BBB               	decfsz	??_display_blade_lights+2,f
  7044  03E6  2BE1               	goto	u2747
  7045                           
  7046                           ;lighting.c: 515: led2_command(0xFF, 0xFF, 0, 0);
  7047  03E7  30FF               	movlw	255
  7048  03E8  0020               	movlb	0	; select bank0
  7049  03E9  00B9               	movwf	??_display_blade_lights
  7050  03EA  0839               	movf	??_display_blade_lights,w
  7051  03EB  00AF               	movwf	led2_command@red
  7052  03EC  01B0               	clrf	led2_command@green
  7053  03ED  01B1               	clrf	led2_command@blue
  7054  03EE  30FF               	movlw	255
  7055  03EF  318A  221A  3180   	fcall	_led2_command
  7056                           
  7057                           ;lighting.c: 516: _delay((unsigned long)((50)*(32000000/4000.0)));
  7058  03F2  3003               	movlw	3
  7059  03F3  0020               	movlb	0	; select bank0
  7060  03F4  00BB               	movwf	??_display_blade_lights+2
  7061  03F5  3008               	movlw	8
  7062  03F6  00BA               	movwf	??_display_blade_lights+1
  7063  03F7  3078               	movlw	120
  7064  03F8  00B9               	movwf	??_display_blade_lights
  7065  03F9                     u2757:	
  7066  03F9  0BB9               	decfsz	??_display_blade_lights,f
  7067  03FA  2BF9               	goto	u2757
  7068  03FB  0BBA               	decfsz	??_display_blade_lights+1,f
  7069  03FC  2BF9               	goto	u2757
  7070  03FD  0BBB               	decfsz	??_display_blade_lights+2,f
  7071  03FE  2BF9               	goto	u2757
  7072                           
  7073                           ;lighting.c: 518: led1_command(0xFF, 0xFF, 0, 0);
  7074  03FF  30FF               	movlw	255
  7075  0400  0020               	movlb	0	; select bank0
  7076  0401  00B9               	movwf	??_display_blade_lights
  7077  0402  0839               	movf	??_display_blade_lights,w
  7078  0403  00AF               	movwf	led1_command@red
  7079  0404  01B0               	clrf	led1_command@green
  7080  0405  01B1               	clrf	led1_command@blue
  7081  0406  30FF               	movlw	255
  7082  0407  3189  2176  3180   	fcall	_led1_command
  7083                           
  7084                           ;lighting.c: 519: _delay((unsigned long)((50)*(32000000/4000.0)));
  7085  040A  3003               	movlw	3
  7086  040B  0020               	movlb	0	; select bank0
  7087  040C  00BB               	movwf	??_display_blade_lights+2
  7088  040D  3008               	movlw	8
  7089  040E  00BA               	movwf	??_display_blade_lights+1
  7090  040F  3078               	movlw	120
  7091  0410  00B9               	movwf	??_display_blade_lights
  7092  0411                     u2767:	
  7093  0411  0BB9               	decfsz	??_display_blade_lights,f
  7094  0412  2C11               	goto	u2767
  7095  0413  0BBA               	decfsz	??_display_blade_lights+1,f
  7096  0414  2C11               	goto	u2767
  7097  0415  0BBB               	decfsz	??_display_blade_lights+2,f
  7098  0416  2C11               	goto	u2767
  7099                           
  7100                           ;lighting.c: 521: for(unsigned char i = 0; i < 4; ++i)
  7101  0417  0020               	movlb	0	; select bank0
  7102  0418  01BD               	clrf	display_blade_lights@i_591
  7103  0419  3004               	movlw	4
  7104  041A  023D               	subwf	display_blade_lights@i_591,w
  7105  041B  1803               	btfsc	3,0
  7106  041C  2C54               	goto	l3479
  7107  041D                     l3469:	
  7108                           
  7109                           ;lighting.c: 522: {
  7110                           ;lighting.c: 524: led1_command(0xFF, 0xFF, 0, 0);
  7111  041D  30FF               	movlw	255
  7112  041E  00B9               	movwf	??_display_blade_lights
  7113  041F  0839               	movf	??_display_blade_lights,w
  7114  0420  00AF               	movwf	led1_command@red
  7115  0421  01B0               	clrf	led1_command@green
  7116  0422  01B1               	clrf	led1_command@blue
  7117  0423  30FF               	movlw	255
  7118  0424  3189  2176  3180   	fcall	_led1_command
  7119                           
  7120                           ;lighting.c: 525: _delay((unsigned long)((25)*(32000000/4000.0)));
  7121  0427  3002               	movlw	2
  7122  0428  0020               	movlb	0	; select bank0
  7123  0429  00BB               	movwf	??_display_blade_lights+2
  7124  042A  3004               	movlw	4
  7125  042B  00BA               	movwf	??_display_blade_lights+1
  7126  042C  30BA               	movlw	186
  7127  042D  00B9               	movwf	??_display_blade_lights
  7128  042E                     u2777:	
  7129  042E  0BB9               	decfsz	??_display_blade_lights,f
  7130  042F  2C2E               	goto	u2777
  7131  0430  0BBA               	decfsz	??_display_blade_lights+1,f
  7132  0431  2C2E               	goto	u2777
  7133  0432  0BBB               	decfsz	??_display_blade_lights+2,f
  7134  0433  2C2E               	goto	u2777
  7135  0434  0000               	nop
  7136                           
  7137                           ;lighting.c: 527: led1_command(0xFF, 0, 0, 0);
  7138  0435  0020               	movlb	0	; select bank0
  7139  0436  01AF               	clrf	led1_command@red
  7140  0437  01B0               	clrf	led1_command@green
  7141  0438  01B1               	clrf	led1_command@blue
  7142  0439  30FF               	movlw	255
  7143  043A  3189  2176  3180   	fcall	_led1_command
  7144                           
  7145                           ;lighting.c: 528: _delay((unsigned long)((25)*(32000000/4000.0)));
  7146  043D  3002               	movlw	2
  7147  043E  0020               	movlb	0	; select bank0
  7148  043F  00BB               	movwf	??_display_blade_lights+2
  7149  0440  3004               	movlw	4
  7150  0441  00BA               	movwf	??_display_blade_lights+1
  7151  0442  30BA               	movlw	186
  7152  0443  00B9               	movwf	??_display_blade_lights
  7153  0444                     u2787:	
  7154  0444  0BB9               	decfsz	??_display_blade_lights,f
  7155  0445  2C44               	goto	u2787
  7156  0446  0BBA               	decfsz	??_display_blade_lights+1,f
  7157  0447  2C44               	goto	u2787
  7158  0448  0BBB               	decfsz	??_display_blade_lights+2,f
  7159  0449  2C44               	goto	u2787
  7160  044A  0000               	nop
  7161  044B  3001               	movlw	1
  7162  044C  0020               	movlb	0	; select bank0
  7163  044D  00B9               	movwf	??_display_blade_lights
  7164  044E  0839               	movf	??_display_blade_lights,w
  7165  044F  07BD               	addwf	display_blade_lights@i_591,f
  7166  0450  3004               	movlw	4
  7167  0451  023D               	subwf	display_blade_lights@i_591,w
  7168  0452  1C03               	skipc
  7169  0453  2C1D               	goto	l3469
  7170  0454                     l3479:	
  7171                           
  7172                           ;lighting.c: 529: }
  7173                           ;lighting.c: 530: }
  7174                           ;lighting.c: 531: leds_off();
  7175  0454  3188  20D7         	fcall	_leds_off
  7176  0456  0008               	return
  7177  0457                     __end_of_display_blade_lights:	
  7178                           
  7179                           	psect	text11
  7180  08D7                     __ptext11:	
  7181 ;; *************** function _leds_off *****************
  7182 ;; Defined at:
  7183 ;;		line 899 in file "../../source/lighting.c"
  7184 ;; Parameters:    Size  Location     Type
  7185 ;;		None
  7186 ;; Auto vars:     Size  Location     Type
  7187 ;;  i               2   19[BANK0 ] int 
  7188 ;;  i               2   17[BANK0 ] int 
  7189 ;; Return value:  Size  Location     Type
  7190 ;;		None               void
  7191 ;; Registers used:
  7192 ;;		wreg, status,2, status,0, pclath, cstack
  7193 ;; Tracked objects:
  7194 ;;		On entry : 0/0
  7195 ;;		On exit  : 0/0
  7196 ;;		Unchanged: 0/0
  7197 ;; Data sizes:     COMMON   BANK0   BANK1   BANK2   BANK3   BANK4   BANK5   BANK6   BANK7   BANK8   BANK9  BANK10  BANK1
      +1  BANK12  BANK13  BANK14  BANK15  BANK16  BANK17  BANK18  BANK19  BANK20  BANK21  BANK22  BANK23  BANK24  BANK25
  7198 ;;      Params:         0       0       0       0       0       0       0       0       0       0       0       0       
      +0       0       0       0       0       0       0       0       0       0       0       0       0       0       0
  7199 ;;      Locals:         0       4       0       0       0       0       0       0       0       0       0       0       
      +0       0       0       0       0       0       0       0       0       0       0       0       0       0       0
  7200 ;;      Temps:          0       2       0       0       0       0       0       0       0       0       0       0       
      +0       0       0       0       0       0       0       0       0       0       0       0       0       0       0
  7201 ;;      Totals:         0       6       0       0       0       0       0       0       0       0       0       0       
      +0       0       0       0       0       0       0       0       0       0       0       0       0       0       0
  7202 ;;Total ram usage:        6 bytes
  7203 ;; Hardware stack levels used:    1
  7204 ;; Hardware stack levels required when called:    5
  7205 ;; This function calls:
  7206 ;;		_writespi
  7207 ;; This function is called by:
  7208 ;;		_init_leds
  7209 ;;		_display_blade_lights
  7210 ;; This function uses a non-reentrant model
  7211 ;;
  7212                           
  7213                           
  7214                           ;psect for function _leds_off
  7215  08D7                     _leds_off:	
  7216                           
  7217                           ;lighting.c: 902: for(int i = 0;i < 4; i++)
  7218                           
  7219                           ;incstack = 0
  7220                           ; Regs used in _leds_off: [wreg+status,2+status,0+pclath+cstack]
  7221  08D7  0020               	movlb	0	; select bank0
  7222  08D8  01B1               	clrf	leds_off@i
  7223  08D9  01B2               	clrf	leds_off@i+1
  7224  08DA  0832               	movf	leds_off@i+1,w
  7225  08DB  3A80               	xorlw	128
  7226  08DC  00AF               	movwf	??_leds_off
  7227  08DD  3080               	movlw	128
  7228  08DE  022F               	subwf	??_leds_off,w
  7229  08DF  1D03               	skipz
  7230  08E0  28E3               	goto	u1245
  7231  08E1  3004               	movlw	4
  7232  08E2  0231               	subwf	leds_off@i,w
  7233  08E3                     u1245:	
  7234  08E3  1803               	btfsc	3,0
  7235  08E4  28F9               	goto	l2551
  7236  08E5                     l2545:	
  7237                           
  7238                           ;lighting.c: 903: {
  7239                           ;lighting.c: 904: writespi(0x00);
  7240  08E5  3000               	movlw	0
  7241  08E6  3192  226D  3188   	fcall	_writespi
  7242  08E9  3001               	movlw	1
  7243  08EA  0020               	movlb	0	; select bank0
  7244  08EB  07B1               	addwf	leds_off@i,f
  7245  08EC  3000               	movlw	0
  7246  08ED  3DB2               	addwfc	leds_off@i+1,f
  7247  08EE  0832               	movf	leds_off@i+1,w
  7248  08EF  3A80               	xorlw	128
  7249  08F0  00AF               	movwf	??_leds_off
  7250  08F1  3080               	movlw	128
  7251  08F2  022F               	subwf	??_leds_off,w
  7252  08F3  1D03               	skipz
  7253  08F4  28F7               	goto	u1255
  7254  08F5  3004               	movlw	4
  7255  08F6  0231               	subwf	leds_off@i,w
  7256  08F7                     u1255:	
  7257  08F7  1C03               	skipc
  7258  08F8  28E5               	goto	l2545
  7259  08F9                     l2551:	
  7260                           
  7261                           ;lighting.c: 905: }
  7262                           ;lighting.c: 907: writespi(0xFF);
  7263  08F9  30FF               	movlw	255
  7264  08FA  3192  226D  3188   	fcall	_writespi
  7265                           
  7266                           ;lighting.c: 908: writespi(0);
  7267  08FD  3000               	movlw	0
  7268  08FE  3192  226D  3188   	fcall	_writespi
  7269                           
  7270                           ;lighting.c: 909: writespi(0);
  7271  0901  3000               	movlw	0
  7272  0902  3192  226D  3188   	fcall	_writespi
  7273                           
  7274                           ;lighting.c: 910: writespi(0);
  7275  0905  3000               	movlw	0
  7276  0906  3192  226D  3188   	fcall	_writespi
  7277                           
  7278                           ;lighting.c: 912: writespi(0xFF);
  7279  0909  30FF               	movlw	255
  7280  090A  3192  226D  3188   	fcall	_writespi
  7281                           
  7282                           ;lighting.c: 913: writespi(0);
  7283  090D  3000               	movlw	0
  7284  090E  3192  226D  3188   	fcall	_writespi
  7285                           
  7286                           ;lighting.c: 914: writespi(0);
  7287  0911  3000               	movlw	0
  7288  0912  3192  226D  3188   	fcall	_writespi
  7289                           
  7290                           ;lighting.c: 915: writespi(0);
  7291  0915  3000               	movlw	0
  7292  0916  3192  226D  3188   	fcall	_writespi
  7293                           
  7294                           ;lighting.c: 917: writespi(0xFF);
  7295  0919  30FF               	movlw	255
  7296  091A  3192  226D  3188   	fcall	_writespi
  7297                           
  7298                           ;lighting.c: 918: writespi(0);
  7299  091D  3000               	movlw	0
  7300  091E  3192  226D  3188   	fcall	_writespi
  7301                           
  7302                           ;lighting.c: 919: writespi(0);
  7303  0921  3000               	movlw	0
  7304  0922  3192  226D  3188   	fcall	_writespi
  7305                           
  7306                           ;lighting.c: 920: writespi(0);
  7307  0925  3000               	movlw	0
  7308  0926  3192  226D  3188   	fcall	_writespi
  7309                           
  7310                           ;lighting.c: 922: writespi(0xFF);
  7311  0929  30FF               	movlw	255
  7312  092A  3192  226D  3188   	fcall	_writespi
  7313                           
  7314                           ;lighting.c: 923: writespi(0);
  7315  092D  3000               	movlw	0
  7316  092E  3192  226D  3188   	fcall	_writespi
  7317                           
  7318                           ;lighting.c: 924: writespi(0);
  7319  0931  3000               	movlw	0
  7320  0932  3192  226D  3188   	fcall	_writespi
  7321                           
  7322                           ;lighting.c: 925: writespi(0);
  7323  0935  3000               	movlw	0
  7324  0936  3192  226D  3188   	fcall	_writespi
  7325                           
  7326                           ;lighting.c: 927: writespi(0xFF);
  7327  0939  30FF               	movlw	255
  7328  093A  3192  226D  3188   	fcall	_writespi
  7329                           
  7330                           ;lighting.c: 928: writespi(0);
  7331  093D  3000               	movlw	0
  7332  093E  3192  226D  3188   	fcall	_writespi
  7333                           
  7334                           ;lighting.c: 929: writespi(0);
  7335  0941  3000               	movlw	0
  7336  0942  3192  226D  3188   	fcall	_writespi
  7337                           
  7338                           ;lighting.c: 930: writespi(0);
  7339  0945  3000               	movlw	0
  7340  0946  3192  226D  3188   	fcall	_writespi
  7341                           
  7342                           ;lighting.c: 932: for(int i = 0;i < 4; i++)
  7343  0949  0020               	movlb	0	; select bank0
  7344  094A  01B3               	clrf	leds_off@i_669
  7345  094B  01B4               	clrf	leds_off@i_669+1
  7346  094C  0834               	movf	leds_off@i_669+1,w
  7347  094D  3A80               	xorlw	128
  7348  094E  00AF               	movwf	??_leds_off
  7349  094F  3080               	movlw	128
  7350  0950  022F               	subwf	??_leds_off,w
  7351  0951  1D03               	skipz
  7352  0952  2955               	goto	u1265
  7353  0953  3004               	movlw	4
  7354  0954  0233               	subwf	leds_off@i_669,w
  7355  0955                     u1265:	
  7356  0955  1803               	btfsc	3,0
  7357  0956  296B               	goto	l2565
  7358  0957                     l2559:	
  7359                           
  7360                           ;lighting.c: 933: {
  7361                           ;lighting.c: 934: writespi(0xFF);
  7362  0957  30FF               	movlw	255
  7363  0958  3192  226D  3188   	fcall	_writespi
  7364  095B  3001               	movlw	1
  7365  095C  0020               	movlb	0	; select bank0
  7366  095D  07B3               	addwf	leds_off@i_669,f
  7367  095E  3000               	movlw	0
  7368  095F  3DB4               	addwfc	leds_off@i_669+1,f
  7369  0960  0834               	movf	leds_off@i_669+1,w
  7370  0961  3A80               	xorlw	128
  7371  0962  00AF               	movwf	??_leds_off
  7372  0963  3080               	movlw	128
  7373  0964  022F               	subwf	??_leds_off,w
  7374  0965  1D03               	skipz
  7375  0966  2969               	goto	u1275
  7376  0967  3004               	movlw	4
  7377  0968  0233               	subwf	leds_off@i_669,w
  7378  0969                     u1275:	
  7379  0969  1C03               	skipc
  7380  096A  2957               	goto	l2559
  7381  096B                     l2565:	
  7382                           
  7383                           ;lighting.c: 935: }
  7384                           ;lighting.c: 936: _delay((unsigned long)((20)*(32000000/4000.0)));
  7385  096B  30D0               	movlw	208
  7386  096C  0020               	movlb	0	; select bank0
  7387  096D  00B0               	movwf	??_leds_off+1
  7388  096E  30C9               	movlw	201
  7389  096F  00AF               	movwf	??_leds_off
  7390  0970                     u2797:	
  7391  0970  0BAF               	decfsz	??_leds_off,f
  7392  0971  2970               	goto	u2797
  7393  0972  0BB0               	decfsz	??_leds_off+1,f
  7394  0973  2970               	goto	u2797
  7395  0974  3200               	nop2
  7396  0975  0008               	return
  7397  0976                     __end_of_leds_off:	
  7398                           
  7399                           	psect	text12
  7400  07E8                     __ptext12:	
  7401 ;; *************** function _led_start *****************
  7402 ;; Defined at:
  7403 ;;		line 549 in file "../../source/lighting.c"
  7404 ;; Parameters:    Size  Location     Type
  7405 ;;		None
  7406 ;; Auto vars:     Size  Location     Type
  7407 ;;  i               2   16[BANK0 ] int 
  7408 ;; Return value:  Size  Location     Type
  7409 ;;		None               void
  7410 ;; Registers used:
  7411 ;;		wreg, status,2, status,0, pclath, cstack
  7412 ;; Tracked objects:
  7413 ;;		On entry : 0/0
  7414 ;;		On exit  : 0/0
  7415 ;;		Unchanged: 0/0
  7416 ;; Data sizes:     COMMON   BANK0   BANK1   BANK2   BANK3   BANK4   BANK5   BANK6   BANK7   BANK8   BANK9  BANK10  BANK1
      +1  BANK12  BANK13  BANK14  BANK15  BANK16  BANK17  BANK18  BANK19  BANK20  BANK21  BANK22  BANK23  BANK24  BANK25
  7417 ;;      Params:         0       0       0       0       0       0       0       0       0       0       0       0       
      +0       0       0       0       0       0       0       0       0       0       0       0       0       0       0
  7418 ;;      Locals:         0       2       0       0       0       0       0       0       0       0       0       0       
      +0       0       0       0       0       0       0       0       0       0       0       0       0       0       0
  7419 ;;      Temps:          0       1       0       0       0       0       0       0       0       0       0       0       
      +0       0       0       0       0       0       0       0       0       0       0       0       0       0       0
  7420 ;;      Totals:         0       3       0       0       0       0       0       0       0       0       0       0       
      +0       0       0       0       0       0       0       0       0       0       0       0       0       0       0
  7421 ;;Total ram usage:        3 bytes
  7422 ;; Hardware stack levels used:    1
  7423 ;; Hardware stack levels required when called:    5
  7424 ;; This function calls:
  7425 ;;		_writespi
  7426 ;; This function is called by:
  7427 ;;		_display_blade_lights
  7428 ;; This function uses a non-reentrant model
  7429 ;;
  7430                           
  7431                           
  7432                           ;psect for function _led_start
  7433  07E8                     _led_start:	
  7434                           
  7435                           ;lighting.c: 552: for(int i = 0;i < 4; i++)
  7436                           
  7437                           ;incstack = 0
  7438                           ; Regs used in _led_start: [wreg+status,2+status,0+pclath+cstack]
  7439  07E8  0020               	movlb	0	; select bank0
  7440  07E9  01B0               	clrf	led_start@i
  7441  07EA  01B1               	clrf	led_start@i+1
  7442  07EB                     L3:	
  7443  07EB  0831               	movf	led_start@i+1,w
  7444  07EC  3A80               	xorlw	128
  7445  07ED  00AF               	movwf	??_led_start
  7446  07EE  3080               	movlw	128
  7447  07EF  022F               	subwf	??_led_start,w
  7448  07F0  1D03               	skipz
  7449  07F1  2FF4               	goto	u1485
  7450  07F2  3004               	movlw	4
  7451  07F3  0230               	subwf	led_start@i,w
  7452  07F4                     u1485:	
  7453  07F4  1803               	btfsc	3,0
  7454  07F5  0008               	return
  7455                           
  7456                           ;lighting.c: 553: {
  7457                           ;lighting.c: 554: writespi(0x00);
  7458  07F6  3000               	movlw	0
  7459  07F7  3192  226D  3187   	fcall	_writespi
  7460  07FA  3001               	movlw	1
  7461  07FB  0020               	movlb	0	; select bank0
  7462  07FC  07B0               	addwf	led_start@i,f
  7463  07FD  3000               	movlw	0
  7464  07FE  3DB1               	addwfc	led_start@i+1,f
  7465  07FF  2FEB               	goto	L3
  7466  0800                     __end_of_led_start:	
  7467                           
  7468                           	psect	text13
  7469  12D6                     __ptext13:	
  7470 ;; *************** function _led_end *****************
  7471 ;; Defined at:
  7472 ;;		line 558 in file "../../source/lighting.c"
  7473 ;; Parameters:    Size  Location     Type
  7474 ;;		None
  7475 ;; Auto vars:     Size  Location     Type
  7476 ;;  i               2   16[BANK0 ] int 
  7477 ;; Return value:  Size  Location     Type
  7478 ;;		None               void
  7479 ;; Registers used:
  7480 ;;		wreg, status,2, status,0, pclath, cstack
  7481 ;; Tracked objects:
  7482 ;;		On entry : 0/0
  7483 ;;		On exit  : 0/0
  7484 ;;		Unchanged: 0/0
  7485 ;; Data sizes:     COMMON   BANK0   BANK1   BANK2   BANK3   BANK4   BANK5   BANK6   BANK7   BANK8   BANK9  BANK10  BANK1
      +1  BANK12  BANK13  BANK14  BANK15  BANK16  BANK17  BANK18  BANK19  BANK20  BANK21  BANK22  BANK23  BANK24  BANK25
  7486 ;;      Params:         0       0       0       0       0       0       0       0       0       0       0       0       
      +0       0       0       0       0       0       0       0       0       0       0       0       0       0       0
  7487 ;;      Locals:         0       2       0       0       0       0       0       0       0       0       0       0       
      +0       0       0       0       0       0       0       0       0       0       0       0       0       0       0
  7488 ;;      Temps:          0       1       0       0       0       0       0       0       0       0       0       0       
      +0       0       0       0       0       0       0       0       0       0       0       0       0       0       0
  7489 ;;      Totals:         0       3       0       0       0       0       0       0       0       0       0       0       
      +0       0       0       0       0       0       0       0       0       0       0       0       0       0       0
  7490 ;;Total ram usage:        3 bytes
  7491 ;; Hardware stack levels used:    1
  7492 ;; Hardware stack levels required when called:    5
  7493 ;; This function calls:
  7494 ;;		_writespi
  7495 ;; This function is called by:
  7496 ;;		_display_blade_lights
  7497 ;; This function uses a non-reentrant model
  7498 ;;
  7499                           
  7500                           
  7501                           ;psect for function _led_end
  7502  12D6                     _led_end:	
  7503                           
  7504                           ;lighting.c: 561: for(int i = 0;i < 4; i++)
  7505                           
  7506                           ;incstack = 0
  7507                           ; Regs used in _led_end: [wreg+status,2+status,0+pclath+cstack]
  7508  12D6  0020               	movlb	0	; select bank0
  7509  12D7  01B0               	clrf	led_end@i
  7510  12D8  01B1               	clrf	led_end@i+1
  7511  12D9                     L4:	
  7512  12D9  0831               	movf	led_end@i+1,w
  7513  12DA  3A80               	xorlw	128
  7514  12DB  00AF               	movwf	??_led_end
  7515  12DC  3080               	movlw	128
  7516  12DD  022F               	subwf	??_led_end,w
  7517  12DE  1D03               	skipz
  7518  12DF  2AE2               	goto	u1505
  7519  12E0  3004               	movlw	4
  7520  12E1  0230               	subwf	led_end@i,w
  7521  12E2                     u1505:	
  7522  12E2  1803               	btfsc	3,0
  7523  12E3  0008               	return
  7524                           
  7525                           ;lighting.c: 562: {
  7526                           ;lighting.c: 563: writespi(0xFF);
  7527  12E4  30FF               	movlw	255
  7528  12E5  3192  226D  3192   	fcall	_writespi
  7529  12E8  3001               	movlw	1
  7530  12E9  0020               	movlb	0	; select bank0
  7531  12EA  07B0               	addwf	led_end@i,f
  7532  12EB  3000               	movlw	0
  7533  12EC  3DB1               	addwfc	led_end@i+1,f
  7534  12ED  2AD9               	goto	L4
  7535  12EE                     __end_of_led_end:	
  7536                           
  7537                           	psect	text14
  7538  1280                     __ptext14:	
  7539 ;; *************** function _led_command *****************
  7540 ;; Defined at:
  7541 ;;		line 567 in file "../../source/lighting.c"
  7542 ;; Parameters:    Size  Location     Type
  7543 ;;  brightness      1    wreg     unsigned char 
  7544 ;;  red             1   15[BANK0 ] unsigned char 
  7545 ;;  green           1   16[BANK0 ] unsigned char 
  7546 ;;  blue            1   17[BANK0 ] unsigned char 
  7547 ;; Auto vars:     Size  Location     Type
  7548 ;;  brightness      1   18[BANK0 ] unsigned char 
  7549 ;; Return value:  Size  Location     Type
  7550 ;;		None               void
  7551 ;; Registers used:
  7552 ;;		wreg, status,2, status,0, pclath, cstack
  7553 ;; Tracked objects:
  7554 ;;		On entry : 0/0
  7555 ;;		On exit  : 0/0
  7556 ;;		Unchanged: 0/0
  7557 ;; Data sizes:     COMMON   BANK0   BANK1   BANK2   BANK3   BANK4   BANK5   BANK6   BANK7   BANK8   BANK9  BANK10  BANK1
      +1  BANK12  BANK13  BANK14  BANK15  BANK16  BANK17  BANK18  BANK19  BANK20  BANK21  BANK22  BANK23  BANK24  BANK25
  7558 ;;      Params:         0       3       0       0       0       0       0       0       0       0       0       0       
      +0       0       0       0       0       0       0       0       0       0       0       0       0       0       0
  7559 ;;      Locals:         0       1       0       0       0       0       0       0       0       0       0       0       
      +0       0       0       0       0       0       0       0       0       0       0       0       0       0       0
  7560 ;;      Temps:          0       0       0       0       0       0       0       0       0       0       0       0       
      +0       0       0       0       0       0       0       0       0       0       0       0       0       0       0
  7561 ;;      Totals:         0       4       0       0       0       0       0       0       0       0       0       0       
      +0       0       0       0       0       0       0       0       0       0       0       0       0       0       0
  7562 ;;Total ram usage:        4 bytes
  7563 ;; Hardware stack levels used:    1
  7564 ;; Hardware stack levels required when called:    5
  7565 ;; This function calls:
  7566 ;;		_writespi
  7567 ;; This function is called by:
  7568 ;;		_display_blade_lights
  7569 ;; This function uses a non-reentrant model
  7570 ;;
  7571                           
  7572                           
  7573                           ;psect for function _led_command
  7574  1280                     _led_command:	
  7575                           
  7576                           ;incstack = 0
  7577                           ; Regs used in _led_command: [wreg+status,2+status,0+pclath+cstack]
  7578                           ;led_command@brightness stored from wreg
  7579  1280  0020               	movlb	0	; select bank0
  7580  1281  00B2               	movwf	led_command@brightness
  7581                           
  7582                           ;lighting.c: 572: writespi(brightness);
  7583  1282  0832               	movf	led_command@brightness,w
  7584  1283  3192  226D  3192   	fcall	_writespi
  7585                           
  7586                           ;lighting.c: 573: writespi(blue);
  7587  1286  0020               	movlb	0	; select bank0
  7588  1287  0831               	movf	led_command@blue,w
  7589  1288  3192  226D  3192   	fcall	_writespi
  7590                           
  7591                           ;lighting.c: 574: writespi(green);
  7592  128B  0020               	movlb	0	; select bank0
  7593  128C  0830               	movf	led_command@green,w
  7594  128D  3192  226D  3192   	fcall	_writespi
  7595                           
  7596                           ;lighting.c: 575: writespi(red);
  7597  1290  0020               	movlb	0	; select bank0
  7598  1291  082F               	movf	led_command@red,w
  7599  1292  3192  226D         	fcall	_writespi
  7600  1294  0008               	return
  7601  1295                     __end_of_led_command:	
  7602                           
  7603                           	psect	text15
  7604  0744                     __ptext15:	
  7605 ;; *************** function _led5_command *****************
  7606 ;; Defined at:
  7607 ;;		line 750 in file "../../source/lighting.c"
  7608 ;; Parameters:    Size  Location     Type
  7609 ;;  brightness      1    wreg     unsigned char 
  7610 ;;  red             1   15[BANK0 ] unsigned char 
  7611 ;;  green           1   16[BANK0 ] unsigned char 
  7612 ;;  blue            1   17[BANK0 ] unsigned char 
  7613 ;; Auto vars:     Size  Location     Type
  7614 ;;  brightness      1   20[BANK0 ] unsigned char 
  7615 ;;  i               2   23[BANK0 ] int 
  7616 ;;  i               2   21[BANK0 ] int 
  7617 ;; Return value:  Size  Location     Type
  7618 ;;		None               void
  7619 ;; Registers used:
  7620 ;;		wreg, status,2, status,0, pclath, cstack
  7621 ;; Tracked objects:
  7622 ;;		On entry : 0/0
  7623 ;;		On exit  : 0/0
  7624 ;;		Unchanged: 0/0
  7625 ;; Data sizes:     COMMON   BANK0   BANK1   BANK2   BANK3   BANK4   BANK5   BANK6   BANK7   BANK8   BANK9  BANK10  BANK1
      +1  BANK12  BANK13  BANK14  BANK15  BANK16  BANK17  BANK18  BANK19  BANK20  BANK21  BANK22  BANK23  BANK24  BANK25
  7626 ;;      Params:         0       3       0       0       0       0       0       0       0       0       0       0       
      +0       0       0       0       0       0       0       0       0       0       0       0       0       0       0
  7627 ;;      Locals:         0       5       0       0       0       0       0       0       0       0       0       0       
      +0       0       0       0       0       0       0       0       0       0       0       0       0       0       0
  7628 ;;      Temps:          0       2       0       0       0       0       0       0       0       0       0       0       
      +0       0       0       0       0       0       0       0       0       0       0       0       0       0       0
  7629 ;;      Totals:         0      10       0       0       0       0       0       0       0       0       0       0       
      +0       0       0       0       0       0       0       0       0       0       0       0       0       0       0
  7630 ;;Total ram usage:       10 bytes
  7631 ;; Hardware stack levels used:    1
  7632 ;; Hardware stack levels required when called:    5
  7633 ;; This function calls:
  7634 ;;		_writespi
  7635 ;; This function is called by:
  7636 ;;		_display_blade_lights
  7637 ;; This function uses a non-reentrant model
  7638 ;;
  7639                           
  7640                           
  7641                           ;psect for function _led5_command
  7642  0744                     _led5_command:	
  7643                           
  7644                           ;incstack = 0
  7645                           ; Regs used in _led5_command: [wreg+status,2+status,0+pclath+cstack]
  7646                           ;led5_command@brightness stored from wreg
  7647  0744  0020               	movlb	0	; select bank0
  7648  0745  00B4               	movwf	led5_command@brightness
  7649                           
  7650                           ;lighting.c: 756: for(int i = 0;i < 4; i++)
  7651  0746  01B5               	clrf	led5_command@i
  7652  0747  01B6               	clrf	led5_command@i+1
  7653  0748  0836               	movf	led5_command@i+1,w
  7654  0749  3A80               	xorlw	128
  7655  074A  00B2               	movwf	??_led5_command
  7656  074B  3080               	movlw	128
  7657  074C  0232               	subwf	??_led5_command,w
  7658  074D  1D03               	skipz
  7659  074E  2F51               	goto	u1445
  7660  074F  3004               	movlw	4
  7661  0750  0235               	subwf	led5_command@i,w
  7662  0751                     u1445:	
  7663  0751  1803               	btfsc	3,0
  7664  0752  2F67               	goto	l2691
  7665  0753                     l2685:	
  7666                           
  7667                           ;lighting.c: 757: {
  7668                           ;lighting.c: 758: writespi(0x00);
  7669  0753  3000               	movlw	0
  7670  0754  3192  226D  3187   	fcall	_writespi
  7671  0757  3001               	movlw	1
  7672  0758  0020               	movlb	0	; select bank0
  7673  0759  07B5               	addwf	led5_command@i,f
  7674  075A  3000               	movlw	0
  7675  075B  3DB6               	addwfc	led5_command@i+1,f
  7676  075C  0836               	movf	led5_command@i+1,w
  7677  075D  3A80               	xorlw	128
  7678  075E  00B2               	movwf	??_led5_command
  7679  075F  3080               	movlw	128
  7680  0760  0232               	subwf	??_led5_command,w
  7681  0761  1D03               	skipz
  7682  0762  2F65               	goto	u1455
  7683  0763  3004               	movlw	4
  7684  0764  0235               	subwf	led5_command@i,w
  7685  0765                     u1455:	
  7686  0765  1C03               	skipc
  7687  0766  2F53               	goto	l2685
  7688  0767                     l2691:	
  7689                           
  7690                           ;lighting.c: 759: }
  7691                           ;lighting.c: 761: writespi(0xFF);
  7692  0767  30FF               	movlw	255
  7693  0768  3192  226D  3187   	fcall	_writespi
  7694                           
  7695                           ;lighting.c: 762: writespi(0);
  7696  076B  3000               	movlw	0
  7697  076C  3192  226D  3187   	fcall	_writespi
  7698                           
  7699                           ;lighting.c: 763: writespi(0);
  7700  076F  3000               	movlw	0
  7701  0770  3192  226D  3187   	fcall	_writespi
  7702                           
  7703                           ;lighting.c: 764: writespi(0);
  7704  0773  3000               	movlw	0
  7705  0774  3192  226D  3187   	fcall	_writespi
  7706                           
  7707                           ;lighting.c: 766: writespi(0xFF);
  7708  0777  30FF               	movlw	255
  7709  0778  3192  226D  3187   	fcall	_writespi
  7710                           
  7711                           ;lighting.c: 767: writespi(0);
  7712  077B  3000               	movlw	0
  7713  077C  3192  226D  3187   	fcall	_writespi
  7714                           
  7715                           ;lighting.c: 768: writespi(0);
  7716  077F  3000               	movlw	0
  7717  0780  3192  226D  3187   	fcall	_writespi
  7718                           
  7719                           ;lighting.c: 769: writespi(0);
  7720  0783  3000               	movlw	0
  7721  0784  3192  226D  3187   	fcall	_writespi
  7722                           
  7723                           ;lighting.c: 771: writespi(0xFF);
  7724  0787  30FF               	movlw	255
  7725  0788  3192  226D  3187   	fcall	_writespi
  7726                           
  7727                           ;lighting.c: 772: writespi(0);
  7728  078B  3000               	movlw	0
  7729  078C  3192  226D  3187   	fcall	_writespi
  7730                           
  7731                           ;lighting.c: 773: writespi(0);
  7732  078F  3000               	movlw	0
  7733  0790  3192  226D  3187   	fcall	_writespi
  7734                           
  7735                           ;lighting.c: 774: writespi(0);
  7736  0793  3000               	movlw	0
  7737  0794  3192  226D  3187   	fcall	_writespi
  7738                           
  7739                           ;lighting.c: 776: writespi(0xFF);
  7740  0797  30FF               	movlw	255
  7741  0798  3192  226D  3187   	fcall	_writespi
  7742                           
  7743                           ;lighting.c: 777: writespi(0);
  7744  079B  3000               	movlw	0
  7745  079C  3192  226D  3187   	fcall	_writespi
  7746                           
  7747                           ;lighting.c: 778: writespi(0);
  7748  079F  3000               	movlw	0
  7749  07A0  3192  226D  3187   	fcall	_writespi
  7750                           
  7751                           ;lighting.c: 779: writespi(0);
  7752  07A3  3000               	movlw	0
  7753  07A4  3192  226D  3187   	fcall	_writespi
  7754                           
  7755                           ;lighting.c: 781: writespi(brightness);
  7756  07A7  0020               	movlb	0	; select bank0
  7757  07A8  0834               	movf	led5_command@brightness,w
  7758  07A9  3192  226D  3187   	fcall	_writespi
  7759                           
  7760                           ;lighting.c: 782: writespi(blue);
  7761  07AC  0020               	movlb	0	; select bank0
  7762  07AD  0831               	movf	led5_command@blue,w
  7763  07AE  3192  226D  3187   	fcall	_writespi
  7764                           
  7765                           ;lighting.c: 783: writespi(green);
  7766  07B1  0020               	movlb	0	; select bank0
  7767  07B2  0830               	movf	led5_command@green,w
  7768  07B3  3192  226D  3187   	fcall	_writespi
  7769                           
  7770                           ;lighting.c: 784: writespi(red);
  7771  07B6  0020               	movlb	0	; select bank0
  7772  07B7  082F               	movf	led5_command@red,w
  7773  07B8  3192  226D  3187   	fcall	_writespi
  7774                           
  7775                           ;lighting.c: 786: for(int i = 0;i < 4; i++)
  7776  07BB  0020               	movlb	0	; select bank0
  7777  07BC  01B7               	clrf	led5_command@i_652
  7778  07BD  01B8               	clrf	led5_command@i_652+1
  7779  07BE  0838               	movf	led5_command@i_652+1,w
  7780  07BF  3A80               	xorlw	128
  7781  07C0  00B2               	movwf	??_led5_command
  7782  07C1  3080               	movlw	128
  7783  07C2  0232               	subwf	??_led5_command,w
  7784  07C3  1D03               	skipz
  7785  07C4  2FC7               	goto	u1465
  7786  07C5  3004               	movlw	4
  7787  07C6  0237               	subwf	led5_command@i_652,w
  7788  07C7                     u1465:	
  7789  07C7  1803               	btfsc	3,0
  7790  07C8  2FDD               	goto	l2705
  7791  07C9                     l2699:	
  7792                           
  7793                           ;lighting.c: 787: {
  7794                           ;lighting.c: 788: writespi(0xFF);
  7795  07C9  30FF               	movlw	255
  7796  07CA  3192  226D  3187   	fcall	_writespi
  7797  07CD  3001               	movlw	1
  7798  07CE  0020               	movlb	0	; select bank0
  7799  07CF  07B7               	addwf	led5_command@i_652,f
  7800  07D0  3000               	movlw	0
  7801  07D1  3DB8               	addwfc	led5_command@i_652+1,f
  7802  07D2  0838               	movf	led5_command@i_652+1,w
  7803  07D3  3A80               	xorlw	128
  7804  07D4  00B2               	movwf	??_led5_command
  7805  07D5  3080               	movlw	128
  7806  07D6  0232               	subwf	??_led5_command,w
  7807  07D7  1D03               	skipz
  7808  07D8  2FDB               	goto	u1475
  7809  07D9  3004               	movlw	4
  7810  07DA  0237               	subwf	led5_command@i_652,w
  7811  07DB                     u1475:	
  7812  07DB  1C03               	skipc
  7813  07DC  2FC9               	goto	l2699
  7814  07DD                     l2705:	
  7815                           
  7816                           ;lighting.c: 789: }
  7817                           ;lighting.c: 790: _delay((unsigned long)((20)*(32000000/4000.0)));
  7818  07DD  30D0               	movlw	208
  7819  07DE  0020               	movlb	0	; select bank0
  7820  07DF  00B3               	movwf	??_led5_command+1
  7821  07E0  30C9               	movlw	201
  7822  07E1  00B2               	movwf	??_led5_command
  7823  07E2                     u2807:	
  7824  07E2  0BB2               	decfsz	??_led5_command,f
  7825  07E3  2FE2               	goto	u2807
  7826  07E4  0BB3               	decfsz	??_led5_command+1,f
  7827  07E5  2FE2               	goto	u2807
  7828  07E6  3200               	nop2
  7829  07E7  0008               	return
  7830  07E8                     __end_of_led5_command:	
  7831                           
  7832                           	psect	text16
  7833  0B62                     __ptext16:	
  7834 ;; *************** function _led4_command *****************
  7835 ;; Defined at:
  7836 ;;		line 707 in file "../../source/lighting.c"
  7837 ;; Parameters:    Size  Location     Type
  7838 ;;  brightness      1    wreg     unsigned char 
  7839 ;;  red             1   15[BANK0 ] unsigned char 
  7840 ;;  green           1   16[BANK0 ] unsigned char 
  7841 ;;  blue            1   17[BANK0 ] unsigned char 
  7842 ;; Auto vars:     Size  Location     Type
  7843 ;;  brightness      1   20[BANK0 ] unsigned char 
  7844 ;;  i               2   23[BANK0 ] int 
  7845 ;;  i               2   21[BANK0 ] int 
  7846 ;; Return value:  Size  Location     Type
  7847 ;;		None               void
  7848 ;; Registers used:
  7849 ;;		wreg, status,2, status,0, pclath, cstack
  7850 ;; Tracked objects:
  7851 ;;		On entry : 0/0
  7852 ;;		On exit  : 0/0
  7853 ;;		Unchanged: 0/0
  7854 ;; Data sizes:     COMMON   BANK0   BANK1   BANK2   BANK3   BANK4   BANK5   BANK6   BANK7   BANK8   BANK9  BANK10  BANK1
      +1  BANK12  BANK13  BANK14  BANK15  BANK16  BANK17  BANK18  BANK19  BANK20  BANK21  BANK22  BANK23  BANK24  BANK25
  7855 ;;      Params:         0       3       0       0       0       0       0       0       0       0       0       0       
      +0       0       0       0       0       0       0       0       0       0       0       0       0       0       0
  7856 ;;      Locals:         0       5       0       0       0       0       0       0       0       0       0       0       
      +0       0       0       0       0       0       0       0       0       0       0       0       0       0       0
  7857 ;;      Temps:          0       2       0       0       0       0       0       0       0       0       0       0       
      +0       0       0       0       0       0       0       0       0       0       0       0       0       0       0
  7858 ;;      Totals:         0      10       0       0       0       0       0       0       0       0       0       0       
      +0       0       0       0       0       0       0       0       0       0       0       0       0       0       0
  7859 ;;Total ram usage:       10 bytes
  7860 ;; Hardware stack levels used:    1
  7861 ;; Hardware stack levels required when called:    5
  7862 ;; This function calls:
  7863 ;;		_writespi
  7864 ;; This function is called by:
  7865 ;;		_display_blade_lights
  7866 ;; This function uses a non-reentrant model
  7867 ;;
  7868                           
  7869                           
  7870                           ;psect for function _led4_command
  7871  0B62                     _led4_command:	
  7872                           
  7873                           ;incstack = 0
  7874                           ; Regs used in _led4_command: [wreg+status,2+status,0+pclath+cstack]
  7875                           ;led4_command@brightness stored from wreg
  7876  0B62  0020               	movlb	0	; select bank0
  7877  0B63  00B4               	movwf	led4_command@brightness
  7878                           
  7879                           ;lighting.c: 713: for(int i = 0;i < 4; i++)
  7880  0B64  01B5               	clrf	led4_command@i
  7881  0B65  01B6               	clrf	led4_command@i+1
  7882  0B66  0836               	movf	led4_command@i+1,w
  7883  0B67  3A80               	xorlw	128
  7884  0B68  00B2               	movwf	??_led4_command
  7885  0B69  3080               	movlw	128
  7886  0B6A  0232               	subwf	??_led4_command,w
  7887  0B6B  1D03               	skipz
  7888  0B6C  2B6F               	goto	u1405
  7889  0B6D  3004               	movlw	4
  7890  0B6E  0235               	subwf	led4_command@i,w
  7891  0B6F                     u1405:	
  7892  0B6F  1803               	btfsc	3,0
  7893  0B70  2B85               	goto	l2663
  7894  0B71                     l2657:	
  7895                           
  7896                           ;lighting.c: 714: {
  7897                           ;lighting.c: 715: writespi(0x00);
  7898  0B71  3000               	movlw	0
  7899  0B72  3192  226D  318B   	fcall	_writespi
  7900  0B75  3001               	movlw	1
  7901  0B76  0020               	movlb	0	; select bank0
  7902  0B77  07B5               	addwf	led4_command@i,f
  7903  0B78  3000               	movlw	0
  7904  0B79  3DB6               	addwfc	led4_command@i+1,f
  7905  0B7A  0836               	movf	led4_command@i+1,w
  7906  0B7B  3A80               	xorlw	128
  7907  0B7C  00B2               	movwf	??_led4_command
  7908  0B7D  3080               	movlw	128
  7909  0B7E  0232               	subwf	??_led4_command,w
  7910  0B7F  1D03               	skipz
  7911  0B80  2B83               	goto	u1415
  7912  0B81  3004               	movlw	4
  7913  0B82  0235               	subwf	led4_command@i,w
  7914  0B83                     u1415:	
  7915  0B83  1C03               	skipc
  7916  0B84  2B71               	goto	l2657
  7917  0B85                     l2663:	
  7918                           
  7919                           ;lighting.c: 716: }
  7920                           ;lighting.c: 718: writespi(0xFF);
  7921  0B85  30FF               	movlw	255
  7922  0B86  3192  226D  318B   	fcall	_writespi
  7923                           
  7924                           ;lighting.c: 719: writespi(0);
  7925  0B89  3000               	movlw	0
  7926  0B8A  3192  226D  318B   	fcall	_writespi
  7927                           
  7928                           ;lighting.c: 720: writespi(0);
  7929  0B8D  3000               	movlw	0
  7930  0B8E  3192  226D  318B   	fcall	_writespi
  7931                           
  7932                           ;lighting.c: 721: writespi(0);
  7933  0B91  3000               	movlw	0
  7934  0B92  3192  226D  318B   	fcall	_writespi
  7935                           
  7936                           ;lighting.c: 723: writespi(0xFF);
  7937  0B95  30FF               	movlw	255
  7938  0B96  3192  226D  318B   	fcall	_writespi
  7939                           
  7940                           ;lighting.c: 724: writespi(0);
  7941  0B99  3000               	movlw	0
  7942  0B9A  3192  226D  318B   	fcall	_writespi
  7943                           
  7944                           ;lighting.c: 725: writespi(0);
  7945  0B9D  3000               	movlw	0
  7946  0B9E  3192  226D  318B   	fcall	_writespi
  7947                           
  7948                           ;lighting.c: 726: writespi(0);
  7949  0BA1  3000               	movlw	0
  7950  0BA2  3192  226D  318B   	fcall	_writespi
  7951                           
  7952                           ;lighting.c: 728: writespi(0xFF);
  7953  0BA5  30FF               	movlw	255
  7954  0BA6  3192  226D  318B   	fcall	_writespi
  7955                           
  7956                           ;lighting.c: 729: writespi(0);
  7957  0BA9  3000               	movlw	0
  7958  0BAA  3192  226D  318B   	fcall	_writespi
  7959                           
  7960                           ;lighting.c: 730: writespi(0);
  7961  0BAD  3000               	movlw	0
  7962  0BAE  3192  226D  318B   	fcall	_writespi
  7963                           
  7964                           ;lighting.c: 731: writespi(0);
  7965  0BB1  3000               	movlw	0
  7966  0BB2  3192  226D  318B   	fcall	_writespi
  7967                           
  7968                           ;lighting.c: 733: writespi(brightness);
  7969  0BB5  0020               	movlb	0	; select bank0
  7970  0BB6  0834               	movf	led4_command@brightness,w
  7971  0BB7  3192  226D  318B   	fcall	_writespi
  7972                           
  7973                           ;lighting.c: 734: writespi(blue);
  7974  0BBA  0020               	movlb	0	; select bank0
  7975  0BBB  0831               	movf	led4_command@blue,w
  7976  0BBC  3192  226D  318B   	fcall	_writespi
  7977                           
  7978                           ;lighting.c: 735: writespi(green);
  7979  0BBF  0020               	movlb	0	; select bank0
  7980  0BC0  0830               	movf	led4_command@green,w
  7981  0BC1  3192  226D  318B   	fcall	_writespi
  7982                           
  7983                           ;lighting.c: 736: writespi(red);
  7984  0BC4  0020               	movlb	0	; select bank0
  7985  0BC5  082F               	movf	led4_command@red,w
  7986  0BC6  3192  226D  318B   	fcall	_writespi
  7987                           
  7988                           ;lighting.c: 738: writespi(0xFF);
  7989  0BC9  30FF               	movlw	255
  7990  0BCA  3192  226D  318B   	fcall	_writespi
  7991                           
  7992                           ;lighting.c: 739: writespi(0);
  7993  0BCD  3000               	movlw	0
  7994  0BCE  3192  226D  318B   	fcall	_writespi
  7995                           
  7996                           ;lighting.c: 740: writespi(0);
  7997  0BD1  3000               	movlw	0
  7998  0BD2  3192  226D  318B   	fcall	_writespi
  7999                           
  8000                           ;lighting.c: 741: writespi(0);
  8001  0BD5  3000               	movlw	0
  8002  0BD6  3192  226D  318B   	fcall	_writespi
  8003                           
  8004                           ;lighting.c: 743: for(int i = 0;i < 4; i++)
  8005  0BD9  0020               	movlb	0	; select bank0
  8006  0BDA  01B7               	clrf	led4_command@i_645
  8007  0BDB  01B8               	clrf	led4_command@i_645+1
  8008  0BDC  0838               	movf	led4_command@i_645+1,w
  8009  0BDD  3A80               	xorlw	128
  8010  0BDE  00B2               	movwf	??_led4_command
  8011  0BDF  3080               	movlw	128
  8012  0BE0  0232               	subwf	??_led4_command,w
  8013  0BE1  1D03               	skipz
  8014  0BE2  2BE5               	goto	u1425
  8015  0BE3  3004               	movlw	4
  8016  0BE4  0237               	subwf	led4_command@i_645,w
  8017  0BE5                     u1425:	
  8018  0BE5  1803               	btfsc	3,0
  8019  0BE6  2BFB               	goto	l2677
  8020  0BE7                     l2671:	
  8021                           
  8022                           ;lighting.c: 744: {
  8023                           ;lighting.c: 745: writespi(0xFF);
  8024  0BE7  30FF               	movlw	255
  8025  0BE8  3192  226D  318B   	fcall	_writespi
  8026  0BEB  3001               	movlw	1
  8027  0BEC  0020               	movlb	0	; select bank0
  8028  0BED  07B7               	addwf	led4_command@i_645,f
  8029  0BEE  3000               	movlw	0
  8030  0BEF  3DB8               	addwfc	led4_command@i_645+1,f
  8031  0BF0  0838               	movf	led4_command@i_645+1,w
  8032  0BF1  3A80               	xorlw	128
  8033  0BF2  00B2               	movwf	??_led4_command
  8034  0BF3  3080               	movlw	128
  8035  0BF4  0232               	subwf	??_led4_command,w
  8036  0BF5  1D03               	skipz
  8037  0BF6  2BF9               	goto	u1435
  8038  0BF7  3004               	movlw	4
  8039  0BF8  0237               	subwf	led4_command@i_645,w
  8040  0BF9                     u1435:	
  8041  0BF9  1C03               	skipc
  8042  0BFA  2BE7               	goto	l2671
  8043  0BFB                     l2677:	
  8044                           
  8045                           ;lighting.c: 746: }
  8046                           ;lighting.c: 747: _delay((unsigned long)((20)*(32000000/4000.0)));
  8047  0BFB  30D0               	movlw	208
  8048  0BFC  0020               	movlb	0	; select bank0
  8049  0BFD  00B3               	movwf	??_led4_command+1
  8050  0BFE  30C9               	movlw	201
  8051  0BFF  00B2               	movwf	??_led4_command
  8052  0C00                     u2817:	
  8053  0C00  0BB2               	decfsz	??_led4_command,f
  8054  0C01  2C00               	goto	u2817
  8055  0C02  0BB3               	decfsz	??_led4_command+1,f
  8056  0C03  2C00               	goto	u2817
  8057  0C04  3200               	nop2
  8058  0C05  0008               	return
  8059  0C06                     __end_of_led4_command:	
  8060                           
  8061                           	psect	text17
  8062  0ABE                     __ptext17:	
  8063 ;; *************** function _led3_command *****************
  8064 ;; Defined at:
  8065 ;;		line 664 in file "../../source/lighting.c"
  8066 ;; Parameters:    Size  Location     Type
  8067 ;;  brightness      1    wreg     unsigned char 
  8068 ;;  red             1   15[BANK0 ] unsigned char 
  8069 ;;  green           1   16[BANK0 ] unsigned char 
  8070 ;;  blue            1   17[BANK0 ] unsigned char 
  8071 ;; Auto vars:     Size  Location     Type
  8072 ;;  brightness      1   20[BANK0 ] unsigned char 
  8073 ;;  i               2   23[BANK0 ] int 
  8074 ;;  i               2   21[BANK0 ] int 
  8075 ;; Return value:  Size  Location     Type
  8076 ;;		None               void
  8077 ;; Registers used:
  8078 ;;		wreg, status,2, status,0, pclath, cstack
  8079 ;; Tracked objects:
  8080 ;;		On entry : 0/0
  8081 ;;		On exit  : 0/0
  8082 ;;		Unchanged: 0/0
  8083 ;; Data sizes:     COMMON   BANK0   BANK1   BANK2   BANK3   BANK4   BANK5   BANK6   BANK7   BANK8   BANK9  BANK10  BANK1
      +1  BANK12  BANK13  BANK14  BANK15  BANK16  BANK17  BANK18  BANK19  BANK20  BANK21  BANK22  BANK23  BANK24  BANK25
  8084 ;;      Params:         0       3       0       0       0       0       0       0       0       0       0       0       
      +0       0       0       0       0       0       0       0       0       0       0       0       0       0       0
  8085 ;;      Locals:         0       5       0       0       0       0       0       0       0       0       0       0       
      +0       0       0       0       0       0       0       0       0       0       0       0       0       0       0
  8086 ;;      Temps:          0       2       0       0       0       0       0       0       0       0       0       0       
      +0       0       0       0       0       0       0       0       0       0       0       0       0       0       0
  8087 ;;      Totals:         0      10       0       0       0       0       0       0       0       0       0       0       
      +0       0       0       0       0       0       0       0       0       0       0       0       0       0       0
  8088 ;;Total ram usage:       10 bytes
  8089 ;; Hardware stack levels used:    1
  8090 ;; Hardware stack levels required when called:    5
  8091 ;; This function calls:
  8092 ;;		_writespi
  8093 ;; This function is called by:
  8094 ;;		_display_blade_lights
  8095 ;; This function uses a non-reentrant model
  8096 ;;
  8097                           
  8098                           
  8099                           ;psect for function _led3_command
  8100  0ABE                     _led3_command:	
  8101                           
  8102                           ;incstack = 0
  8103                           ; Regs used in _led3_command: [wreg+status,2+status,0+pclath+cstack]
  8104                           ;led3_command@brightness stored from wreg
  8105  0ABE  0020               	movlb	0	; select bank0
  8106  0ABF  00B4               	movwf	led3_command@brightness
  8107                           
  8108                           ;lighting.c: 670: for(int i = 0;i < 4; i++)
  8109  0AC0  01B5               	clrf	led3_command@i
  8110  0AC1  01B6               	clrf	led3_command@i+1
  8111  0AC2  0836               	movf	led3_command@i+1,w
  8112  0AC3  3A80               	xorlw	128
  8113  0AC4  00B2               	movwf	??_led3_command
  8114  0AC5  3080               	movlw	128
  8115  0AC6  0232               	subwf	??_led3_command,w
  8116  0AC7  1D03               	skipz
  8117  0AC8  2ACB               	goto	u1365
  8118  0AC9  3004               	movlw	4
  8119  0ACA  0235               	subwf	led3_command@i,w
  8120  0ACB                     u1365:	
  8121  0ACB  1803               	btfsc	3,0
  8122  0ACC  2AE1               	goto	l2635
  8123  0ACD                     l2629:	
  8124                           
  8125                           ;lighting.c: 671: {
  8126                           ;lighting.c: 672: writespi(0x00);
  8127  0ACD  3000               	movlw	0
  8128  0ACE  3192  226D  318A   	fcall	_writespi
  8129  0AD1  3001               	movlw	1
  8130  0AD2  0020               	movlb	0	; select bank0
  8131  0AD3  07B5               	addwf	led3_command@i,f
  8132  0AD4  3000               	movlw	0
  8133  0AD5  3DB6               	addwfc	led3_command@i+1,f
  8134  0AD6  0836               	movf	led3_command@i+1,w
  8135  0AD7  3A80               	xorlw	128
  8136  0AD8  00B2               	movwf	??_led3_command
  8137  0AD9  3080               	movlw	128
  8138  0ADA  0232               	subwf	??_led3_command,w
  8139  0ADB  1D03               	skipz
  8140  0ADC  2ADF               	goto	u1375
  8141  0ADD  3004               	movlw	4
  8142  0ADE  0235               	subwf	led3_command@i,w
  8143  0ADF                     u1375:	
  8144  0ADF  1C03               	skipc
  8145  0AE0  2ACD               	goto	l2629
  8146  0AE1                     l2635:	
  8147                           
  8148                           ;lighting.c: 673: }
  8149                           ;lighting.c: 675: writespi(0xFF);
  8150  0AE1  30FF               	movlw	255
  8151  0AE2  3192  226D  318A   	fcall	_writespi
  8152                           
  8153                           ;lighting.c: 676: writespi(0);
  8154  0AE5  3000               	movlw	0
  8155  0AE6  3192  226D  318A   	fcall	_writespi
  8156                           
  8157                           ;lighting.c: 677: writespi(0);
  8158  0AE9  3000               	movlw	0
  8159  0AEA  3192  226D  318A   	fcall	_writespi
  8160                           
  8161                           ;lighting.c: 678: writespi(0);
  8162  0AED  3000               	movlw	0
  8163  0AEE  3192  226D  318A   	fcall	_writespi
  8164                           
  8165                           ;lighting.c: 680: writespi(0xFF);
  8166  0AF1  30FF               	movlw	255
  8167  0AF2  3192  226D  318A   	fcall	_writespi
  8168                           
  8169                           ;lighting.c: 681: writespi(0);
  8170  0AF5  3000               	movlw	0
  8171  0AF6  3192  226D  318A   	fcall	_writespi
  8172                           
  8173                           ;lighting.c: 682: writespi(0);
  8174  0AF9  3000               	movlw	0
  8175  0AFA  3192  226D  318A   	fcall	_writespi
  8176                           
  8177                           ;lighting.c: 683: writespi(0);
  8178  0AFD  3000               	movlw	0
  8179  0AFE  3192  226D  318A   	fcall	_writespi
  8180                           
  8181                           ;lighting.c: 685: writespi(brightness);
  8182  0B01  0020               	movlb	0	; select bank0
  8183  0B02  0834               	movf	led3_command@brightness,w
  8184  0B03  3192  226D  318A   	fcall	_writespi
  8185                           
  8186                           ;lighting.c: 686: writespi(blue);
  8187  0B06  0020               	movlb	0	; select bank0
  8188  0B07  0831               	movf	led3_command@blue,w
  8189  0B08  3192  226D  318A   	fcall	_writespi
  8190                           
  8191                           ;lighting.c: 687: writespi(green);
  8192  0B0B  0020               	movlb	0	; select bank0
  8193  0B0C  0830               	movf	led3_command@green,w
  8194  0B0D  3192  226D  318A   	fcall	_writespi
  8195                           
  8196                           ;lighting.c: 688: writespi(red);
  8197  0B10  0020               	movlb	0	; select bank0
  8198  0B11  082F               	movf	led3_command@red,w
  8199  0B12  3192  226D  318A   	fcall	_writespi
  8200                           
  8201                           ;lighting.c: 690: writespi(0xFF);
  8202  0B15  30FF               	movlw	255
  8203  0B16  3192  226D  318A   	fcall	_writespi
  8204                           
  8205                           ;lighting.c: 691: writespi(0);
  8206  0B19  3000               	movlw	0
  8207  0B1A  3192  226D  318A   	fcall	_writespi
  8208                           
  8209                           ;lighting.c: 692: writespi(0);
  8210  0B1D  3000               	movlw	0
  8211  0B1E  3192  226D  318A   	fcall	_writespi
  8212                           
  8213                           ;lighting.c: 693: writespi(0);
  8214  0B21  3000               	movlw	0
  8215  0B22  3192  226D  318A   	fcall	_writespi
  8216                           
  8217                           ;lighting.c: 695: writespi(0xFF);
  8218  0B25  30FF               	movlw	255
  8219  0B26  3192  226D  318A   	fcall	_writespi
  8220                           
  8221                           ;lighting.c: 696: writespi(0);
  8222  0B29  3000               	movlw	0
  8223  0B2A  3192  226D  318A   	fcall	_writespi
  8224                           
  8225                           ;lighting.c: 697: writespi(0);
  8226  0B2D  3000               	movlw	0
  8227  0B2E  3192  226D  318A   	fcall	_writespi
  8228                           
  8229                           ;lighting.c: 698: writespi(0);
  8230  0B31  3000               	movlw	0
  8231  0B32  3192  226D  318A   	fcall	_writespi
  8232                           
  8233                           ;lighting.c: 700: for(int i = 0;i < 4; i++)
  8234  0B35  0020               	movlb	0	; select bank0
  8235  0B36  01B7               	clrf	led3_command@i_638
  8236  0B37  01B8               	clrf	led3_command@i_638+1
  8237  0B38  0838               	movf	led3_command@i_638+1,w
  8238  0B39  3A80               	xorlw	128
  8239  0B3A  00B2               	movwf	??_led3_command
  8240  0B3B  3080               	movlw	128
  8241  0B3C  0232               	subwf	??_led3_command,w
  8242  0B3D  1D03               	skipz
  8243  0B3E  2B41               	goto	u1385
  8244  0B3F  3004               	movlw	4
  8245  0B40  0237               	subwf	led3_command@i_638,w
  8246  0B41                     u1385:	
  8247  0B41  1803               	btfsc	3,0
  8248  0B42  2B57               	goto	l2649
  8249  0B43                     l2643:	
  8250                           
  8251                           ;lighting.c: 701: {
  8252                           ;lighting.c: 702: writespi(0xFF);
  8253  0B43  30FF               	movlw	255
  8254  0B44  3192  226D  318A   	fcall	_writespi
  8255  0B47  3001               	movlw	1
  8256  0B48  0020               	movlb	0	; select bank0
  8257  0B49  07B7               	addwf	led3_command@i_638,f
  8258  0B4A  3000               	movlw	0
  8259  0B4B  3DB8               	addwfc	led3_command@i_638+1,f
  8260  0B4C  0838               	movf	led3_command@i_638+1,w
  8261  0B4D  3A80               	xorlw	128
  8262  0B4E  00B2               	movwf	??_led3_command
  8263  0B4F  3080               	movlw	128
  8264  0B50  0232               	subwf	??_led3_command,w
  8265  0B51  1D03               	skipz
  8266  0B52  2B55               	goto	u1395
  8267  0B53  3004               	movlw	4
  8268  0B54  0237               	subwf	led3_command@i_638,w
  8269  0B55                     u1395:	
  8270  0B55  1C03               	skipc
  8271  0B56  2B43               	goto	l2643
  8272  0B57                     l2649:	
  8273                           
  8274                           ;lighting.c: 703: }
  8275                           ;lighting.c: 704: _delay((unsigned long)((20)*(32000000/4000.0)));
  8276  0B57  30D0               	movlw	208
  8277  0B58  0020               	movlb	0	; select bank0
  8278  0B59  00B3               	movwf	??_led3_command+1
  8279  0B5A  30C9               	movlw	201
  8280  0B5B  00B2               	movwf	??_led3_command
  8281  0B5C                     u2827:	
  8282  0B5C  0BB2               	decfsz	??_led3_command,f
  8283  0B5D  2B5C               	goto	u2827
  8284  0B5E  0BB3               	decfsz	??_led3_command+1,f
  8285  0B5F  2B5C               	goto	u2827
  8286  0B60  3200               	nop2
  8287  0B61  0008               	return
  8288  0B62                     __end_of_led3_command:	
  8289                           
  8290                           	psect	text18
  8291  0A1A                     __ptext18:	
  8292 ;; *************** function _led2_command *****************
  8293 ;; Defined at:
  8294 ;;		line 621 in file "../../source/lighting.c"
  8295 ;; Parameters:    Size  Location     Type
  8296 ;;  brightness      1    wreg     unsigned char 
  8297 ;;  red             1   15[BANK0 ] unsigned char 
  8298 ;;  green           1   16[BANK0 ] unsigned char 
  8299 ;;  blue            1   17[BANK0 ] unsigned char 
  8300 ;; Auto vars:     Size  Location     Type
  8301 ;;  brightness      1   20[BANK0 ] unsigned char 
  8302 ;;  i               2   23[BANK0 ] int 
  8303 ;;  i               2   21[BANK0 ] int 
  8304 ;; Return value:  Size  Location     Type
  8305 ;;		None               void
  8306 ;; Registers used:
  8307 ;;		wreg, status,2, status,0, pclath, cstack
  8308 ;; Tracked objects:
  8309 ;;		On entry : 0/0
  8310 ;;		On exit  : 0/0
  8311 ;;		Unchanged: 0/0
  8312 ;; Data sizes:     COMMON   BANK0   BANK1   BANK2   BANK3   BANK4   BANK5   BANK6   BANK7   BANK8   BANK9  BANK10  BANK1
      +1  BANK12  BANK13  BANK14  BANK15  BANK16  BANK17  BANK18  BANK19  BANK20  BANK21  BANK22  BANK23  BANK24  BANK25
  8313 ;;      Params:         0       3       0       0       0       0       0       0       0       0       0       0       
      +0       0       0       0       0       0       0       0       0       0       0       0       0       0       0
  8314 ;;      Locals:         0       5       0       0       0       0       0       0       0       0       0       0       
      +0       0       0       0       0       0       0       0       0       0       0       0       0       0       0
  8315 ;;      Temps:          0       2       0       0       0       0       0       0       0       0       0       0       
      +0       0       0       0       0       0       0       0       0       0       0       0       0       0       0
  8316 ;;      Totals:         0      10       0       0       0       0       0       0       0       0       0       0       
      +0       0       0       0       0       0       0       0       0       0       0       0       0       0       0
  8317 ;;Total ram usage:       10 bytes
  8318 ;; Hardware stack levels used:    1
  8319 ;; Hardware stack levels required when called:    5
  8320 ;; This function calls:
  8321 ;;		_writespi
  8322 ;; This function is called by:
  8323 ;;		_display_blade_lights
  8324 ;; This function uses a non-reentrant model
  8325 ;;
  8326                           
  8327                           
  8328                           ;psect for function _led2_command
  8329  0A1A                     _led2_command:	
  8330                           
  8331                           ;incstack = 0
  8332                           ; Regs used in _led2_command: [wreg+status,2+status,0+pclath+cstack]
  8333                           ;led2_command@brightness stored from wreg
  8334  0A1A  0020               	movlb	0	; select bank0
  8335  0A1B  00B4               	movwf	led2_command@brightness
  8336                           
  8337                           ;lighting.c: 627: for(int i = 0;i < 4; i++)
  8338  0A1C  01B5               	clrf	led2_command@i
  8339  0A1D  01B6               	clrf	led2_command@i+1
  8340  0A1E  0836               	movf	led2_command@i+1,w
  8341  0A1F  3A80               	xorlw	128
  8342  0A20  00B2               	movwf	??_led2_command
  8343  0A21  3080               	movlw	128
  8344  0A22  0232               	subwf	??_led2_command,w
  8345  0A23  1D03               	skipz
  8346  0A24  2A27               	goto	u1325
  8347  0A25  3004               	movlw	4
  8348  0A26  0235               	subwf	led2_command@i,w
  8349  0A27                     u1325:	
  8350  0A27  1803               	btfsc	3,0
  8351  0A28  2A3D               	goto	l2607
  8352  0A29                     l2601:	
  8353                           
  8354                           ;lighting.c: 628: {
  8355                           ;lighting.c: 629: writespi(0x00);
  8356  0A29  3000               	movlw	0
  8357  0A2A  3192  226D  318A   	fcall	_writespi
  8358  0A2D  3001               	movlw	1
  8359  0A2E  0020               	movlb	0	; select bank0
  8360  0A2F  07B5               	addwf	led2_command@i,f
  8361  0A30  3000               	movlw	0
  8362  0A31  3DB6               	addwfc	led2_command@i+1,f
  8363  0A32  0836               	movf	led2_command@i+1,w
  8364  0A33  3A80               	xorlw	128
  8365  0A34  00B2               	movwf	??_led2_command
  8366  0A35  3080               	movlw	128
  8367  0A36  0232               	subwf	??_led2_command,w
  8368  0A37  1D03               	skipz
  8369  0A38  2A3B               	goto	u1335
  8370  0A39  3004               	movlw	4
  8371  0A3A  0235               	subwf	led2_command@i,w
  8372  0A3B                     u1335:	
  8373  0A3B  1C03               	skipc
  8374  0A3C  2A29               	goto	l2601
  8375  0A3D                     l2607:	
  8376                           
  8377                           ;lighting.c: 630: }
  8378                           ;lighting.c: 632: writespi(0xFF);
  8379  0A3D  30FF               	movlw	255
  8380  0A3E  3192  226D  318A   	fcall	_writespi
  8381                           
  8382                           ;lighting.c: 633: writespi(0);
  8383  0A41  3000               	movlw	0
  8384  0A42  3192  226D  318A   	fcall	_writespi
  8385                           
  8386                           ;lighting.c: 634: writespi(0);
  8387  0A45  3000               	movlw	0
  8388  0A46  3192  226D  318A   	fcall	_writespi
  8389                           
  8390                           ;lighting.c: 635: writespi(0);
  8391  0A49  3000               	movlw	0
  8392  0A4A  3192  226D  318A   	fcall	_writespi
  8393                           
  8394                           ;lighting.c: 637: writespi(brightness);
  8395  0A4D  0020               	movlb	0	; select bank0
  8396  0A4E  0834               	movf	led2_command@brightness,w
  8397  0A4F  3192  226D  318A   	fcall	_writespi
  8398                           
  8399                           ;lighting.c: 638: writespi(blue);
  8400  0A52  0020               	movlb	0	; select bank0
  8401  0A53  0831               	movf	led2_command@blue,w
  8402  0A54  3192  226D  318A   	fcall	_writespi
  8403                           
  8404                           ;lighting.c: 639: writespi(green);
  8405  0A57  0020               	movlb	0	; select bank0
  8406  0A58  0830               	movf	led2_command@green,w
  8407  0A59  3192  226D  318A   	fcall	_writespi
  8408                           
  8409                           ;lighting.c: 640: writespi(red);
  8410  0A5C  0020               	movlb	0	; select bank0
  8411  0A5D  082F               	movf	led2_command@red,w
  8412  0A5E  3192  226D  318A   	fcall	_writespi
  8413                           
  8414                           ;lighting.c: 642: writespi(0xFF);
  8415  0A61  30FF               	movlw	255
  8416  0A62  3192  226D  318A   	fcall	_writespi
  8417                           
  8418                           ;lighting.c: 643: writespi(0);
  8419  0A65  3000               	movlw	0
  8420  0A66  3192  226D  318A   	fcall	_writespi
  8421                           
  8422                           ;lighting.c: 644: writespi(0);
  8423  0A69  3000               	movlw	0
  8424  0A6A  3192  226D  318A   	fcall	_writespi
  8425                           
  8426                           ;lighting.c: 645: writespi(0);
  8427  0A6D  3000               	movlw	0
  8428  0A6E  3192  226D  318A   	fcall	_writespi
  8429                           
  8430                           ;lighting.c: 647: writespi(0xFF);
  8431  0A71  30FF               	movlw	255
  8432  0A72  3192  226D  318A   	fcall	_writespi
  8433                           
  8434                           ;lighting.c: 648: writespi(0);
  8435  0A75  3000               	movlw	0
  8436  0A76  3192  226D  318A   	fcall	_writespi
  8437                           
  8438                           ;lighting.c: 649: writespi(0);
  8439  0A79  3000               	movlw	0
  8440  0A7A  3192  226D  318A   	fcall	_writespi
  8441                           
  8442                           ;lighting.c: 650: writespi(0);
  8443  0A7D  3000               	movlw	0
  8444  0A7E  3192  226D  318A   	fcall	_writespi
  8445                           
  8446                           ;lighting.c: 652: writespi(0xFF);
  8447  0A81  30FF               	movlw	255
  8448  0A82  3192  226D  318A   	fcall	_writespi
  8449                           
  8450                           ;lighting.c: 653: writespi(0);
  8451  0A85  3000               	movlw	0
  8452  0A86  3192  226D  318A   	fcall	_writespi
  8453                           
  8454                           ;lighting.c: 654: writespi(0);
  8455  0A89  3000               	movlw	0
  8456  0A8A  3192  226D  318A   	fcall	_writespi
  8457                           
  8458                           ;lighting.c: 655: writespi(0);
  8459  0A8D  3000               	movlw	0
  8460  0A8E  3192  226D  318A   	fcall	_writespi
  8461                           
  8462                           ;lighting.c: 657: for(int i = 0;i < 4; i++)
  8463  0A91  0020               	movlb	0	; select bank0
  8464  0A92  01B7               	clrf	led2_command@i_631
  8465  0A93  01B8               	clrf	led2_command@i_631+1
  8466  0A94  0838               	movf	led2_command@i_631+1,w
  8467  0A95  3A80               	xorlw	128
  8468  0A96  00B2               	movwf	??_led2_command
  8469  0A97  3080               	movlw	128
  8470  0A98  0232               	subwf	??_led2_command,w
  8471  0A99  1D03               	skipz
  8472  0A9A  2A9D               	goto	u1345
  8473  0A9B  3004               	movlw	4
  8474  0A9C  0237               	subwf	led2_command@i_631,w
  8475  0A9D                     u1345:	
  8476  0A9D  1803               	btfsc	3,0
  8477  0A9E  2AB3               	goto	l2621
  8478  0A9F                     l2615:	
  8479                           
  8480                           ;lighting.c: 658: {
  8481                           ;lighting.c: 659: writespi(0xFF);
  8482  0A9F  30FF               	movlw	255
  8483  0AA0  3192  226D  318A   	fcall	_writespi
  8484  0AA3  3001               	movlw	1
  8485  0AA4  0020               	movlb	0	; select bank0
  8486  0AA5  07B7               	addwf	led2_command@i_631,f
  8487  0AA6  3000               	movlw	0
  8488  0AA7  3DB8               	addwfc	led2_command@i_631+1,f
  8489  0AA8  0838               	movf	led2_command@i_631+1,w
  8490  0AA9  3A80               	xorlw	128
  8491  0AAA  00B2               	movwf	??_led2_command
  8492  0AAB  3080               	movlw	128
  8493  0AAC  0232               	subwf	??_led2_command,w
  8494  0AAD  1D03               	skipz
  8495  0AAE  2AB1               	goto	u1355
  8496  0AAF  3004               	movlw	4
  8497  0AB0  0237               	subwf	led2_command@i_631,w
  8498  0AB1                     u1355:	
  8499  0AB1  1C03               	skipc
  8500  0AB2  2A9F               	goto	l2615
  8501  0AB3                     l2621:	
  8502                           
  8503                           ;lighting.c: 660: }
  8504                           ;lighting.c: 661: _delay((unsigned long)((20)*(32000000/4000.0)));
  8505  0AB3  30D0               	movlw	208
  8506  0AB4  0020               	movlb	0	; select bank0
  8507  0AB5  00B3               	movwf	??_led2_command+1
  8508  0AB6  30C9               	movlw	201
  8509  0AB7  00B2               	movwf	??_led2_command
  8510  0AB8                     u2837:	
  8511  0AB8  0BB2               	decfsz	??_led2_command,f
  8512  0AB9  2AB8               	goto	u2837
  8513  0ABA  0BB3               	decfsz	??_led2_command+1,f
  8514  0ABB  2AB8               	goto	u2837
  8515  0ABC  3200               	nop2
  8516  0ABD  0008               	return
  8517  0ABE                     __end_of_led2_command:	
  8518                           
  8519                           	psect	text19
  8520  0976                     __ptext19:	
  8521 ;; *************** function _led1_command *****************
  8522 ;; Defined at:
  8523 ;;		line 578 in file "../../source/lighting.c"
  8524 ;; Parameters:    Size  Location     Type
  8525 ;;  brightness      1    wreg     unsigned char 
  8526 ;;  red             1   15[BANK0 ] unsigned char 
  8527 ;;  green           1   16[BANK0 ] unsigned char 
  8528 ;;  blue            1   17[BANK0 ] unsigned char 
  8529 ;; Auto vars:     Size  Location     Type
  8530 ;;  brightness      1   20[BANK0 ] unsigned char 
  8531 ;;  i               2   23[BANK0 ] int 
  8532 ;;  i               2   21[BANK0 ] int 
  8533 ;; Return value:  Size  Location     Type
  8534 ;;		None               void
  8535 ;; Registers used:
  8536 ;;		wreg, status,2, status,0, pclath, cstack
  8537 ;; Tracked objects:
  8538 ;;		On entry : 0/0
  8539 ;;		On exit  : 0/0
  8540 ;;		Unchanged: 0/0
  8541 ;; Data sizes:     COMMON   BANK0   BANK1   BANK2   BANK3   BANK4   BANK5   BANK6   BANK7   BANK8   BANK9  BANK10  BANK1
      +1  BANK12  BANK13  BANK14  BANK15  BANK16  BANK17  BANK18  BANK19  BANK20  BANK21  BANK22  BANK23  BANK24  BANK25
  8542 ;;      Params:         0       3       0       0       0       0       0       0       0       0       0       0       
      +0       0       0       0       0       0       0       0       0       0       0       0       0       0       0
  8543 ;;      Locals:         0       5       0       0       0       0       0       0       0       0       0       0       
      +0       0       0       0       0       0       0       0       0       0       0       0       0       0       0
  8544 ;;      Temps:          0       2       0       0       0       0       0       0       0       0       0       0       
      +0       0       0       0       0       0       0       0       0       0       0       0       0       0       0
  8545 ;;      Totals:         0      10       0       0       0       0       0       0       0       0       0       0       
      +0       0       0       0       0       0       0       0       0       0       0       0       0       0       0
  8546 ;;Total ram usage:       10 bytes
  8547 ;; Hardware stack levels used:    1
  8548 ;; Hardware stack levels required when called:    5
  8549 ;; This function calls:
  8550 ;;		_writespi
  8551 ;; This function is called by:
  8552 ;;		_display_blade_lights
  8553 ;; This function uses a non-reentrant model
  8554 ;;
  8555                           
  8556                           
  8557                           ;psect for function _led1_command
  8558  0976                     _led1_command:	
  8559                           
  8560                           ;incstack = 0
  8561                           ; Regs used in _led1_command: [wreg+status,2+status,0+pclath+cstack]
  8562                           ;led1_command@brightness stored from wreg
  8563  0976  0020               	movlb	0	; select bank0
  8564  0977  00B4               	movwf	led1_command@brightness
  8565                           
  8566                           ;lighting.c: 584: for(int i = 0;i < 4; i++)
  8567  0978  01B5               	clrf	led1_command@i
  8568  0979  01B6               	clrf	led1_command@i+1
  8569  097A  0836               	movf	led1_command@i+1,w
  8570  097B  3A80               	xorlw	128
  8571  097C  00B2               	movwf	??_led1_command
  8572  097D  3080               	movlw	128
  8573  097E  0232               	subwf	??_led1_command,w
  8574  097F  1D03               	skipz
  8575  0980  2983               	goto	u1285
  8576  0981  3004               	movlw	4
  8577  0982  0235               	subwf	led1_command@i,w
  8578  0983                     u1285:	
  8579  0983  1803               	btfsc	3,0
  8580  0984  2999               	goto	l2579
  8581  0985                     l2573:	
  8582                           
  8583                           ;lighting.c: 585: {
  8584                           ;lighting.c: 586: writespi(0x00);
  8585  0985  3000               	movlw	0
  8586  0986  3192  226D  3189   	fcall	_writespi
  8587  0989  3001               	movlw	1
  8588  098A  0020               	movlb	0	; select bank0
  8589  098B  07B5               	addwf	led1_command@i,f
  8590  098C  3000               	movlw	0
  8591  098D  3DB6               	addwfc	led1_command@i+1,f
  8592  098E  0836               	movf	led1_command@i+1,w
  8593  098F  3A80               	xorlw	128
  8594  0990  00B2               	movwf	??_led1_command
  8595  0991  3080               	movlw	128
  8596  0992  0232               	subwf	??_led1_command,w
  8597  0993  1D03               	skipz
  8598  0994  2997               	goto	u1295
  8599  0995  3004               	movlw	4
  8600  0996  0235               	subwf	led1_command@i,w
  8601  0997                     u1295:	
  8602  0997  1C03               	skipc
  8603  0998  2985               	goto	l2573
  8604  0999                     l2579:	
  8605                           
  8606                           ;lighting.c: 587: }
  8607                           ;lighting.c: 589: writespi(brightness);
  8608  0999  0020               	movlb	0	; select bank0
  8609  099A  0834               	movf	led1_command@brightness,w
  8610  099B  3192  226D  3189   	fcall	_writespi
  8611                           
  8612                           ;lighting.c: 590: writespi(blue);
  8613  099E  0020               	movlb	0	; select bank0
  8614  099F  0831               	movf	led1_command@blue,w
  8615  09A0  3192  226D  3189   	fcall	_writespi
  8616                           
  8617                           ;lighting.c: 591: writespi(green);
  8618  09A3  0020               	movlb	0	; select bank0
  8619  09A4  0830               	movf	led1_command@green,w
  8620  09A5  3192  226D  3189   	fcall	_writespi
  8621                           
  8622                           ;lighting.c: 592: writespi(red);
  8623  09A8  0020               	movlb	0	; select bank0
  8624  09A9  082F               	movf	led1_command@red,w
  8625  09AA  3192  226D  3189   	fcall	_writespi
  8626                           
  8627                           ;lighting.c: 594: writespi(0xFF);
  8628  09AD  30FF               	movlw	255
  8629  09AE  3192  226D  3189   	fcall	_writespi
  8630                           
  8631                           ;lighting.c: 595: writespi(0);
  8632  09B1  3000               	movlw	0
  8633  09B2  3192  226D  3189   	fcall	_writespi
  8634                           
  8635                           ;lighting.c: 596: writespi(0);
  8636  09B5  3000               	movlw	0
  8637  09B6  3192  226D  3189   	fcall	_writespi
  8638                           
  8639                           ;lighting.c: 597: writespi(0);
  8640  09B9  3000               	movlw	0
  8641  09BA  3192  226D  3189   	fcall	_writespi
  8642                           
  8643                           ;lighting.c: 599: writespi(0xFF);
  8644  09BD  30FF               	movlw	255
  8645  09BE  3192  226D  3189   	fcall	_writespi
  8646                           
  8647                           ;lighting.c: 600: writespi(0);
  8648  09C1  3000               	movlw	0
  8649  09C2  3192  226D  3189   	fcall	_writespi
  8650                           
  8651                           ;lighting.c: 601: writespi(0);
  8652  09C5  3000               	movlw	0
  8653  09C6  3192  226D  3189   	fcall	_writespi
  8654                           
  8655                           ;lighting.c: 602: writespi(0);
  8656  09C9  3000               	movlw	0
  8657  09CA  3192  226D  3189   	fcall	_writespi
  8658                           
  8659                           ;lighting.c: 604: writespi(0xFF);
  8660  09CD  30FF               	movlw	255
  8661  09CE  3192  226D  3189   	fcall	_writespi
  8662                           
  8663                           ;lighting.c: 605: writespi(0);
  8664  09D1  3000               	movlw	0
  8665  09D2  3192  226D  3189   	fcall	_writespi
  8666                           
  8667                           ;lighting.c: 606: writespi(0);
  8668  09D5  3000               	movlw	0
  8669  09D6  3192  226D  3189   	fcall	_writespi
  8670                           
  8671                           ;lighting.c: 607: writespi(0);
  8672  09D9  3000               	movlw	0
  8673  09DA  3192  226D  3189   	fcall	_writespi
  8674                           
  8675                           ;lighting.c: 609: writespi(0xFF);
  8676  09DD  30FF               	movlw	255
  8677  09DE  3192  226D  3189   	fcall	_writespi
  8678                           
  8679                           ;lighting.c: 610: writespi(0);
  8680  09E1  3000               	movlw	0
  8681  09E2  3192  226D  3189   	fcall	_writespi
  8682                           
  8683                           ;lighting.c: 611: writespi(0);
  8684  09E5  3000               	movlw	0
  8685  09E6  3192  226D  3189   	fcall	_writespi
  8686                           
  8687                           ;lighting.c: 612: writespi(0);
  8688  09E9  3000               	movlw	0
  8689  09EA  3192  226D  3189   	fcall	_writespi
  8690                           
  8691                           ;lighting.c: 614: for(int i = 0;i < 4; i++)
  8692  09ED  0020               	movlb	0	; select bank0
  8693  09EE  01B7               	clrf	led1_command@i_624
  8694  09EF  01B8               	clrf	led1_command@i_624+1
  8695  09F0  0838               	movf	led1_command@i_624+1,w
  8696  09F1  3A80               	xorlw	128
  8697  09F2  00B2               	movwf	??_led1_command
  8698  09F3  3080               	movlw	128
  8699  09F4  0232               	subwf	??_led1_command,w
  8700  09F5  1D03               	skipz
  8701  09F6  29F9               	goto	u1305
  8702  09F7  3004               	movlw	4
  8703  09F8  0237               	subwf	led1_command@i_624,w
  8704  09F9                     u1305:	
  8705  09F9  1803               	btfsc	3,0
  8706  09FA  2A0F               	goto	l2593
  8707  09FB                     l2587:	
  8708                           
  8709                           ;lighting.c: 615: {
  8710                           ;lighting.c: 616: writespi(0xFF);
  8711  09FB  30FF               	movlw	255
  8712  09FC  3192  226D  3189   	fcall	_writespi
  8713  09FF  3001               	movlw	1
  8714  0A00  0020               	movlb	0	; select bank0
  8715  0A01  07B7               	addwf	led1_command@i_624,f
  8716  0A02  3000               	movlw	0
  8717  0A03  3DB8               	addwfc	led1_command@i_624+1,f
  8718  0A04  0838               	movf	led1_command@i_624+1,w
  8719  0A05  3A80               	xorlw	128
  8720  0A06  00B2               	movwf	??_led1_command
  8721  0A07  3080               	movlw	128
  8722  0A08  0232               	subwf	??_led1_command,w
  8723  0A09  1D03               	skipz
  8724  0A0A  2A0D               	goto	u1315
  8725  0A0B  3004               	movlw	4
  8726  0A0C  0237               	subwf	led1_command@i_624,w
  8727  0A0D                     u1315:	
  8728  0A0D  1C03               	skipc
  8729  0A0E  29FB               	goto	l2587
  8730  0A0F                     l2593:	
  8731                           
  8732                           ;lighting.c: 617: }
  8733                           ;lighting.c: 618: _delay((unsigned long)((20)*(32000000/4000.0)));
  8734  0A0F  30D0               	movlw	208
  8735  0A10  0020               	movlb	0	; select bank0
  8736  0A11  00B3               	movwf	??_led1_command+1
  8737  0A12  30C9               	movlw	201
  8738  0A13  00B2               	movwf	??_led1_command
  8739  0A14                     u2847:	
  8740  0A14  0BB2               	decfsz	??_led1_command,f
  8741  0A15  2A14               	goto	u2847
  8742  0A16  0BB3               	decfsz	??_led1_command+1,f
  8743  0A17  2A14               	goto	u2847
  8744  0A18  3200               	nop2
  8745  0A19  0008               	return
  8746  0A1A                     __end_of_led1_command:	
  8747                           
  8748                           	psect	text20
  8749  126D                     __ptext20:	
  8750 ;; *************** function _writespi *****************
  8751 ;; Defined at:
  8752 ;;		line 534 in file "../../source/lighting.c"
  8753 ;; Parameters:    Size  Location     Type
  8754 ;;  data_out        1    wreg     unsigned char 
  8755 ;; Auto vars:     Size  Location     Type
  8756 ;;  data_out        1   14[BANK0 ] unsigned char 
  8757 ;;  TempVar         1   13[BANK0 ] unsigned char 
  8758 ;; Return value:  Size  Location     Type
  8759 ;;		None               void
  8760 ;; Registers used:
  8761 ;;		wreg
  8762 ;; Tracked objects:
  8763 ;;		On entry : 0/0
  8764 ;;		On exit  : 0/0
  8765 ;;		Unchanged: 0/0
  8766 ;; Data sizes:     COMMON   BANK0   BANK1   BANK2   BANK3   BANK4   BANK5   BANK6   BANK7   BANK8   BANK9  BANK10  BANK1
      +1  BANK12  BANK13  BANK14  BANK15  BANK16  BANK17  BANK18  BANK19  BANK20  BANK21  BANK22  BANK23  BANK24  BANK25
  8767 ;;      Params:         0       0       0       0       0       0       0       0       0       0       0       0       
      +0       0       0       0       0       0       0       0       0       0       0       0       0       0       0
  8768 ;;      Locals:         0       2       0       0       0       0       0       0       0       0       0       0       
      +0       0       0       0       0       0       0       0       0       0       0       0       0       0       0
  8769 ;;      Temps:          0       1       0       0       0       0       0       0       0       0       0       0       
      +0       0       0       0       0       0       0       0       0       0       0       0       0       0       0
  8770 ;;      Totals:         0       3       0       0       0       0       0       0       0       0       0       0       
      +0       0       0       0       0       0       0       0       0       0       0       0       0       0       0
  8771 ;;Total ram usage:        3 bytes
  8772 ;; Hardware stack levels used:    1
  8773 ;; Hardware stack levels required when called:    4
  8774 ;; This function calls:
  8775 ;;		Nothing
  8776 ;; This function is called by:
  8777 ;;		_led_start
  8778 ;;		_led_end
  8779 ;;		_led_command
  8780 ;;		_led1_command
  8781 ;;		_led2_command
  8782 ;;		_led3_command
  8783 ;;		_led4_command
  8784 ;;		_led5_command
  8785 ;;		_leds_off
  8786 ;;		_led6_command
  8787 ;;		_led7_command
  8788 ;; This function uses a non-reentrant model
  8789 ;;
  8790                           
  8791                           
  8792                           ;psect for function _writespi
  8793  126D                     _writespi:	
  8794                           
  8795                           ;incstack = 0
  8796                           ; Regs used in _writespi: [wreg]
  8797                           ;writespi@data_out stored from wreg
  8798  126D  0020               	movlb	0	; select bank0
  8799  126E  00AE               	movwf	writespi@data_out
  8800                           
  8801                           ;lighting.c: 536: unsigned char TempVar;
  8802                           ;lighting.c: 537: TempVar = SSPBUF;
  8803  126F  0024               	movlb	4	; select bank4
  8804  1270  0811               	movf	17,w	;volatile
  8805  1271  0020               	movlb	0	; select bank0
  8806  1272  00AC               	movwf	??_writespi
  8807  1273  082C               	movf	??_writespi,w
  8808  1274  00AD               	movwf	writespi@TempVar
  8809                           
  8810                           ;lighting.c: 538: PIR1bits.SSP1IF = 0;
  8811  1275  1191               	bcf	17,3	;volatile
  8812                           
  8813                           ;lighting.c: 539: SSPCON1bits.WCOL = 0;
  8814  1276  0024               	movlb	4	; select bank4
  8815  1277  1395               	bcf	21,7	;volatile
  8816                           
  8817                           ;lighting.c: 540: SSPBUF = data_out;
  8818  1278  0020               	movlb	0	; select bank0
  8819  1279  082E               	movf	writespi@data_out,w
  8820  127A  0024               	movlb	4	; select bank4
  8821  127B  0091               	movwf	17	;volatile
  8822  127C                     l593:	
  8823                           ;lighting.c: 545: while( !PIR1bits.SSP1IF );
  8824                           
  8825  127C  0020               	movlb	0	; select bank0
  8826  127D  1991               	btfsc	17,3	;volatile
  8827  127E  0008               	return
  8828  127F  2A7C               	goto	l593
  8829  1280                     __end_of_writespi:	
  8830                           
  8831                           	psect	text21
  8832  0596                     __ptext21:	
  8833 ;; *************** function _determine_sword_was_swung *****************
  8834 ;; Defined at:
  8835 ;;		line 153 in file "../../source/accelerometer.c"
  8836 ;; Parameters:    Size  Location     Type
  8837 ;;		None
  8838 ;; Auto vars:     Size  Location     Type
  8839 ;;  z               2   36[BANK0 ] int 
  8840 ;;  y               2   34[BANK0 ] int 
  8841 ;;  x               2   32[BANK0 ] int 
  8842 ;;  z_neg_thresh    2   30[BANK0 ] int 
  8843 ;;  z_pos_thresh    2   28[BANK0 ] int 
  8844 ;;  y_neg_thresh    2   26[BANK0 ] int 
  8845 ;;  y_pos_thresh    2   24[BANK0 ] int 
  8846 ;;  x_neg_thresh    2   22[BANK0 ] int 
  8847 ;;  x_pos_thresh    2   20[BANK0 ] int 
  8848 ;;  zl              1   19[BANK0 ] unsigned char 
  8849 ;;  yl              1   18[BANK0 ] unsigned char 
  8850 ;;  xl              1   17[BANK0 ] unsigned char 
  8851 ;;  zh              1   16[BANK0 ] unsigned char 
  8852 ;;  yh              1   15[BANK0 ] unsigned char 
  8853 ;;  xh              1   14[BANK0 ] unsigned char 
  8854 ;; Return value:  Size  Location     Type
  8855 ;;                  1    wreg      unsigned char 
  8856 ;; Registers used:
  8857 ;;		wreg, fsr0l, fsr0h, status,2, status,0, pclath
  8858 ;; Tracked objects:
  8859 ;;		On entry : 0/0
  8860 ;;		On exit  : 0/0
  8861 ;;		Unchanged: 0/0
  8862 ;; Data sizes:     COMMON   BANK0   BANK1   BANK2   BANK3   BANK4   BANK5   BANK6   BANK7   BANK8   BANK9  BANK10  BANK1
      +1  BANK12  BANK13  BANK14  BANK15  BANK16  BANK17  BANK18  BANK19  BANK20  BANK21  BANK22  BANK23  BANK24  BANK25
  8863 ;;      Params:         0       0       0       0       0       0       0       0       0       0       0       0       
      +0       0       0       0       0       0       0       0       0       0       0       0       0       0       0
  8864 ;;      Locals:         0      24       0       0       0       0       0       0       0       0       0       0       
      +0       0       0       0       0       0       0       0       0       0       0       0       0       0       0
  8865 ;;      Temps:          0       2       0       0       0       0       0       0       0       0       0       0       
      +0       0       0       0       0       0       0       0       0       0       0       0       0       0       0
  8866 ;;      Totals:         0      26       0       0       0       0       0       0       0       0       0       0       
      +0       0       0       0       0       0       0       0       0       0       0       0       0       0       0
  8867 ;;Total ram usage:       26 bytes
  8868 ;; Hardware stack levels used:    1
  8869 ;; Hardware stack levels required when called:    4
  8870 ;; This function calls:
  8871 ;;		Nothing
  8872 ;; This function is called by:
  8873 ;;		_main
  8874 ;; This function uses a non-reentrant model
  8875 ;;
  8876                           
  8877                           
  8878                           ;psect for function _determine_sword_was_swung
  8879  0596                     _determine_sword_was_swung:	
  8880                           
  8881                           ;accelerometer.c: 156: if(RC7 == 1)
  8882                           
  8883                           ;incstack = 0
  8884                           ; Regs used in _determine_sword_was_swung: [wreg-fsr0h+status,2+status,0+pclath]
  8885  0596  0020               	movlb	0	; select bank0
  8886  0597  1F8E               	btfss	14,7	;volatile
  8887  0598  2D9B               	goto	l3333
  8888                           
  8889                           ;accelerometer.c: 157: {
  8890                           ;accelerometer.c: 158: return 1;
  8891  0599  3001               	movlw	1
  8892  059A  0008               	return
  8893  059B                     l3333:	
  8894                           
  8895                           ;accelerometer.c: 159: }
  8896                           ;accelerometer.c: 161: unsigned char xh = 0;
  8897  059B  01AE               	clrf	determine_sword_was_swung@xh
  8898                           
  8899                           ;accelerometer.c: 162: unsigned char yh = 0;
  8900  059C  01AF               	clrf	determine_sword_was_swung@yh
  8901                           
  8902                           ;accelerometer.c: 163: unsigned char zh = 0;
  8903  059D  01B0               	clrf	determine_sword_was_swung@zh
  8904                           
  8905                           ;accelerometer.c: 164: unsigned char xl = 0;
  8906  059E  01B1               	clrf	determine_sword_was_swung@xl
  8907                           
  8908                           ;accelerometer.c: 165: unsigned char yl = 0;
  8909  059F  01B2               	clrf	determine_sword_was_swung@yl
  8910                           
  8911                           ;accelerometer.c: 166: unsigned char zl = 0;
  8912  05A0  01B3               	clrf	determine_sword_was_swung@zl
  8913                           
  8914                           ;accelerometer.c: 167: int16_t x = 0;
  8915  05A1  01C0               	clrf	determine_sword_was_swung@x
  8916  05A2  01C1               	clrf	determine_sword_was_swung@x+1
  8917                           
  8918                           ;accelerometer.c: 168: int16_t y = 0;
  8919  05A3  01C2               	clrf	determine_sword_was_swung@y
  8920  05A4  01C3               	clrf	determine_sword_was_swung@y+1
  8921                           
  8922                           ;accelerometer.c: 169: int16_t z = 0;
  8923  05A5  01C4               	clrf	determine_sword_was_swung@z
  8924  05A6  01C5               	clrf	determine_sword_was_swung@z+1
  8925                           
  8926                           ;accelerometer.c: 170: int x_pos_thresh = 0;
  8927  05A7  01B4               	clrf	determine_sword_was_swung@x_pos_thresh
  8928  05A8  01B5               	clrf	determine_sword_was_swung@x_pos_thresh+1
  8929                           
  8930                           ;accelerometer.c: 171: int x_neg_thresh = 0;
  8931  05A9  01B6               	clrf	determine_sword_was_swung@x_neg_thresh
  8932  05AA  01B7               	clrf	determine_sword_was_swung@x_neg_thresh+1
  8933                           
  8934                           ;accelerometer.c: 172: int y_pos_thresh = 0;
  8935  05AB  01B8               	clrf	determine_sword_was_swung@y_pos_thresh
  8936  05AC  01B9               	clrf	determine_sword_was_swung@y_pos_thresh+1
  8937                           
  8938                           ;accelerometer.c: 173: int y_neg_thresh = 0;
  8939  05AD  01BA               	clrf	determine_sword_was_swung@y_neg_thresh
  8940  05AE  01BB               	clrf	determine_sword_was_swung@y_neg_thresh+1
  8941                           
  8942                           ;accelerometer.c: 174: int z_pos_thresh = 0;
  8943  05AF  01BC               	clrf	determine_sword_was_swung@z_pos_thresh
  8944  05B0  01BD               	clrf	determine_sword_was_swung@z_pos_thresh+1
  8945                           
  8946                           ;accelerometer.c: 175: int z_neg_thresh = 0;
  8947  05B1  01BE               	clrf	determine_sword_was_swung@z_neg_thresh
  8948  05B2  01BF               	clrf	determine_sword_was_swung@z_neg_thresh+1
  8949                           
  8950                           ;accelerometer.c: 176: const int midpoint = 4096;
  8951                           ;accelerometer.c: 177: const int pos_shock_thresh = midpoint + 1000;
  8952                           ;accelerometer.c: 178: const int neg_shock_thresh = midpoint - 1000;
  8953                           ;accelerometer.c: 188: x_pos_thresh = midpoint + 2900;
  8954  05B3  3000               	movlw	low (determine_sword_was_swung@midpoint| (0+32768))
  8955  05B4  0084               	movwf	4
  8956  05B5  3098               	movlw	high (determine_sword_was_swung@midpoint| (0+32768))
  8957  05B6  0085               	movwf	5
  8958  05B7  3F00               	moviw [0]fsr0
  8959  05B8  00AC               	movwf	??_determine_sword_was_swung
  8960  05B9  3F01               	moviw [1]fsr0
  8961  05BA  00AD               	movwf	??_determine_sword_was_swung+1
  8962  05BB  082C               	movf	??_determine_sword_was_swung,w
  8963  05BC  3E54               	addlw	84
  8964  05BD  00B4               	movwf	determine_sword_was_swung@x_pos_thresh
  8965  05BE  300B               	movlw	11
  8966  05BF  3D2D               	addwfc	??_determine_sword_was_swung+1,w
  8967  05C0  00B5               	movwf	determine_sword_was_swung@x_pos_thresh+1
  8968                           
  8969                           ;accelerometer.c: 189: x_neg_thresh = midpoint - 2900;
  8970  05C1  3000               	movlw	low (determine_sword_was_swung@midpoint| (0+32768))
  8971  05C2  0084               	movwf	4
  8972  05C3  3098               	movlw	high (determine_sword_was_swung@midpoint| (0+32768))
  8973  05C4  0085               	movwf	5
  8974  05C5  3F00               	moviw [0]fsr0
  8975  05C6  00AC               	movwf	??_determine_sword_was_swung
  8976  05C7  3F01               	moviw [1]fsr0
  8977  05C8  00AD               	movwf	??_determine_sword_was_swung+1
  8978  05C9  082C               	movf	??_determine_sword_was_swung,w
  8979  05CA  3EAC               	addlw	172
  8980  05CB  00B6               	movwf	determine_sword_was_swung@x_neg_thresh
  8981  05CC  30F4               	movlw	244
  8982  05CD  3D2D               	addwfc	??_determine_sword_was_swung+1,w
  8983  05CE  00B7               	movwf	determine_sword_was_swung@x_neg_thresh+1
  8984                           
  8985                           ;accelerometer.c: 190: y_pos_thresh = midpoint + 2900;
  8986  05CF  3000               	movlw	low (determine_sword_was_swung@midpoint| (0+32768))
  8987  05D0  0084               	movwf	4
  8988  05D1  3098               	movlw	high (determine_sword_was_swung@midpoint| (0+32768))
  8989  05D2  0085               	movwf	5
  8990  05D3  3F00               	moviw [0]fsr0
  8991  05D4  00AC               	movwf	??_determine_sword_was_swung
  8992  05D5  3F01               	moviw [1]fsr0
  8993  05D6  00AD               	movwf	??_determine_sword_was_swung+1
  8994  05D7  082C               	movf	??_determine_sword_was_swung,w
  8995  05D8  3E54               	addlw	84
  8996  05D9  00B8               	movwf	determine_sword_was_swung@y_pos_thresh
  8997  05DA  300B               	movlw	11
  8998  05DB  3D2D               	addwfc	??_determine_sword_was_swung+1,w
  8999  05DC  00B9               	movwf	determine_sword_was_swung@y_pos_thresh+1
  9000                           
  9001                           ;accelerometer.c: 191: y_neg_thresh = midpoint - 2900;
  9002  05DD  3000               	movlw	low (determine_sword_was_swung@midpoint| (0+32768))
  9003  05DE  0084               	movwf	4
  9004  05DF  3098               	movlw	high (determine_sword_was_swung@midpoint| (0+32768))
  9005  05E0  0085               	movwf	5
  9006  05E1  3F00               	moviw [0]fsr0
  9007  05E2  00AC               	movwf	??_determine_sword_was_swung
  9008  05E3  3F01               	moviw [1]fsr0
  9009  05E4  00AD               	movwf	??_determine_sword_was_swung+1
  9010  05E5  082C               	movf	??_determine_sword_was_swung,w
  9011  05E6  3EAC               	addlw	172
  9012  05E7  00BA               	movwf	determine_sword_was_swung@y_neg_thresh
  9013  05E8  30F4               	movlw	244
  9014  05E9  3D2D               	addwfc	??_determine_sword_was_swung+1,w
  9015  05EA  00BB               	movwf	determine_sword_was_swung@y_neg_thresh+1
  9016                           
  9017                           ;accelerometer.c: 192: z_pos_thresh = midpoint + 2900;
  9018  05EB  3000               	movlw	low (determine_sword_was_swung@midpoint| (0+32768))
  9019  05EC  0084               	movwf	4
  9020  05ED  3098               	movlw	high (determine_sword_was_swung@midpoint| (0+32768))
  9021  05EE  0085               	movwf	5
  9022  05EF  3F00               	moviw [0]fsr0
  9023  05F0  00AC               	movwf	??_determine_sword_was_swung
  9024  05F1  3F01               	moviw [1]fsr0
  9025  05F2  00AD               	movwf	??_determine_sword_was_swung+1
  9026  05F3  082C               	movf	??_determine_sword_was_swung,w
  9027  05F4  3E54               	addlw	84
  9028  05F5  00BC               	movwf	determine_sword_was_swung@z_pos_thresh
  9029  05F6  300B               	movlw	11
  9030  05F7  3D2D               	addwfc	??_determine_sword_was_swung+1,w
  9031  05F8  00BD               	movwf	determine_sword_was_swung@z_pos_thresh+1
  9032                           
  9033                           ;accelerometer.c: 193: z_neg_thresh = midpoint - 2900;
  9034  05F9  3000               	movlw	low (determine_sword_was_swung@midpoint| (0+32768))
  9035  05FA  0084               	movwf	4
  9036  05FB  3098               	movlw	high (determine_sword_was_swung@midpoint| (0+32768))
  9037  05FC  0085               	movwf	5
  9038  05FD  3F00               	moviw [0]fsr0
  9039  05FE  00AC               	movwf	??_determine_sword_was_swung
  9040  05FF  3F01               	moviw [1]fsr0
  9041  0600  00AD               	movwf	??_determine_sword_was_swung+1
  9042  0601  082C               	movf	??_determine_sword_was_swung,w
  9043  0602  3EAC               	addlw	172
  9044  0603  00BE               	movwf	determine_sword_was_swung@z_neg_thresh
  9045  0604  30F4               	movlw	244
  9046  0605  3D2D               	addwfc	??_determine_sword_was_swung+1,w
  9047  0606  00BF               	movwf	determine_sword_was_swung@z_neg_thresh+1
  9048                           
  9049                           ;accelerometer.c: 211: ADCON0 = 0b00001001;
  9050  0607  3009               	movlw	9
  9051  0608  0021               	movlb	1	; select bank1
  9052  0609  009D               	movwf	29	;volatile
  9053                           
  9054                           ;accelerometer.c: 212: _delay((unsigned long)((100)*(32000000/4000000.0)));
  9055  060A  30C7               	movlw	199
  9056  060B  0020               	movlb	0	; select bank0
  9057  060C  00AC               	movwf	??_determine_sword_was_swung
  9058  060D                     u2857:	
  9059  060D  0000               	nop
  9060  060E  0BAC               	decfsz	??_determine_sword_was_swung,f
  9061  060F  2E0D               	goto	u2857
  9062  0610  3200               	nop2	;nop
  9063  0611  0000               	nop
  9064                           
  9065                           ;accelerometer.c: 213: ADGO = 1;
  9066  0612  0021               	movlb	1	; select bank1
  9067  0613  149D               	bsf	29,1	;volatile
  9068  0614                     l300:	
  9069                           ;accelerometer.c: 215: {
  9070                           ;accelerometer.c: 216: continue;
  9071                           
  9072                           ;accelerometer.c: 214: while(ADGO)
  9073                           
  9074  0614  189D               	btfsc	29,1	;volatile
  9075  0615  2E14               	goto	l300
  9076                           
  9077                           ;accelerometer.c: 217: }
  9078                           ;accelerometer.c: 218: x = ADRES;
  9079  0616  081C               	movf	28,w	;volatile
  9080  0617  0020               	movlb	0	; select bank0
  9081  0618  00C1               	movwf	determine_sword_was_swung@x+1
  9082  0619  0021               	movlb	1	; select bank1
  9083  061A  081B               	movf	27,w	;volatile
  9084  061B  0020               	movlb	0	; select bank0
  9085  061C  00C0               	movwf	determine_sword_was_swung@x
  9086                           
  9087                           ;accelerometer.c: 222: ADCON0 = 0b00001101;
  9088  061D  300D               	movlw	13
  9089  061E  0021               	movlb	1	; select bank1
  9090  061F  009D               	movwf	29	;volatile
  9091                           
  9092                           ;accelerometer.c: 223: _delay((unsigned long)((100)*(32000000/4000000.0)));
  9093  0620  30C7               	movlw	199
  9094  0621  0020               	movlb	0	; select bank0
  9095  0622  00AC               	movwf	??_determine_sword_was_swung
  9096  0623                     u2867:	
  9097  0623  0000               	nop
  9098  0624  0BAC               	decfsz	??_determine_sword_was_swung,f
  9099  0625  2E23               	goto	u2867
  9100  0626  3200               	nop2	;nop
  9101  0627  0000               	nop
  9102                           
  9103                           ;accelerometer.c: 224: ADGO = 1;
  9104  0628  0021               	movlb	1	; select bank1
  9105  0629  149D               	bsf	29,1	;volatile
  9106  062A                     l303:	
  9107                           ;accelerometer.c: 226: {
  9108                           ;accelerometer.c: 227: continue;
  9109                           
  9110                           ;accelerometer.c: 225: while(ADGO)
  9111                           
  9112  062A  189D               	btfsc	29,1	;volatile
  9113  062B  2E2A               	goto	l303
  9114                           
  9115                           ;accelerometer.c: 228: }
  9116                           ;accelerometer.c: 229: y = ADRES;
  9117  062C  081C               	movf	28,w	;volatile
  9118  062D  0020               	movlb	0	; select bank0
  9119  062E  00C3               	movwf	determine_sword_was_swung@y+1
  9120  062F  0021               	movlb	1	; select bank1
  9121  0630  081B               	movf	27,w	;volatile
  9122  0631  0020               	movlb	0	; select bank0
  9123  0632  00C2               	movwf	determine_sword_was_swung@y
  9124                           
  9125                           ;accelerometer.c: 232: ADCON0 = 0b00010101;
  9126  0633  3015               	movlw	21
  9127  0634  0021               	movlb	1	; select bank1
  9128  0635  009D               	movwf	29	;volatile
  9129                           
  9130                           ;accelerometer.c: 233: _delay((unsigned long)((100)*(32000000/4000000.0)));
  9131  0636  30C7               	movlw	199
  9132  0637  0020               	movlb	0	; select bank0
  9133  0638  00AC               	movwf	??_determine_sword_was_swung
  9134  0639                     u2877:	
  9135  0639  0000               	nop
  9136  063A  0BAC               	decfsz	??_determine_sword_was_swung,f
  9137  063B  2E39               	goto	u2877
  9138  063C  3200               	nop2	;nop
  9139  063D  0000               	nop
  9140                           
  9141                           ;accelerometer.c: 234: ADGO = 1;
  9142  063E  0021               	movlb	1	; select bank1
  9143  063F  149D               	bsf	29,1	;volatile
  9144  0640                     l306:	
  9145                           ;accelerometer.c: 236: {
  9146                           ;accelerometer.c: 237: continue;
  9147                           
  9148                           ;accelerometer.c: 235: while(ADGO)
  9149                           
  9150  0640  189D               	btfsc	29,1	;volatile
  9151  0641  2E40               	goto	l306
  9152                           
  9153                           ;accelerometer.c: 238: }
  9154                           ;accelerometer.c: 239: z = ADRES;
  9155  0642  081C               	movf	28,w	;volatile
  9156  0643  0020               	movlb	0	; select bank0
  9157  0644  00C5               	movwf	determine_sword_was_swung@z+1
  9158  0645  0021               	movlb	1	; select bank1
  9159  0646  081B               	movf	27,w	;volatile
  9160  0647  0020               	movlb	0	; select bank0
  9161  0648  00C4               	movwf	determine_sword_was_swung@z
  9162                           
  9163                           ;accelerometer.c: 242: if( (( x > x_pos_thresh ) || ( x < x_neg_thresh )
  9164                           ;accelerometer.c: 243: || ( y > y_pos_thresh ) || ( y < y_neg_thresh )
  9165                           ;accelerometer.c: 244: || ( z > z_pos_thresh ) || ( z < z_neg_thresh ))
  9166                           ;accelerometer.c: 250: )
  9167  0649  0835               	movf	determine_sword_was_swung@x_pos_thresh+1,w
  9168  064A  3A80               	xorlw	128
  9169  064B  00AC               	movwf	??_determine_sword_was_swung
  9170  064C  0841               	movf	determine_sword_was_swung@x+1,w
  9171  064D  3A80               	xorlw	128
  9172  064E  022C               	subwf	??_determine_sword_was_swung,w
  9173  064F  1D03               	skipz
  9174  0650  2E53               	goto	u1905
  9175  0651  0840               	movf	determine_sword_was_swung@x,w
  9176  0652  0234               	subwf	determine_sword_was_swung@x_pos_thresh,w
  9177  0653                     u1905:	
  9178  0653  1C03               	skipc
  9179  0654  2E96               	goto	l3373
  9180  0655  0020               	movlb	0	; select bank0
  9181  0656  0841               	movf	determine_sword_was_swung@x+1,w
  9182  0657  3A80               	xorlw	128
  9183  0658  00AC               	movwf	??_determine_sword_was_swung
  9184  0659  0837               	movf	determine_sword_was_swung@x_neg_thresh+1,w
  9185  065A  3A80               	xorlw	128
  9186  065B  022C               	subwf	??_determine_sword_was_swung,w
  9187  065C  1D03               	skipz
  9188  065D  2E60               	goto	u1915
  9189  065E  0836               	movf	determine_sword_was_swung@x_neg_thresh,w
  9190  065F  0240               	subwf	determine_sword_was_swung@x,w
  9191  0660                     u1915:	
  9192  0660  1C03               	skipc
  9193  0661  2E96               	goto	l3373
  9194  0662  0020               	movlb	0	; select bank0
  9195  0663  0839               	movf	determine_sword_was_swung@y_pos_thresh+1,w
  9196  0664  3A80               	xorlw	128
  9197  0665  00AC               	movwf	??_determine_sword_was_swung
  9198  0666  0843               	movf	determine_sword_was_swung@y+1,w
  9199  0667  3A80               	xorlw	128
  9200  0668  022C               	subwf	??_determine_sword_was_swung,w
  9201  0669  1D03               	skipz
  9202  066A  2E6D               	goto	u1925
  9203  066B  0842               	movf	determine_sword_was_swung@y,w
  9204  066C  0238               	subwf	determine_sword_was_swung@y_pos_thresh,w
  9205  066D                     u1925:	
  9206  066D  1C03               	skipc
  9207  066E  2E96               	goto	l3373
  9208  066F  0020               	movlb	0	; select bank0
  9209  0670  0843               	movf	determine_sword_was_swung@y+1,w
  9210  0671  3A80               	xorlw	128
  9211  0672  00AC               	movwf	??_determine_sword_was_swung
  9212  0673  083B               	movf	determine_sword_was_swung@y_neg_thresh+1,w
  9213  0674  3A80               	xorlw	128
  9214  0675  022C               	subwf	??_determine_sword_was_swung,w
  9215  0676  1D03               	skipz
  9216  0677  2E7A               	goto	u1935
  9217  0678  083A               	movf	determine_sword_was_swung@y_neg_thresh,w
  9218  0679  0242               	subwf	determine_sword_was_swung@y,w
  9219  067A                     u1935:	
  9220  067A  1C03               	skipc
  9221  067B  2E96               	goto	l3373
  9222  067C  0020               	movlb	0	; select bank0
  9223  067D  083D               	movf	determine_sword_was_swung@z_pos_thresh+1,w
  9224  067E  3A80               	xorlw	128
  9225  067F  00AC               	movwf	??_determine_sword_was_swung
  9226  0680  0845               	movf	determine_sword_was_swung@z+1,w
  9227  0681  3A80               	xorlw	128
  9228  0682  022C               	subwf	??_determine_sword_was_swung,w
  9229  0683  1D03               	skipz
  9230  0684  2E87               	goto	u1945
  9231  0685  0844               	movf	determine_sword_was_swung@z,w
  9232  0686  023C               	subwf	determine_sword_was_swung@z_pos_thresh,w
  9233  0687                     u1945:	
  9234  0687  1C03               	skipc
  9235  0688  2E96               	goto	l3373
  9236  0689  0020               	movlb	0	; select bank0
  9237  068A  0845               	movf	determine_sword_was_swung@z+1,w
  9238  068B  3A80               	xorlw	128
  9239  068C  00AC               	movwf	??_determine_sword_was_swung
  9240  068D  083F               	movf	determine_sword_was_swung@z_neg_thresh+1,w
  9241  068E  3A80               	xorlw	128
  9242  068F  022C               	subwf	??_determine_sword_was_swung,w
  9243  0690  1D03               	skipz
  9244  0691  2E94               	goto	u1955
  9245  0692  083E               	movf	determine_sword_was_swung@z_neg_thresh,w
  9246  0693  0244               	subwf	determine_sword_was_swung@z,w
  9247  0694                     u1955:	
  9248  0694  1803               	skipnc
  9249  0695  2E98               	goto	l3379
  9250  0696                     l3373:	
  9251                           
  9252                           ;accelerometer.c: 251: {
  9253                           ;accelerometer.c: 252: return 1;
  9254  0696  3001               	movlw	1
  9255                           
  9256                           ;accelerometer.c: 253: }
  9257  0697  0008               	return
  9258  0698                     l3379:	
  9259                           
  9260                           ;accelerometer.c: 254: else
  9261                           ;accelerometer.c: 255: {
  9262                           ;accelerometer.c: 256: return 0;
  9263  0698  3000               	movlw	0
  9264  0699  0008               	return
  9265  069A                     __end_of_determine_sword_was_swung:	
  9266                           
  9267                           	psect	text22
  9268  12EE                     __ptext22:	
  9269 ;; *************** function _determine_packets_to_send *****************
  9270 ;; Defined at:
  9271 ;;		line 14 in file "../../source/blade_connection.c"
  9272 ;; Parameters:    Size  Location     Type
  9273 ;;  packets         1    wreg     PTR unsigned char 
  9274 ;;		 -> main@pkt_arr(3), 
  9275 ;; Auto vars:     Size  Location     Type
  9276 ;;  packets         1   13[BANK0 ] PTR unsigned char 
  9277 ;;		 -> main@pkt_arr(3), 
  9278 ;; Return value:  Size  Location     Type
  9279 ;;		None               void
  9280 ;; Registers used:
  9281 ;;		wreg, fsr1l, fsr1h, status,2, status,0, pclath, cstack
  9282 ;; Tracked objects:
  9283 ;;		On entry : 0/0
  9284 ;;		On exit  : 0/0
  9285 ;;		Unchanged: 0/0
  9286 ;; Data sizes:     COMMON   BANK0   BANK1   BANK2   BANK3   BANK4   BANK5   BANK6   BANK7   BANK8   BANK9  BANK10  BANK1
      +1  BANK12  BANK13  BANK14  BANK15  BANK16  BANK17  BANK18  BANK19  BANK20  BANK21  BANK22  BANK23  BANK24  BANK25
  9287 ;;      Params:         0       0       0       0       0       0       0       0       0       0       0       0       
      +0       0       0       0       0       0       0       0       0       0       0       0       0       0       0
  9288 ;;      Locals:         0       1       0       0       0       0       0       0       0       0       0       0       
      +0       0       0       0       0       0       0       0       0       0       0       0       0       0       0
  9289 ;;      Temps:          0       1       0       0       0       0       0       0       0       0       0       0       
      +0       0       0       0       0       0       0       0       0       0       0       0       0       0       0
  9290 ;;      Totals:         0       2       0       0       0       0       0       0       0       0       0       0       
      +0       0       0       0       0       0       0       0       0       0       0       0       0       0       0
  9291 ;;Total ram usage:        2 bytes
  9292 ;; Hardware stack levels used:    1
  9293 ;; Hardware stack levels required when called:    5
  9294 ;; This function calls:
  9295 ;;		_determine_omega_mode_active
  9296 ;; This function is called by:
  9297 ;;		_main
  9298 ;; This function uses a non-reentrant model
  9299 ;;
  9300                           
  9301                           
  9302                           ;psect for function _determine_packets_to_send
  9303  12EE                     _determine_packets_to_send:	
  9304                           
  9305                           ;incstack = 0
  9306                           ; Regs used in _determine_packets_to_send: [wreg+fsr1l+fsr1h+status,2+status,0+pclath+cs
      +                          tack]
  9307                           ;determine_packets_to_send@packets stored from wreg
  9308  12EE  0020               	movlb	0	; select bank0
  9309  12EF  00AD               	movwf	determine_packets_to_send@packets
  9310                           
  9311                           ;blade_connection.c: 16: if(determine_omega_mode_active())
  9312  12F0  3192  2238  3192   	fcall	_determine_omega_mode_active
  9313  12F3  3A00               	xorlw	0
  9314  12F4  1903               	skipnz
  9315  12F5  2B05               	goto	l3487
  9316                           
  9317                           ;blade_connection.c: 17: {
  9318                           ;blade_connection.c: 24: packets[0] = 0;
  9319  12F6  0020               	movlb	0	; select bank0
  9320  12F7  082D               	movf	determine_packets_to_send@packets,w
  9321  12F8  0086               	movwf	6
  9322  12F9  0187               	clrf	7
  9323  12FA  0181               	clrf	1
  9324                           
  9325                           ;blade_connection.c: 25: packets[1] = 0;
  9326  12FB  0A2D               	incf	determine_packets_to_send@packets,w
  9327  12FC  0086               	movwf	6
  9328  12FD  0187               	clrf	7
  9329  12FE  0181               	clrf	1
  9330                           
  9331                           ;blade_connection.c: 26: packets[2] = 0;
  9332  12FF  082D               	movf	determine_packets_to_send@packets,w
  9333  1300  3E02               	addlw	2
  9334  1301  0086               	movwf	6
  9335  1302  0187               	clrf	7
  9336  1303  0181               	clrf	1
  9337                           
  9338                           ;blade_connection.c: 37: }
  9339  1304  0008               	return
  9340  1305                     l3487:	
  9341                           
  9342                           ;blade_connection.c: 38: else
  9343                           ;blade_connection.c: 39: {
  9344                           ;blade_connection.c: 46: packets[0] = 0;
  9345  1305  0020               	movlb	0	; select bank0
  9346  1306  082D               	movf	determine_packets_to_send@packets,w
  9347  1307  0086               	movwf	6
  9348  1308  0187               	clrf	7
  9349  1309  0181               	clrf	1
  9350                           
  9351                           ;blade_connection.c: 47: packets[1] = 0;
  9352  130A  0A2D               	incf	determine_packets_to_send@packets,w
  9353  130B  0086               	movwf	6
  9354  130C  0187               	clrf	7
  9355  130D  0181               	clrf	1
  9356                           
  9357                           ;blade_connection.c: 48: packets[2] = 10;
  9358  130E  300A               	movlw	10
  9359  130F  00AC               	movwf	??_determine_packets_to_send
  9360  1310  082D               	movf	determine_packets_to_send@packets,w
  9361  1311  3E02               	addlw	2
  9362  1312  0086               	movwf	6
  9363  1313  0187               	clrf	7
  9364  1314  082C               	movf	??_determine_packets_to_send,w
  9365  1315  0081               	movwf	1
  9366  1316  0008               	return
  9367  1317                     __end_of_determine_packets_to_send:	
  9368                           ;blade_connection.c: 59: }
  9369                           ;blade_connection.c: 61: return;
  9370                           
  9371                           
  9372                           	psect	text23
  9373  1238                     __ptext23:	
  9374 ;; *************** function _determine_omega_mode_active *****************
  9375 ;; Defined at:
  9376 ;;		line 9 in file "../../source/blade_connection.c"
  9377 ;; Parameters:    Size  Location     Type
  9378 ;;		None
  9379 ;; Auto vars:     Size  Location     Type
  9380 ;;		None
  9381 ;; Return value:  Size  Location     Type
  9382 ;;                  1    wreg      unsigned char 
  9383 ;; Registers used:
  9384 ;;		wreg
  9385 ;; Tracked objects:
  9386 ;;		On entry : 0/0
  9387 ;;		On exit  : 0/0
  9388 ;;		Unchanged: 0/0
  9389 ;; Data sizes:     COMMON   BANK0   BANK1   BANK2   BANK3   BANK4   BANK5   BANK6   BANK7   BANK8   BANK9  BANK10  BANK1
      +1  BANK12  BANK13  BANK14  BANK15  BANK16  BANK17  BANK18  BANK19  BANK20  BANK21  BANK22  BANK23  BANK24  BANK25
  9390 ;;      Params:         0       0       0       0       0       0       0       0       0       0       0       0       
      +0       0       0       0       0       0       0       0       0       0       0       0       0       0       0
  9391 ;;      Locals:         0       0       0       0       0       0       0       0       0       0       0       0       
      +0       0       0       0       0       0       0       0       0       0       0       0       0       0       0
  9392 ;;      Temps:          0       0       0       0       0       0       0       0       0       0       0       0       
      +0       0       0       0       0       0       0       0       0       0       0       0       0       0       0
  9393 ;;      Totals:         0       0       0       0       0       0       0       0       0       0       0       0       
      +0       0       0       0       0       0       0       0       0       0       0       0       0       0       0
  9394 ;;Total ram usage:        0 bytes
  9395 ;; Hardware stack levels used:    1
  9396 ;; Hardware stack levels required when called:    4
  9397 ;; This function calls:
  9398 ;;		Nothing
  9399 ;; This function is called by:
  9400 ;;		_main
  9401 ;;		_determine_packets_to_send
  9402 ;; This function uses a non-reentrant model
  9403 ;;
  9404                           
  9405                           
  9406                           ;psect for function _determine_omega_mode_active
  9407  1238                     _determine_omega_mode_active:	
  9408                           
  9409                           ;blade_connection.c: 11: return RA1;
  9410                           
  9411                           ;incstack = 0
  9412                           ; Regs used in _determine_omega_mode_active: [wreg]
  9413  1238  3000               	movlw	0
  9414  1239  0020               	movlb	0	; select bank0
  9415  123A  188C               	btfsc	12,1	;volatile
  9416  123B  3001               	movlw	1
  9417  123C  0008               	return
  9418  123D                     __end_of_determine_omega_mode_active:	
  9419                           
  9420                           	psect	intentry
  9421  0004                     __pintentry:	
  9422 ;; *************** function _isr *****************
  9423 ;; Defined at:
  9424 ;;		line 37 in file "../../source/interrupt.c"
  9425 ;; Parameters:    Size  Location     Type
  9426 ;;		None
  9427 ;; Auto vars:     Size  Location     Type
  9428 ;;		None
  9429 ;; Return value:  Size  Location     Type
  9430 ;;		None               void
  9431 ;; Registers used:
  9432 ;;		wreg, status,2, status,0, pclath, cstack
  9433 ;; Tracked objects:
  9434 ;;		On entry : 0/0
  9435 ;;		On exit  : 0/0
  9436 ;;		Unchanged: 0/0
  9437 ;; Data sizes:     COMMON   BANK0   BANK1   BANK2   BANK3   BANK4   BANK5   BANK6   BANK7   BANK8   BANK9  BANK10  BANK1
      +1  BANK12  BANK13  BANK14  BANK15  BANK16  BANK17  BANK18  BANK19  BANK20  BANK21  BANK22  BANK23  BANK24  BANK25
  9438 ;;      Params:         0       0       0       0       0       0       0       0       0       0       0       0       
      +0       0       0       0       0       0       0       0       0       0       0       0       0       0       0
  9439 ;;      Locals:         0       0       0       0       0       0       0       0       0       0       0       0       
      +0       0       0       0       0       0       0       0       0       0       0       0       0       0       0
  9440 ;;      Temps:          0       2       0       0       0       0       0       0       0       0       0       0       
      +0       0       0       0       0       0       0       0       0       0       0       0       0       0       0
  9441 ;;      Totals:         0       2       0       0       0       0       0       0       0       0       0       0       
      +0       0       0       0       0       0       0       0       0       0       0       0       0       0       0
  9442 ;;Total ram usage:        2 bytes
  9443 ;; Hardware stack levels used:    1
  9444 ;; Hardware stack levels required when called:    3
  9445 ;; This function calls:
  9446 ;;		i1_display_blade_lights
  9447 ;;		i1_display_health
  9448 ;; This function is called by:
  9449 ;;		Interrupt level 1
  9450 ;; This function uses a non-reentrant model
  9451 ;;
  9452                           
  9453  0004                     _isr:	
  9454                           
  9455                           ;incstack = 0
  9456                           ; Regs used in _isr: [wreg+status,2+status,0+pclath+cstack]
  9457  0004  147E               	bsf	126,0	;set compiler interrupt flag (level 1)
  9458  0005  3180               	pagesel	$
  9459  0006  0020               	movlb	0	; select bank0
  9460  0007  087F               	movf	127,w
  9461  0008  00AB               	movwf	??_isr+1
  9462                           
  9463                           ;interrupt.c: 39: TMR1 = 0;
  9464  0009  0196               	clrf	22	;volatile
  9465  000A  0197               	clrf	23	;volatile
  9466                           
  9467                           ;interrupt.c: 42: if (IOCAF1)
  9468  000B  0027               	movlb	7	; select bank7
  9469  000C  1C93               	btfss	19,1	;volatile
  9470  000D  281C               	goto	i1l178
  9471                           
  9472                           ;interrupt.c: 43: {
  9473                           ;interrupt.c: 45: IOCAF1 = 0;
  9474  000E  1093               	bcf	19,1	;volatile
  9475                           
  9476                           ;interrupt.c: 47: health = 50;
  9477  000F  3032               	movlw	50
  9478  0010  0020               	movlb	0	; select bank0
  9479  0011  00AA               	movwf	??_isr
  9480  0012  082A               	movf	??_isr,w
  9481  0013  00D7               	movwf	_health
  9482                           
  9483                           ;interrupt.c: 48: display_health();
  9484  0014  3193  23D0  3180   	fcall	i1_display_health
  9485                           
  9486                           ;interrupt.c: 49: display_blade_lights(2);
  9487  0017  3002               	movlw	2
  9488  0018  318C  2406  3180   	fcall	i1_display_blade_lights
  9489                           
  9490                           ;interrupt.c: 50: }
  9491  001B  2824               	goto	i1l181
  9492  001C                     i1l178:	
  9493                           
  9494                           ;interrupt.c: 52: else if (IOCAFbits.IOCAF4)
  9495  001C  1E13               	btfss	19,4	;volatile
  9496  001D  2824               	goto	i1l181
  9497                           
  9498                           ;interrupt.c: 53: {
  9499                           ;interrupt.c: 54: IOCAF &= 0b11101111;
  9500  001E  30EF               	movlw	239
  9501  001F  0020               	movlb	0	; select bank0
  9502  0020  00AA               	movwf	??_isr
  9503  0021  082A               	movf	??_isr,w
  9504  0022  0027               	movlb	7	; select bank7
  9505  0023  0593               	andwf	19,f	;volatile
  9506  0024                     i1l181:	
  9507  0024  0020               	movlb	0	; select bank0
  9508  0025  082B               	movf	??_isr+1,w
  9509  0026  00FF               	movwf	127
  9510  0027  107E               	bcf	126,0	;clear compiler interrupt flag (level 1)
  9511  0028  0009               	retfie
  9512  0029                     __end_of_isr:	
  9513                           
  9514                           	psect	text25
  9515  13D0                     __ptext25:	
  9516 ;; *************** function i1_display_health *****************
  9517 ;; Defined at:
  9518 ;;		line 166 in file "../../source/lighting.c"
  9519 ;; Parameters:    Size  Location     Type
  9520 ;;		None
  9521 ;; Auto vars:     Size  Location     Type
  9522 ;;		None
  9523 ;; Return value:  Size  Location     Type
  9524 ;;		None               void
  9525 ;; Registers used:
  9526 ;;		wreg, status,2, status,0
  9527 ;; Tracked objects:
  9528 ;;		On entry : 0/0
  9529 ;;		On exit  : 0/0
  9530 ;;		Unchanged: 0/0
  9531 ;; Data sizes:     COMMON   BANK0   BANK1   BANK2   BANK3   BANK4   BANK5   BANK6   BANK7   BANK8   BANK9  BANK10  BANK1
      +1  BANK12  BANK13  BANK14  BANK15  BANK16  BANK17  BANK18  BANK19  BANK20  BANK21  BANK22  BANK23  BANK24  BANK25
  9532 ;;      Params:         0       0       0       0       0       0       0       0       0       0       0       0       
      +0       0       0       0       0       0       0       0       0       0       0       0       0       0       0
  9533 ;;      Locals:         0       0       0       0       0       0       0       0       0       0       0       0       
      +0       0       0       0       0       0       0       0       0       0       0       0       0       0       0
  9534 ;;      Temps:          3       0       0       0       0       0       0       0       0       0       0       0       
      +0       0       0       0       0       0       0       0       0       0       0       0       0       0       0
  9535 ;;      Totals:         3       0       0       0       0       0       0       0       0       0       0       0       
      +0       0       0       0       0       0       0       0       0       0       0       0       0       0       0
  9536 ;;Total ram usage:        3 bytes
  9537 ;; Hardware stack levels used:    1
  9538 ;; This function calls:
  9539 ;;		Nothing
  9540 ;; This function is called by:
  9541 ;;		_isr
  9542 ;; This function uses a non-reentrant model
  9543 ;;
  9544                           
  9545                           
  9546                           ;psect for function i1_display_health
  9547  13D0                     i1_display_health:	
  9548  13D0                     i1l3583:	
  9549                           ;lighting.c: 168: while(health == 0)
  9550                           
  9551                           ;incstack = 0
  9552                           ; Regs used in i1_display_health: [wreg+status,2+status,0]
  9553                           
  9554  13D0  0020               	movlb	0	; select bank0
  9555  13D1  0857               	movf	_health,w
  9556  13D2  1D03               	btfss	3,2
  9557  13D3  2C19               	goto	i1l3585
  9558                           
  9559                           ;lighting.c: 169: {
  9560                           ;lighting.c: 172: PSMC2DCH = 0xFF;
  9561  13D4  30FF               	movlw	255
  9562  13D5  003D               	movlb	29	; select bank29
  9563  13D6  00C4               	movwf	68	;volatile
  9564                           
  9565                           ;lighting.c: 173: PSMC2DCL = 0xFF;
  9566  13D7  30FF               	movlw	255
  9567  13D8  00C3               	movwf	67	;volatile
  9568                           
  9569                           ;lighting.c: 174: PSMC2LD = 1;
  9570  13D9  1731               	bsf	49,6	;volatile
  9571                           
  9572                           ;lighting.c: 176: PSMC3DCH = 0xFF;
  9573  13DA  30FF               	movlw	255
  9574  13DB  00E4               	movwf	100	;volatile
  9575                           
  9576                           ;lighting.c: 177: PSMC3DCL = 0xFF;
  9577  13DC  30FF               	movlw	255
  9578  13DD  00E3               	movwf	99	;volatile
  9579                           
  9580                           ;lighting.c: 178: PSMC3LD = 1;
  9581  13DE  1751               	bsf	81,6	;volatile
  9582                           
  9583                           ;lighting.c: 180: PSMC4DCH = 0x00;
  9584  13DF  003E               	movlb	30	; select bank30
  9585  13E0  01A4               	clrf	36	;volatile
  9586                           
  9587                           ;lighting.c: 181: PSMC4DCL = 0x00;
  9588  13E1  01A3               	clrf	35	;volatile
  9589                           
  9590                           ;lighting.c: 182: PSMC4LD = 1;
  9591  13E2  1711               	bsf	17,6	;volatile
  9592                           
  9593                           ;lighting.c: 184: PSMC2LD = 1;
  9594  13E3  003D               	movlb	29	; select bank29
  9595  13E4  1731               	bsf	49,6	;volatile
  9596                           
  9597                           ;lighting.c: 185: PSMC3LD = 1;
  9598  13E5  1751               	bsf	81,6	;volatile
  9599                           
  9600                           ;lighting.c: 186: PSMC4LD = 1;
  9601  13E6  003E               	movlb	30	; select bank30
  9602  13E7  1711               	bsf	17,6	;volatile
  9603                           
  9604                           ;lighting.c: 188: _delay((unsigned long)((500)*(32000000/4000.0)));
  9605  13E8  3015               	movlw	21
  9606  13E9  00F2               	movwf	??i1_display_health+2
  9607  13EA  304B               	movlw	75
  9608  13EB  00F1               	movwf	??i1_display_health+1
  9609  13EC  30D1               	movlw	209
  9610  13ED  00F0               	movwf	??i1_display_health
  9611  13EE                     u288_27:	
  9612  13EE  0BF0               	decfsz	??i1_display_health,f
  9613  13EF  2BEE               	goto	u288_27
  9614  13F0  0BF1               	decfsz	??i1_display_health+1,f
  9615  13F1  2BEE               	goto	u288_27
  9616  13F2  0BF2               	decfsz	??i1_display_health+2,f
  9617  13F3  2BEE               	goto	u288_27
  9618  13F4  0000               	nop
  9619                           
  9620                           ;lighting.c: 192: PSMC2DCH = 0xFF;
  9621  13F5  30FF               	movlw	255
  9622  13F6  003D               	movlb	29	; select bank29
  9623  13F7  00C4               	movwf	68	;volatile
  9624                           
  9625                           ;lighting.c: 193: PSMC2DCL = 0xFF;
  9626  13F8  30FF               	movlw	255
  9627  13F9  00C3               	movwf	67	;volatile
  9628                           
  9629                           ;lighting.c: 194: PSMC2LD = 1;
  9630  13FA  1731               	bsf	49,6	;volatile
  9631                           
  9632                           ;lighting.c: 196: PSMC3DCH = 0xFF;
  9633  13FB  30FF               	movlw	255
  9634  13FC  00E4               	movwf	100	;volatile
  9635                           
  9636                           ;lighting.c: 197: PSMC3DCL = 0xFF;
  9637  13FD  30FF               	movlw	255
  9638  13FE  00E3               	movwf	99	;volatile
  9639                           
  9640                           ;lighting.c: 198: PSMC3LD = 1;
  9641  13FF  1751               	bsf	81,6	;volatile
  9642                           
  9643                           ;lighting.c: 200: PSMC4DCH = 0xFF;
  9644  1400  30FF               	movlw	255
  9645  1401  003E               	movlb	30	; select bank30
  9646  1402  00A4               	movwf	36	;volatile
  9647                           
  9648                           ;lighting.c: 201: PSMC4DCL = 0xFF;
  9649  1403  30FF               	movlw	255
  9650  1404  00A3               	movwf	35	;volatile
  9651                           
  9652                           ;lighting.c: 202: PSMC4LD = 1;
  9653  1405  1711               	bsf	17,6	;volatile
  9654                           
  9655                           ;lighting.c: 204: PSMC2LD = 1;
  9656  1406  003D               	movlb	29	; select bank29
  9657  1407  1731               	bsf	49,6	;volatile
  9658                           
  9659                           ;lighting.c: 205: PSMC3LD = 1;
  9660  1408  1751               	bsf	81,6	;volatile
  9661                           
  9662                           ;lighting.c: 206: PSMC4LD = 1;
  9663  1409  003E               	movlb	30	; select bank30
  9664  140A  1711               	bsf	17,6	;volatile
  9665                           
  9666                           ;lighting.c: 208: _delay((unsigned long)((500)*(32000000/4000.0)));
  9667  140B  3015               	movlw	21
  9668  140C  00F2               	movwf	??i1_display_health+2
  9669  140D  304B               	movlw	75
  9670  140E  00F1               	movwf	??i1_display_health+1
  9671  140F  30D1               	movlw	209
  9672  1410  00F0               	movwf	??i1_display_health
  9673  1411                     u289_27:	
  9674  1411  0BF0               	decfsz	??i1_display_health,f
  9675  1412  2C11               	goto	u289_27
  9676  1413  0BF1               	decfsz	??i1_display_health+1,f
  9677  1414  2C11               	goto	u289_27
  9678  1415  0BF2               	decfsz	??i1_display_health+2,f
  9679  1416  2C11               	goto	u289_27
  9680  1417  0000               	nop
  9681  1418  2BD0               	goto	i1l3583
  9682  1419                     i1l3585:	
  9683                           
  9684                           ;lighting.c: 209: }
  9685                           ;lighting.c: 211: if(health <= 10)
  9686  1419  300B               	movlw	11
  9687  141A  0257               	subwf	_health,w
  9688  141B  1803               	skipnc
  9689  141C  2C32               	goto	i1l3605
  9690                           
  9691                           ;lighting.c: 212: {
  9692                           ;lighting.c: 215: PSMC2DCH = 0xFF;
  9693  141D  30FF               	movlw	255
  9694  141E  003D               	movlb	29	; select bank29
  9695  141F  00C4               	movwf	68	;volatile
  9696                           
  9697                           ;lighting.c: 216: PSMC2DCL = 0xFF;
  9698  1420  30FF               	movlw	255
  9699  1421  00C3               	movwf	67	;volatile
  9700                           
  9701                           ;lighting.c: 217: PSMC2LD = 1;
  9702  1422  1731               	bsf	49,6	;volatile
  9703                           
  9704                           ;lighting.c: 219: PSMC3DCH = 0xFF;
  9705  1423  30FF               	movlw	255
  9706  1424  00E4               	movwf	100	;volatile
  9707                           
  9708                           ;lighting.c: 220: PSMC3DCL = 0xFF;
  9709  1425  30FF               	movlw	255
  9710  1426  00E3               	movwf	99	;volatile
  9711                           
  9712                           ;lighting.c: 221: PSMC3LD = 1;
  9713  1427  1751               	bsf	81,6	;volatile
  9714                           
  9715                           ;lighting.c: 223: PSMC4DCH = 0x00;
  9716  1428  003E               	movlb	30	; select bank30
  9717  1429  01A4               	clrf	36	;volatile
  9718                           
  9719                           ;lighting.c: 224: PSMC4DCL = 0x00;
  9720  142A  01A3               	clrf	35	;volatile
  9721                           
  9722                           ;lighting.c: 225: PSMC4LD = 1;
  9723  142B  1711               	bsf	17,6	;volatile
  9724                           
  9725                           ;lighting.c: 227: PSMC2LD = 1;
  9726  142C  003D               	movlb	29	; select bank29
  9727  142D  1731               	bsf	49,6	;volatile
  9728                           
  9729                           ;lighting.c: 228: PSMC3LD = 1;
  9730  142E  1751               	bsf	81,6	;volatile
  9731                           
  9732                           ;lighting.c: 229: PSMC4LD = 1;
  9733  142F  003E               	movlb	30	; select bank30
  9734  1430  1711               	bsf	17,6	;volatile
  9735                           
  9736                           ;lighting.c: 230: }
  9737  1431  0008               	return
  9738  1432                     i1l3605:	
  9739                           
  9740                           ;lighting.c: 231: else if(10 < health && health < 35)
  9741  1432  300B               	movlw	11
  9742  1433  0020               	movlb	0	; select bank0
  9743  1434  0257               	subwf	_health,w
  9744  1435  1C03               	skipc
  9745  1436  2C4F               	goto	i1l3629
  9746  1437  3023               	movlw	35
  9747  1438  0257               	subwf	_health,w
  9748  1439  1803               	skipnc
  9749  143A  2C4F               	goto	i1l3629
  9750                           
  9751                           ;lighting.c: 232: {
  9752                           ;lighting.c: 235: PSMC2DCH = 0x00;
  9753  143B  003D               	movlb	29	; select bank29
  9754  143C  01C4               	clrf	68	;volatile
  9755                           
  9756                           ;lighting.c: 236: PSMC2DCL = 0x00;
  9757  143D  01C3               	clrf	67	;volatile
  9758                           
  9759                           ;lighting.c: 237: PSMC2LD = 1;
  9760  143E  1731               	bsf	49,6	;volatile
  9761                           
  9762                           ;lighting.c: 239: PSMC3DCH = 0xFF;
  9763  143F  30FF               	movlw	255
  9764  1440  00E4               	movwf	100	;volatile
  9765                           
  9766                           ;lighting.c: 240: PSMC3DCL = 0xFF;
  9767  1441  30FF               	movlw	255
  9768  1442  00E3               	movwf	99	;volatile
  9769                           
  9770                           ;lighting.c: 241: PSMC3LD = 1;
  9771  1443  1751               	bsf	81,6	;volatile
  9772                           
  9773                           ;lighting.c: 243: PSMC4DCH = 0x00;
  9774  1444  003E               	movlb	30	; select bank30
  9775  1445  01A4               	clrf	36	;volatile
  9776                           
  9777                           ;lighting.c: 244: PSMC4DCL = 0xFF;
  9778  1446  30FF               	movlw	255
  9779  1447  00A3               	movwf	35	;volatile
  9780                           
  9781                           ;lighting.c: 245: PSMC4LD = 1;
  9782  1448  1711               	bsf	17,6	;volatile
  9783                           
  9784                           ;lighting.c: 247: PSMC2LD = 1;
  9785  1449  003D               	movlb	29	; select bank29
  9786  144A  1731               	bsf	49,6	;volatile
  9787                           
  9788                           ;lighting.c: 248: PSMC3LD = 1;
  9789  144B  1751               	bsf	81,6	;volatile
  9790                           
  9791                           ;lighting.c: 249: PSMC4LD = 1;
  9792  144C  003E               	movlb	30	; select bank30
  9793  144D  1711               	bsf	17,6	;volatile
  9794                           
  9795                           ;lighting.c: 250: }
  9796  144E  0008               	return
  9797  144F                     i1l3629:	
  9798                           
  9799                           ;lighting.c: 251: else
  9800                           ;lighting.c: 252: {
  9801                           ;lighting.c: 255: PSMC2DCH = 0x00;
  9802  144F  003D               	movlb	29	; select bank29
  9803  1450  01C4               	clrf	68	;volatile
  9804                           
  9805                           ;lighting.c: 256: PSMC2DCL = 0x00;
  9806  1451  01C3               	clrf	67	;volatile
  9807                           
  9808                           ;lighting.c: 257: PSMC2LD = 1;
  9809  1452  1731               	bsf	49,6	;volatile
  9810                           
  9811                           ;lighting.c: 259: PSMC3DCH = 0xFF;
  9812  1453  30FF               	movlw	255
  9813  1454  00E4               	movwf	100	;volatile
  9814                           
  9815                           ;lighting.c: 260: PSMC3DCL = 0xFF;
  9816  1455  30FF               	movlw	255
  9817  1456  00E3               	movwf	99	;volatile
  9818                           
  9819                           ;lighting.c: 261: PSMC3LD = 1;
  9820  1457  1751               	bsf	81,6	;volatile
  9821                           
  9822                           ;lighting.c: 263: PSMC4DCH = 0xFF;
  9823  1458  30FF               	movlw	255
  9824  1459  003E               	movlb	30	; select bank30
  9825  145A  00A4               	movwf	36	;volatile
  9826                           
  9827                           ;lighting.c: 264: PSMC4DCL = 0xFF;
  9828  145B  30FF               	movlw	255
  9829  145C  00A3               	movwf	35	;volatile
  9830                           
  9831                           ;lighting.c: 265: PSMC4LD = 1;
  9832  145D  1711               	bsf	17,6	;volatile
  9833                           
  9834                           ;lighting.c: 267: PSMC2LD = 1;
  9835  145E  003D               	movlb	29	; select bank29
  9836  145F  1731               	bsf	49,6	;volatile
  9837                           
  9838                           ;lighting.c: 268: PSMC3LD = 1;
  9839  1460  1751               	bsf	81,6	;volatile
  9840                           
  9841                           ;lighting.c: 269: PSMC4LD = 1;
  9842  1461  003E               	movlb	30	; select bank30
  9843  1462  1711               	bsf	17,6	;volatile
  9844  1463  0008               	return
  9845  1464                     __end_ofi1_display_health:	
  9846                           
  9847                           	psect	text26
  9848  0C06                     __ptext26:	
  9849 ;; *************** function i1_display_blade_lights *****************
  9850 ;; Defined at:
  9851 ;;		line 273 in file "../../source/lighting.c"
  9852 ;; Parameters:    Size  Location     Type
  9853 ;;  mode            1    wreg     unsigned char 
  9854 ;; Auto vars:     Size  Location     Type
  9855 ;;  mode            1    3[BANK0 ] unsigned char 
  9856 ;;  display_blad    1    9[BANK0 ] unsigned char 
  9857 ;;  display_blad    1    8[BANK0 ] unsigned char 
  9858 ;;  display_blad    1    7[BANK0 ] unsigned char 
  9859 ;;  display_blad    1    6[BANK0 ] unsigned char 
  9860 ;;  display_blad    1    5[BANK0 ] unsigned char 
  9861 ;;  display_blad    1    4[BANK0 ] unsigned char 
  9862 ;; Return value:  Size  Location     Type
  9863 ;;		None               void
  9864 ;; Registers used:
  9865 ;;		wreg, status,2, status,0, pclath, cstack
  9866 ;; Tracked objects:
  9867 ;;		On entry : 0/0
  9868 ;;		On exit  : 0/0
  9869 ;;		Unchanged: 0/0
  9870 ;; Data sizes:     COMMON   BANK0   BANK1   BANK2   BANK3   BANK4   BANK5   BANK6   BANK7   BANK8   BANK9  BANK10  BANK1
      +1  BANK12  BANK13  BANK14  BANK15  BANK16  BANK17  BANK18  BANK19  BANK20  BANK21  BANK22  BANK23  BANK24  BANK25
  9871 ;;      Params:         0       0       0       0       0       0       0       0       0       0       0       0       
      +0       0       0       0       0       0       0       0       0       0       0       0       0       0       0
  9872 ;;      Locals:         0       7       0       0       0       0       0       0       0       0       0       0       
      +0       0       0       0       0       0       0       0       0       0       0       0       0       0       0
  9873 ;;      Temps:          0       3       0       0       0       0       0       0       0       0       0       0       
      +0       0       0       0       0       0       0       0       0       0       0       0       0       0       0
  9874 ;;      Totals:         0      10       0       0       0       0       0       0       0       0       0       0       
      +0       0       0       0       0       0       0       0       0       0       0       0       0       0       0
  9875 ;;Total ram usage:       10 bytes
  9876 ;; Hardware stack levels used:    1
  9877 ;; Hardware stack levels required when called:    2
  9878 ;; This function calls:
  9879 ;;		i1_led1_command
  9880 ;;		i1_led2_command
  9881 ;;		i1_led3_command
  9882 ;;		i1_led4_command
  9883 ;;		i1_led5_command
  9884 ;;		i1_led_command
  9885 ;;		i1_led_end
  9886 ;;		i1_led_start
  9887 ;;		i1_leds_off
  9888 ;; This function is called by:
  9889 ;;		_isr
  9890 ;; This function uses a non-reentrant model
  9891 ;;
  9892                           
  9893                           
  9894                           ;psect for function i1_display_blade_lights
  9895  0C06                     i1_display_blade_lights:	
  9896                           
  9897                           ;incstack = 0
  9898                           ; Regs used in i1_display_blade_lights: [wreg+status,2+status,0+pclath+cstack]
  9899                           ;i1display_blade_lights@mode stored from wreg
  9900  0C06  0020               	movlb	0	; select bank0
  9901  0C07  00A3               	movwf	i1display_blade_lights@mode
  9902                           
  9903                           ;lighting.c: 275: unsigned char red = 0;
  9904  0C08  01A7               	clrf	i1display_blade_lights@red
  9905                           
  9906                           ;lighting.c: 276: unsigned char green = 0;
  9907  0C09  01A8               	clrf	i1display_blade_lights@green
  9908                           
  9909                           ;lighting.c: 277: unsigned char blue = 0;
  9910  0C0A  01A9               	clrf	i1display_blade_lights@blue
  9911                           
  9912                           ;lighting.c: 278: unsigned char brightness = 0xFF;
  9913  0C0B  30FF               	movlw	255
  9914  0C0C  00A0               	movwf	??i1_display_blade_lights
  9915  0C0D  0820               	movf	??i1_display_blade_lights,w
  9916  0C0E  00A6               	movwf	i1display_blade_lights@brightness
  9917                           
  9918                           ;lighting.c: 285: red = 0xFF;
  9919  0C0F  30FF               	movlw	255
  9920  0C10  00A0               	movwf	??i1_display_blade_lights
  9921  0C11  0820               	movf	??i1_display_blade_lights,w
  9922  0C12  00A7               	movwf	i1display_blade_lights@red
  9923                           
  9924                           ;lighting.c: 286: green = 0x2F;
  9925  0C13  302F               	movlw	47
  9926  0C14  00A0               	movwf	??i1_display_blade_lights
  9927  0C15  0820               	movf	??i1_display_blade_lights,w
  9928  0C16  00A8               	movwf	i1display_blade_lights@green
  9929                           
  9930                           ;lighting.c: 287: blue = 0x00;
  9931  0C17  01A9               	clrf	i1display_blade_lights@blue
  9932                           
  9933                           ;lighting.c: 298: if( (mode == 0)
  9934                           ;lighting.c: 299: || (mode == 1) )
  9935  0C18  0823               	movf	i1display_blade_lights@mode,w
  9936  0C19  1D03               	btfss	3,2
  9937  0C1A  0323               	decf	i1display_blade_lights@mode,w
  9938  0C1B  1D03               	btfss	3,2
  9939  0C1C  2CF1               	goto	i1l3695
  9940                           
  9941                           ;lighting.c: 300: {
  9942                           ;lighting.c: 302: led1_command(brightness, red, green, blue);
  9943  0C1D  0827               	movf	i1display_blade_lights@red,w
  9944  0C1E  00A0               	movwf	??i1_display_blade_lights
  9945  0C1F  0820               	movf	??i1_display_blade_lights,w
  9946  0C20  00F3               	movwf	i1led1_command@red
  9947  0C21  0828               	movf	i1display_blade_lights@green,w
  9948  0C22  00A1               	movwf	??i1_display_blade_lights+1
  9949  0C23  0821               	movf	??i1_display_blade_lights+1,w
  9950  0C24  00F4               	movwf	i1led1_command@green
  9951  0C25  0829               	movf	i1display_blade_lights@blue,w
  9952  0C26  00A2               	movwf	??i1_display_blade_lights+2
  9953  0C27  0822               	movf	??i1_display_blade_lights+2,w
  9954  0C28  00F5               	movwf	i1led1_command@blue
  9955  0C29  0826               	movf	i1display_blade_lights@brightness,w
  9956  0C2A  3195  2594  318C   	fcall	i1_led1_command
  9957                           
  9958                           ;lighting.c: 303: _delay((unsigned long)((50)*(32000000/4000.0)));
  9959  0C2D  3003               	movlw	3
  9960  0C2E  0020               	movlb	0	; select bank0
  9961  0C2F  00A2               	movwf	??i1_display_blade_lights+2
  9962  0C30  3008               	movlw	8
  9963  0C31  00A1               	movwf	??i1_display_blade_lights+1
  9964  0C32  3078               	movlw	120
  9965  0C33  00A0               	movwf	??i1_display_blade_lights
  9966  0C34                     u290_27:	
  9967  0C34  0BA0               	decfsz	??i1_display_blade_lights,f
  9968  0C35  2C34               	goto	u290_27
  9969  0C36  0BA1               	decfsz	??i1_display_blade_lights+1,f
  9970  0C37  2C34               	goto	u290_27
  9971  0C38  0BA2               	decfsz	??i1_display_blade_lights+2,f
  9972  0C39  2C34               	goto	u290_27
  9973                           
  9974                           ;lighting.c: 305: led2_command(brightness, red, green, blue);
  9975  0C3A  0020               	movlb	0	; select bank0
  9976  0C3B  0827               	movf	i1display_blade_lights@red,w
  9977  0C3C  00A0               	movwf	??i1_display_blade_lights
  9978  0C3D  0820               	movf	??i1_display_blade_lights,w
  9979  0C3E  00F3               	movwf	i1led2_command@red
  9980  0C3F  0828               	movf	i1display_blade_lights@green,w
  9981  0C40  00A1               	movwf	??i1_display_blade_lights+1
  9982  0C41  0821               	movf	??i1_display_blade_lights+1,w
  9983  0C42  00F4               	movwf	i1led2_command@green
  9984  0C43  0829               	movf	i1display_blade_lights@blue,w
  9985  0C44  00A2               	movwf	??i1_display_blade_lights+2
  9986  0C45  0822               	movf	??i1_display_blade_lights+2,w
  9987  0C46  00F5               	movwf	i1led2_command@blue
  9988  0C47  0826               	movf	i1display_blade_lights@brightness,w
  9989  0C48  3196  262F  318C   	fcall	i1_led2_command
  9990                           
  9991                           ;lighting.c: 306: _delay((unsigned long)((50)*(32000000/4000.0)));
  9992  0C4B  3003               	movlw	3
  9993  0C4C  0020               	movlb	0	; select bank0
  9994  0C4D  00A2               	movwf	??i1_display_blade_lights+2
  9995  0C4E  3008               	movlw	8
  9996  0C4F  00A1               	movwf	??i1_display_blade_lights+1
  9997  0C50  3078               	movlw	120
  9998  0C51  00A0               	movwf	??i1_display_blade_lights
  9999  0C52                     u291_27:	
 10000  0C52  0BA0               	decfsz	??i1_display_blade_lights,f
 10001  0C53  2C52               	goto	u291_27
 10002  0C54  0BA1               	decfsz	??i1_display_blade_lights+1,f
 10003  0C55  2C52               	goto	u291_27
 10004  0C56  0BA2               	decfsz	??i1_display_blade_lights+2,f
 10005  0C57  2C52               	goto	u291_27
 10006                           
 10007                           ;lighting.c: 308: led3_command(brightness, red, green, blue);
 10008  0C58  0020               	movlb	0	; select bank0
 10009  0C59  0827               	movf	i1display_blade_lights@red,w
 10010  0C5A  00A0               	movwf	??i1_display_blade_lights
 10011  0C5B  0820               	movf	??i1_display_blade_lights,w
 10012  0C5C  00F3               	movwf	i1led3_command@red
 10013  0C5D  0828               	movf	i1display_blade_lights@green,w
 10014  0C5E  00A1               	movwf	??i1_display_blade_lights+1
 10015  0C5F  0821               	movf	??i1_display_blade_lights+1,w
 10016  0C60  00F4               	movwf	i1led3_command@green
 10017  0C61  0829               	movf	i1display_blade_lights@blue,w
 10018  0C62  00A2               	movwf	??i1_display_blade_lights+2
 10019  0C63  0822               	movf	??i1_display_blade_lights+2,w
 10020  0C64  00F5               	movwf	i1led3_command@blue
 10021  0C65  0826               	movf	i1display_blade_lights@brightness,w
 10022  0C66  3196  26CA  318C   	fcall	i1_led3_command
 10023                           
 10024                           ;lighting.c: 309: _delay((unsigned long)((50)*(32000000/4000.0)));
 10025  0C69  3003               	movlw	3
 10026  0C6A  0020               	movlb	0	; select bank0
 10027  0C6B  00A2               	movwf	??i1_display_blade_lights+2
 10028  0C6C  3008               	movlw	8
 10029  0C6D  00A1               	movwf	??i1_display_blade_lights+1
 10030  0C6E  3078               	movlw	120
 10031  0C6F  00A0               	movwf	??i1_display_blade_lights
 10032  0C70                     u292_27:	
 10033  0C70  0BA0               	decfsz	??i1_display_blade_lights,f
 10034  0C71  2C70               	goto	u292_27
 10035  0C72  0BA1               	decfsz	??i1_display_blade_lights+1,f
 10036  0C73  2C70               	goto	u292_27
 10037  0C74  0BA2               	decfsz	??i1_display_blade_lights+2,f
 10038  0C75  2C70               	goto	u292_27
 10039                           
 10040                           ;lighting.c: 311: led4_command(brightness, red, green, blue);
 10041  0C76  0020               	movlb	0	; select bank0
 10042  0C77  0827               	movf	i1display_blade_lights@red,w
 10043  0C78  00A0               	movwf	??i1_display_blade_lights
 10044  0C79  0820               	movf	??i1_display_blade_lights,w
 10045  0C7A  00F3               	movwf	i1led4_command@red
 10046  0C7B  0828               	movf	i1display_blade_lights@green,w
 10047  0C7C  00A1               	movwf	??i1_display_blade_lights+1
 10048  0C7D  0821               	movf	??i1_display_blade_lights+1,w
 10049  0C7E  00F4               	movwf	i1led4_command@green
 10050  0C7F  0829               	movf	i1display_blade_lights@blue,w
 10051  0C80  00A2               	movwf	??i1_display_blade_lights+2
 10052  0C81  0822               	movf	??i1_display_blade_lights+2,w
 10053  0C82  00F5               	movwf	i1led4_command@blue
 10054  0C83  0826               	movf	i1display_blade_lights@brightness,w
 10055  0C84  3197  2765  318C   	fcall	i1_led4_command
 10056                           
 10057                           ;lighting.c: 312: _delay((unsigned long)((50)*(32000000/4000.0)));
 10058  0C87  3003               	movlw	3
 10059  0C88  0020               	movlb	0	; select bank0
 10060  0C89  00A2               	movwf	??i1_display_blade_lights+2
 10061  0C8A  3008               	movlw	8
 10062  0C8B  00A1               	movwf	??i1_display_blade_lights+1
 10063  0C8C  3078               	movlw	120
 10064  0C8D  00A0               	movwf	??i1_display_blade_lights
 10065  0C8E                     u293_27:	
 10066  0C8E  0BA0               	decfsz	??i1_display_blade_lights,f
 10067  0C8F  2C8E               	goto	u293_27
 10068  0C90  0BA1               	decfsz	??i1_display_blade_lights+1,f
 10069  0C91  2C8E               	goto	u293_27
 10070  0C92  0BA2               	decfsz	??i1_display_blade_lights+2,f
 10071  0C93  2C8E               	goto	u293_27
 10072                           
 10073                           ;lighting.c: 314: led5_command(brightness, red, green, blue);
 10074  0C94  0020               	movlb	0	; select bank0
 10075  0C95  0827               	movf	i1display_blade_lights@red,w
 10076  0C96  00A0               	movwf	??i1_display_blade_lights
 10077  0C97  0820               	movf	??i1_display_blade_lights,w
 10078  0C98  00F3               	movwf	i1led5_command@red
 10079  0C99  0828               	movf	i1display_blade_lights@green,w
 10080  0C9A  00A1               	movwf	??i1_display_blade_lights+1
 10081  0C9B  0821               	movf	??i1_display_blade_lights+1,w
 10082  0C9C  00F4               	movwf	i1led5_command@green
 10083  0C9D  0829               	movf	i1display_blade_lights@blue,w
 10084  0C9E  00A2               	movwf	??i1_display_blade_lights+2
 10085  0C9F  0822               	movf	??i1_display_blade_lights+2,w
 10086  0CA0  00F5               	movwf	i1led5_command@blue
 10087  0CA1  0826               	movf	i1display_blade_lights@brightness,w
 10088  0CA2  3188  203C  318C   	fcall	i1_led5_command
 10089                           
 10090                           ;lighting.c: 315: _delay((unsigned long)((50)*(32000000/4000.0)));
 10091  0CA5  3003               	movlw	3
 10092  0CA6  0020               	movlb	0	; select bank0
 10093  0CA7  00A2               	movwf	??i1_display_blade_lights+2
 10094  0CA8  3008               	movlw	8
 10095  0CA9  00A1               	movwf	??i1_display_blade_lights+1
 10096  0CAA  3078               	movlw	120
 10097  0CAB  00A0               	movwf	??i1_display_blade_lights
 10098  0CAC                     u294_27:	
 10099  0CAC  0BA0               	decfsz	??i1_display_blade_lights,f
 10100  0CAD  2CAC               	goto	u294_27
 10101  0CAE  0BA1               	decfsz	??i1_display_blade_lights+1,f
 10102  0CAF  2CAC               	goto	u294_27
 10103  0CB0  0BA2               	decfsz	??i1_display_blade_lights+2,f
 10104  0CB1  2CAC               	goto	u294_27
 10105                           
 10106                           ;lighting.c: 323: for(unsigned char i = 0; i < 4; ++i)
 10107  0CB2  0020               	movlb	0	; select bank0
 10108  0CB3  01A4               	clrf	i1display_blade_lights@i
 10109  0CB4                     L5:	
 10110  0CB4  3004               	movlw	4
 10111  0CB5  0224               	subwf	i1display_blade_lights@i,w
 10112  0CB6  1803               	btfsc	3,0
 10113  0CB7  2FFD               	goto	i1l3731
 10114                           
 10115                           ;lighting.c: 324: {
 10116                           ;lighting.c: 326: led5_command(brightness, red, green, blue);
 10117  0CB8  0827               	movf	i1display_blade_lights@red,w
 10118  0CB9  00A0               	movwf	??i1_display_blade_lights
 10119  0CBA  0820               	movf	??i1_display_blade_lights,w
 10120  0CBB  00F3               	movwf	i1led5_command@red
 10121  0CBC  0828               	movf	i1display_blade_lights@green,w
 10122  0CBD  00A1               	movwf	??i1_display_blade_lights+1
 10123  0CBE  0821               	movf	??i1_display_blade_lights+1,w
 10124  0CBF  00F4               	movwf	i1led5_command@green
 10125  0CC0  0829               	movf	i1display_blade_lights@blue,w
 10126  0CC1  00A2               	movwf	??i1_display_blade_lights+2
 10127  0CC2  0822               	movf	??i1_display_blade_lights+2,w
 10128  0CC3  00F5               	movwf	i1led5_command@blue
 10129  0CC4  0826               	movf	i1display_blade_lights@brightness,w
 10130  0CC5  3188  203C  318C   	fcall	i1_led5_command
 10131                           
 10132                           ;lighting.c: 327: _delay((unsigned long)((25)*(32000000/4000.0)));
 10133  0CC8  3002               	movlw	2
 10134  0CC9  0020               	movlb	0	; select bank0
 10135  0CCA  00A2               	movwf	??i1_display_blade_lights+2
 10136  0CCB  3004               	movlw	4
 10137  0CCC  00A1               	movwf	??i1_display_blade_lights+1
 10138  0CCD  30BA               	movlw	186
 10139  0CCE  00A0               	movwf	??i1_display_blade_lights
 10140  0CCF                     u295_27:	
 10141  0CCF  0BA0               	decfsz	??i1_display_blade_lights,f
 10142  0CD0  2CCF               	goto	u295_27
 10143  0CD1  0BA1               	decfsz	??i1_display_blade_lights+1,f
 10144  0CD2  2CCF               	goto	u295_27
 10145  0CD3  0BA2               	decfsz	??i1_display_blade_lights+2,f
 10146  0CD4  2CCF               	goto	u295_27
 10147  0CD5  0000               	nop
 10148                           
 10149                           ;lighting.c: 329: led5_command(0xFF, 0, 0, 0);
 10150  0CD6  01F3               	clrf	i1led5_command@red
 10151  0CD7  01F4               	clrf	i1led5_command@green
 10152  0CD8  01F5               	clrf	i1led5_command@blue
 10153  0CD9  30FF               	movlw	255
 10154  0CDA  3188  203C  318C   	fcall	i1_led5_command
 10155                           
 10156                           ;lighting.c: 330: _delay((unsigned long)((25)*(32000000/4000.0)));
 10157  0CDD  3002               	movlw	2
 10158  0CDE  0020               	movlb	0	; select bank0
 10159  0CDF  00A2               	movwf	??i1_display_blade_lights+2
 10160  0CE0  3004               	movlw	4
 10161  0CE1  00A1               	movwf	??i1_display_blade_lights+1
 10162  0CE2  30BA               	movlw	186
 10163  0CE3  00A0               	movwf	??i1_display_blade_lights
 10164  0CE4                     u296_27:	
 10165  0CE4  0BA0               	decfsz	??i1_display_blade_lights,f
 10166  0CE5  2CE4               	goto	u296_27
 10167  0CE6  0BA1               	decfsz	??i1_display_blade_lights+1,f
 10168  0CE7  2CE4               	goto	u296_27
 10169  0CE8  0BA2               	decfsz	??i1_display_blade_lights+2,f
 10170  0CE9  2CE4               	goto	u296_27
 10171  0CEA  0000               	nop
 10172  0CEB  3001               	movlw	1
 10173  0CEC  0020               	movlb	0	; select bank0
 10174  0CED  00A0               	movwf	??i1_display_blade_lights
 10175  0CEE  0820               	movf	??i1_display_blade_lights,w
 10176  0CEF  07A4               	addwf	i1display_blade_lights@i,f
 10177  0CF0  2CB4               	goto	L5
 10178  0CF1                     i1l3695:	
 10179                           ;lighting.c: 331: }
 10180                           ;lighting.c: 332: }
 10181                           
 10182                           
 10183                           ;lighting.c: 333: else if( mode == 2 )
 10184  0CF1  3002               	movlw	2
 10185  0CF2  0623               	xorwf	i1display_blade_lights@mode,w
 10186  0CF3  1D03               	btfss	3,2
 10187  0CF4  2F45               	goto	i1l3699
 10188                           
 10189                           ;lighting.c: 334: {
 10190                           ;lighting.c: 335: led_start();
 10191  0CF5  3192  22C0  318C   	fcall	i1_led_start
 10192                           
 10193                           ;lighting.c: 336: led_command(0xFF, 0, 0xFF, 0);
 10194  0CF8  01F3               	clrf	i1led_command@red
 10195  0CF9  30FF               	movlw	255
 10196  0CFA  0020               	movlb	0	; select bank0
 10197  0CFB  00A0               	movwf	??i1_display_blade_lights
 10198  0CFC  0820               	movf	??i1_display_blade_lights,w
 10199  0CFD  00F4               	movwf	i1led_command@green
 10200  0CFE  01F5               	clrf	i1led_command@blue
 10201  0CFF  30FF               	movlw	255
 10202  0D00  3192  225C  318C   	fcall	i1_led_command
 10203                           
 10204                           ;lighting.c: 337: led_end();
 10205  0D03  3192  22AA  318C   	fcall	i1_led_end
 10206                           
 10207                           ;lighting.c: 339: led_start();
 10208  0D06  3192  22C0  318C   	fcall	i1_led_start
 10209                           
 10210                           ;lighting.c: 340: led_command(0xFF, 0xFF, 0x2F, 0);
 10211  0D09  30FF               	movlw	255
 10212  0D0A  0020               	movlb	0	; select bank0
 10213  0D0B  00A0               	movwf	??i1_display_blade_lights
 10214  0D0C  0820               	movf	??i1_display_blade_lights,w
 10215  0D0D  00F3               	movwf	i1led_command@red
 10216  0D0E  302F               	movlw	47
 10217  0D0F  00A1               	movwf	??i1_display_blade_lights+1
 10218  0D10  0821               	movf	??i1_display_blade_lights+1,w
 10219  0D11  00F4               	movwf	i1led_command@green
 10220  0D12  01F5               	clrf	i1led_command@blue
 10221  0D13  30FF               	movlw	255
 10222  0D14  3192  225C  318C   	fcall	i1_led_command
 10223                           
 10224                           ;lighting.c: 341: led_command(0xFF, 0, 0xFF, 0);
 10225  0D17  01F3               	clrf	i1led_command@red
 10226  0D18  30FF               	movlw	255
 10227  0D19  0020               	movlb	0	; select bank0
 10228  0D1A  00A0               	movwf	??i1_display_blade_lights
 10229  0D1B  0820               	movf	??i1_display_blade_lights,w
 10230  0D1C  00F4               	movwf	i1led_command@green
 10231  0D1D  01F5               	clrf	i1led_command@blue
 10232  0D1E  30FF               	movlw	255
 10233  0D1F  3192  225C  318C   	fcall	i1_led_command
 10234                           
 10235                           ;lighting.c: 342: led_end();
 10236  0D22  3192  22AA  318C   	fcall	i1_led_end
 10237                           
 10238                           ;lighting.c: 344: led_start();
 10239  0D25  3192  22C0  318C   	fcall	i1_led_start
 10240                           
 10241                           ;lighting.c: 345: led_command(0xFF, 0, 0, 0xFF);
 10242  0D28  01F3               	clrf	i1led_command@red
 10243  0D29  01F4               	clrf	i1led_command@green
 10244  0D2A  30FF               	movlw	255
 10245  0D2B  0020               	movlb	0	; select bank0
 10246  0D2C  00A0               	movwf	??i1_display_blade_lights
 10247  0D2D  0820               	movf	??i1_display_blade_lights,w
 10248  0D2E  00F5               	movwf	i1led_command@blue
 10249  0D2F  30FF               	movlw	255
 10250  0D30  3192  225C  318C   	fcall	i1_led_command
 10251                           
 10252                           ;lighting.c: 346: led_command(0xFF, 0xFF, 0x2F, 0);
 10253  0D33  30FF               	movlw	255
 10254  0D34  0020               	movlb	0	; select bank0
 10255  0D35  00A0               	movwf	??i1_display_blade_lights
 10256  0D36  0820               	movf	??i1_display_blade_lights,w
 10257  0D37  00F3               	movwf	i1led_command@red
 10258  0D38  302F               	movlw	47
 10259  0D39  00A1               	movwf	??i1_display_blade_lights+1
 10260  0D3A  0821               	movf	??i1_display_blade_lights+1,w
 10261  0D3B  00F4               	movwf	i1led_command@green
 10262  0D3C  01F5               	clrf	i1led_command@blue
 10263  0D3D  30FF               	movlw	255
 10264  0D3E  3192  225C  318C   	fcall	i1_led_command
 10265                           
 10266                           ;lighting.c: 347: led_command(0xFF, 0, 0xFF, 0);
 10267  0D41  01F3               	clrf	i1led_command@red
 10268  0D42  30FF               	movlw	255
 10269  0D43  0020               	movlb	0	; select bank0
 10270  0D44  00A0               	movwf	??i1_display_blade_lights
 10271  0D45  0820               	movf	??i1_display_blade_lights,w
 10272  0D46  00F4               	movwf	i1led_command@green
 10273  0D47  01F5               	clrf	i1led_command@blue
 10274  0D48  30FF               	movlw	255
 10275  0D49  3192  225C  318C   	fcall	i1_led_command
 10276                           
 10277                           ;lighting.c: 348: led_end();
 10278  0D4C  3192  22AA  318C   	fcall	i1_led_end
 10279                           
 10280                           ;lighting.c: 350: led_start();
 10281  0D4F  3192  22C0  318C   	fcall	i1_led_start
 10282                           
 10283                           ;lighting.c: 351: led_command(0xFF, 0xFF, 0, 0);
 10284  0D52  30FF               	movlw	255
 10285  0D53  0020               	movlb	0	; select bank0
 10286  0D54  00A0               	movwf	??i1_display_blade_lights
 10287  0D55  0820               	movf	??i1_display_blade_lights,w
 10288  0D56  00F3               	movwf	i1led_command@red
 10289  0D57  01F4               	clrf	i1led_command@green
 10290  0D58  01F5               	clrf	i1led_command@blue
 10291  0D59  30FF               	movlw	255
 10292  0D5A  3192  225C  318C   	fcall	i1_led_command
 10293                           
 10294                           ;lighting.c: 352: led_command(0xFF, 0, 0, 0xFF);
 10295  0D5D  01F3               	clrf	i1led_command@red
 10296  0D5E  01F4               	clrf	i1led_command@green
 10297  0D5F  30FF               	movlw	255
 10298  0D60  0020               	movlb	0	; select bank0
 10299  0D61  00A0               	movwf	??i1_display_blade_lights
 10300  0D62  0820               	movf	??i1_display_blade_lights,w
 10301  0D63  00F5               	movwf	i1led_command@blue
 10302  0D64  30FF               	movlw	255
 10303  0D65  3192  225C  318C   	fcall	i1_led_command
 10304                           
 10305                           ;lighting.c: 353: led_command(0xFF, 0xFF, 0x2F, 0);
 10306  0D68  30FF               	movlw	255
 10307  0D69  0020               	movlb	0	; select bank0
 10308  0D6A  00A0               	movwf	??i1_display_blade_lights
 10309  0D6B  0820               	movf	??i1_display_blade_lights,w
 10310  0D6C  00F3               	movwf	i1led_command@red
 10311  0D6D  302F               	movlw	47
 10312  0D6E  00A1               	movwf	??i1_display_blade_lights+1
 10313  0D6F  0821               	movf	??i1_display_blade_lights+1,w
 10314  0D70  00F4               	movwf	i1led_command@green
 10315  0D71  01F5               	clrf	i1led_command@blue
 10316  0D72  30FF               	movlw	255
 10317  0D73  3192  225C  318C   	fcall	i1_led_command
 10318                           
 10319                           ;lighting.c: 354: led_command(0xFF, 0, 0xFF, 0);
 10320  0D76  01F3               	clrf	i1led_command@red
 10321  0D77  30FF               	movlw	255
 10322  0D78  0020               	movlb	0	; select bank0
 10323  0D79  00A0               	movwf	??i1_display_blade_lights
 10324  0D7A  0820               	movf	??i1_display_blade_lights,w
 10325  0D7B  00F4               	movwf	i1led_command@green
 10326  0D7C  01F5               	clrf	i1led_command@blue
 10327  0D7D  30FF               	movlw	255
 10328  0D7E  3192  225C  318C   	fcall	i1_led_command
 10329                           
 10330                           ;lighting.c: 355: led_end();
 10331  0D81  3192  22AA  318C   	fcall	i1_led_end
 10332                           
 10333                           ;lighting.c: 357: led_start();
 10334  0D84  3192  22C0  318C   	fcall	i1_led_start
 10335                           
 10336                           ;lighting.c: 358: led_command(0, 0, 0, 0);
 10337  0D87  01F3               	clrf	i1led_command@red
 10338  0D88  01F4               	clrf	i1led_command@green
 10339  0D89  01F5               	clrf	i1led_command@blue
 10340  0D8A  3000               	movlw	0
 10341  0D8B  3192  225C  318C   	fcall	i1_led_command
 10342                           
 10343                           ;lighting.c: 359: led_command(0xFF, 0xFF, 0, 0);
 10344  0D8E  30FF               	movlw	255
 10345  0D8F  0020               	movlb	0	; select bank0
 10346  0D90  00A0               	movwf	??i1_display_blade_lights
 10347  0D91  0820               	movf	??i1_display_blade_lights,w
 10348  0D92  00F3               	movwf	i1led_command@red
 10349  0D93  01F4               	clrf	i1led_command@green
 10350  0D94  01F5               	clrf	i1led_command@blue
 10351  0D95  30FF               	movlw	255
 10352  0D96  3192  225C  318C   	fcall	i1_led_command
 10353                           
 10354                           ;lighting.c: 360: led_command(0xFF, 0, 0, 0xFF);
 10355  0D99  01F3               	clrf	i1led_command@red
 10356  0D9A  01F4               	clrf	i1led_command@green
 10357  0D9B  30FF               	movlw	255
 10358  0D9C  0020               	movlb	0	; select bank0
 10359  0D9D  00A0               	movwf	??i1_display_blade_lights
 10360  0D9E  0820               	movf	??i1_display_blade_lights,w
 10361  0D9F  00F5               	movwf	i1led_command@blue
 10362  0DA0  30FF               	movlw	255
 10363  0DA1  3192  225C  318C   	fcall	i1_led_command
 10364                           
 10365                           ;lighting.c: 361: led_command(0xFF, 0xFF, 0x2F, 0);
 10366  0DA4  30FF               	movlw	255
 10367  0DA5  0020               	movlb	0	; select bank0
 10368  0DA6  00A0               	movwf	??i1_display_blade_lights
 10369  0DA7  0820               	movf	??i1_display_blade_lights,w
 10370  0DA8  00F3               	movwf	i1led_command@red
 10371  0DA9  302F               	movlw	47
 10372  0DAA  00A1               	movwf	??i1_display_blade_lights+1
 10373  0DAB  0821               	movf	??i1_display_blade_lights+1,w
 10374  0DAC  00F4               	movwf	i1led_command@green
 10375  0DAD  01F5               	clrf	i1led_command@blue
 10376  0DAE  30FF               	movlw	255
 10377  0DAF  3192  225C  318C   	fcall	i1_led_command
 10378                           
 10379                           ;lighting.c: 362: led_command(0xFF, 0, 0xFF, 0);
 10380  0DB2  01F3               	clrf	i1led_command@red
 10381  0DB3  30FF               	movlw	255
 10382  0DB4  0020               	movlb	0	; select bank0
 10383  0DB5  00A0               	movwf	??i1_display_blade_lights
 10384  0DB6  0820               	movf	??i1_display_blade_lights,w
 10385  0DB7  00F4               	movwf	i1led_command@green
 10386  0DB8  01F5               	clrf	i1led_command@blue
 10387  0DB9  30FF               	movlw	255
 10388  0DBA  3192  225C  318C   	fcall	i1_led_command
 10389                           
 10390                           ;lighting.c: 363: led_end();
 10391  0DBD  3192  22AA  318C   	fcall	i1_led_end
 10392                           
 10393                           ;lighting.c: 365: led_start();
 10394  0DC0  3192  22C0  318C   	fcall	i1_led_start
 10395                           
 10396                           ;lighting.c: 366: led_command(0, 0, 0, 0);
 10397  0DC3  01F3               	clrf	i1led_command@red
 10398  0DC4  01F4               	clrf	i1led_command@green
 10399  0DC5  01F5               	clrf	i1led_command@blue
 10400  0DC6  3000               	movlw	0
 10401  0DC7  3192  225C  318C   	fcall	i1_led_command
 10402                           
 10403                           ;lighting.c: 367: led_command(0, 0, 0, 0);
 10404  0DCA  01F3               	clrf	i1led_command@red
 10405  0DCB  01F4               	clrf	i1led_command@green
 10406  0DCC  01F5               	clrf	i1led_command@blue
 10407  0DCD  3000               	movlw	0
 10408  0DCE  3192  225C  318C   	fcall	i1_led_command
 10409                           
 10410                           ;lighting.c: 368: led_command(0xFF, 0xFF, 0, 0);
 10411  0DD1  30FF               	movlw	255
 10412  0DD2  0020               	movlb	0	; select bank0
 10413  0DD3  00A0               	movwf	??i1_display_blade_lights
 10414  0DD4  0820               	movf	??i1_display_blade_lights,w
 10415  0DD5  00F3               	movwf	i1led_command@red
 10416  0DD6  01F4               	clrf	i1led_command@green
 10417  0DD7  01F5               	clrf	i1led_command@blue
 10418  0DD8  30FF               	movlw	255
 10419  0DD9  3192  225C  318C   	fcall	i1_led_command
 10420                           
 10421                           ;lighting.c: 369: led_command(0xFF, 0, 0, 0xFF);
 10422  0DDC  01F3               	clrf	i1led_command@red
 10423  0DDD  01F4               	clrf	i1led_command@green
 10424  0DDE  30FF               	movlw	255
 10425  0DDF  0020               	movlb	0	; select bank0
 10426  0DE0  00A0               	movwf	??i1_display_blade_lights
 10427  0DE1  0820               	movf	??i1_display_blade_lights,w
 10428  0DE2  00F5               	movwf	i1led_command@blue
 10429  0DE3  30FF               	movlw	255
 10430  0DE4  3192  225C  318C   	fcall	i1_led_command
 10431                           
 10432                           ;lighting.c: 370: led_command(0xFF, 0xFF, 0x2F, 0);
 10433  0DE7  30FF               	movlw	255
 10434  0DE8  0020               	movlb	0	; select bank0
 10435  0DE9  00A0               	movwf	??i1_display_blade_lights
 10436  0DEA  0820               	movf	??i1_display_blade_lights,w
 10437  0DEB  00F3               	movwf	i1led_command@red
 10438  0DEC  302F               	movlw	47
 10439  0DED  00A1               	movwf	??i1_display_blade_lights+1
 10440  0DEE  0821               	movf	??i1_display_blade_lights+1,w
 10441  0DEF  00F4               	movwf	i1led_command@green
 10442  0DF0  01F5               	clrf	i1led_command@blue
 10443  0DF1  30FF               	movlw	255
 10444  0DF2  3192  225C  318C   	fcall	i1_led_command
 10445                           
 10446                           ;lighting.c: 371: led_command(0xFF, 0, 0xFF, 0);
 10447  0DF5  01F3               	clrf	i1led_command@red
 10448  0DF6  30FF               	movlw	255
 10449  0DF7  0020               	movlb	0	; select bank0
 10450  0DF8  00A0               	movwf	??i1_display_blade_lights
 10451  0DF9  0820               	movf	??i1_display_blade_lights,w
 10452  0DFA  00F4               	movwf	i1led_command@green
 10453  0DFB  01F5               	clrf	i1led_command@blue
 10454  0DFC  30FF               	movlw	255
 10455  0DFD  3192  225C  318C   	fcall	i1_led_command
 10456                           
 10457                           ;lighting.c: 372: led_end();
 10458  0E00  3192  22AA  318C   	fcall	i1_led_end
 10459                           
 10460                           ;lighting.c: 374: led_start();
 10461  0E03  3192  22C0  318C   	fcall	i1_led_start
 10462                           
 10463                           ;lighting.c: 375: led_command(0, 0, 0, 0);
 10464  0E06  01F3               	clrf	i1led_command@red
 10465  0E07  01F4               	clrf	i1led_command@green
 10466  0E08  01F5               	clrf	i1led_command@blue
 10467  0E09  3000               	movlw	0
 10468  0E0A  3192  225C  318C   	fcall	i1_led_command
 10469                           
 10470                           ;lighting.c: 376: led_command(0, 0, 0, 0);
 10471  0E0D  01F3               	clrf	i1led_command@red
 10472  0E0E  01F4               	clrf	i1led_command@green
 10473  0E0F  01F5               	clrf	i1led_command@blue
 10474  0E10  3000               	movlw	0
 10475  0E11  3192  225C  318C   	fcall	i1_led_command
 10476                           
 10477                           ;lighting.c: 377: led_command(0, 0, 0, 0);
 10478  0E14  01F3               	clrf	i1led_command@red
 10479  0E15  01F4               	clrf	i1led_command@green
 10480  0E16  01F5               	clrf	i1led_command@blue
 10481  0E17  3000               	movlw	0
 10482  0E18  3192  225C  318C   	fcall	i1_led_command
 10483                           
 10484                           ;lighting.c: 378: led_command(0xFF, 0xFF, 0, 0);
 10485  0E1B  30FF               	movlw	255
 10486  0E1C  0020               	movlb	0	; select bank0
 10487  0E1D  00A0               	movwf	??i1_display_blade_lights
 10488  0E1E  0820               	movf	??i1_display_blade_lights,w
 10489  0E1F  00F3               	movwf	i1led_command@red
 10490  0E20  01F4               	clrf	i1led_command@green
 10491  0E21  01F5               	clrf	i1led_command@blue
 10492  0E22  30FF               	movlw	255
 10493  0E23  3192  225C  318C   	fcall	i1_led_command
 10494                           
 10495                           ;lighting.c: 379: led_command(0xFF, 0, 0, 0xFF);
 10496  0E26  01F3               	clrf	i1led_command@red
 10497  0E27  01F4               	clrf	i1led_command@green
 10498  0E28  30FF               	movlw	255
 10499  0E29  0020               	movlb	0	; select bank0
 10500  0E2A  00A0               	movwf	??i1_display_blade_lights
 10501  0E2B  0820               	movf	??i1_display_blade_lights,w
 10502  0E2C  00F5               	movwf	i1led_command@blue
 10503  0E2D  30FF               	movlw	255
 10504  0E2E  3192  225C  318C   	fcall	i1_led_command
 10505                           
 10506                           ;lighting.c: 380: led_command(0xFF, 0xFF, 0x2F, 0);
 10507  0E31  30FF               	movlw	255
 10508  0E32  0020               	movlb	0	; select bank0
 10509  0E33  00A0               	movwf	??i1_display_blade_lights
 10510  0E34  0820               	movf	??i1_display_blade_lights,w
 10511  0E35  00F3               	movwf	i1led_command@red
 10512  0E36  302F               	movlw	47
 10513  0E37  00A1               	movwf	??i1_display_blade_lights+1
 10514  0E38  0821               	movf	??i1_display_blade_lights+1,w
 10515  0E39  00F4               	movwf	i1led_command@green
 10516  0E3A  01F5               	clrf	i1led_command@blue
 10517  0E3B  30FF               	movlw	255
 10518  0E3C  3192  225C  318C   	fcall	i1_led_command
 10519                           
 10520                           ;lighting.c: 381: led_command(0xFF, 0, 0xFF, 0);
 10521  0E3F  01F3               	clrf	i1led_command@red
 10522  0E40  30FF               	movlw	255
 10523  0E41  0020               	movlb	0	; select bank0
 10524  0E42  00A0               	movwf	??i1_display_blade_lights
 10525  0E43  0820               	movf	??i1_display_blade_lights,w
 10526  0E44  00F4               	movwf	i1led_command@green
 10527  0E45  01F5               	clrf	i1led_command@blue
 10528  0E46  30FF               	movlw	255
 10529  0E47  3192  225C  318C   	fcall	i1_led_command
 10530                           
 10531                           ;lighting.c: 382: led_end();
 10532  0E4A  3192  22AA  318C   	fcall	i1_led_end
 10533                           
 10534                           ;lighting.c: 384: led_start();
 10535  0E4D  3192  22C0  318C   	fcall	i1_led_start
 10536                           
 10537                           ;lighting.c: 385: led_command(0, 0, 0, 0);
 10538  0E50  01F3               	clrf	i1led_command@red
 10539  0E51  01F4               	clrf	i1led_command@green
 10540  0E52  01F5               	clrf	i1led_command@blue
 10541  0E53  3000               	movlw	0
 10542  0E54  3192  225C  318C   	fcall	i1_led_command
 10543                           
 10544                           ;lighting.c: 386: led_command(0, 0, 0, 0);
 10545  0E57  01F3               	clrf	i1led_command@red
 10546  0E58  01F4               	clrf	i1led_command@green
 10547  0E59  01F5               	clrf	i1led_command@blue
 10548  0E5A  3000               	movlw	0
 10549  0E5B  3192  225C  318C   	fcall	i1_led_command
 10550                           
 10551                           ;lighting.c: 387: led_command(0, 0, 0, 0);
 10552  0E5E  01F3               	clrf	i1led_command@red
 10553  0E5F  01F4               	clrf	i1led_command@green
 10554  0E60  01F5               	clrf	i1led_command@blue
 10555  0E61  3000               	movlw	0
 10556  0E62  3192  225C  318C   	fcall	i1_led_command
 10557                           
 10558                           ;lighting.c: 388: led_command(0, 0, 0, 0);
 10559  0E65  01F3               	clrf	i1led_command@red
 10560  0E66  01F4               	clrf	i1led_command@green
 10561  0E67  01F5               	clrf	i1led_command@blue
 10562  0E68  3000               	movlw	0
 10563  0E69  3192  225C  318C   	fcall	i1_led_command
 10564                           
 10565                           ;lighting.c: 389: led_command(0xFF, 0xFF, 0, 0);
 10566  0E6C  30FF               	movlw	255
 10567  0E6D  0020               	movlb	0	; select bank0
 10568  0E6E  00A0               	movwf	??i1_display_blade_lights
 10569  0E6F  0820               	movf	??i1_display_blade_lights,w
 10570  0E70  00F3               	movwf	i1led_command@red
 10571  0E71  01F4               	clrf	i1led_command@green
 10572  0E72  01F5               	clrf	i1led_command@blue
 10573  0E73  30FF               	movlw	255
 10574  0E74  3192  225C  318C   	fcall	i1_led_command
 10575                           
 10576                           ;lighting.c: 390: led_command(0xFF, 0, 0, 0xFF);
 10577  0E77  01F3               	clrf	i1led_command@red
 10578  0E78  01F4               	clrf	i1led_command@green
 10579  0E79  30FF               	movlw	255
 10580  0E7A  0020               	movlb	0	; select bank0
 10581  0E7B  00A0               	movwf	??i1_display_blade_lights
 10582  0E7C  0820               	movf	??i1_display_blade_lights,w
 10583  0E7D  00F5               	movwf	i1led_command@blue
 10584  0E7E  30FF               	movlw	255
 10585  0E7F  3192  225C  318C   	fcall	i1_led_command
 10586                           
 10587                           ;lighting.c: 391: led_command(0xFF, 0xFF, 0x2F, 0);
 10588  0E82  30FF               	movlw	255
 10589  0E83  0020               	movlb	0	; select bank0
 10590  0E84  00A0               	movwf	??i1_display_blade_lights
 10591  0E85  0820               	movf	??i1_display_blade_lights,w
 10592  0E86  00F3               	movwf	i1led_command@red
 10593  0E87  302F               	movlw	47
 10594  0E88  00A1               	movwf	??i1_display_blade_lights+1
 10595  0E89  0821               	movf	??i1_display_blade_lights+1,w
 10596  0E8A  00F4               	movwf	i1led_command@green
 10597  0E8B  01F5               	clrf	i1led_command@blue
 10598  0E8C  30FF               	movlw	255
 10599  0E8D  3192  225C  318C   	fcall	i1_led_command
 10600                           
 10601                           ;lighting.c: 392: led_end();
 10602  0E90  3192  22AA  318C   	fcall	i1_led_end
 10603                           
 10604                           ;lighting.c: 394: led_start();
 10605  0E93  3192  22C0  318C   	fcall	i1_led_start
 10606                           
 10607                           ;lighting.c: 395: led_command(0, 0, 0, 0);
 10608  0E96  01F3               	clrf	i1led_command@red
 10609  0E97  01F4               	clrf	i1led_command@green
 10610  0E98  01F5               	clrf	i1led_command@blue
 10611  0E99  3000               	movlw	0
 10612  0E9A  3192  225C  318C   	fcall	i1_led_command
 10613                           
 10614                           ;lighting.c: 396: led_command(0, 0, 0, 0);
 10615  0E9D  01F3               	clrf	i1led_command@red
 10616  0E9E  01F4               	clrf	i1led_command@green
 10617  0E9F  01F5               	clrf	i1led_command@blue
 10618  0EA0  3000               	movlw	0
 10619  0EA1  3192  225C  318C   	fcall	i1_led_command
 10620                           
 10621                           ;lighting.c: 397: led_command(0, 0, 0, 0);
 10622  0EA4  01F3               	clrf	i1led_command@red
 10623  0EA5  01F4               	clrf	i1led_command@green
 10624  0EA6  01F5               	clrf	i1led_command@blue
 10625  0EA7  3000               	movlw	0
 10626  0EA8  3192  225C  318C   	fcall	i1_led_command
 10627                           
 10628                           ;lighting.c: 398: led_command(0, 0, 0, 0);
 10629  0EAB  01F3               	clrf	i1led_command@red
 10630  0EAC  01F4               	clrf	i1led_command@green
 10631  0EAD  01F5               	clrf	i1led_command@blue
 10632  0EAE  3000               	movlw	0
 10633  0EAF  3192  225C  318C   	fcall	i1_led_command
 10634                           
 10635                           ;lighting.c: 399: led_command(0, 0, 0, 0);
 10636  0EB2  01F3               	clrf	i1led_command@red
 10637  0EB3  01F4               	clrf	i1led_command@green
 10638  0EB4  01F5               	clrf	i1led_command@blue
 10639  0EB5  3000               	movlw	0
 10640  0EB6  3192  225C  318C   	fcall	i1_led_command
 10641                           
 10642                           ;lighting.c: 400: led_command(0xFF, 0xFF, 0, 0);
 10643  0EB9  30FF               	movlw	255
 10644  0EBA  0020               	movlb	0	; select bank0
 10645  0EBB  00A0               	movwf	??i1_display_blade_lights
 10646  0EBC  0820               	movf	??i1_display_blade_lights,w
 10647  0EBD  00F3               	movwf	i1led_command@red
 10648  0EBE  01F4               	clrf	i1led_command@green
 10649  0EBF  01F5               	clrf	i1led_command@blue
 10650  0EC0  30FF               	movlw	255
 10651  0EC1  3192  225C  318C   	fcall	i1_led_command
 10652                           
 10653                           ;lighting.c: 401: led_command(0xFF, 0, 0, 0xFF);
 10654  0EC4  01F3               	clrf	i1led_command@red
 10655  0EC5  01F4               	clrf	i1led_command@green
 10656  0EC6  30FF               	movlw	255
 10657  0EC7  0020               	movlb	0	; select bank0
 10658  0EC8  00A0               	movwf	??i1_display_blade_lights
 10659  0EC9  0820               	movf	??i1_display_blade_lights,w
 10660  0ECA  00F5               	movwf	i1led_command@blue
 10661  0ECB  30FF               	movlw	255
 10662  0ECC  3192  225C  318C   	fcall	i1_led_command
 10663                           
 10664                           ;lighting.c: 402: led_end();
 10665  0ECF  3192  22AA  318C   	fcall	i1_led_end
 10666                           
 10667                           ;lighting.c: 404: led_start();
 10668  0ED2  3192  22C0  318C   	fcall	i1_led_start
 10669                           
 10670                           ;lighting.c: 405: led_command(0, 0, 0, 0);
 10671  0ED5  01F3               	clrf	i1led_command@red
 10672  0ED6  01F4               	clrf	i1led_command@green
 10673  0ED7  01F5               	clrf	i1led_command@blue
 10674  0ED8  3000               	movlw	0
 10675  0ED9  3192  225C  318C   	fcall	i1_led_command
 10676                           
 10677                           ;lighting.c: 406: led_command(0, 0, 0, 0);
 10678  0EDC  01F3               	clrf	i1led_command@red
 10679  0EDD  01F4               	clrf	i1led_command@green
 10680  0EDE  01F5               	clrf	i1led_command@blue
 10681  0EDF  3000               	movlw	0
 10682  0EE0  3192  225C  318C   	fcall	i1_led_command
 10683                           
 10684                           ;lighting.c: 407: led_command(0, 0, 0, 0);
 10685  0EE3  01F3               	clrf	i1led_command@red
 10686  0EE4  01F4               	clrf	i1led_command@green
 10687  0EE5  01F5               	clrf	i1led_command@blue
 10688  0EE6  3000               	movlw	0
 10689  0EE7  3192  225C  318C   	fcall	i1_led_command
 10690                           
 10691                           ;lighting.c: 408: led_command(0, 0, 0, 0);
 10692  0EEA  01F3               	clrf	i1led_command@red
 10693  0EEB  01F4               	clrf	i1led_command@green
 10694  0EEC  01F5               	clrf	i1led_command@blue
 10695  0EED  3000               	movlw	0
 10696  0EEE  3192  225C  318C   	fcall	i1_led_command
 10697                           
 10698                           ;lighting.c: 409: led_command(0, 0, 0, 0);
 10699  0EF1  01F3               	clrf	i1led_command@red
 10700  0EF2  01F4               	clrf	i1led_command@green
 10701  0EF3  01F5               	clrf	i1led_command@blue
 10702  0EF4  3000               	movlw	0
 10703  0EF5  3192  225C  318C   	fcall	i1_led_command
 10704                           
 10705                           ;lighting.c: 410: led_command(0, 0, 0, 0);
 10706  0EF8  01F3               	clrf	i1led_command@red
 10707  0EF9  01F4               	clrf	i1led_command@green
 10708  0EFA  01F5               	clrf	i1led_command@blue
 10709  0EFB  3000               	movlw	0
 10710  0EFC  3192  225C  318C   	fcall	i1_led_command
 10711                           
 10712                           ;lighting.c: 411: led_command(0xFF, 0xFF, 0, 0);
 10713  0EFF  30FF               	movlw	255
 10714  0F00  0020               	movlb	0	; select bank0
 10715  0F01  00A0               	movwf	??i1_display_blade_lights
 10716  0F02  0820               	movf	??i1_display_blade_lights,w
 10717  0F03  00F3               	movwf	i1led_command@red
 10718  0F04  01F4               	clrf	i1led_command@green
 10719  0F05  01F5               	clrf	i1led_command@blue
 10720  0F06  30FF               	movlw	255
 10721  0F07  3192  225C  318C   	fcall	i1_led_command
 10722                           
 10723                           ;lighting.c: 412: led_end();
 10724  0F0A  3192  22AA  318C   	fcall	i1_led_end
 10725                           
 10726                           ;lighting.c: 414: led_start();
 10727  0F0D  3192  22C0  318C   	fcall	i1_led_start
 10728                           
 10729                           ;lighting.c: 415: led_command(0, 0, 0, 0);
 10730  0F10  01F3               	clrf	i1led_command@red
 10731  0F11  01F4               	clrf	i1led_command@green
 10732  0F12  01F5               	clrf	i1led_command@blue
 10733  0F13  3000               	movlw	0
 10734  0F14  3192  225C  318C   	fcall	i1_led_command
 10735                           
 10736                           ;lighting.c: 416: led_command(0, 0, 0, 0);
 10737  0F17  01F3               	clrf	i1led_command@red
 10738  0F18  01F4               	clrf	i1led_command@green
 10739  0F19  01F5               	clrf	i1led_command@blue
 10740  0F1A  3000               	movlw	0
 10741  0F1B  3192  225C  318C   	fcall	i1_led_command
 10742                           
 10743                           ;lighting.c: 417: led_command(0, 0, 0, 0);
 10744  0F1E  01F3               	clrf	i1led_command@red
 10745  0F1F  01F4               	clrf	i1led_command@green
 10746  0F20  01F5               	clrf	i1led_command@blue
 10747  0F21  3000               	movlw	0
 10748  0F22  3192  225C  318C   	fcall	i1_led_command
 10749                           
 10750                           ;lighting.c: 418: led_command(0, 0, 0, 0);
 10751  0F25  01F3               	clrf	i1led_command@red
 10752  0F26  01F4               	clrf	i1led_command@green
 10753  0F27  01F5               	clrf	i1led_command@blue
 10754  0F28  3000               	movlw	0
 10755  0F29  3192  225C  318C   	fcall	i1_led_command
 10756                           
 10757                           ;lighting.c: 419: led_command(0, 0, 0, 0);
 10758  0F2C  01F3               	clrf	i1led_command@red
 10759  0F2D  01F4               	clrf	i1led_command@green
 10760  0F2E  01F5               	clrf	i1led_command@blue
 10761  0F2F  3000               	movlw	0
 10762  0F30  3192  225C  318C   	fcall	i1_led_command
 10763                           
 10764                           ;lighting.c: 420: led_command(0, 0, 0, 0);
 10765  0F33  01F3               	clrf	i1led_command@red
 10766  0F34  01F4               	clrf	i1led_command@green
 10767  0F35  01F5               	clrf	i1led_command@blue
 10768  0F36  3000               	movlw	0
 10769  0F37  3192  225C  318C   	fcall	i1_led_command
 10770                           
 10771                           ;lighting.c: 421: led_command(0, 0, 0, 0);
 10772  0F3A  01F3               	clrf	i1led_command@red
 10773  0F3B  01F4               	clrf	i1led_command@green
 10774  0F3C  01F5               	clrf	i1led_command@blue
 10775  0F3D  3000               	movlw	0
 10776  0F3E  3192  225C  318C   	fcall	i1_led_command
 10777                           
 10778                           ;lighting.c: 422: led_end();
 10779  0F41  3192  22AA  318C   	fcall	i1_led_end
 10780                           
 10781                           ;lighting.c: 502: }
 10782  0F44  2FFD               	goto	i1l3731
 10783  0F45                     i1l3699:	
 10784                           
 10785                           ;lighting.c: 503: else if( mode == 3 )
 10786  0F45  3003               	movlw	3
 10787  0F46  0020               	movlb	0	; select bank0
 10788  0F47  0623               	xorwf	i1display_blade_lights@mode,w
 10789  0F48  1D03               	btfss	3,2
 10790  0F49  2FFD               	goto	i1l3731
 10791                           
 10792                           ;lighting.c: 504: {
 10793                           ;lighting.c: 506: led5_command(0xFF, 0xFF, 0, 0);
 10794  0F4A  30FF               	movlw	255
 10795  0F4B  00A0               	movwf	??i1_display_blade_lights
 10796  0F4C  0820               	movf	??i1_display_blade_lights,w
 10797  0F4D  00F3               	movwf	i1led5_command@red
 10798  0F4E  01F4               	clrf	i1led5_command@green
 10799  0F4F  01F5               	clrf	i1led5_command@blue
 10800  0F50  30FF               	movlw	255
 10801  0F51  3188  203C  318C   	fcall	i1_led5_command
 10802                           
 10803                           ;lighting.c: 507: _delay((unsigned long)((50)*(32000000/4000.0)));
 10804  0F54  3003               	movlw	3
 10805  0F55  0020               	movlb	0	; select bank0
 10806  0F56  00A2               	movwf	??i1_display_blade_lights+2
 10807  0F57  3008               	movlw	8
 10808  0F58  00A1               	movwf	??i1_display_blade_lights+1
 10809  0F59  3078               	movlw	120
 10810  0F5A  00A0               	movwf	??i1_display_blade_lights
 10811  0F5B                     u297_27:	
 10812  0F5B  0BA0               	decfsz	??i1_display_blade_lights,f
 10813  0F5C  2F5B               	goto	u297_27
 10814  0F5D  0BA1               	decfsz	??i1_display_blade_lights+1,f
 10815  0F5E  2F5B               	goto	u297_27
 10816  0F5F  0BA2               	decfsz	??i1_display_blade_lights+2,f
 10817  0F60  2F5B               	goto	u297_27
 10818                           
 10819                           ;lighting.c: 509: led4_command(0xFF, 0xFF, 0, 0);
 10820  0F61  30FF               	movlw	255
 10821  0F62  0020               	movlb	0	; select bank0
 10822  0F63  00A0               	movwf	??i1_display_blade_lights
 10823  0F64  0820               	movf	??i1_display_blade_lights,w
 10824  0F65  00F3               	movwf	i1led4_command@red
 10825  0F66  01F4               	clrf	i1led4_command@green
 10826  0F67  01F5               	clrf	i1led4_command@blue
 10827  0F68  30FF               	movlw	255
 10828  0F69  3197  2765  318C   	fcall	i1_led4_command
 10829                           
 10830                           ;lighting.c: 510: _delay((unsigned long)((50)*(32000000/4000.0)));
 10831  0F6C  3003               	movlw	3
 10832  0F6D  0020               	movlb	0	; select bank0
 10833  0F6E  00A2               	movwf	??i1_display_blade_lights+2
 10834  0F6F  3008               	movlw	8
 10835  0F70  00A1               	movwf	??i1_display_blade_lights+1
 10836  0F71  3078               	movlw	120
 10837  0F72  00A0               	movwf	??i1_display_blade_lights
 10838  0F73                     u298_27:	
 10839  0F73  0BA0               	decfsz	??i1_display_blade_lights,f
 10840  0F74  2F73               	goto	u298_27
 10841  0F75  0BA1               	decfsz	??i1_display_blade_lights+1,f
 10842  0F76  2F73               	goto	u298_27
 10843  0F77  0BA2               	decfsz	??i1_display_blade_lights+2,f
 10844  0F78  2F73               	goto	u298_27
 10845                           
 10846                           ;lighting.c: 512: led3_command(0xFF, 0xFF, 0, 0);
 10847  0F79  30FF               	movlw	255
 10848  0F7A  0020               	movlb	0	; select bank0
 10849  0F7B  00A0               	movwf	??i1_display_blade_lights
 10850  0F7C  0820               	movf	??i1_display_blade_lights,w
 10851  0F7D  00F3               	movwf	i1led3_command@red
 10852  0F7E  01F4               	clrf	i1led3_command@green
 10853  0F7F  01F5               	clrf	i1led3_command@blue
 10854  0F80  30FF               	movlw	255
 10855  0F81  3196  26CA  318C   	fcall	i1_led3_command
 10856                           
 10857                           ;lighting.c: 513: _delay((unsigned long)((50)*(32000000/4000.0)));
 10858  0F84  3003               	movlw	3
 10859  0F85  0020               	movlb	0	; select bank0
 10860  0F86  00A2               	movwf	??i1_display_blade_lights+2
 10861  0F87  3008               	movlw	8
 10862  0F88  00A1               	movwf	??i1_display_blade_lights+1
 10863  0F89  3078               	movlw	120
 10864  0F8A  00A0               	movwf	??i1_display_blade_lights
 10865  0F8B                     u299_27:	
 10866  0F8B  0BA0               	decfsz	??i1_display_blade_lights,f
 10867  0F8C  2F8B               	goto	u299_27
 10868  0F8D  0BA1               	decfsz	??i1_display_blade_lights+1,f
 10869  0F8E  2F8B               	goto	u299_27
 10870  0F8F  0BA2               	decfsz	??i1_display_blade_lights+2,f
 10871  0F90  2F8B               	goto	u299_27
 10872                           
 10873                           ;lighting.c: 515: led2_command(0xFF, 0xFF, 0, 0);
 10874  0F91  30FF               	movlw	255
 10875  0F92  0020               	movlb	0	; select bank0
 10876  0F93  00A0               	movwf	??i1_display_blade_lights
 10877  0F94  0820               	movf	??i1_display_blade_lights,w
 10878  0F95  00F3               	movwf	i1led2_command@red
 10879  0F96  01F4               	clrf	i1led2_command@green
 10880  0F97  01F5               	clrf	i1led2_command@blue
 10881  0F98  30FF               	movlw	255
 10882  0F99  3196  262F  318C   	fcall	i1_led2_command
 10883                           
 10884                           ;lighting.c: 516: _delay((unsigned long)((50)*(32000000/4000.0)));
 10885  0F9C  3003               	movlw	3
 10886  0F9D  0020               	movlb	0	; select bank0
 10887  0F9E  00A2               	movwf	??i1_display_blade_lights+2
 10888  0F9F  3008               	movlw	8
 10889  0FA0  00A1               	movwf	??i1_display_blade_lights+1
 10890  0FA1  3078               	movlw	120
 10891  0FA2  00A0               	movwf	??i1_display_blade_lights
 10892  0FA3                     u300_27:	
 10893  0FA3  0BA0               	decfsz	??i1_display_blade_lights,f
 10894  0FA4  2FA3               	goto	u300_27
 10895  0FA5  0BA1               	decfsz	??i1_display_blade_lights+1,f
 10896  0FA6  2FA3               	goto	u300_27
 10897  0FA7  0BA2               	decfsz	??i1_display_blade_lights+2,f
 10898  0FA8  2FA3               	goto	u300_27
 10899                           
 10900                           ;lighting.c: 518: led1_command(0xFF, 0xFF, 0, 0);
 10901  0FA9  30FF               	movlw	255
 10902  0FAA  0020               	movlb	0	; select bank0
 10903  0FAB  00A0               	movwf	??i1_display_blade_lights
 10904  0FAC  0820               	movf	??i1_display_blade_lights,w
 10905  0FAD  00F3               	movwf	i1led1_command@red
 10906  0FAE  01F4               	clrf	i1led1_command@green
 10907  0FAF  01F5               	clrf	i1led1_command@blue
 10908  0FB0  30FF               	movlw	255
 10909  0FB1  3195  2594  318C   	fcall	i1_led1_command
 10910                           
 10911                           ;lighting.c: 519: _delay((unsigned long)((50)*(32000000/4000.0)));
 10912  0FB4  3003               	movlw	3
 10913  0FB5  0020               	movlb	0	; select bank0
 10914  0FB6  00A2               	movwf	??i1_display_blade_lights+2
 10915  0FB7  3008               	movlw	8
 10916  0FB8  00A1               	movwf	??i1_display_blade_lights+1
 10917  0FB9  3078               	movlw	120
 10918  0FBA  00A0               	movwf	??i1_display_blade_lights
 10919  0FBB                     u301_27:	
 10920  0FBB  0BA0               	decfsz	??i1_display_blade_lights,f
 10921  0FBC  2FBB               	goto	u301_27
 10922  0FBD  0BA1               	decfsz	??i1_display_blade_lights+1,f
 10923  0FBE  2FBB               	goto	u301_27
 10924  0FBF  0BA2               	decfsz	??i1_display_blade_lights+2,f
 10925  0FC0  2FBB               	goto	u301_27
 10926                           
 10927                           ;lighting.c: 521: for(unsigned char i = 0; i < 4; ++i)
 10928  0FC1  0020               	movlb	0	; select bank0
 10929  0FC2  01A5               	clrf	i1display_blade_lights@i_591
 10930  0FC3  3004               	movlw	4
 10931  0FC4  0225               	subwf	i1display_blade_lights@i_591,w
 10932  0FC5  1803               	btfsc	3,0
 10933  0FC6  2FFD               	goto	i1l3731
 10934  0FC7                     i1l3721:	
 10935                           
 10936                           ;lighting.c: 522: {
 10937                           ;lighting.c: 524: led1_command(0xFF, 0xFF, 0, 0);
 10938  0FC7  30FF               	movlw	255
 10939  0FC8  00A0               	movwf	??i1_display_blade_lights
 10940  0FC9  0820               	movf	??i1_display_blade_lights,w
 10941  0FCA  00F3               	movwf	i1led1_command@red
 10942  0FCB  01F4               	clrf	i1led1_command@green
 10943  0FCC  01F5               	clrf	i1led1_command@blue
 10944  0FCD  30FF               	movlw	255
 10945  0FCE  3195  2594  318C   	fcall	i1_led1_command
 10946                           
 10947                           ;lighting.c: 525: _delay((unsigned long)((25)*(32000000/4000.0)));
 10948  0FD1  3002               	movlw	2
 10949  0FD2  0020               	movlb	0	; select bank0
 10950  0FD3  00A2               	movwf	??i1_display_blade_lights+2
 10951  0FD4  3004               	movlw	4
 10952  0FD5  00A1               	movwf	??i1_display_blade_lights+1
 10953  0FD6  30BA               	movlw	186
 10954  0FD7  00A0               	movwf	??i1_display_blade_lights
 10955  0FD8                     u302_27:	
 10956  0FD8  0BA0               	decfsz	??i1_display_blade_lights,f
 10957  0FD9  2FD8               	goto	u302_27
 10958  0FDA  0BA1               	decfsz	??i1_display_blade_lights+1,f
 10959  0FDB  2FD8               	goto	u302_27
 10960  0FDC  0BA2               	decfsz	??i1_display_blade_lights+2,f
 10961  0FDD  2FD8               	goto	u302_27
 10962  0FDE  0000               	nop
 10963                           
 10964                           ;lighting.c: 527: led1_command(0xFF, 0, 0, 0);
 10965  0FDF  01F3               	clrf	i1led1_command@red
 10966  0FE0  01F4               	clrf	i1led1_command@green
 10967  0FE1  01F5               	clrf	i1led1_command@blue
 10968  0FE2  30FF               	movlw	255
 10969  0FE3  3195  2594  318C   	fcall	i1_led1_command
 10970                           
 10971                           ;lighting.c: 528: _delay((unsigned long)((25)*(32000000/4000.0)));
 10972  0FE6  3002               	movlw	2
 10973  0FE7  0020               	movlb	0	; select bank0
 10974  0FE8  00A2               	movwf	??i1_display_blade_lights+2
 10975  0FE9  3004               	movlw	4
 10976  0FEA  00A1               	movwf	??i1_display_blade_lights+1
 10977  0FEB  30BA               	movlw	186
 10978  0FEC  00A0               	movwf	??i1_display_blade_lights
 10979  0FED                     u303_27:	
 10980  0FED  0BA0               	decfsz	??i1_display_blade_lights,f
 10981  0FEE  2FED               	goto	u303_27
 10982  0FEF  0BA1               	decfsz	??i1_display_blade_lights+1,f
 10983  0FF0  2FED               	goto	u303_27
 10984  0FF1  0BA2               	decfsz	??i1_display_blade_lights+2,f
 10985  0FF2  2FED               	goto	u303_27
 10986  0FF3  0000               	nop
 10987  0FF4  3001               	movlw	1
 10988  0FF5  0020               	movlb	0	; select bank0
 10989  0FF6  00A0               	movwf	??i1_display_blade_lights
 10990  0FF7  0820               	movf	??i1_display_blade_lights,w
 10991  0FF8  07A5               	addwf	i1display_blade_lights@i_591,f
 10992  0FF9  3004               	movlw	4
 10993  0FFA  0225               	subwf	i1display_blade_lights@i_591,w
 10994  0FFB  1C03               	skipc
 10995  0FFC  2FC7               	goto	i1l3721
 10996  0FFD                     i1l3731:	
 10997                           
 10998                           ;lighting.c: 529: }
 10999                           ;lighting.c: 530: }
 11000                           ;lighting.c: 531: leds_off();
 11001  0FFD  3194  24FA         	fcall	i1_leds_off
 11002  0FFF  0008               	return
 11003  1000                     __end_ofi1_display_blade_lights:	
 11004                           
 11005                           	psect	text27
 11006  14FA                     __ptext27:	
 11007 ;; *************** function i1_leds_off *****************
 11008 ;; Defined at:
 11009 ;;		line 899 in file "../../source/lighting.c"
 11010 ;; Parameters:    Size  Location     Type
 11011 ;;		None
 11012 ;; Auto vars:     Size  Location     Type
 11013 ;;  leds_off        2    7[COMMON] int 
 11014 ;;  leds_off        2    5[COMMON] int 
 11015 ;; Return value:  Size  Location     Type
 11016 ;;		None               void
 11017 ;; Registers used:
 11018 ;;		wreg, status,2, status,0, pclath, cstack
 11019 ;; Tracked objects:
 11020 ;;		On entry : 0/0
 11021 ;;		On exit  : 0/0
 11022 ;;		Unchanged: 0/0
 11023 ;; Data sizes:     COMMON   BANK0   BANK1   BANK2   BANK3   BANK4   BANK5   BANK6   BANK7   BANK8   BANK9  BANK10  BANK1
      +1  BANK12  BANK13  BANK14  BANK15  BANK16  BANK17  BANK18  BANK19  BANK20  BANK21  BANK22  BANK23  BANK24  BANK25
 11024 ;;      Params:         0       0       0       0       0       0       0       0       0       0       0       0       
      +0       0       0       0       0       0       0       0       0       0       0       0       0       0       0
 11025 ;;      Locals:         4       0       0       0       0       0       0       0       0       0       0       0       
      +0       0       0       0       0       0       0       0       0       0       0       0       0       0       0
 11026 ;;      Temps:          2       0       0       0       0       0       0       0       0       0       0       0       
      +0       0       0       0       0       0       0       0       0       0       0       0       0       0       0
 11027 ;;      Totals:         6       0       0       0       0       0       0       0       0       0       0       0       
      +0       0       0       0       0       0       0       0       0       0       0       0       0       0       0
 11028 ;;Total ram usage:        6 bytes
 11029 ;; Hardware stack levels used:    1
 11030 ;; Hardware stack levels required when called:    1
 11031 ;; This function calls:
 11032 ;;		i1_writespi
 11033 ;; This function is called by:
 11034 ;;		i1_display_blade_lights
 11035 ;; This function uses a non-reentrant model
 11036 ;;
 11037                           
 11038                           
 11039                           ;psect for function i1_leds_off
 11040  14FA                     i1_leds_off:	
 11041                           
 11042                           ;lighting.c: 902: for(int i = 0;i < 4; i++)
 11043                           
 11044                           ;incstack = 0
 11045                           ; Regs used in i1_leds_off: [wreg+status,2+status,0+pclath+cstack]
 11046  14FA  01F5               	clrf	i1leds_off@i
 11047  14FB  01F6               	clrf	i1leds_off@i+1
 11048  14FC  0876               	movf	i1leds_off@i+1,w
 11049  14FD  3A80               	xorlw	128
 11050  14FE  00F3               	movwf	??i1_leds_off
 11051  14FF  3080               	movlw	128
 11052  1500  0273               	subwf	??i1_leds_off,w
 11053  1501  1D03               	skipz
 11054  1502  2D05               	goto	u176_25
 11055  1503  3004               	movlw	4
 11056  1504  0275               	subwf	i1leds_off@i,w
 11057  1505                     u176_25:	
 11058  1505  1803               	btfsc	3,0
 11059  1506  2D1A               	goto	i1l2911
 11060  1507                     i1l2905:	
 11061                           
 11062                           ;lighting.c: 903: {
 11063                           ;lighting.c: 904: writespi(0x00);
 11064  1507  3000               	movlw	0
 11065  1508  3192  224C  3194   	fcall	i1_writespi
 11066  150B  3001               	movlw	1
 11067  150C  07F5               	addwf	i1leds_off@i,f
 11068  150D  3000               	movlw	0
 11069  150E  3DF6               	addwfc	i1leds_off@i+1,f
 11070  150F  0876               	movf	i1leds_off@i+1,w
 11071  1510  3A80               	xorlw	128
 11072  1511  00F3               	movwf	??i1_leds_off
 11073  1512  3080               	movlw	128
 11074  1513  0273               	subwf	??i1_leds_off,w
 11075  1514  1D03               	skipz
 11076  1515  2D18               	goto	u177_25
 11077  1516  3004               	movlw	4
 11078  1517  0275               	subwf	i1leds_off@i,w
 11079  1518                     u177_25:	
 11080  1518  1C03               	skipc
 11081  1519  2D07               	goto	i1l2905
 11082  151A                     i1l2911:	
 11083                           
 11084                           ;lighting.c: 905: }
 11085                           ;lighting.c: 907: writespi(0xFF);
 11086  151A  30FF               	movlw	255
 11087  151B  3192  224C  3194   	fcall	i1_writespi
 11088                           
 11089                           ;lighting.c: 908: writespi(0);
 11090  151E  3000               	movlw	0
 11091  151F  3192  224C  3194   	fcall	i1_writespi
 11092                           
 11093                           ;lighting.c: 909: writespi(0);
 11094  1522  3000               	movlw	0
 11095  1523  3192  224C  3194   	fcall	i1_writespi
 11096                           
 11097                           ;lighting.c: 910: writespi(0);
 11098  1526  3000               	movlw	0
 11099  1527  3192  224C  3194   	fcall	i1_writespi
 11100                           
 11101                           ;lighting.c: 912: writespi(0xFF);
 11102  152A  30FF               	movlw	255
 11103  152B  3192  224C  3194   	fcall	i1_writespi
 11104                           
 11105                           ;lighting.c: 913: writespi(0);
 11106  152E  3000               	movlw	0
 11107  152F  3192  224C  3194   	fcall	i1_writespi
 11108                           
 11109                           ;lighting.c: 914: writespi(0);
 11110  1532  3000               	movlw	0
 11111  1533  3192  224C  3194   	fcall	i1_writespi
 11112                           
 11113                           ;lighting.c: 915: writespi(0);
 11114  1536  3000               	movlw	0
 11115  1537  3192  224C  3194   	fcall	i1_writespi
 11116                           
 11117                           ;lighting.c: 917: writespi(0xFF);
 11118  153A  30FF               	movlw	255
 11119  153B  3192  224C  3194   	fcall	i1_writespi
 11120                           
 11121                           ;lighting.c: 918: writespi(0);
 11122  153E  3000               	movlw	0
 11123  153F  3192  224C  3194   	fcall	i1_writespi
 11124                           
 11125                           ;lighting.c: 919: writespi(0);
 11126  1542  3000               	movlw	0
 11127  1543  3192  224C  3194   	fcall	i1_writespi
 11128                           
 11129                           ;lighting.c: 920: writespi(0);
 11130  1546  3000               	movlw	0
 11131  1547  3192  224C  3194   	fcall	i1_writespi
 11132                           
 11133                           ;lighting.c: 922: writespi(0xFF);
 11134  154A  30FF               	movlw	255
 11135  154B  3192  224C  3194   	fcall	i1_writespi
 11136                           
 11137                           ;lighting.c: 923: writespi(0);
 11138  154E  3000               	movlw	0
 11139  154F  3192  224C  3194   	fcall	i1_writespi
 11140                           
 11141                           ;lighting.c: 924: writespi(0);
 11142  1552  3000               	movlw	0
 11143  1553  3192  224C  3194   	fcall	i1_writespi
 11144                           
 11145                           ;lighting.c: 925: writespi(0);
 11146  1556  3000               	movlw	0
 11147  1557  3192  224C  3194   	fcall	i1_writespi
 11148                           
 11149                           ;lighting.c: 927: writespi(0xFF);
 11150  155A  30FF               	movlw	255
 11151  155B  3192  224C  3194   	fcall	i1_writespi
 11152                           
 11153                           ;lighting.c: 928: writespi(0);
 11154  155E  3000               	movlw	0
 11155  155F  3192  224C  3194   	fcall	i1_writespi
 11156                           
 11157                           ;lighting.c: 929: writespi(0);
 11158  1562  3000               	movlw	0
 11159  1563  3192  224C  3194   	fcall	i1_writespi
 11160                           
 11161                           ;lighting.c: 930: writespi(0);
 11162  1566  3000               	movlw	0
 11163  1567  3192  224C  3194   	fcall	i1_writespi
 11164                           
 11165                           ;lighting.c: 932: for(int i = 0;i < 4; i++)
 11166  156A  01F7               	clrf	i1leds_off@i_669
 11167  156B  01F8               	clrf	i1leds_off@i_669+1
 11168  156C  0878               	movf	i1leds_off@i_669+1,w
 11169  156D  3A80               	xorlw	128
 11170  156E  00F3               	movwf	??i1_leds_off
 11171  156F  3080               	movlw	128
 11172  1570  0273               	subwf	??i1_leds_off,w
 11173  1571  1D03               	skipz
 11174  1572  2D75               	goto	u178_25
 11175  1573  3004               	movlw	4
 11176  1574  0277               	subwf	i1leds_off@i_669,w
 11177  1575                     u178_25:	
 11178  1575  1803               	btfsc	3,0
 11179  1576  2D8A               	goto	i1l2925
 11180  1577                     i1l2919:	
 11181                           
 11182                           ;lighting.c: 933: {
 11183                           ;lighting.c: 934: writespi(0xFF);
 11184  1577  30FF               	movlw	255
 11185  1578  3192  224C  3194   	fcall	i1_writespi
 11186  157B  3001               	movlw	1
 11187  157C  07F7               	addwf	i1leds_off@i_669,f
 11188  157D  3000               	movlw	0
 11189  157E  3DF8               	addwfc	i1leds_off@i_669+1,f
 11190  157F  0878               	movf	i1leds_off@i_669+1,w
 11191  1580  3A80               	xorlw	128
 11192  1581  00F3               	movwf	??i1_leds_off
 11193  1582  3080               	movlw	128
 11194  1583  0273               	subwf	??i1_leds_off,w
 11195  1584  1D03               	skipz
 11196  1585  2D88               	goto	u179_25
 11197  1586  3004               	movlw	4
 11198  1587  0277               	subwf	i1leds_off@i_669,w
 11199  1588                     u179_25:	
 11200  1588  1C03               	skipc
 11201  1589  2D77               	goto	i1l2919
 11202  158A                     i1l2925:	
 11203                           
 11204                           ;lighting.c: 935: }
 11205                           ;lighting.c: 936: _delay((unsigned long)((20)*(32000000/4000.0)));
 11206  158A  30D0               	movlw	208
 11207  158B  00F4               	movwf	??i1_leds_off+1
 11208  158C  30C9               	movlw	201
 11209  158D  00F3               	movwf	??i1_leds_off
 11210  158E                     u304_27:	
 11211  158E  0BF3               	decfsz	??i1_leds_off,f
 11212  158F  2D8E               	goto	u304_27
 11213  1590  0BF4               	decfsz	??i1_leds_off+1,f
 11214  1591  2D8E               	goto	u304_27
 11215  1592  3200               	nop2
 11216  1593  0008               	return
 11217  1594                     __end_ofi1_leds_off:	
 11218                           
 11219                           	psect	text28
 11220  12C0                     __ptext28:	
 11221 ;; *************** function i1_led_start *****************
 11222 ;; Defined at:
 11223 ;;		line 549 in file "../../source/lighting.c"
 11224 ;; Parameters:    Size  Location     Type
 11225 ;;		None
 11226 ;; Auto vars:     Size  Location     Type
 11227 ;;  led_start       2    4[COMMON] int 
 11228 ;; Return value:  Size  Location     Type
 11229 ;;		None               void
 11230 ;; Registers used:
 11231 ;;		wreg, status,2, status,0, pclath, cstack
 11232 ;; Tracked objects:
 11233 ;;		On entry : 0/0
 11234 ;;		On exit  : 0/0
 11235 ;;		Unchanged: 0/0
 11236 ;; Data sizes:     COMMON   BANK0   BANK1   BANK2   BANK3   BANK4   BANK5   BANK6   BANK7   BANK8   BANK9  BANK10  BANK1
      +1  BANK12  BANK13  BANK14  BANK15  BANK16  BANK17  BANK18  BANK19  BANK20  BANK21  BANK22  BANK23  BANK24  BANK25
 11237 ;;      Params:         0       0       0       0       0       0       0       0       0       0       0       0       
      +0       0       0       0       0       0       0       0       0       0       0       0       0       0       0
 11238 ;;      Locals:         2       0       0       0       0       0       0       0       0       0       0       0       
      +0       0       0       0       0       0       0       0       0       0       0       0       0       0       0
 11239 ;;      Temps:          1       0       0       0       0       0       0       0       0       0       0       0       
      +0       0       0       0       0       0       0       0       0       0       0       0       0       0       0
 11240 ;;      Totals:         3       0       0       0       0       0       0       0       0       0       0       0       
      +0       0       0       0       0       0       0       0       0       0       0       0       0       0       0
 11241 ;;Total ram usage:        3 bytes
 11242 ;; Hardware stack levels used:    1
 11243 ;; Hardware stack levels required when called:    1
 11244 ;; This function calls:
 11245 ;;		i1_writespi
 11246 ;; This function is called by:
 11247 ;;		i1_display_blade_lights
 11248 ;; This function uses a non-reentrant model
 11249 ;;
 11250                           
 11251                           
 11252                           ;psect for function i1_led_start
 11253  12C0                     i1_led_start:	
 11254                           
 11255                           ;lighting.c: 552: for(int i = 0;i < 4; i++)
 11256                           
 11257                           ;incstack = 0
 11258                           ; Regs used in i1_led_start: [wreg+status,2+status,0+pclath+cstack]
 11259  12C0  01F4               	clrf	i1led_start@i
 11260  12C1  01F5               	clrf	i1led_start@i+1
 11261  12C2                     L6:	
 11262  12C2  0875               	movf	i1led_start@i+1,w
 11263  12C3  3A80               	xorlw	128
 11264  12C4  00F3               	movwf	??i1_led_start
 11265  12C5  3080               	movlw	128
 11266  12C6  0273               	subwf	??i1_led_start,w
 11267  12C7  1D03               	skipz
 11268  12C8  2ACB               	goto	u152_25
 11269  12C9  3004               	movlw	4
 11270  12CA  0274               	subwf	i1led_start@i,w
 11271  12CB                     u152_25:	
 11272  12CB  1803               	btfsc	3,0
 11273  12CC  0008               	return
 11274                           
 11275                           ;lighting.c: 553: {
 11276                           ;lighting.c: 554: writespi(0x00);
 11277  12CD  3000               	movlw	0
 11278  12CE  3192  224C  3192   	fcall	i1_writespi
 11279  12D1  3001               	movlw	1
 11280  12D2  07F4               	addwf	i1led_start@i,f
 11281  12D3  3000               	movlw	0
 11282  12D4  3DF5               	addwfc	i1led_start@i+1,f
 11283  12D5  2AC2               	goto	L6
 11284  12D6                     __end_ofi1_led_start:	
 11285                           
 11286                           	psect	text29
 11287  12AA                     __ptext29:	
 11288 ;; *************** function i1_led_end *****************
 11289 ;; Defined at:
 11290 ;;		line 558 in file "../../source/lighting.c"
 11291 ;; Parameters:    Size  Location     Type
 11292 ;;		None
 11293 ;; Auto vars:     Size  Location     Type
 11294 ;;  led_end         2    4[COMMON] int 
 11295 ;; Return value:  Size  Location     Type
 11296 ;;		None               void
 11297 ;; Registers used:
 11298 ;;		wreg, status,2, status,0, pclath, cstack
 11299 ;; Tracked objects:
 11300 ;;		On entry : 0/0
 11301 ;;		On exit  : 0/0
 11302 ;;		Unchanged: 0/0
 11303 ;; Data sizes:     COMMON   BANK0   BANK1   BANK2   BANK3   BANK4   BANK5   BANK6   BANK7   BANK8   BANK9  BANK10  BANK1
      +1  BANK12  BANK13  BANK14  BANK15  BANK16  BANK17  BANK18  BANK19  BANK20  BANK21  BANK22  BANK23  BANK24  BANK25
 11304 ;;      Params:         0       0       0       0       0       0       0       0       0       0       0       0       
      +0       0       0       0       0       0       0       0       0       0       0       0       0       0       0
 11305 ;;      Locals:         2       0       0       0       0       0       0       0       0       0       0       0       
      +0       0       0       0       0       0       0       0       0       0       0       0       0       0       0
 11306 ;;      Temps:          1       0       0       0       0       0       0       0       0       0       0       0       
      +0       0       0       0       0       0       0       0       0       0       0       0       0       0       0
 11307 ;;      Totals:         3       0       0       0       0       0       0       0       0       0       0       0       
      +0       0       0       0       0       0       0       0       0       0       0       0       0       0       0
 11308 ;;Total ram usage:        3 bytes
 11309 ;; Hardware stack levels used:    1
 11310 ;; Hardware stack levels required when called:    1
 11311 ;; This function calls:
 11312 ;;		i1_writespi
 11313 ;; This function is called by:
 11314 ;;		i1_display_blade_lights
 11315 ;; This function uses a non-reentrant model
 11316 ;;
 11317                           
 11318                           
 11319                           ;psect for function i1_led_end
 11320  12AA                     i1_led_end:	
 11321                           
 11322                           ;lighting.c: 561: for(int i = 0;i < 4; i++)
 11323                           
 11324                           ;incstack = 0
 11325                           ; Regs used in i1_led_end: [wreg+status,2+status,0+pclath+cstack]
 11326  12AA  01F4               	clrf	i1led_end@i
 11327  12AB  01F5               	clrf	i1led_end@i+1
 11328  12AC                     L7:	
 11329  12AC  0875               	movf	i1led_end@i+1,w
 11330  12AD  3A80               	xorlw	128
 11331  12AE  00F3               	movwf	??i1_led_end
 11332  12AF  3080               	movlw	128
 11333  12B0  0273               	subwf	??i1_led_end,w
 11334  12B1  1D03               	skipz
 11335  12B2  2AB5               	goto	u154_25
 11336  12B3  3004               	movlw	4
 11337  12B4  0274               	subwf	i1led_end@i,w
 11338  12B5                     u154_25:	
 11339  12B5  1803               	btfsc	3,0
 11340  12B6  0008               	return
 11341                           
 11342                           ;lighting.c: 562: {
 11343                           ;lighting.c: 563: writespi(0xFF);
 11344  12B7  30FF               	movlw	255
 11345  12B8  3192  224C  3192   	fcall	i1_writespi
 11346  12BB  3001               	movlw	1
 11347  12BC  07F4               	addwf	i1led_end@i,f
 11348  12BD  3000               	movlw	0
 11349  12BE  3DF5               	addwfc	i1led_end@i+1,f
 11350  12BF  2AAC               	goto	L7
 11351  12C0                     __end_ofi1_led_end:	
 11352                           
 11353                           	psect	text30
 11354  125C                     __ptext30:	
 11355 ;; *************** function i1_led_command *****************
 11356 ;; Defined at:
 11357 ;;		line 567 in file "../../source/lighting.c"
 11358 ;; Parameters:    Size  Location     Type
 11359 ;;  brightness      1    wreg     unsigned char 
 11360 ;;  red             1    3[COMMON] unsigned char 
 11361 ;;  green           1    4[COMMON] unsigned char 
 11362 ;;  blue            1    5[COMMON] unsigned char 
 11363 ;; Auto vars:     Size  Location     Type
 11364 ;;  brightness      1    6[COMMON] unsigned char 
 11365 ;; Return value:  Size  Location     Type
 11366 ;;		None               void
 11367 ;; Registers used:
 11368 ;;		wreg, status,2, status,0, pclath, cstack
 11369 ;; Tracked objects:
 11370 ;;		On entry : 0/0
 11371 ;;		On exit  : 0/0
 11372 ;;		Unchanged: 0/0
 11373 ;; Data sizes:     COMMON   BANK0   BANK1   BANK2   BANK3   BANK4   BANK5   BANK6   BANK7   BANK8   BANK9  BANK10  BANK1
      +1  BANK12  BANK13  BANK14  BANK15  BANK16  BANK17  BANK18  BANK19  BANK20  BANK21  BANK22  BANK23  BANK24  BANK25
 11374 ;;      Params:         3       0       0       0       0       0       0       0       0       0       0       0       
      +0       0       0       0       0       0       0       0       0       0       0       0       0       0       0
 11375 ;;      Locals:         1       0       0       0       0       0       0       0       0       0       0       0       
      +0       0       0       0       0       0       0       0       0       0       0       0       0       0       0
 11376 ;;      Temps:          0       0       0       0       0       0       0       0       0       0       0       0       
      +0       0       0       0       0       0       0       0       0       0       0       0       0       0       0
 11377 ;;      Totals:         4       0       0       0       0       0       0       0       0       0       0       0       
      +0       0       0       0       0       0       0       0       0       0       0       0       0       0       0
 11378 ;;Total ram usage:        4 bytes
 11379 ;; Hardware stack levels used:    1
 11380 ;; Hardware stack levels required when called:    1
 11381 ;; This function calls:
 11382 ;;		i1_writespi
 11383 ;; This function is called by:
 11384 ;;		i1_display_blade_lights
 11385 ;; This function uses a non-reentrant model
 11386 ;;
 11387                           
 11388                           
 11389                           ;psect for function i1_led_command
 11390  125C                     i1_led_command:	
 11391                           
 11392                           ;incstack = 0
 11393                           ; Regs used in i1_led_command: [wreg+status,2+status,0+pclath+cstack]
 11394                           ;i1led_command@brightness stored from wreg
 11395  125C  00F6               	movwf	i1led_command@brightness
 11396                           
 11397                           ;lighting.c: 572: writespi(brightness);
 11398  125D  0876               	movf	i1led_command@brightness,w
 11399  125E  3192  224C  3192   	fcall	i1_writespi
 11400                           
 11401                           ;lighting.c: 573: writespi(blue);
 11402  1261  0875               	movf	i1led_command@blue,w
 11403  1262  3192  224C  3192   	fcall	i1_writespi
 11404                           
 11405                           ;lighting.c: 574: writespi(green);
 11406  1265  0874               	movf	i1led_command@green,w
 11407  1266  3192  224C  3192   	fcall	i1_writespi
 11408                           
 11409                           ;lighting.c: 575: writespi(red);
 11410  1269  0873               	movf	i1led_command@red,w
 11411  126A  3192  224C         	fcall	i1_writespi
 11412  126C  0008               	return
 11413  126D                     __end_ofi1_led_command:	
 11414                           
 11415                           	psect	text31
 11416  083C                     __ptext31:	
 11417 ;; *************** function i1_led5_command *****************
 11418 ;; Defined at:
 11419 ;;		line 750 in file "../../source/lighting.c"
 11420 ;; Parameters:    Size  Location     Type
 11421 ;;  brightness      1    wreg     unsigned char 
 11422 ;;  red             1    3[COMMON] unsigned char 
 11423 ;;  green           1    4[COMMON] unsigned char 
 11424 ;;  blue            1    5[COMMON] unsigned char 
 11425 ;; Auto vars:     Size  Location     Type
 11426 ;;  brightness      1    8[COMMON] unsigned char 
 11427 ;;  led5_command    2   11[COMMON] int 
 11428 ;;  led5_command    2    9[COMMON] int 
 11429 ;; Return value:  Size  Location     Type
 11430 ;;		None               void
 11431 ;; Registers used:
 11432 ;;		wreg, status,2, status,0, pclath, cstack
 11433 ;; Tracked objects:
 11434 ;;		On entry : 0/0
 11435 ;;		On exit  : 0/0
 11436 ;;		Unchanged: 0/0
 11437 ;; Data sizes:     COMMON   BANK0   BANK1   BANK2   BANK3   BANK4   BANK5   BANK6   BANK7   BANK8   BANK9  BANK10  BANK1
      +1  BANK12  BANK13  BANK14  BANK15  BANK16  BANK17  BANK18  BANK19  BANK20  BANK21  BANK22  BANK23  BANK24  BANK25
 11438 ;;      Params:         3       0       0       0       0       0       0       0       0       0       0       0       
      +0       0       0       0       0       0       0       0       0       0       0       0       0       0       0
 11439 ;;      Locals:         5       0       0       0       0       0       0       0       0       0       0       0       
      +0       0       0       0       0       0       0       0       0       0       0       0       0       0       0
 11440 ;;      Temps:          2       0       0       0       0       0       0       0       0       0       0       0       
      +0       0       0       0       0       0       0       0       0       0       0       0       0       0       0
 11441 ;;      Totals:        10       0       0       0       0       0       0       0       0       0       0       0       
      +0       0       0       0       0       0       0       0       0       0       0       0       0       0       0
 11442 ;;Total ram usage:       10 bytes
 11443 ;; Hardware stack levels used:    1
 11444 ;; Hardware stack levels required when called:    1
 11445 ;; This function calls:
 11446 ;;		i1_writespi
 11447 ;; This function is called by:
 11448 ;;		i1_display_blade_lights
 11449 ;; This function uses a non-reentrant model
 11450 ;;
 11451                           
 11452                           
 11453                           ;psect for function i1_led5_command
 11454  083C                     i1_led5_command:	
 11455                           
 11456                           ;incstack = 0
 11457                           ; Regs used in i1_led5_command: [wreg+status,2+status,0+pclath+cstack]
 11458                           ;i1led5_command@brightness stored from wreg
 11459  083C  00F8               	movwf	i1led5_command@brightness
 11460                           
 11461                           ;lighting.c: 756: for(int i = 0;i < 4; i++)
 11462  083D  01F9               	clrf	i1led5_command@i
 11463  083E  01FA               	clrf	i1led5_command@i+1
 11464  083F  087A               	movf	i1led5_command@i+1,w
 11465  0840  3A80               	xorlw	128
 11466  0841  00F6               	movwf	??i1_led5_command
 11467  0842  3080               	movlw	128
 11468  0843  0276               	subwf	??i1_led5_command,w
 11469  0844  1D03               	skipz
 11470  0845  2848               	goto	u172_25
 11471  0846  3004               	movlw	4
 11472  0847  0279               	subwf	i1led5_command@i,w
 11473  0848                     u172_25:	
 11474  0848  1803               	btfsc	3,0
 11475  0849  285D               	goto	i1l2883
 11476  084A                     i1l2877:	
 11477                           
 11478                           ;lighting.c: 757: {
 11479                           ;lighting.c: 758: writespi(0x00);
 11480  084A  3000               	movlw	0
 11481  084B  3192  224C  3188   	fcall	i1_writespi
 11482  084E  3001               	movlw	1
 11483  084F  07F9               	addwf	i1led5_command@i,f
 11484  0850  3000               	movlw	0
 11485  0851  3DFA               	addwfc	i1led5_command@i+1,f
 11486  0852  087A               	movf	i1led5_command@i+1,w
 11487  0853  3A80               	xorlw	128
 11488  0854  00F6               	movwf	??i1_led5_command
 11489  0855  3080               	movlw	128
 11490  0856  0276               	subwf	??i1_led5_command,w
 11491  0857  1D03               	skipz
 11492  0858  285B               	goto	u173_25
 11493  0859  3004               	movlw	4
 11494  085A  0279               	subwf	i1led5_command@i,w
 11495  085B                     u173_25:	
 11496  085B  1C03               	skipc
 11497  085C  284A               	goto	i1l2877
 11498  085D                     i1l2883:	
 11499                           
 11500                           ;lighting.c: 759: }
 11501                           ;lighting.c: 761: writespi(0xFF);
 11502  085D  30FF               	movlw	255
 11503  085E  3192  224C  3188   	fcall	i1_writespi
 11504                           
 11505                           ;lighting.c: 762: writespi(0);
 11506  0861  3000               	movlw	0
 11507  0862  3192  224C  3188   	fcall	i1_writespi
 11508                           
 11509                           ;lighting.c: 763: writespi(0);
 11510  0865  3000               	movlw	0
 11511  0866  3192  224C  3188   	fcall	i1_writespi
 11512                           
 11513                           ;lighting.c: 764: writespi(0);
 11514  0869  3000               	movlw	0
 11515  086A  3192  224C  3188   	fcall	i1_writespi
 11516                           
 11517                           ;lighting.c: 766: writespi(0xFF);
 11518  086D  30FF               	movlw	255
 11519  086E  3192  224C  3188   	fcall	i1_writespi
 11520                           
 11521                           ;lighting.c: 767: writespi(0);
 11522  0871  3000               	movlw	0
 11523  0872  3192  224C  3188   	fcall	i1_writespi
 11524                           
 11525                           ;lighting.c: 768: writespi(0);
 11526  0875  3000               	movlw	0
 11527  0876  3192  224C  3188   	fcall	i1_writespi
 11528                           
 11529                           ;lighting.c: 769: writespi(0);
 11530  0879  3000               	movlw	0
 11531  087A  3192  224C  3188   	fcall	i1_writespi
 11532                           
 11533                           ;lighting.c: 771: writespi(0xFF);
 11534  087D  30FF               	movlw	255
 11535  087E  3192  224C  3188   	fcall	i1_writespi
 11536                           
 11537                           ;lighting.c: 772: writespi(0);
 11538  0881  3000               	movlw	0
 11539  0882  3192  224C  3188   	fcall	i1_writespi
 11540                           
 11541                           ;lighting.c: 773: writespi(0);
 11542  0885  3000               	movlw	0
 11543  0886  3192  224C  3188   	fcall	i1_writespi
 11544                           
 11545                           ;lighting.c: 774: writespi(0);
 11546  0889  3000               	movlw	0
 11547  088A  3192  224C  3188   	fcall	i1_writespi
 11548                           
 11549                           ;lighting.c: 776: writespi(0xFF);
 11550  088D  30FF               	movlw	255
 11551  088E  3192  224C  3188   	fcall	i1_writespi
 11552                           
 11553                           ;lighting.c: 777: writespi(0);
 11554  0891  3000               	movlw	0
 11555  0892  3192  224C  3188   	fcall	i1_writespi
 11556                           
 11557                           ;lighting.c: 778: writespi(0);
 11558  0895  3000               	movlw	0
 11559  0896  3192  224C  3188   	fcall	i1_writespi
 11560                           
 11561                           ;lighting.c: 779: writespi(0);
 11562  0899  3000               	movlw	0
 11563  089A  3192  224C  3188   	fcall	i1_writespi
 11564                           
 11565                           ;lighting.c: 781: writespi(brightness);
 11566  089D  0878               	movf	i1led5_command@brightness,w
 11567  089E  3192  224C  3188   	fcall	i1_writespi
 11568                           
 11569                           ;lighting.c: 782: writespi(blue);
 11570  08A1  0875               	movf	i1led5_command@blue,w
 11571  08A2  3192  224C  3188   	fcall	i1_writespi
 11572                           
 11573                           ;lighting.c: 783: writespi(green);
 11574  08A5  0874               	movf	i1led5_command@green,w
 11575  08A6  3192  224C  3188   	fcall	i1_writespi
 11576                           
 11577                           ;lighting.c: 784: writespi(red);
 11578  08A9  0873               	movf	i1led5_command@red,w
 11579  08AA  3192  224C  3188   	fcall	i1_writespi
 11580                           
 11581                           ;lighting.c: 786: for(int i = 0;i < 4; i++)
 11582  08AD  01FB               	clrf	i1led5_command@i_652
 11583  08AE  01FC               	clrf	i1led5_command@i_652+1
 11584  08AF  087C               	movf	i1led5_command@i_652+1,w
 11585  08B0  3A80               	xorlw	128
 11586  08B1  00F6               	movwf	??i1_led5_command
 11587  08B2  3080               	movlw	128
 11588  08B3  0276               	subwf	??i1_led5_command,w
 11589  08B4  1D03               	skipz
 11590  08B5  28B8               	goto	u174_25
 11591  08B6  3004               	movlw	4
 11592  08B7  027B               	subwf	i1led5_command@i_652,w
 11593  08B8                     u174_25:	
 11594  08B8  1803               	btfsc	3,0
 11595  08B9  28CD               	goto	i1l2897
 11596  08BA                     i1l2891:	
 11597                           
 11598                           ;lighting.c: 787: {
 11599                           ;lighting.c: 788: writespi(0xFF);
 11600  08BA  30FF               	movlw	255
 11601  08BB  3192  224C  3188   	fcall	i1_writespi
 11602  08BE  3001               	movlw	1
 11603  08BF  07FB               	addwf	i1led5_command@i_652,f
 11604  08C0  3000               	movlw	0
 11605  08C1  3DFC               	addwfc	i1led5_command@i_652+1,f
 11606  08C2  087C               	movf	i1led5_command@i_652+1,w
 11607  08C3  3A80               	xorlw	128
 11608  08C4  00F6               	movwf	??i1_led5_command
 11609  08C5  3080               	movlw	128
 11610  08C6  0276               	subwf	??i1_led5_command,w
 11611  08C7  1D03               	skipz
 11612  08C8  28CB               	goto	u175_25
 11613  08C9  3004               	movlw	4
 11614  08CA  027B               	subwf	i1led5_command@i_652,w
 11615  08CB                     u175_25:	
 11616  08CB  1C03               	skipc
 11617  08CC  28BA               	goto	i1l2891
 11618  08CD                     i1l2897:	
 11619                           
 11620                           ;lighting.c: 789: }
 11621                           ;lighting.c: 790: _delay((unsigned long)((20)*(32000000/4000.0)));
 11622  08CD  30D0               	movlw	208
 11623  08CE  00F7               	movwf	??i1_led5_command+1
 11624  08CF  30C9               	movlw	201
 11625  08D0  00F6               	movwf	??i1_led5_command
 11626  08D1                     u305_27:	
 11627  08D1  0BF6               	decfsz	??i1_led5_command,f
 11628  08D2  28D1               	goto	u305_27
 11629  08D3  0BF7               	decfsz	??i1_led5_command+1,f
 11630  08D4  28D1               	goto	u305_27
 11631  08D5  3200               	nop2
 11632  08D6  0008               	return
 11633  08D7                     __end_ofi1_led5_command:	
 11634                           
 11635                           	psect	text32
 11636  1765                     __ptext32:	
 11637 ;; *************** function i1_led4_command *****************
 11638 ;; Defined at:
 11639 ;;		line 707 in file "../../source/lighting.c"
 11640 ;; Parameters:    Size  Location     Type
 11641 ;;  brightness      1    wreg     unsigned char 
 11642 ;;  red             1    3[COMMON] unsigned char 
 11643 ;;  green           1    4[COMMON] unsigned char 
 11644 ;;  blue            1    5[COMMON] unsigned char 
 11645 ;; Auto vars:     Size  Location     Type
 11646 ;;  brightness      1    8[COMMON] unsigned char 
 11647 ;;  led4_command    2   11[COMMON] int 
 11648 ;;  led4_command    2    9[COMMON] int 
 11649 ;; Return value:  Size  Location     Type
 11650 ;;		None               void
 11651 ;; Registers used:
 11652 ;;		wreg, status,2, status,0, pclath, cstack
 11653 ;; Tracked objects:
 11654 ;;		On entry : 0/0
 11655 ;;		On exit  : 0/0
 11656 ;;		Unchanged: 0/0
 11657 ;; Data sizes:     COMMON   BANK0   BANK1   BANK2   BANK3   BANK4   BANK5   BANK6   BANK7   BANK8   BANK9  BANK10  BANK1
      +1  BANK12  BANK13  BANK14  BANK15  BANK16  BANK17  BANK18  BANK19  BANK20  BANK21  BANK22  BANK23  BANK24  BANK25
 11658 ;;      Params:         3       0       0       0       0       0       0       0       0       0       0       0       
      +0       0       0       0       0       0       0       0       0       0       0       0       0       0       0
 11659 ;;      Locals:         5       0       0       0       0       0       0       0       0       0       0       0       
      +0       0       0       0       0       0       0       0       0       0       0       0       0       0       0
 11660 ;;      Temps:          2       0       0       0       0       0       0       0       0       0       0       0       
      +0       0       0       0       0       0       0       0       0       0       0       0       0       0       0
 11661 ;;      Totals:        10       0       0       0       0       0       0       0       0       0       0       0       
      +0       0       0       0       0       0       0       0       0       0       0       0       0       0       0
 11662 ;;Total ram usage:       10 bytes
 11663 ;; Hardware stack levels used:    1
 11664 ;; Hardware stack levels required when called:    1
 11665 ;; This function calls:
 11666 ;;		i1_writespi
 11667 ;; This function is called by:
 11668 ;;		i1_display_blade_lights
 11669 ;; This function uses a non-reentrant model
 11670 ;;
 11671                           
 11672                           
 11673                           ;psect for function i1_led4_command
 11674  1765                     i1_led4_command:	
 11675                           
 11676                           ;incstack = 0
 11677                           ; Regs used in i1_led4_command: [wreg+status,2+status,0+pclath+cstack]
 11678                           ;i1led4_command@brightness stored from wreg
 11679  1765  00F8               	movwf	i1led4_command@brightness
 11680                           
 11681                           ;lighting.c: 713: for(int i = 0;i < 4; i++)
 11682  1766  01F9               	clrf	i1led4_command@i
 11683  1767  01FA               	clrf	i1led4_command@i+1
 11684  1768  087A               	movf	i1led4_command@i+1,w
 11685  1769  3A80               	xorlw	128
 11686  176A  00F6               	movwf	??i1_led4_command
 11687  176B  3080               	movlw	128
 11688  176C  0276               	subwf	??i1_led4_command,w
 11689  176D  1D03               	skipz
 11690  176E  2F71               	goto	u168_25
 11691  176F  3004               	movlw	4
 11692  1770  0279               	subwf	i1led4_command@i,w
 11693  1771                     u168_25:	
 11694  1771  1803               	btfsc	3,0
 11695  1772  2F86               	goto	i1l2855
 11696  1773                     i1l2849:	
 11697                           
 11698                           ;lighting.c: 714: {
 11699                           ;lighting.c: 715: writespi(0x00);
 11700  1773  3000               	movlw	0
 11701  1774  3192  224C  3197   	fcall	i1_writespi
 11702  1777  3001               	movlw	1
 11703  1778  07F9               	addwf	i1led4_command@i,f
 11704  1779  3000               	movlw	0
 11705  177A  3DFA               	addwfc	i1led4_command@i+1,f
 11706  177B  087A               	movf	i1led4_command@i+1,w
 11707  177C  3A80               	xorlw	128
 11708  177D  00F6               	movwf	??i1_led4_command
 11709  177E  3080               	movlw	128
 11710  177F  0276               	subwf	??i1_led4_command,w
 11711  1780  1D03               	skipz
 11712  1781  2F84               	goto	u169_25
 11713  1782  3004               	movlw	4
 11714  1783  0279               	subwf	i1led4_command@i,w
 11715  1784                     u169_25:	
 11716  1784  1C03               	skipc
 11717  1785  2F73               	goto	i1l2849
 11718  1786                     i1l2855:	
 11719                           
 11720                           ;lighting.c: 716: }
 11721                           ;lighting.c: 718: writespi(0xFF);
 11722  1786  30FF               	movlw	255
 11723  1787  3192  224C  3197   	fcall	i1_writespi
 11724                           
 11725                           ;lighting.c: 719: writespi(0);
 11726  178A  3000               	movlw	0
 11727  178B  3192  224C  3197   	fcall	i1_writespi
 11728                           
 11729                           ;lighting.c: 720: writespi(0);
 11730  178E  3000               	movlw	0
 11731  178F  3192  224C  3197   	fcall	i1_writespi
 11732                           
 11733                           ;lighting.c: 721: writespi(0);
 11734  1792  3000               	movlw	0
 11735  1793  3192  224C  3197   	fcall	i1_writespi
 11736                           
 11737                           ;lighting.c: 723: writespi(0xFF);
 11738  1796  30FF               	movlw	255
 11739  1797  3192  224C  3197   	fcall	i1_writespi
 11740                           
 11741                           ;lighting.c: 724: writespi(0);
 11742  179A  3000               	movlw	0
 11743  179B  3192  224C  3197   	fcall	i1_writespi
 11744                           
 11745                           ;lighting.c: 725: writespi(0);
 11746  179E  3000               	movlw	0
 11747  179F  3192  224C  3197   	fcall	i1_writespi
 11748                           
 11749                           ;lighting.c: 726: writespi(0);
 11750  17A2  3000               	movlw	0
 11751  17A3  3192  224C  3197   	fcall	i1_writespi
 11752                           
 11753                           ;lighting.c: 728: writespi(0xFF);
 11754  17A6  30FF               	movlw	255
 11755  17A7  3192  224C  3197   	fcall	i1_writespi
 11756                           
 11757                           ;lighting.c: 729: writespi(0);
 11758  17AA  3000               	movlw	0
 11759  17AB  3192  224C  3197   	fcall	i1_writespi
 11760                           
 11761                           ;lighting.c: 730: writespi(0);
 11762  17AE  3000               	movlw	0
 11763  17AF  3192  224C  3197   	fcall	i1_writespi
 11764                           
 11765                           ;lighting.c: 731: writespi(0);
 11766  17B2  3000               	movlw	0
 11767  17B3  3192  224C  3197   	fcall	i1_writespi
 11768                           
 11769                           ;lighting.c: 733: writespi(brightness);
 11770  17B6  0878               	movf	i1led4_command@brightness,w
 11771  17B7  3192  224C  3197   	fcall	i1_writespi
 11772                           
 11773                           ;lighting.c: 734: writespi(blue);
 11774  17BA  0875               	movf	i1led4_command@blue,w
 11775  17BB  3192  224C  3197   	fcall	i1_writespi
 11776                           
 11777                           ;lighting.c: 735: writespi(green);
 11778  17BE  0874               	movf	i1led4_command@green,w
 11779  17BF  3192  224C  3197   	fcall	i1_writespi
 11780                           
 11781                           ;lighting.c: 736: writespi(red);
 11782  17C2  0873               	movf	i1led4_command@red,w
 11783  17C3  3192  224C  3197   	fcall	i1_writespi
 11784                           
 11785                           ;lighting.c: 738: writespi(0xFF);
 11786  17C6  30FF               	movlw	255
 11787  17C7  3192  224C  3197   	fcall	i1_writespi
 11788                           
 11789                           ;lighting.c: 739: writespi(0);
 11790  17CA  3000               	movlw	0
 11791  17CB  3192  224C  3197   	fcall	i1_writespi
 11792                           
 11793                           ;lighting.c: 740: writespi(0);
 11794  17CE  3000               	movlw	0
 11795  17CF  3192  224C  3197   	fcall	i1_writespi
 11796                           
 11797                           ;lighting.c: 741: writespi(0);
 11798  17D2  3000               	movlw	0
 11799  17D3  3192  224C  3197   	fcall	i1_writespi
 11800                           
 11801                           ;lighting.c: 743: for(int i = 0;i < 4; i++)
 11802  17D6  01FB               	clrf	i1led4_command@i_645
 11803  17D7  01FC               	clrf	i1led4_command@i_645+1
 11804  17D8  087C               	movf	i1led4_command@i_645+1,w
 11805  17D9  3A80               	xorlw	128
 11806  17DA  00F6               	movwf	??i1_led4_command
 11807  17DB  3080               	movlw	128
 11808  17DC  0276               	subwf	??i1_led4_command,w
 11809  17DD  1D03               	skipz
 11810  17DE  2FE1               	goto	u170_25
 11811  17DF  3004               	movlw	4
 11812  17E0  027B               	subwf	i1led4_command@i_645,w
 11813  17E1                     u170_25:	
 11814  17E1  1803               	btfsc	3,0
 11815  17E2  2FF6               	goto	i1l2869
 11816  17E3                     i1l2863:	
 11817                           
 11818                           ;lighting.c: 744: {
 11819                           ;lighting.c: 745: writespi(0xFF);
 11820  17E3  30FF               	movlw	255
 11821  17E4  3192  224C  3197   	fcall	i1_writespi
 11822  17E7  3001               	movlw	1
 11823  17E8  07FB               	addwf	i1led4_command@i_645,f
 11824  17E9  3000               	movlw	0
 11825  17EA  3DFC               	addwfc	i1led4_command@i_645+1,f
 11826  17EB  087C               	movf	i1led4_command@i_645+1,w
 11827  17EC  3A80               	xorlw	128
 11828  17ED  00F6               	movwf	??i1_led4_command
 11829  17EE  3080               	movlw	128
 11830  17EF  0276               	subwf	??i1_led4_command,w
 11831  17F0  1D03               	skipz
 11832  17F1  2FF4               	goto	u171_25
 11833  17F2  3004               	movlw	4
 11834  17F3  027B               	subwf	i1led4_command@i_645,w
 11835  17F4                     u171_25:	
 11836  17F4  1C03               	skipc
 11837  17F5  2FE3               	goto	i1l2863
 11838  17F6                     i1l2869:	
 11839                           
 11840                           ;lighting.c: 746: }
 11841                           ;lighting.c: 747: _delay((unsigned long)((20)*(32000000/4000.0)));
 11842  17F6  30D0               	movlw	208
 11843  17F7  00F7               	movwf	??i1_led4_command+1
 11844  17F8  30C9               	movlw	201
 11845  17F9  00F6               	movwf	??i1_led4_command
 11846  17FA                     u306_27:	
 11847  17FA  0BF6               	decfsz	??i1_led4_command,f
 11848  17FB  2FFA               	goto	u306_27
 11849  17FC  0BF7               	decfsz	??i1_led4_command+1,f
 11850  17FD  2FFA               	goto	u306_27
 11851  17FE  3200               	nop2
 11852  17FF  0008               	return
 11853  1800                     __end_ofi1_led4_command:	
 11854                           
 11855                           	psect	text33
 11856  16CA                     __ptext33:	
 11857 ;; *************** function i1_led3_command *****************
 11858 ;; Defined at:
 11859 ;;		line 664 in file "../../source/lighting.c"
 11860 ;; Parameters:    Size  Location     Type
 11861 ;;  brightness      1    wreg     unsigned char 
 11862 ;;  red             1    3[COMMON] unsigned char 
 11863 ;;  green           1    4[COMMON] unsigned char 
 11864 ;;  blue            1    5[COMMON] unsigned char 
 11865 ;; Auto vars:     Size  Location     Type
 11866 ;;  brightness      1    8[COMMON] unsigned char 
 11867 ;;  led3_command    2   11[COMMON] int 
 11868 ;;  led3_command    2    9[COMMON] int 
 11869 ;; Return value:  Size  Location     Type
 11870 ;;		None               void
 11871 ;; Registers used:
 11872 ;;		wreg, status,2, status,0, pclath, cstack
 11873 ;; Tracked objects:
 11874 ;;		On entry : 0/0
 11875 ;;		On exit  : 0/0
 11876 ;;		Unchanged: 0/0
 11877 ;; Data sizes:     COMMON   BANK0   BANK1   BANK2   BANK3   BANK4   BANK5   BANK6   BANK7   BANK8   BANK9  BANK10  BANK1
      +1  BANK12  BANK13  BANK14  BANK15  BANK16  BANK17  BANK18  BANK19  BANK20  BANK21  BANK22  BANK23  BANK24  BANK25
 11878 ;;      Params:         3       0       0       0       0       0       0       0       0       0       0       0       
      +0       0       0       0       0       0       0       0       0       0       0       0       0       0       0
 11879 ;;      Locals:         5       0       0       0       0       0       0       0       0       0       0       0       
      +0       0       0       0       0       0       0       0       0       0       0       0       0       0       0
 11880 ;;      Temps:          2       0       0       0       0       0       0       0       0       0       0       0       
      +0       0       0       0       0       0       0       0       0       0       0       0       0       0       0
 11881 ;;      Totals:        10       0       0       0       0       0       0       0       0       0       0       0       
      +0       0       0       0       0       0       0       0       0       0       0       0       0       0       0
 11882 ;;Total ram usage:       10 bytes
 11883 ;; Hardware stack levels used:    1
 11884 ;; Hardware stack levels required when called:    1
 11885 ;; This function calls:
 11886 ;;		i1_writespi
 11887 ;; This function is called by:
 11888 ;;		i1_display_blade_lights
 11889 ;; This function uses a non-reentrant model
 11890 ;;
 11891                           
 11892                           
 11893                           ;psect for function i1_led3_command
 11894  16CA                     i1_led3_command:	
 11895                           
 11896                           ;incstack = 0
 11897                           ; Regs used in i1_led3_command: [wreg+status,2+status,0+pclath+cstack]
 11898                           ;i1led3_command@brightness stored from wreg
 11899  16CA  00F8               	movwf	i1led3_command@brightness
 11900                           
 11901                           ;lighting.c: 670: for(int i = 0;i < 4; i++)
 11902  16CB  01F9               	clrf	i1led3_command@i
 11903  16CC  01FA               	clrf	i1led3_command@i+1
 11904  16CD  087A               	movf	i1led3_command@i+1,w
 11905  16CE  3A80               	xorlw	128
 11906  16CF  00F6               	movwf	??i1_led3_command
 11907  16D0  3080               	movlw	128
 11908  16D1  0276               	subwf	??i1_led3_command,w
 11909  16D2  1D03               	skipz
 11910  16D3  2ED6               	goto	u164_25
 11911  16D4  3004               	movlw	4
 11912  16D5  0279               	subwf	i1led3_command@i,w
 11913  16D6                     u164_25:	
 11914  16D6  1803               	btfsc	3,0
 11915  16D7  2EEB               	goto	i1l2827
 11916  16D8                     i1l2821:	
 11917                           
 11918                           ;lighting.c: 671: {
 11919                           ;lighting.c: 672: writespi(0x00);
 11920  16D8  3000               	movlw	0
 11921  16D9  3192  224C  3196   	fcall	i1_writespi
 11922  16DC  3001               	movlw	1
 11923  16DD  07F9               	addwf	i1led3_command@i,f
 11924  16DE  3000               	movlw	0
 11925  16DF  3DFA               	addwfc	i1led3_command@i+1,f
 11926  16E0  087A               	movf	i1led3_command@i+1,w
 11927  16E1  3A80               	xorlw	128
 11928  16E2  00F6               	movwf	??i1_led3_command
 11929  16E3  3080               	movlw	128
 11930  16E4  0276               	subwf	??i1_led3_command,w
 11931  16E5  1D03               	skipz
 11932  16E6  2EE9               	goto	u165_25
 11933  16E7  3004               	movlw	4
 11934  16E8  0279               	subwf	i1led3_command@i,w
 11935  16E9                     u165_25:	
 11936  16E9  1C03               	skipc
 11937  16EA  2ED8               	goto	i1l2821
 11938  16EB                     i1l2827:	
 11939                           
 11940                           ;lighting.c: 673: }
 11941                           ;lighting.c: 675: writespi(0xFF);
 11942  16EB  30FF               	movlw	255
 11943  16EC  3192  224C  3196   	fcall	i1_writespi
 11944                           
 11945                           ;lighting.c: 676: writespi(0);
 11946  16EF  3000               	movlw	0
 11947  16F0  3192  224C  3196   	fcall	i1_writespi
 11948                           
 11949                           ;lighting.c: 677: writespi(0);
 11950  16F3  3000               	movlw	0
 11951  16F4  3192  224C  3196   	fcall	i1_writespi
 11952                           
 11953                           ;lighting.c: 678: writespi(0);
 11954  16F7  3000               	movlw	0
 11955  16F8  3192  224C  3196   	fcall	i1_writespi
 11956                           
 11957                           ;lighting.c: 680: writespi(0xFF);
 11958  16FB  30FF               	movlw	255
 11959  16FC  3192  224C  3196   	fcall	i1_writespi
 11960                           
 11961                           ;lighting.c: 681: writespi(0);
 11962  16FF  3000               	movlw	0
 11963  1700  3192  224C  3196   	fcall	i1_writespi
 11964                           
 11965                           ;lighting.c: 682: writespi(0);
 11966  1703  3000               	movlw	0
 11967  1704  3192  224C  3196   	fcall	i1_writespi
 11968                           
 11969                           ;lighting.c: 683: writespi(0);
 11970  1707  3000               	movlw	0
 11971  1708  3192  224C  3196   	fcall	i1_writespi
 11972                           
 11973                           ;lighting.c: 685: writespi(brightness);
 11974  170B  0878               	movf	i1led3_command@brightness,w
 11975  170C  3192  224C  3196   	fcall	i1_writespi
 11976                           
 11977                           ;lighting.c: 686: writespi(blue);
 11978  170F  0875               	movf	i1led3_command@blue,w
 11979  1710  3192  224C  3196   	fcall	i1_writespi
 11980                           
 11981                           ;lighting.c: 687: writespi(green);
 11982  1713  0874               	movf	i1led3_command@green,w
 11983  1714  3192  224C  3196   	fcall	i1_writespi
 11984                           
 11985                           ;lighting.c: 688: writespi(red);
 11986  1717  0873               	movf	i1led3_command@red,w
 11987  1718  3192  224C  3196   	fcall	i1_writespi
 11988                           
 11989                           ;lighting.c: 690: writespi(0xFF);
 11990  171B  30FF               	movlw	255
 11991  171C  3192  224C  3196   	fcall	i1_writespi
 11992                           
 11993                           ;lighting.c: 691: writespi(0);
 11994  171F  3000               	movlw	0
 11995  1720  3192  224C  3196   	fcall	i1_writespi
 11996                           
 11997                           ;lighting.c: 692: writespi(0);
 11998  1723  3000               	movlw	0
 11999  1724  3192  224C  3196   	fcall	i1_writespi
 12000                           
 12001                           ;lighting.c: 693: writespi(0);
 12002  1727  3000               	movlw	0
 12003  1728  3192  224C  3196   	fcall	i1_writespi
 12004                           
 12005                           ;lighting.c: 695: writespi(0xFF);
 12006  172B  30FF               	movlw	255
 12007  172C  3192  224C  3196   	fcall	i1_writespi
 12008                           
 12009                           ;lighting.c: 696: writespi(0);
 12010  172F  3000               	movlw	0
 12011  1730  3192  224C  3196   	fcall	i1_writespi
 12012                           
 12013                           ;lighting.c: 697: writespi(0);
 12014  1733  3000               	movlw	0
 12015  1734  3192  224C  3196   	fcall	i1_writespi
 12016                           
 12017                           ;lighting.c: 698: writespi(0);
 12018  1737  3000               	movlw	0
 12019  1738  3192  224C  3196   	fcall	i1_writespi
 12020                           
 12021                           ;lighting.c: 700: for(int i = 0;i < 4; i++)
 12022  173B  01FB               	clrf	i1led3_command@i_638
 12023  173C  01FC               	clrf	i1led3_command@i_638+1
 12024  173D  087C               	movf	i1led3_command@i_638+1,w
 12025  173E  3A80               	xorlw	128
 12026  173F  00F6               	movwf	??i1_led3_command
 12027  1740  3080               	movlw	128
 12028  1741  0276               	subwf	??i1_led3_command,w
 12029  1742  1D03               	skipz
 12030  1743  2F46               	goto	u166_25
 12031  1744  3004               	movlw	4
 12032  1745  027B               	subwf	i1led3_command@i_638,w
 12033  1746                     u166_25:	
 12034  1746  1803               	btfsc	3,0
 12035  1747  2F5B               	goto	i1l2841
 12036  1748                     i1l2835:	
 12037                           
 12038                           ;lighting.c: 701: {
 12039                           ;lighting.c: 702: writespi(0xFF);
 12040  1748  30FF               	movlw	255
 12041  1749  3192  224C  3196   	fcall	i1_writespi
 12042  174C  3001               	movlw	1
 12043  174D  07FB               	addwf	i1led3_command@i_638,f
 12044  174E  3000               	movlw	0
 12045  174F  3DFC               	addwfc	i1led3_command@i_638+1,f
 12046  1750  087C               	movf	i1led3_command@i_638+1,w
 12047  1751  3A80               	xorlw	128
 12048  1752  00F6               	movwf	??i1_led3_command
 12049  1753  3080               	movlw	128
 12050  1754  0276               	subwf	??i1_led3_command,w
 12051  1755  1D03               	skipz
 12052  1756  2F59               	goto	u167_25
 12053  1757  3004               	movlw	4
 12054  1758  027B               	subwf	i1led3_command@i_638,w
 12055  1759                     u167_25:	
 12056  1759  1C03               	skipc
 12057  175A  2F48               	goto	i1l2835
 12058  175B                     i1l2841:	
 12059                           
 12060                           ;lighting.c: 703: }
 12061                           ;lighting.c: 704: _delay((unsigned long)((20)*(32000000/4000.0)));
 12062  175B  30D0               	movlw	208
 12063  175C  00F7               	movwf	??i1_led3_command+1
 12064  175D  30C9               	movlw	201
 12065  175E  00F6               	movwf	??i1_led3_command
 12066  175F                     u307_27:	
 12067  175F  0BF6               	decfsz	??i1_led3_command,f
 12068  1760  2F5F               	goto	u307_27
 12069  1761  0BF7               	decfsz	??i1_led3_command+1,f
 12070  1762  2F5F               	goto	u307_27
 12071  1763  3200               	nop2
 12072  1764  0008               	return
 12073  1765                     __end_ofi1_led3_command:	
 12074                           
 12075                           	psect	text34
 12076  162F                     __ptext34:	
 12077 ;; *************** function i1_led2_command *****************
 12078 ;; Defined at:
 12079 ;;		line 621 in file "../../source/lighting.c"
 12080 ;; Parameters:    Size  Location     Type
 12081 ;;  brightness      1    wreg     unsigned char 
 12082 ;;  red             1    3[COMMON] unsigned char 
 12083 ;;  green           1    4[COMMON] unsigned char 
 12084 ;;  blue            1    5[COMMON] unsigned char 
 12085 ;; Auto vars:     Size  Location     Type
 12086 ;;  brightness      1    8[COMMON] unsigned char 
 12087 ;;  led2_command    2   11[COMMON] int 
 12088 ;;  led2_command    2    9[COMMON] int 
 12089 ;; Return value:  Size  Location     Type
 12090 ;;		None               void
 12091 ;; Registers used:
 12092 ;;		wreg, status,2, status,0, pclath, cstack
 12093 ;; Tracked objects:
 12094 ;;		On entry : 0/0
 12095 ;;		On exit  : 0/0
 12096 ;;		Unchanged: 0/0
 12097 ;; Data sizes:     COMMON   BANK0   BANK1   BANK2   BANK3   BANK4   BANK5   BANK6   BANK7   BANK8   BANK9  BANK10  BANK1
      +1  BANK12  BANK13  BANK14  BANK15  BANK16  BANK17  BANK18  BANK19  BANK20  BANK21  BANK22  BANK23  BANK24  BANK25
 12098 ;;      Params:         3       0       0       0       0       0       0       0       0       0       0       0       
      +0       0       0       0       0       0       0       0       0       0       0       0       0       0       0
 12099 ;;      Locals:         5       0       0       0       0       0       0       0       0       0       0       0       
      +0       0       0       0       0       0       0       0       0       0       0       0       0       0       0
 12100 ;;      Temps:          2       0       0       0       0       0       0       0       0       0       0       0       
      +0       0       0       0       0       0       0       0       0       0       0       0       0       0       0
 12101 ;;      Totals:        10       0       0       0       0       0       0       0       0       0       0       0       
      +0       0       0       0       0       0       0       0       0       0       0       0       0       0       0
 12102 ;;Total ram usage:       10 bytes
 12103 ;; Hardware stack levels used:    1
 12104 ;; Hardware stack levels required when called:    1
 12105 ;; This function calls:
 12106 ;;		i1_writespi
 12107 ;; This function is called by:
 12108 ;;		i1_display_blade_lights
 12109 ;; This function uses a non-reentrant model
 12110 ;;
 12111                           
 12112                           
 12113                           ;psect for function i1_led2_command
 12114  162F                     i1_led2_command:	
 12115                           
 12116                           ;incstack = 0
 12117                           ; Regs used in i1_led2_command: [wreg+status,2+status,0+pclath+cstack]
 12118                           ;i1led2_command@brightness stored from wreg
 12119  162F  00F8               	movwf	i1led2_command@brightness
 12120                           
 12121                           ;lighting.c: 627: for(int i = 0;i < 4; i++)
 12122  1630  01F9               	clrf	i1led2_command@i
 12123  1631  01FA               	clrf	i1led2_command@i+1
 12124  1632  087A               	movf	i1led2_command@i+1,w
 12125  1633  3A80               	xorlw	128
 12126  1634  00F6               	movwf	??i1_led2_command
 12127  1635  3080               	movlw	128
 12128  1636  0276               	subwf	??i1_led2_command,w
 12129  1637  1D03               	skipz
 12130  1638  2E3B               	goto	u160_25
 12131  1639  3004               	movlw	4
 12132  163A  0279               	subwf	i1led2_command@i,w
 12133  163B                     u160_25:	
 12134  163B  1803               	btfsc	3,0
 12135  163C  2E50               	goto	i1l2799
 12136  163D                     i1l2793:	
 12137                           
 12138                           ;lighting.c: 628: {
 12139                           ;lighting.c: 629: writespi(0x00);
 12140  163D  3000               	movlw	0
 12141  163E  3192  224C  3196   	fcall	i1_writespi
 12142  1641  3001               	movlw	1
 12143  1642  07F9               	addwf	i1led2_command@i,f
 12144  1643  3000               	movlw	0
 12145  1644  3DFA               	addwfc	i1led2_command@i+1,f
 12146  1645  087A               	movf	i1led2_command@i+1,w
 12147  1646  3A80               	xorlw	128
 12148  1647  00F6               	movwf	??i1_led2_command
 12149  1648  3080               	movlw	128
 12150  1649  0276               	subwf	??i1_led2_command,w
 12151  164A  1D03               	skipz
 12152  164B  2E4E               	goto	u161_25
 12153  164C  3004               	movlw	4
 12154  164D  0279               	subwf	i1led2_command@i,w
 12155  164E                     u161_25:	
 12156  164E  1C03               	skipc
 12157  164F  2E3D               	goto	i1l2793
 12158  1650                     i1l2799:	
 12159                           
 12160                           ;lighting.c: 630: }
 12161                           ;lighting.c: 632: writespi(0xFF);
 12162  1650  30FF               	movlw	255
 12163  1651  3192  224C  3196   	fcall	i1_writespi
 12164                           
 12165                           ;lighting.c: 633: writespi(0);
 12166  1654  3000               	movlw	0
 12167  1655  3192  224C  3196   	fcall	i1_writespi
 12168                           
 12169                           ;lighting.c: 634: writespi(0);
 12170  1658  3000               	movlw	0
 12171  1659  3192  224C  3196   	fcall	i1_writespi
 12172                           
 12173                           ;lighting.c: 635: writespi(0);
 12174  165C  3000               	movlw	0
 12175  165D  3192  224C  3196   	fcall	i1_writespi
 12176                           
 12177                           ;lighting.c: 637: writespi(brightness);
 12178  1660  0878               	movf	i1led2_command@brightness,w
 12179  1661  3192  224C  3196   	fcall	i1_writespi
 12180                           
 12181                           ;lighting.c: 638: writespi(blue);
 12182  1664  0875               	movf	i1led2_command@blue,w
 12183  1665  3192  224C  3196   	fcall	i1_writespi
 12184                           
 12185                           ;lighting.c: 639: writespi(green);
 12186  1668  0874               	movf	i1led2_command@green,w
 12187  1669  3192  224C  3196   	fcall	i1_writespi
 12188                           
 12189                           ;lighting.c: 640: writespi(red);
 12190  166C  0873               	movf	i1led2_command@red,w
 12191  166D  3192  224C  3196   	fcall	i1_writespi
 12192                           
 12193                           ;lighting.c: 642: writespi(0xFF);
 12194  1670  30FF               	movlw	255
 12195  1671  3192  224C  3196   	fcall	i1_writespi
 12196                           
 12197                           ;lighting.c: 643: writespi(0);
 12198  1674  3000               	movlw	0
 12199  1675  3192  224C  3196   	fcall	i1_writespi
 12200                           
 12201                           ;lighting.c: 644: writespi(0);
 12202  1678  3000               	movlw	0
 12203  1679  3192  224C  3196   	fcall	i1_writespi
 12204                           
 12205                           ;lighting.c: 645: writespi(0);
 12206  167C  3000               	movlw	0
 12207  167D  3192  224C  3196   	fcall	i1_writespi
 12208                           
 12209                           ;lighting.c: 647: writespi(0xFF);
 12210  1680  30FF               	movlw	255
 12211  1681  3192  224C  3196   	fcall	i1_writespi
 12212                           
 12213                           ;lighting.c: 648: writespi(0);
 12214  1684  3000               	movlw	0
 12215  1685  3192  224C  3196   	fcall	i1_writespi
 12216                           
 12217                           ;lighting.c: 649: writespi(0);
 12218  1688  3000               	movlw	0
 12219  1689  3192  224C  3196   	fcall	i1_writespi
 12220                           
 12221                           ;lighting.c: 650: writespi(0);
 12222  168C  3000               	movlw	0
 12223  168D  3192  224C  3196   	fcall	i1_writespi
 12224                           
 12225                           ;lighting.c: 652: writespi(0xFF);
 12226  1690  30FF               	movlw	255
 12227  1691  3192  224C  3196   	fcall	i1_writespi
 12228                           
 12229                           ;lighting.c: 653: writespi(0);
 12230  1694  3000               	movlw	0
 12231  1695  3192  224C  3196   	fcall	i1_writespi
 12232                           
 12233                           ;lighting.c: 654: writespi(0);
 12234  1698  3000               	movlw	0
 12235  1699  3192  224C  3196   	fcall	i1_writespi
 12236                           
 12237                           ;lighting.c: 655: writespi(0);
 12238  169C  3000               	movlw	0
 12239  169D  3192  224C  3196   	fcall	i1_writespi
 12240                           
 12241                           ;lighting.c: 657: for(int i = 0;i < 4; i++)
 12242  16A0  01FB               	clrf	i1led2_command@i_631
 12243  16A1  01FC               	clrf	i1led2_command@i_631+1
 12244  16A2  087C               	movf	i1led2_command@i_631+1,w
 12245  16A3  3A80               	xorlw	128
 12246  16A4  00F6               	movwf	??i1_led2_command
 12247  16A5  3080               	movlw	128
 12248  16A6  0276               	subwf	??i1_led2_command,w
 12249  16A7  1D03               	skipz
 12250  16A8  2EAB               	goto	u162_25
 12251  16A9  3004               	movlw	4
 12252  16AA  027B               	subwf	i1led2_command@i_631,w
 12253  16AB                     u162_25:	
 12254  16AB  1803               	btfsc	3,0
 12255  16AC  2EC0               	goto	i1l2813
 12256  16AD                     i1l2807:	
 12257                           
 12258                           ;lighting.c: 658: {
 12259                           ;lighting.c: 659: writespi(0xFF);
 12260  16AD  30FF               	movlw	255
 12261  16AE  3192  224C  3196   	fcall	i1_writespi
 12262  16B1  3001               	movlw	1
 12263  16B2  07FB               	addwf	i1led2_command@i_631,f
 12264  16B3  3000               	movlw	0
 12265  16B4  3DFC               	addwfc	i1led2_command@i_631+1,f
 12266  16B5  087C               	movf	i1led2_command@i_631+1,w
 12267  16B6  3A80               	xorlw	128
 12268  16B7  00F6               	movwf	??i1_led2_command
 12269  16B8  3080               	movlw	128
 12270  16B9  0276               	subwf	??i1_led2_command,w
 12271  16BA  1D03               	skipz
 12272  16BB  2EBE               	goto	u163_25
 12273  16BC  3004               	movlw	4
 12274  16BD  027B               	subwf	i1led2_command@i_631,w
 12275  16BE                     u163_25:	
 12276  16BE  1C03               	skipc
 12277  16BF  2EAD               	goto	i1l2807
 12278  16C0                     i1l2813:	
 12279                           
 12280                           ;lighting.c: 660: }
 12281                           ;lighting.c: 661: _delay((unsigned long)((20)*(32000000/4000.0)));
 12282  16C0  30D0               	movlw	208
 12283  16C1  00F7               	movwf	??i1_led2_command+1
 12284  16C2  30C9               	movlw	201
 12285  16C3  00F6               	movwf	??i1_led2_command
 12286  16C4                     u308_27:	
 12287  16C4  0BF6               	decfsz	??i1_led2_command,f
 12288  16C5  2EC4               	goto	u308_27
 12289  16C6  0BF7               	decfsz	??i1_led2_command+1,f
 12290  16C7  2EC4               	goto	u308_27
 12291  16C8  3200               	nop2
 12292  16C9  0008               	return
 12293  16CA                     __end_ofi1_led2_command:	
 12294                           
 12295                           	psect	text35
 12296  1594                     __ptext35:	
 12297 ;; *************** function i1_led1_command *****************
 12298 ;; Defined at:
 12299 ;;		line 578 in file "../../source/lighting.c"
 12300 ;; Parameters:    Size  Location     Type
 12301 ;;  brightness      1    wreg     unsigned char 
 12302 ;;  red             1    3[COMMON] unsigned char 
 12303 ;;  green           1    4[COMMON] unsigned char 
 12304 ;;  blue            1    5[COMMON] unsigned char 
 12305 ;; Auto vars:     Size  Location     Type
 12306 ;;  brightness      1    8[COMMON] unsigned char 
 12307 ;;  led1_command    2   11[COMMON] int 
 12308 ;;  led1_command    2    9[COMMON] int 
 12309 ;; Return value:  Size  Location     Type
 12310 ;;		None               void
 12311 ;; Registers used:
 12312 ;;		wreg, status,2, status,0, pclath, cstack
 12313 ;; Tracked objects:
 12314 ;;		On entry : 0/0
 12315 ;;		On exit  : 0/0
 12316 ;;		Unchanged: 0/0
 12317 ;; Data sizes:     COMMON   BANK0   BANK1   BANK2   BANK3   BANK4   BANK5   BANK6   BANK7   BANK8   BANK9  BANK10  BANK1
      +1  BANK12  BANK13  BANK14  BANK15  BANK16  BANK17  BANK18  BANK19  BANK20  BANK21  BANK22  BANK23  BANK24  BANK25
 12318 ;;      Params:         3       0       0       0       0       0       0       0       0       0       0       0       
      +0       0       0       0       0       0       0       0       0       0       0       0       0       0       0
 12319 ;;      Locals:         5       0       0       0       0       0       0       0       0       0       0       0       
      +0       0       0       0       0       0       0       0       0       0       0       0       0       0       0
 12320 ;;      Temps:          2       0       0       0       0       0       0       0       0       0       0       0       
      +0       0       0       0       0       0       0       0       0       0       0       0       0       0       0
 12321 ;;      Totals:        10       0       0       0       0       0       0       0       0       0       0       0       
      +0       0       0       0       0       0       0       0       0       0       0       0       0       0       0
 12322 ;;Total ram usage:       10 bytes
 12323 ;; Hardware stack levels used:    1
 12324 ;; Hardware stack levels required when called:    1
 12325 ;; This function calls:
 12326 ;;		i1_writespi
 12327 ;; This function is called by:
 12328 ;;		i1_display_blade_lights
 12329 ;; This function uses a non-reentrant model
 12330 ;;
 12331                           
 12332                           
 12333                           ;psect for function i1_led1_command
 12334  1594                     i1_led1_command:	
 12335                           
 12336                           ;incstack = 0
 12337                           ; Regs used in i1_led1_command: [wreg+status,2+status,0+pclath+cstack]
 12338                           ;i1led1_command@brightness stored from wreg
 12339  1594  00F8               	movwf	i1led1_command@brightness
 12340                           
 12341                           ;lighting.c: 584: for(int i = 0;i < 4; i++)
 12342  1595  01F9               	clrf	i1led1_command@i
 12343  1596  01FA               	clrf	i1led1_command@i+1
 12344  1597  087A               	movf	i1led1_command@i+1,w
 12345  1598  3A80               	xorlw	128
 12346  1599  00F6               	movwf	??i1_led1_command
 12347  159A  3080               	movlw	128
 12348  159B  0276               	subwf	??i1_led1_command,w
 12349  159C  1D03               	skipz
 12350  159D  2DA0               	goto	u156_25
 12351  159E  3004               	movlw	4
 12352  159F  0279               	subwf	i1led1_command@i,w
 12353  15A0                     u156_25:	
 12354  15A0  1803               	btfsc	3,0
 12355  15A1  2DB5               	goto	i1l2771
 12356  15A2                     i1l2765:	
 12357                           
 12358                           ;lighting.c: 585: {
 12359                           ;lighting.c: 586: writespi(0x00);
 12360  15A2  3000               	movlw	0
 12361  15A3  3192  224C  3195   	fcall	i1_writespi
 12362  15A6  3001               	movlw	1
 12363  15A7  07F9               	addwf	i1led1_command@i,f
 12364  15A8  3000               	movlw	0
 12365  15A9  3DFA               	addwfc	i1led1_command@i+1,f
 12366  15AA  087A               	movf	i1led1_command@i+1,w
 12367  15AB  3A80               	xorlw	128
 12368  15AC  00F6               	movwf	??i1_led1_command
 12369  15AD  3080               	movlw	128
 12370  15AE  0276               	subwf	??i1_led1_command,w
 12371  15AF  1D03               	skipz
 12372  15B0  2DB3               	goto	u157_25
 12373  15B1  3004               	movlw	4
 12374  15B2  0279               	subwf	i1led1_command@i,w
 12375  15B3                     u157_25:	
 12376  15B3  1C03               	skipc
 12377  15B4  2DA2               	goto	i1l2765
 12378  15B5                     i1l2771:	
 12379                           
 12380                           ;lighting.c: 587: }
 12381                           ;lighting.c: 589: writespi(brightness);
 12382  15B5  0878               	movf	i1led1_command@brightness,w
 12383  15B6  3192  224C  3195   	fcall	i1_writespi
 12384                           
 12385                           ;lighting.c: 590: writespi(blue);
 12386  15B9  0875               	movf	i1led1_command@blue,w
 12387  15BA  3192  224C  3195   	fcall	i1_writespi
 12388                           
 12389                           ;lighting.c: 591: writespi(green);
 12390  15BD  0874               	movf	i1led1_command@green,w
 12391  15BE  3192  224C  3195   	fcall	i1_writespi
 12392                           
 12393                           ;lighting.c: 592: writespi(red);
 12394  15C1  0873               	movf	i1led1_command@red,w
 12395  15C2  3192  224C  3195   	fcall	i1_writespi
 12396                           
 12397                           ;lighting.c: 594: writespi(0xFF);
 12398  15C5  30FF               	movlw	255
 12399  15C6  3192  224C  3195   	fcall	i1_writespi
 12400                           
 12401                           ;lighting.c: 595: writespi(0);
 12402  15C9  3000               	movlw	0
 12403  15CA  3192  224C  3195   	fcall	i1_writespi
 12404                           
 12405                           ;lighting.c: 596: writespi(0);
 12406  15CD  3000               	movlw	0
 12407  15CE  3192  224C  3195   	fcall	i1_writespi
 12408                           
 12409                           ;lighting.c: 597: writespi(0);
 12410  15D1  3000               	movlw	0
 12411  15D2  3192  224C  3195   	fcall	i1_writespi
 12412                           
 12413                           ;lighting.c: 599: writespi(0xFF);
 12414  15D5  30FF               	movlw	255
 12415  15D6  3192  224C  3195   	fcall	i1_writespi
 12416                           
 12417                           ;lighting.c: 600: writespi(0);
 12418  15D9  3000               	movlw	0
 12419  15DA  3192  224C  3195   	fcall	i1_writespi
 12420                           
 12421                           ;lighting.c: 601: writespi(0);
 12422  15DD  3000               	movlw	0
 12423  15DE  3192  224C  3195   	fcall	i1_writespi
 12424                           
 12425                           ;lighting.c: 602: writespi(0);
 12426  15E1  3000               	movlw	0
 12427  15E2  3192  224C  3195   	fcall	i1_writespi
 12428                           
 12429                           ;lighting.c: 604: writespi(0xFF);
 12430  15E5  30FF               	movlw	255
 12431  15E6  3192  224C  3195   	fcall	i1_writespi
 12432                           
 12433                           ;lighting.c: 605: writespi(0);
 12434  15E9  3000               	movlw	0
 12435  15EA  3192  224C  3195   	fcall	i1_writespi
 12436                           
 12437                           ;lighting.c: 606: writespi(0);
 12438  15ED  3000               	movlw	0
 12439  15EE  3192  224C  3195   	fcall	i1_writespi
 12440                           
 12441                           ;lighting.c: 607: writespi(0);
 12442  15F1  3000               	movlw	0
 12443  15F2  3192  224C  3195   	fcall	i1_writespi
 12444                           
 12445                           ;lighting.c: 609: writespi(0xFF);
 12446  15F5  30FF               	movlw	255
 12447  15F6  3192  224C  3195   	fcall	i1_writespi
 12448                           
 12449                           ;lighting.c: 610: writespi(0);
 12450  15F9  3000               	movlw	0
 12451  15FA  3192  224C  3195   	fcall	i1_writespi
 12452                           
 12453                           ;lighting.c: 611: writespi(0);
 12454  15FD  3000               	movlw	0
 12455  15FE  3192  224C  3195   	fcall	i1_writespi
 12456                           
 12457                           ;lighting.c: 612: writespi(0);
 12458  1601  3000               	movlw	0
 12459  1602  3192  224C  3195   	fcall	i1_writespi
 12460                           
 12461                           ;lighting.c: 614: for(int i = 0;i < 4; i++)
 12462  1605  01FB               	clrf	i1led1_command@i_624
 12463  1606  01FC               	clrf	i1led1_command@i_624+1
 12464  1607  087C               	movf	i1led1_command@i_624+1,w
 12465  1608  3A80               	xorlw	128
 12466  1609  00F6               	movwf	??i1_led1_command
 12467  160A  3080               	movlw	128
 12468  160B  0276               	subwf	??i1_led1_command,w
 12469  160C  1D03               	skipz
 12470  160D  2E10               	goto	u158_25
 12471  160E  3004               	movlw	4
 12472  160F  027B               	subwf	i1led1_command@i_624,w
 12473  1610                     u158_25:	
 12474  1610  1803               	btfsc	3,0
 12475  1611  2E25               	goto	i1l2785
 12476  1612                     i1l2779:	
 12477                           
 12478                           ;lighting.c: 615: {
 12479                           ;lighting.c: 616: writespi(0xFF);
 12480  1612  30FF               	movlw	255
 12481  1613  3192  224C  3195   	fcall	i1_writespi
 12482  1616  3001               	movlw	1
 12483  1617  07FB               	addwf	i1led1_command@i_624,f
 12484  1618  3000               	movlw	0
 12485  1619  3DFC               	addwfc	i1led1_command@i_624+1,f
 12486  161A  087C               	movf	i1led1_command@i_624+1,w
 12487  161B  3A80               	xorlw	128
 12488  161C  00F6               	movwf	??i1_led1_command
 12489  161D  3080               	movlw	128
 12490  161E  0276               	subwf	??i1_led1_command,w
 12491  161F  1D03               	skipz
 12492  1620  2E23               	goto	u159_25
 12493  1621  3004               	movlw	4
 12494  1622  027B               	subwf	i1led1_command@i_624,w
 12495  1623                     u159_25:	
 12496  1623  1C03               	skipc
 12497  1624  2E12               	goto	i1l2779
 12498  1625                     i1l2785:	
 12499                           
 12500                           ;lighting.c: 617: }
 12501                           ;lighting.c: 618: _delay((unsigned long)((20)*(32000000/4000.0)));
 12502  1625  30D0               	movlw	208
 12503  1626  00F7               	movwf	??i1_led1_command+1
 12504  1627  30C9               	movlw	201
 12505  1628  00F6               	movwf	??i1_led1_command
 12506  1629                     u309_27:	
 12507  1629  0BF6               	decfsz	??i1_led1_command,f
 12508  162A  2E29               	goto	u309_27
 12509  162B  0BF7               	decfsz	??i1_led1_command+1,f
 12510  162C  2E29               	goto	u309_27
 12511  162D  3200               	nop2
 12512  162E  0008               	return
 12513  162F                     __end_ofi1_led1_command:	
 12514                           
 12515                           	psect	text36
 12516  124C                     __ptext36:	
 12517 ;; *************** function i1_writespi *****************
 12518 ;; Defined at:
 12519 ;;		line 534 in file "../../source/lighting.c"
 12520 ;; Parameters:    Size  Location     Type
 12521 ;;  data_out        1    wreg     unsigned char 
 12522 ;; Auto vars:     Size  Location     Type
 12523 ;;  data_out        1    2[COMMON] unsigned char 
 12524 ;;  writespi        1    1[COMMON] unsigned char 
 12525 ;; Return value:  Size  Location     Type
 12526 ;;		None               void
 12527 ;; Registers used:
 12528 ;;		wreg
 12529 ;; Tracked objects:
 12530 ;;		On entry : 0/0
 12531 ;;		On exit  : 0/0
 12532 ;;		Unchanged: 0/0
 12533 ;; Data sizes:     COMMON   BANK0   BANK1   BANK2   BANK3   BANK4   BANK5   BANK6   BANK7   BANK8   BANK9  BANK10  BANK1
      +1  BANK12  BANK13  BANK14  BANK15  BANK16  BANK17  BANK18  BANK19  BANK20  BANK21  BANK22  BANK23  BANK24  BANK25
 12534 ;;      Params:         0       0       0       0       0       0       0       0       0       0       0       0       
      +0       0       0       0       0       0       0       0       0       0       0       0       0       0       0
 12535 ;;      Locals:         2       0       0       0       0       0       0       0       0       0       0       0       
      +0       0       0       0       0       0       0       0       0       0       0       0       0       0       0
 12536 ;;      Temps:          1       0       0       0       0       0       0       0       0       0       0       0       
      +0       0       0       0       0       0       0       0       0       0       0       0       0       0       0
 12537 ;;      Totals:         3       0       0       0       0       0       0       0       0       0       0       0       
      +0       0       0       0       0       0       0       0       0       0       0       0       0       0       0
 12538 ;;Total ram usage:        3 bytes
 12539 ;; Hardware stack levels used:    1
 12540 ;; This function calls:
 12541 ;;		Nothing
 12542 ;; This function is called by:
 12543 ;;		i1_led_start
 12544 ;;		i1_led_end
 12545 ;;		i1_led_command
 12546 ;;		i1_led1_command
 12547 ;;		i1_led2_command
 12548 ;;		i1_led3_command
 12549 ;;		i1_led4_command
 12550 ;;		i1_led5_command
 12551 ;;		i1_leds_off
 12552 ;; This function uses a non-reentrant model
 12553 ;;
 12554                           
 12555                           
 12556                           ;psect for function i1_writespi
 12557  124C                     i1_writespi:	
 12558                           
 12559                           ;incstack = 0
 12560                           ; Regs used in i1_writespi: [wreg]
 12561                           ;i1writespi@data_out stored from wreg
 12562  124C  00F2               	movwf	i1writespi@data_out
 12563                           
 12564                           ;lighting.c: 536: unsigned char TempVar;
 12565                           ;lighting.c: 537: TempVar = SSPBUF;
 12566  124D  0024               	movlb	4	; select bank4
 12567  124E  0811               	movf	17,w	;volatile
 12568  124F  00F0               	movwf	??i1_writespi
 12569  1250  0870               	movf	??i1_writespi,w
 12570  1251  00F1               	movwf	i1writespi@TempVar
 12571                           
 12572                           ;lighting.c: 538: PIR1bits.SSP1IF = 0;
 12573  1252  0020               	movlb	0	; select bank0
 12574  1253  1191               	bcf	17,3	;volatile
 12575                           
 12576                           ;lighting.c: 539: SSPCON1bits.WCOL = 0;
 12577  1254  0024               	movlb	4	; select bank4
 12578  1255  1395               	bcf	21,7	;volatile
 12579                           
 12580                           ;lighting.c: 540: SSPBUF = data_out;
 12581  1256  0872               	movf	i1writespi@data_out,w
 12582  1257  0091               	movwf	17	;volatile
 12583  1258                     i1l593:	
 12584                           ;lighting.c: 545: while( !PIR1bits.SSP1IF );
 12585                           
 12586  1258  0020               	movlb	0	; select bank0
 12587  1259  1991               	btfsc	17,3	;volatile
 12588  125A  0008               	return
 12589  125B  2A58               	goto	i1l593
 12590  125C                     __end_ofi1_writespi:	
 12591  007E                     btemp	set	126	;btemp
 12592  007E                     int$flags	set	126
 12593  007E                     wtemp	set	126
 12594  007E                     wtemp0	set	126
 12595  0080                     wtemp1	set	128
 12596  0082                     wtemp2	set	130
 12597  0084                     wtemp3	set	132
 12598  0086                     wtemp4	set	134
 12599  0088                     wtemp5	set	136
 12600  007F                     wtemp6	set	127
 12601  007E                     ttemp	set	126
 12602  007E                     ttemp0	set	126
 12603  0081                     ttemp1	set	129
 12604  0084                     ttemp2	set	132
 12605  0087                     ttemp3	set	135
 12606  007F                     ttemp4	set	127
 12607  007E                     ltemp	set	126
 12608  007E                     ltemp0	set	126
 12609  0082                     ltemp1	set	130
 12610  0086                     ltemp2	set	134
 12611  0080                     ltemp3	set	128


Data Sizes:
    Strings     131
    Constant    6
    Data        1
    BSS         13
    Persistent  0
    Stack       0

Auto Spaces:
    Space          Size  Autos    Used
    COMMON           14     13      14
    BANK0            80     43      56
    BANK1            80      0       0
    BANK2            80      0       0
    BANK3            80      0       0
    BANK4            80      0       0
    BANK5            80      0       0
    BANK6            80      0       0
    BANK7            80      0       0
    BANK8            80      0       0
    BANK9            80      0       0
    BANK10           80      0       0
    BANK11           80      0       0
    BANK12           80      0       0
    BANK13           80      0       0
    BANK14           80      0       0
    BANK15           80      0       0
    BANK16           80      0       0
    BANK17           80      0       0
    BANK18           80      0       0
    BANK19           80      0       0
    BANK20           80      0       0
    BANK21           80      0       0
    BANK22           80      0       0
    BANK23           80      0       0
    BANK24           80      0       0
    BANK25           32      0       0

Pointer List with Targets:

    determine_packets_to_send@packets	PTR unsigned char  size(1) Largest target is 3
		 -> main@pkt_arr(BANK0[3]), 


Critical Paths under _main in COMMON

    None.

Critical Paths under _isr in COMMON

    i1_display_blade_lights->i1_led1_command
    i1_display_blade_lights->i1_led2_command
    i1_display_blade_lights->i1_led3_command
    i1_display_blade_lights->i1_led4_command
    i1_display_blade_lights->i1_led5_command
    i1_leds_off->i1_writespi
    i1_led_start->i1_writespi
    i1_led_end->i1_writespi
    i1_led_command->i1_writespi
    i1_led5_command->i1_writespi
    i1_led4_command->i1_writespi
    i1_led3_command->i1_writespi
    i1_led2_command->i1_writespi
    i1_led1_command->i1_writespi

Critical Paths under _main in BANK0

    _main->_determine_sword_was_swung
    _init_leds->_leds_off
    _display_blade_lights->_led1_command
    _display_blade_lights->_led2_command
    _display_blade_lights->_led3_command
    _display_blade_lights->_led4_command
    _display_blade_lights->_led5_command
    _leds_off->_writespi
    _led_start->_writespi
    _led_end->_writespi
    _led_command->_writespi
    _led5_command->_writespi
    _led4_command->_writespi
    _led3_command->_writespi
    _led2_command->_writespi
    _led1_command->_writespi

Critical Paths under _isr in BANK0

    _isr->i1_display_blade_lights

Critical Paths under _main in BANK1

    None.

Critical Paths under _isr in BANK1

    None.

Critical Paths under _main in BANK2

    None.

Critical Paths under _isr in BANK2

    None.

Critical Paths under _main in BANK3

    None.

Critical Paths under _isr in BANK3

    None.

Critical Paths under _main in BANK4

    None.

Critical Paths under _isr in BANK4

    None.

Critical Paths under _main in BANK5

    None.

Critical Paths under _isr in BANK5

    None.

Critical Paths under _main in BANK6

    None.

Critical Paths under _isr in BANK6

    None.

Critical Paths under _main in BANK7

    None.

Critical Paths under _isr in BANK7

    None.

Critical Paths under _main in BANK8

    None.

Critical Paths under _isr in BANK8

    None.

Critical Paths under _main in BANK9

    None.

Critical Paths under _isr in BANK9

    None.

Critical Paths under _main in BANK10

    None.

Critical Paths under _isr in BANK10

    None.

Critical Paths under _main in BANK11

    None.

Critical Paths under _isr in BANK11

    None.

Critical Paths under _main in BANK12

    None.

Critical Paths under _isr in BANK12

    None.

Critical Paths under _main in BANK13

    None.

Critical Paths under _isr in BANK13

    None.

Critical Paths under _main in BANK14

    None.

Critical Paths under _isr in BANK14

    None.

Critical Paths under _main in BANK15

    None.

Critical Paths under _isr in BANK15

    None.

Critical Paths under _main in BANK16

    None.

Critical Paths under _isr in BANK16

    None.

Critical Paths under _main in BANK17

    None.

Critical Paths under _isr in BANK17

    None.

Critical Paths under _main in BANK18

    None.

Critical Paths under _isr in BANK18

    None.

Critical Paths under _main in BANK19

    None.

Critical Paths under _isr in BANK19

    None.

Critical Paths under _main in BANK20

    None.

Critical Paths under _isr in BANK20

    None.

Critical Paths under _main in BANK21

    None.

Critical Paths under _isr in BANK21

    None.

Critical Paths under _main in BANK22

    None.

Critical Paths under _isr in BANK22

    None.

Critical Paths under _main in BANK23

    None.

Critical Paths under _isr in BANK23

    None.

Critical Paths under _main in BANK24

    None.

Critical Paths under _isr in BANK24

    None.

Critical Paths under _main in BANK25

    None.

Critical Paths under _isr in BANK25

    None.

Call Graph Tables:

 ---------------------------------------------------------------------------------
 (Depth) Function   	        Calls       Base Space   Used Autos Params    Refs
 ---------------------------------------------------------------------------------
 (0) _main                                                 5     5      0   14259
                                             38 BANK0      5     5      0
        _determine_omega_mode_active
          _determine_packets_to_send
          _determine_sword_was_swung
               _display_blade_lights
                     _display_health
                         _init_accel
                          _init_conn
                            _init_ir
                           _init_isr
                          _init_leds
                           _init_pic
                          _output_ir
                         _play_sound
 ---------------------------------------------------------------------------------
 (1) _play_sound                                           4     4      0      44
                                             12 BANK0      4     4      0
 ---------------------------------------------------------------------------------
 (1) _output_ir                                           10     9      1     235
                                             12 BANK0     10     9      1
 ---------------------------------------------------------------------------------
 (1) _init_pic                                             3     3      0       0
                                             12 BANK0      3     3      0
 ---------------------------------------------------------------------------------
 (1) _init_leds                                            1     1      0     115
                                             21 BANK0      1     1      0
                           _leds_off
 ---------------------------------------------------------------------------------
 (1) _init_isr                                             0     0      0       0
 ---------------------------------------------------------------------------------
 (1) _init_ir                                              1     1      0       0
                                             12 BANK0      1     1      0
 ---------------------------------------------------------------------------------
 (1) _init_conn                                            0     0      0       0
 ---------------------------------------------------------------------------------
 (1) _init_accel                                           1     1      0       0
                                             12 BANK0      1     1      0
 ---------------------------------------------------------------------------------
 (1) _display_health                                       3     3      0       0
                                             12 BANK0      3     3      0
 ---------------------------------------------------------------------------------
 (1) _display_blade_lights                                10    10      0   13224
                                             25 BANK0     10    10      0
                       _led1_command
                       _led2_command
                       _led3_command
                       _led4_command
                       _led5_command
                        _led_command
                            _led_end
                          _led_start
                           _leds_off
 ---------------------------------------------------------------------------------
 (2) _leds_off                                             6     6      0     115
                                             15 BANK0      6     6      0
                           _writespi
 ---------------------------------------------------------------------------------
 (2) _led_start                                            3     3      0      69
                                             15 BANK0      3     3      0
                           _writespi
 ---------------------------------------------------------------------------------
 (2) _led_end                                              3     3      0      69
                                             15 BANK0      3     3      0
                           _writespi
 ---------------------------------------------------------------------------------
 (2) _led_command                                          4     1      3    9015
                                             15 BANK0      4     1      3
                           _writespi
 ---------------------------------------------------------------------------------
 (2) _led5_command                                        10     7      3     839
                                             15 BANK0     10     7      3
                           _writespi
 ---------------------------------------------------------------------------------
 (2) _led4_command                                        10     7      3     521
                                             15 BANK0     10     7      3
                           _writespi
 ---------------------------------------------------------------------------------
 (2) _led3_command                                        10     7      3     521
                                             15 BANK0     10     7      3
                           _writespi
 ---------------------------------------------------------------------------------
 (2) _led2_command                                        10     7      3     521
                                             15 BANK0     10     7      3
                           _writespi
 ---------------------------------------------------------------------------------
 (2) _led1_command                                        10     7      3     839
                                             15 BANK0     10     7      3
                           _writespi
 ---------------------------------------------------------------------------------
 (3) _writespi                                             3     3      0      23
                                             12 BANK0      3     3      0
 ---------------------------------------------------------------------------------
 (1) _determine_sword_was_swung                           26    26      0     288
                                             12 BANK0     26    26      0
 ---------------------------------------------------------------------------------
 (1) _determine_packets_to_send                            2     2      0     159
                                             12 BANK0      2     2      0
        _determine_omega_mode_active
 ---------------------------------------------------------------------------------
 (2) _determine_omega_mode_active                          0     0      0       0
 ---------------------------------------------------------------------------------
 Estimated maximum stack depth 3
 ---------------------------------------------------------------------------------
 (Depth) Function   	        Calls       Base Space   Used Autos Params    Refs
 ---------------------------------------------------------------------------------
 (4) _isr                                                  2     2      0    7554
                                             10 BANK0      2     2      0
             i1_display_blade_lights
                   i1_display_health
 ---------------------------------------------------------------------------------
 (5) i1_display_health                                     3     3      0       0
                                              0 COMMON     3     3      0
 ---------------------------------------------------------------------------------
 (5) i1_display_blade_lights                              10    10      0    7554
                                              0 BANK0     10    10      0
                     i1_led1_command
                     i1_led2_command
                     i1_led3_command
                     i1_led4_command
                     i1_led5_command
                      i1_led_command
                          i1_led_end
                        i1_led_start
                         i1_leds_off
 ---------------------------------------------------------------------------------
 (6) i1_leds_off                                           6     6      0     115
                                              3 COMMON     6     6      0
                         i1_writespi
 ---------------------------------------------------------------------------------
 (6) i1_led_start                                          3     3      0      69
                                              3 COMMON     3     3      0
                         i1_writespi
 ---------------------------------------------------------------------------------
 (6) i1_led_end                                            3     3      0      69
                                              3 COMMON     3     3      0
                         i1_writespi
 ---------------------------------------------------------------------------------
 (6) i1_led_command                                        4     1      3    4479
                                              3 COMMON     4     1      3
                         i1_writespi
 ---------------------------------------------------------------------------------
 (6) i1_led5_command                                      10     7      3     515
                                              3 COMMON    10     7      3
                         i1_writespi
 ---------------------------------------------------------------------------------
 (6) i1_led4_command                                      10     7      3     359
                                              3 COMMON    10     7      3
                         i1_writespi
 ---------------------------------------------------------------------------------
 (6) i1_led3_command                                      10     7      3     359
                                              3 COMMON    10     7      3
                         i1_writespi
 ---------------------------------------------------------------------------------
 (6) i1_led2_command                                      10     7      3     359
                                              3 COMMON    10     7      3
                         i1_writespi
 ---------------------------------------------------------------------------------
 (6) i1_led1_command                                      10     7      3     515
                                              3 COMMON    10     7      3
                         i1_writespi
 ---------------------------------------------------------------------------------
 (7) i1_writespi                                           3     3      0      23
                                              0 COMMON     3     3      0
 ---------------------------------------------------------------------------------
 Estimated maximum stack depth 7
 ---------------------------------------------------------------------------------

 Call Graph Graphs:

 _main (ROOT)
   _determine_omega_mode_active
   _determine_packets_to_send
     _determine_omega_mode_active
   _determine_sword_was_swung
   _display_blade_lights
     _led1_command
       _writespi
     _led2_command
       _writespi
     _led3_command
       _writespi
     _led4_command
       _writespi
     _led5_command
       _writespi
     _led_command
       _writespi
     _led_end
       _writespi
     _led_start
       _writespi
     _leds_off
       _writespi
   _display_health
   _init_accel
   _init_conn
   _init_ir
   _init_isr
   _init_leds
     _leds_off
       _writespi
   _init_pic
   _output_ir
   _play_sound

 _isr (ROOT)
   i1_display_blade_lights
     i1_led1_command
       i1_writespi
     i1_led2_command
       i1_writespi
     i1_led3_command
       i1_writespi
     i1_led4_command
       i1_writespi
     i1_led5_command
       i1_writespi
     i1_led_command
       i1_writespi
     i1_led_end
       i1_writespi
     i1_led_start
       i1_writespi
     i1_leds_off
       i1_writespi
   i1_display_health

 Address spaces:
Name               Size   Autos  Total    Cost      Usage
BIGRAM             7F0      0       0       0        0.0%
EEDATA             100      0       0       0        0.0%
NULL                 0      0       0       0        0.0%
CODE                 0      0       0       0        0.0%
BITCOMMON            E      0       0       1        0.0%
BITSFR0              0      0       0       1        0.0%
SFR0                 0      0       0       1        0.0%
COMMON               E      D       E       2      100.0%
BITSFR1              0      0       0       2        0.0%
SFR1                 0      0       0       2        0.0%
BITSFR2              0      0       0       3        0.0%
SFR2                 0      0       0       3        0.0%
STACK                0      0       0       3        0.0%
BITBANK0            50      0       0       4        0.0%
BITSFR3              0      0       0       4        0.0%
SFR3                 0      0       0       4        0.0%
BANK0               50     2B      38       5       70.0%
BITSFR4              0      0       0       5        0.0%
SFR4                 0      0       0       5        0.0%
BITBANK1            50      0       0       6        0.0%
BITSFR5              0      0       0       6        0.0%
SFR5                 0      0       0       6        0.0%
BANK1               50      0       0       7        0.0%
BITSFR6              0      0       0       7        0.0%
SFR6                 0      0       0       7        0.0%
BITBANK2            50      0       0       8        0.0%
BITSFR7              0      0       0       8        0.0%
SFR7                 0      0       0       8        0.0%
BANK2               50      0       0       9        0.0%
BITSFR8              0      0       0       9        0.0%
SFR8                 0      0       0       9        0.0%
BITBANK3            50      0       0      10        0.0%
BITSFR9              0      0       0      10        0.0%
SFR9                 0      0       0      10        0.0%
BANK3               50      0       0      11        0.0%
BITSFR10             0      0       0      11        0.0%
SFR10                0      0       0      11        0.0%
BITBANK4            50      0       0      12        0.0%
BITSFR11             0      0       0      12        0.0%
SFR11                0      0       0      12        0.0%
BANK4               50      0       0      13        0.0%
BITSFR12             0      0       0      13        0.0%
SFR12                0      0       0      13        0.0%
BITSFR13             0      0       0      14        0.0%
SFR13                0      0       0      14        0.0%
ABS                  0      0      46      14        0.0%
BITBANK5            50      0       0      15        0.0%
BITSFR14             0      0       0      15        0.0%
SFR14                0      0       0      15        0.0%
BANK5               50      0       0      16        0.0%
BITSFR15             0      0       0      16        0.0%
SFR15                0      0       0      16        0.0%
BITBANK6            50      0       0      17        0.0%
BITSFR16             0      0       0      17        0.0%
SFR16                0      0       0      17        0.0%
BANK6               50      0       0      18        0.0%
BITSFR17             0      0       0      18        0.0%
SFR17                0      0       0      18        0.0%
BITBANK7            50      0       0      19        0.0%
BITSFR18             0      0       0      19        0.0%
SFR18                0      0       0      19        0.0%
BANK7               50      0       0      20        0.0%
BITSFR19             0      0       0      20        0.0%
SFR19                0      0       0      20        0.0%
BITBANK8            50      0       0      21        0.0%
BITSFR20             0      0       0      21        0.0%
SFR20                0      0       0      21        0.0%
BANK8               50      0       0      22        0.0%
BITSFR21             0      0       0      22        0.0%
SFR21                0      0       0      22        0.0%
BITBANK9            50      0       0      23        0.0%
BITSFR22             0      0       0      23        0.0%
SFR22                0      0       0      23        0.0%
BANK9               50      0       0      24        0.0%
BITSFR23             0      0       0      24        0.0%
SFR23                0      0       0      24        0.0%
BITBANK10           50      0       0      25        0.0%
BITSFR24             0      0       0      25        0.0%
SFR24                0      0       0      25        0.0%
BANK10              50      0       0      26        0.0%
BITSFR25             0      0       0      26        0.0%
SFR25                0      0       0      26        0.0%
BITBANK11           50      0       0      27        0.0%
BITSFR26             0      0       0      27        0.0%
SFR26                0      0       0      27        0.0%
BITSFR27             0      0       0      28        0.0%
SFR27                0      0       0      28        0.0%
DATA                 0      0      46      28        0.0%
BANK11              50      0       0      29        0.0%
BITSFR28             0      0       0      29        0.0%
SFR28                0      0       0      29        0.0%
BITBANK12           50      0       0      30        0.0%
BITSFR29             0      0       0      30        0.0%
SFR29                0      0       0      30        0.0%
BANK12              50      0       0      31        0.0%
BITSFR30             0      0       0      31        0.0%
SFR30                0      0       0      31        0.0%
BITBANK13           50      0       0      32        0.0%
BITSFR31             0      0       0      32        0.0%
SFR31                0      0       0      32        0.0%
BANK13              50      0       0      33        0.0%
BITBANK14           50      0       0      34        0.0%
BANK14              50      0       0      35        0.0%
BITBANK15           50      0       0      36        0.0%
BANK15              50      0       0      37        0.0%
BITBANK16           50      0       0      38        0.0%
BANK16              50      0       0      39        0.0%
BITBANK17           50      0       0      40        0.0%
BANK17              50      0       0      41        0.0%
BITBANK18           50      0       0      42        0.0%
BANK18              50      0       0      43        0.0%
BITBANK19           50      0       0      44        0.0%
BANK19              50      0       0      45        0.0%
BITBANK20           50      0       0      46        0.0%
BANK20              50      0       0      47        0.0%
BITBANK21           50      0       0      48        0.0%
BANK21              50      0       0      49        0.0%
BITBANK22           50      0       0      50        0.0%
BANK22              50      0       0      51        0.0%
BITBANK23           50      0       0      52        0.0%
BANK23              50      0       0      53        0.0%
BITBANK24           50      0       0      54        0.0%
BANK24              50      0       0      55        0.0%
BITBANK25           20      0       0      56        0.0%
BANK25              20      0       0      57        0.0%


Microchip Technology PIC Macro Assembler V1.35 build -356382666 
Symbol Table                                                                                   Fri Nov 20 14:06:43 2015

                                     ?_led_command 002F                                        __CFG_CP$OFF 0000  
                           __end_of_display_health 14FA                          i1display_blade_lights@red 0027  
                                              l300 0614                                                l303 062A  
                                              l306 0640                                                l254 045E  
                                              l263 0531                                                l259 04C9  
                                              l593 127C                                                _GIE 005F  
                                              _RA1 0061                                                _RB2 006A  
                                              _RB3 006B                                                _RC7 0077  
                                     __CFG_CPD$OFF 0000                                                _isr 0004  
                                     __CFG_BORV$LO 0000                                       __CFG_IESO$ON 0000  
                                 led2_command@blue 0031                                   writespi@data_out 002E  
                         ??i1_display_blade_lights 0020                               __end_of_led1_command 0A1A  
                                     __CFG_LVP$OFF 0000                                         i1_leds_off 14FA  
                       i1display_blade_lights@blue 0029                                  i1led1_command@red 0073  
                       i1display_blade_lights@mode 0023                               __end_of_led2_command 0ABE  
                        play_sound@sound_selection 002F                                               l2601 0A29  
                                             l3305 14E5                                               l3333 059B  
                                             l2621 0AB3                                               l3261 14AF  
                                             l2615 0A9F                                               l2607 0A3D  
                                             l2551 08F9                                               l2705 07DD  
                                             l2545 08E5                                               l3281 14C8  
                                             l3513 04C3                                               l2643 0B43  
                                             l2635 0AE1                                               l3443 012B  
                                             l3259 1464                                               l3373 0696  
                                             l2573 0985                                               l2629 0ACD  
                                             l2565 096B                                               l3533 052E  
                                             l2671 0BE7                                               l2663 0B85  
                                             l2559 0957                                               l3447 039B  
                                             l3391 132D                                               l2593 0A0F  
                                             l2649 0B57                                               l2657 0B71  
                                             l3379 0698                                               l2587 09FB  
                                             l2579 0999                                               l2691 0767  
                                             l2677 0BFB                                               l2685 0753  
                                             l3469 041D                                               l3487 1305  
                                             l3479 0454                                               l2699 07C9  
                                             l3773 13C3                                               l3749 1388  
                                             l3777 13C7                                               ?_isr 0070  
                                             _ADGO 04E9                                               STR_1 1870  
                                             STR_2 1837                                               STR_3 1806  
                                             STR_4 1856                                               _BRGH 0CF2  
                                             _CREN 0CEC                                               u1305 09F9  
                                             u2105 04D2                                               u1315 0A0D  
                                             u2115 053A                                               u1325 0A27  
                                             u1405 0B6F                                               u1245 08E3  
                                             u1335 0A3B                                               u1415 0B83  
                                             u1255 08F7                                               u1345 0A9D  
                                             u1425 0BE5                                               u1505 12E2  
                                             u1265 0955                                               u1355 0AB1  
                                             u1435 0BF9                                               u1275 0969  
                                             u1285 0983                                               u1365 0ACB  
                                             u1445 0751                                               u2085 0467  
                                             u1295 0997                                               u1375 0ADF  
                                             u1455 0765                                               u2407 1337  
                                             u1385 0B41                                               u1465 07C7  
                                             u2417 046E                                               u1395 0B55  
                                             u1475 07DB                                               u2507 04F1  
                                             u2427 047A                                               u1485 07F4  
                                             u2517 04FD                                               u2437 0486  
                                             u2607 057D                                               u2527 0509  
                                             u2447 0492                                               u1905 0653  
                                             u2617 0589                                               u2537 0515  
                                             u2457 049E                                               _PIE4 0094  
                                             u1915 0660                                               u2707 0108  
                                             u2627 135A                                               u2547 0521  
                                             u2467 04AA                                               u1925 066D  
                                             u2717 011E                                               u2637 1483  
                                             u2557 0541                                               u2477 04B6  
                                             u2397 1323                                               u1935 067A  
                                             u2807 07E2                                               u2727 03B1  
                                             u2647 14A7                                               u2567 054D  
                                             u2487 04D9                                               u1945 0687  
                                             u2817 0C00                                               u2737 03C9  
                                             u2657 006D                                               u2577 0559  
                                             u2497 04E5                                               u1955 0694  
                                             u2827 0B5C                                               u2747 03E1  
                                             u2667 008B                                               u2587 0565  
                                             u2837 0AB8                                               u2757 03F9  
                                             u2677 00A9                                               u2597 0571  
                                             u2847 0A14                                               u2767 0411  
                                             u2687 00C7                                               u2857 060D  
                                             u2777 042E                                               u2697 00E5  
                                             u2867 0623                                               u2787 0444  
                                             _RCIE 048D                                               _RCIF 008D  
                                             u2877 0639                                               u2797 0970  
                __end_of_determine_sword_was_swung 069A                               __end_of_led3_command 0B62  
                                             _TMR1 0016                                               _SPEN 0CEF  
                                             _TRMT 0CF1                                               _TXEN 0CF5  
                                             _SYNC 0CF4                                       __CFG_WRT$OFF 0000  
                                    __CFG_FCMEN$ON 0000                               __end_of_led4_command 0C06  
                                             _main 136E                                        main@pkt_arr 0047  
                                             fsr0h 0005                                               fsr1h 0007  
                                             fsr0l 0004                                               indf1 0001  
                                             fsr1l 0006                               __end_of_led5_command 07E8  
                                             btemp 007E                          __size_ofi1_display_health 0094  
                                             ltemp 007E                                               start 0029  
                                             ttemp 007E                                               wtemp 007E  
                                led2_command@i_631 0037                                         _Davgcycles 0052  
                                    __CFG_MCLRE$ON 0000                                  led2_command@green 0030  
                                       i1led_end@i 0074                                        i1_led_start 12C0  
                                            ??_isr 002A                                         i1_writespi 124C  
                               i1led1_command@blue 0075                          _determine_packets_to_send 12EE  
                                            ?_main 0070                                    ?_display_health 0070  
                                            _ADRES 009B                                              _BRG16 0CFB  
                                    __CFG_WDTE$OFF 0000                                              _T1CON 0018  
                                            _IOCAF 0393                                              _IOCAN 0392  
                                            _IOCAP 0391                                              i1l181 0024  
                                            i1l178 001C                                              i1l593 1258  
                                            _RCREG 0199                                              _SPBRG 019B  
                                i1writespi@TempVar 0071                                              _TRISA 008C  
                                            _TRISB 008D                                              _TRISC 008E  
                                            _SSPEN 10AD                                              _WPUB2 106A  
                                            _WPUB3 106B                                              _TXREG 019A  
                                  __end_of_led_end 12EE                                    __end_of_init_ir 083C  
                                i1led2_command@red 0073                                              main@i 004A  
                                   __CFG_BOREN$OFF 0000                                              ltemp0 007E  
                                            ltemp1 0082                                              ltemp2 0086  
                                            ltemp3 0080                                              ttemp0 007E  
                                            ttemp1 0081                                              ttemp2 0084  
                                            ttemp3 0087                                              ttemp4 007F  
                                            status 0003                                              wtemp0 007E  
                                            wtemp1 0080                                              wtemp2 0082  
                                            wtemp3 0084                                              wtemp4 0086  
                                            wtemp5 0088                                              wtemp6 007F  
                                  __initialization 002B                                 __size_ofi1_led_end 0016  
                                     __end_of_main 13D0                                     __CFG_LPBOR$OFF 0000  
                          __size_ofi1_led1_command 009B                                             ??_main 0046  
                          __size_ofi1_led2_command 009B                                i1led1_command@i_624 007B  
                          __size_ofi1_led3_command 009B                                     __CFG_PLLEN$OFF 0000  
                          __size_ofi1_led4_command 009B                                        i1leds_off@i 0075  
                              i1led1_command@green 0074                            __size_ofi1_led5_command 009B  
                     __end_of_display_blade_lights 0457                                   led3_command@blue 0031  
                                     _stun_counter 007D                    __size_ofi1_display_blade_lights 03FA  
                                           _ADCON0 009D                                             _ADCON1 009E  
                                           _ADCON2 009F                                        ?i1_leds_off 0070  
                   display_blade_lights@brightness 003F                                             _ANSELA 018C  
                                           _ANSELB 018D                                  i1led3_command@red 0073  
                                           _IOCAF1 1C99                                             i1l2813 16C0  
                                           i1l2821 16D8                                             i1l3605 1432  
                                           i1l2807 16AD                                             i1l2911 151A  
                                           i1l2841 175B                                             i1l2905 1507  
                                           i1l3721 0FC7                                             i1l2771 15B5  
                                           i1l2835 1748                                             i1l2827 16EB  
                                           i1l3731 0FFD                                             i1l2765 15A2  
                                           i1l2925 158A                                             i1l3629 144F  
                                           i1l2863 17E3                                             i1l2855 1786  
                                           i1l2919 1577                                             i1l3583 13D0  
                                           i1l2785 1625                                             i1l2793 163D  
                                           i1l2849 1773                                             i1l3585 1419  
                                           i1l2779 1612                                             i1l2891 08BA  
                                           i1l2883 085D                                             i1l2869 17F6  
                                           i1l2877 084A                                             i1l2799 1650  
                                           u300_27 0FA3                                             i1l3695 0CF1  
                                           i1l2897 08CD                                             i1l3699 0F45  
                                           u301_27 0FBB                                             u302_27 0FD8  
                                           u303_27 0FED                                             u160_25 163B  
                                           u152_25 12CB                                             u304_27 158E  
                                           _INTCON 000B                                             u161_25 164E  
                                           u305_27 08D1                                             u162_25 16AB  
                                           u170_25 17E1                                             u154_25 12B5  
                                           u306_27 17FA                                             u163_25 16BE  
                                           u171_25 17F4                                             u307_27 175F  
                                           u156_25 15A0                                             u164_25 16D6  
                                           u172_25 0848                                             u308_27 16C4  
__end_ofdetermine_sword_was_swung@neg_shock_thresh 1804          determine_sword_was_swung@neg_shock_thresh 1802  
                                           u157_25 15B3                                             u165_25 16E9  
                                           u173_25 085B                                             u309_27 1629  
                                           u158_25 1610                                             u166_25 1746  
                                           u174_25 08B8                                             u159_25 1623  
                                           u167_25 1759                                             u175_25 08CB  
                           __size_ofi1_led_command 0011                                             u168_25 1771  
                                           u176_25 1505                                             u169_25 1784  
                                           u177_25 1518                                             u178_25 1575  
                                           u290_27 0C34                                             u179_25 1588  
                                           u291_27 0C52                                             u292_27 0C70  
                                           u293_27 0C8E                                             u294_27 0CAC  
                                           _SDISEL 08EB                                             _SCKSEL 08EC  
                                           u295_27 0CCF                                             u296_27 0CE4  
                                           u288_27 13EE                                             u297_27 0F5B  
                                           u289_27 1411                                             _OSCCON 0099  
                                           u298_27 0F73                                             u299_27 0F8B  
                                           _SDOSEL 08ED                                             _SSPBUF 0211  
                          i1led_command@brightness 0076                                     __CFG_PWRTE$OFF 0000  
                           led2_command@brightness 0034                             led5_command@brightness 0034  
                                   __CFG_STVREN$ON 0000                                   __end_of_leds_off 0976  
                                           _health 0057                                        ?i1_writespi 0070  
                                 __end_of_init_pic 136E                                   __end_of_init_isr 124C  
                               i1led2_command@blue 0075                                 i1writespi@data_out 0072  
                             __size_of_led_command 0015                                          ??_led_end 002F  
                            __size_of_led1_command 00A4                                          ??_init_ir 002C  
                            __size_of_led2_command 00A4                              __size_of_led3_command 00A4  
                            __size_of_led4_command 00A4                                  __end_ofi1_led_end 12C0  
                              i1led5_command@i_652 007B                              __size_of_led5_command 00A4  
                                i1led4_command@red 0073                                i1led5_command@green 0074  
                         i1led1_command@brightness 0078                                   __end_of_writespi 1280  
                         i1led4_command@brightness 0078                            __end_of__initialization 003B  
                                 i1_display_health 13D0                                     __pcstackCOMMON 0070  
                           i1_display_blade_lights 0C06                                       __pidataBANK0 0003  
                                     _led1_command 0976                                __size_ofi1_leds_off 009A  
                                     _led2_command 0A1A                                      i1_led_command 125C  
                                     _led3_command 0ABE                                       _led4_command 0B62  
                                     _led5_command 0744                                   led4_command@blue 0031  
               __size_of_determine_packets_to_send 0029                                 __size_of_led_start 0018  
                                       __pbssBANK0 004B                                  i1led5_command@red 0073  
                                     i1led_start@i 0074                                __size_ofi1_writespi 0010  
                                  __CFG_VCAPEN$OFF 0000                                 __size_of_init_conn 0003  
                               __size_of_init_leds 00AA                                  led3_command@i_638 0037  
                            led_command@brightness 0032                                         __pmaintext 136E  
                                 ??_display_health 002C                               _display_blade_lights 003F  
                                     ?i1_led_start 0070                                  led3_command@green 0030  
                                       __pintentry 0004                                     output_ir@i_295 0031  
                                   output_ir@i_296 0033                                     ?i1_led_command 0073  
                                   i1_led1_command 1594                                     i1_led2_command 162F  
                               i1led3_command@blue 0075                                     i1_led3_command 16CA  
                          i1display_blade_lights@i 0024                                     i1_led4_command 1765  
                                    led1_command@i 0035                                     i1_led5_command 083C  
                                          _PSMC2LD 758E                                            _PSMC3LD 768E  
                                          _PSMC4LD 788E                                            _SSPCON1 0215  
                                    led2_command@i 0035                                          ?_leds_off 0070  
                __end_of_determine_packets_to_send 1317                                 __size_of_output_ir 013F  
                       ?_determine_sword_was_swung 0070                                          ?_init_pic 0070  
                                        ?_init_isr 0070                                      led3_command@i 0035  
                            ?_display_blade_lights 0070                             __end_ofi1_led1_command 162F  
                                       _init_accel 1295                             __end_ofi1_led2_command 16CA  
                                __end_of_led_start 0800                                      led4_command@i 0035  
                           __end_ofi1_led3_command 1765                             __end_ofi1_led4_command 1800  
                                          __ptext1 1317                                            __ptext2 0457  
                                          __ptext3 1341                                            __ptext4 069A  
                                          __ptext5 123D                                            __ptext6 0803  
                                          __ptext7 0800                                            __ptext8 1295  
                                          __ptext9 1464                                            _led_end 12D6  
                                        ?_writespi 0070                             __end_ofi1_led5_command 08D7  
                                          _init_ir 0803                                  __end_of_init_conn 0803  
                                     __size_of_isr 0025                                  __end_of_init_leds 0744  
                              i1led2_command@i_631 007B                                      led5_command@i 0035  
                     ?_determine_omega_mode_active 0070                                          _IOCAFbits 0393  
                                   led_command@red 002F                                i1led2_command@green 0074  
                                     ??i1_leds_off 0073                                   led5_command@blue 0031  
                             end_of_initialization 003B                                         ??_leds_off 002F  
                                  led1_command@red 002F                                         ??_init_pic 002C  
                                       ??_init_isr 002C                                         _numPackets 0054  
                                i1led_command@blue 0075                                         _play_sound 1317  
                                        _PSMC1FEBS 0E99                                          _PSMC1BLKF 0EAC  
                                        _PSMC1ASDC 0E9D                                          _PSMC1BLNK 0E97  
                                        _PSMC1BLKR 0EAB                                          _PSMC1ASDL 0E9E  
                                        _PSMC2FEBS 0EB9                                          _PSMC2BLKF 0ECC  
                                        _PSMC2ASDC 0EBD                                          _PSMC1ASDS 0E9F  
                                        _PSMC2BLNK 0EB7                                          _PSMC2BLKR 0ECB  
                                        _PSMC2ASDL 0EBE                                          _PSMC3FEBS 0ED9  
                                        _PSMC3BLKF 0EEC                                          _PSMC3ASDC 0EDD  
                                        _PSMC2ASDS 0EBF                                          _PSMC3BLNK 0ED7  
                                        _PSMC3BLKR 0EEB                                          _PSMC3ASDL 0EDE  
                                        _PSMC4FEBS 0F19                                          _PSMC4BLKF 0F2C  
                                        _PSMC4ASDC 0F1D                                          _PSMC3ASDS 0EDF  
                                        _PSMC4BLNK 0F17                                          _PSMC4BLKR 0F2B  
                                        _PSMC4ASDL 0F1E                                          _PSMC4ASDS 0F1F  
                                        _PSMC1REBS 0E98                                          _PSMC2REBS 0EB8  
                                        _PSMC3REBS 0ED8                                    ??i1_led_command 0076  
                                        _PSMC4REBS 0F18                                          _PSMC1STR0 0EAE  
                                        _PSMC1STR1 0EAF                                          _PSMC2STR0 0ECE  
                                        _PSMC2STR1 0ECF                                          _PSMC1SYNC 0E93  
                                        _PSMC3STR0 0EEE                                          _PSMC3STR1 0EEF  
                                        _PSMC2SYNC 0EB3                                          _PSMC4STR0 0F2E  
                                        _PSMC4STR1 0F2F                                          _PSMC3SYNC 0ED3  
                                        _PSMC4SYNC 0F13                                    ?i1_led1_command 0073  
                                    leds_off@i_669 0033                                       __pstringtext 1800  
                                  ?i1_led2_command 0073                                       ??i1_writespi 0070  
                               __end_ofi1_leds_off 1594                                    ?i1_led3_command 0073  
                                __end_of_output_ir 0596                                          _PORTBbits 000D  
                                  ?i1_led4_command 0073                                 i1led4_command@blue 0075  
                                       ??_writespi 002C                                    ?i1_led5_command 0073  
                         __end_ofi1_display_health 1464                                   __CFG_FOSC$INTOSC 0000  
                                        _TRISBbits 008D                              display_blade_lights@i 003C  
                                  writespi@TempVar 002D                                    i1led1_command@i 0079  
                                        i1_led_end 12AA                                    led2_command@red 002F  
                               __end_ofi1_writespi 125C                            ?i1_display_blade_lights 0070  
                                  i1led2_command@i 0079                             ??_display_blade_lights 0039  
                           led1_command@brightness 0034                             led4_command@brightness 0034  
                                    ??_led_command 0032                                        ?_init_accel 0070  
                                  i1led3_command@i 0079                                         led_start@i 0030  
                             __size_ofi1_led_start 0016                                    i1led4_command@i 0079  
                              start_initialization 002B                          display_blade_lights@i_591 003D  
                                      __end_of_isr 0029                          display_blade_lights@green 0041  
                                  i1led5_command@i 0079                           i1led3_command@brightness 0078  
                                       ?i1_led_end 0070                     __end_ofi1_display_blade_lights 1000  
                                  led3_command@red 002F                                        ?_play_sound 0070  
__end_ofdetermine_sword_was_swung@pos_shock_thresh 1806          determine_sword_was_swung@pos_shock_thresh 1804  
             __size_of_determine_omega_mode_active 0005                                  led4_command@i_645 0037  
                                      __pdataBANK0 0057                                  led4_command@green 0030  
                               i1led5_command@blue 0075                                    i1leds_off@i_669 0077  
                              __end_of_led_command 1295                                        __pbssCOMMON 007D  
                                        ___latbits 0003                                      __pcstackBANK0 0020  
                              __size_of_init_accel 0015                                    led4_command@red 002F  
                      ??_determine_sword_was_swung 002C                                  __size_of_leds_off 009F  
                                __size_of_init_pic 002D                                  __size_of_init_isr 000F  
                      i1display_blade_lights@i_591 0025                        i1display_blade_lights@green 0028  
                                         ?_led_end 0070                                          _led_start 07E8  
                                         ?_init_ir 0070                                __size_of_play_sound 002A  
                                __size_of_writespi 0013                                i1led3_command@i_638 007B  
                                  output_ir@amount 002C                                           _P1MDLBIT 7495  
                                        _init_conn 0800                                          _init_leds 069A  
                              i1led3_command@green 0074                                           _D1cycles 004E  
                                         _D2cycles 0050                                        ??i1_led_end 0073  
                       ?_determine_packets_to_send 0070                                    led5_command@red 002F  
                                         _LATBbits 010D                                   ??i1_led1_command 0076  
                                 i1led_command@red 0073                                   ??i1_led2_command 0076  
                                 led_command@green 0030                                           _PIR1bits 0011  
                                         _PSMC1DBF 0EAA                                           _PSMC1DCH 0EA4  
                                         _PSMC2DBF 0ECA                                           _PSMC1DCL 0EA3  
                                         _PSMC1FFA 0EAD                                   ??i1_led3_command 0076  
                                         _PSMC2DCH 0EC4                                           _PSMC1DBR 0EA9  
                                         _PSMC1DCS 0E9B                                           _PSMC3DBF 0EEA  
                                         _PSMC2DCL 0EC3                                           _PSMC2FFA 0ECD  
                                         _PSMC3DCH 0EE4                                           _PSMC2DBR 0EC9  
                                         _PSMC1CLK 0E94                                           _PSMC2DCS 0EBB  
                                         _PSMC4DBF 0F2A                                           _PSMC3DCL 0EE3  
                                         _PSMC3FFA 0EED                                           _PSMC4DCH 0F24  
                                         _PSMC3DBR 0EE9                                           _PSMC2CLK 0EB4  
                                         _PSMC1CON 0E91                                           _PSMC3DCS 0EDB  
                                         _PSMC4DCL 0F23                                           _PSMC4FFA 0F2D  
                                         _PSMC4DBR 0F29                                           _PSMC3CLK 0ED4  
                                         _PSMC2CON 0EB1                                           _PSMC4DCS 0F1B  
                                         _PSMC4CLK 0F14                                           _PSMC3CON 0ED1  
                                         _PSMC1MDL 0E92                                           _PSMC4CON 0F11  
                                         _PSMC2MDL 0EB2                                           _PSMC1OEN 0E95  
                                         _PSMC1INT 0EA0                                           _PSMC3MDL 0ED2  
                                         _PSMC1PHH 0EA2                                           _PSMC2OEN 0EB5  
                                         _PSMC2INT 0EC0                                           _PSMC1PHL 0EA1  
                                         _PSMC4MDL 0F12                                           _PSMC2PHH 0EC2  
                                         _PSMC1PHS 0E9A                                           _PSMC3OEN 0ED5  
                                         _PSMC3INT 0EE0                                           _PSMC2PHL 0EC1  
                                         _PSMC3PHH 0EE2                                           _PSMC1POL 0E96  
                                         _PSMC2PHS 0EBA                                           _PSMC4OEN 0F15  
                                         _PSMC4INT 0F20                                           _PSMC3PHL 0EE1  
                                         _PSMC1PRH 0EA6                                           _PSMC4PHH 0F22  
                                         _PSMC1PRL 0EA5                                           _PSMC2POL 0EB6  
                                         _PSMC3PHS 0EDA                                           _PSMC4PHL 0F21  
                                         _PSMC2PRH 0EC6                                           _PSMC1PRS 0E9C  
                                         _PSMC2PRL 0EC5                                           _PSMC3POL 0ED6  
                                         _PSMC4PHS 0F1A                                           _PSMC3PRH 0EE6  
                                         _PSMC2PRS 0EBC                                           _PSMC3PRL 0EE5  
                                         _PSMC4POL 0F16                                           _PSMC4PRH 0F26  
                                         _PSMC3PRS 0EDC                                           _PSMC4PRL 0F25  
                                         _PSMC4PRS 0F1C                                   ??i1_led4_command 0076  
                                        main@F7258 004B                                   ??i1_led5_command 0076  
                                      _led_command 1280                          _determine_sword_was_swung 0596  
                                       ?_led_start 0070                                  ?i1_display_health 0070  
                                        _output_ir 0457                            __size_of_display_health 0096  
                               ??i1_display_health 0070                                         ?_init_conn 0070  
                                       ?_init_leds 0070                                          leds_off@i 0031  
                                led1_command@i_624 0037                                  led1_command@green 0030  
                                  _damage_received 0056                                      ?_led1_command 002F  
                                     ??_init_accel 002C                                      ?_led2_command 002F  
                            __end_ofi1_led_command 126D                                      ?_led3_command 002F  
                                    ?_led4_command 002F                                      ?_led5_command 002F  
                                output_ir@pkt_type 0035                                   __size_of_led_end 0018  
                      determine_sword_was_swung@xh 002E                        determine_sword_was_swung@yh 002F  
                      determine_sword_was_swung@xl 0031                        determine_sword_was_swung@zh 0030  
                      determine_sword_was_swung@yl 0032                        determine_sword_was_swung@zl 0033  
                                       ?_output_ir 002C                                   __size_of_init_ir 0039  
                                       output_ir@i 002F              determine_sword_was_swung@x_neg_thresh 0036  
                                         __ptext10 003F                                           __ptext11 08D7  
                                         __ptext20 126D                                           __ptext12 07E8  
                                         __ptext21 0596                                           __ptext13 12D6  
                                         __ptext30 125C                                           __ptext22 12EE  
                                         __ptext14 1280                                           __ptext31 083C  
                                         __ptext23 1238                                           __ptext15 0744  
                                         __ptext32 1765                                           __ptext16 0B62  
                                         __ptext33 16CA                                           __ptext25 13D0  
                                         __ptext17 0ABE                                           __ptext34 162F  
                                         __ptext26 0C06                                           __ptext18 0A1A  
                                         __ptext35 1594                                           __ptext27 14FA  
                                         __ptext19 0976                                           __ptext36 124C  
                                         __ptext28 12C0                                           __ptext29 12AA  
                                         _leds_off 08D7                                 __end_of_init_accel 12AA  
                                    __size_of_main 0062                                           _init_pic 1341  
                                         _init_isr 123D                                       ??_play_sound 002C  
                 determine_packets_to_send@packets 002D                                    led_command@blue 0031  
                           led3_command@brightness 0034                                     ??_led1_command 0032  
            determine_sword_was_swung@y_neg_thresh 003A                                      ??i1_led_start 0073  
                                   ??_led2_command 0032                      __size_of_display_blade_lights 0418  
                                         int$flags 007E                                  led5_command@i_652 0037  
                                   ??_led3_command 0032                                           led_end@i 0030  
                                   ??_led4_command 0032                   i1display_blade_lights@brightness 0026  
                                led5_command@green 0030                                     ??_led5_command 0032  
                                         _writespi 126D                                        ??_led_start 002F  
              __end_of_determine_omega_mode_active 123D                        _determine_omega_mode_active 1238  
        __end_ofdetermine_sword_was_swung@midpoint 1802                  determine_sword_was_swung@midpoint 1800  
                               __end_of_play_sound 1341                                   led1_command@blue 0031  
            determine_sword_was_swung@z_neg_thresh 003E                                        ??_init_conn 002C  
                                      ??_init_leds 0035                                           intlevel1 0000  
                               i1led_command@green 0074                         determine_sword_was_swung@x 0040  
                       determine_sword_was_swung@y 0042                         determine_sword_was_swung@z 0044  
                    ??_determine_omega_mode_active 002C                           i1led2_command@brightness 0078  
                         i1led5_command@brightness 0078              determine_sword_was_swung@x_pos_thresh 0034  
                                __CFG_CLKOUTEN$OFF 0000              determine_sword_was_swung@y_pos_thresh 0038  
                              __end_ofi1_led_start 12D6                                     _display_health 1464  
                                      ??_output_ir 002D                                        _SSPCON1bits 0215  
                              i1led4_command@i_645 007B                 __size_of_determine_sword_was_swung 0104  
                              i1led4_command@green 0074              determine_sword_was_swung@z_pos_thresh 003C  
                      ??_determine_packets_to_send 002C                           display_blade_lights@blue 0042  
                         display_blade_lights@mode 003E                            display_blade_lights@red 0040  
