

Microchip Technology PIC LITE Macro Assembler V1.35 build -356382666 
                                                                                               Thu Oct 15 15:06:33 2015

Microchip Technology Omniscient Code Generator v1.35 (Free mode) build 201507080246
     1                           	processor	16F1788
     2                           	opt	pw 120
     3                           	opt	lm
     4                           	psect	cinit,global,class=CODE,merge=1,delta=2
     5                           	psect	cstackCOMMON,global,class=COMMON,space=1,delta=1
     6                           	psect	maintext,global,class=CODE,merge=1,split=1,delta=2
     7                           	psect	text1,local,class=CODE,merge=1,delta=2
     8                           	psect	text2,local,class=CODE,merge=1,delta=2
     9                           	psect	text3,local,class=CODE,merge=1,delta=2
    10                           	psect	text4,local,class=CODE,merge=1,delta=2
    11                           	psect	text5,local,class=CODE,merge=1,delta=2
    12                           	psect	text6,local,class=CODE,merge=1,delta=2
    13                           	psect	text7,local,class=CODE,merge=1,delta=2
    14                           	psect	text8,local,class=CODE,merge=1,delta=2
    15                           	dabs	1,0x7E,2
    16  0000                     	;# 
    17  0001                     	;# 
    18  0002                     	;# 
    19  0003                     	;# 
    20  0004                     	;# 
    21  0005                     	;# 
    22  0006                     	;# 
    23  0007                     	;# 
    24  0008                     	;# 
    25  0009                     	;# 
    26  000A                     	;# 
    27  000B                     	;# 
    28  000C                     	;# 
    29  000D                     	;# 
    30  000E                     	;# 
    31  0010                     	;# 
    32  0011                     	;# 
    33  0012                     	;# 
    34  0013                     	;# 
    35  0014                     	;# 
    36  0015                     	;# 
    37  0016                     	;# 
    38  0016                     	;# 
    39  0017                     	;# 
    40  0018                     	;# 
    41  0019                     	;# 
    42  001A                     	;# 
    43  001B                     	;# 
    44  001C                     	;# 
    45  008C                     	;# 
    46  008D                     	;# 
    47  008E                     	;# 
    48  0090                     	;# 
    49  0091                     	;# 
    50  0092                     	;# 
    51  0093                     	;# 
    52  0094                     	;# 
    53  0095                     	;# 
    54  0096                     	;# 
    55  0097                     	;# 
    56  0098                     	;# 
    57  0099                     	;# 
    58  009A                     	;# 
    59  009B                     	;# 
    60  009B                     	;# 
    61  009C                     	;# 
    62  009D                     	;# 
    63  009E                     	;# 
    64  009F                     	;# 
    65  010C                     	;# 
    66  010D                     	;# 
    67  010E                     	;# 
    68  0111                     	;# 
    69  0112                     	;# 
    70  0113                     	;# 
    71  0114                     	;# 
    72  0115                     	;# 
    73  0116                     	;# 
    74  0117                     	;# 
    75  0118                     	;# 
    76  0119                     	;# 
    77  011A                     	;# 
    78  011B                     	;# 
    79  011C                     	;# 
    80  011D                     	;# 
    81  011D                     	;# 
    82  011D                     	;# 
    83  011E                     	;# 
    84  011F                     	;# 
    85  018C                     	;# 
    86  018D                     	;# 
    87  018E                     	;# 
    88  0191                     	;# 
    89  0191                     	;# 
    90  0192                     	;# 
    91  0193                     	;# 
    92  0193                     	;# 
    93  0193                     	;# 
    94  0194                     	;# 
    95  0195                     	;# 
    96  0196                     	;# 
    97  0197                     	;# 
    98  0199                     	;# 
    99  0199                     	;# 
   100  0199                     	;# 
   101  019A                     	;# 
   102  019A                     	;# 
   103  019A                     	;# 
   104  019B                     	;# 
   105  019B                     	;# 
   106  019B                     	;# 
   107  019B                     	;# 
   108  019B                     	;# 
   109  019C                     	;# 
   110  019C                     	;# 
   111  019C                     	;# 
   112  019D                     	;# 
   113  019D                     	;# 
   114  019D                     	;# 
   115  019E                     	;# 
   116  019E                     	;# 
   117  019E                     	;# 
   118  019F                     	;# 
   119  019F                     	;# 
   120  019F                     	;# 
   121  019F                     	;# 
   122  019F                     	;# 
   123  020C                     	;# 
   124  020D                     	;# 
   125  020E                     	;# 
   126  0210                     	;# 
   127  0211                     	;# 
   128  0211                     	;# 
   129  0212                     	;# 
   130  0212                     	;# 
   131  0213                     	;# 
   132  0213                     	;# 
   133  0214                     	;# 
   134  0214                     	;# 
   135  0215                     	;# 
   136  0215                     	;# 
   137  0215                     	;# 
   138  0215                     	;# 
   139  0216                     	;# 
   140  0216                     	;# 
   141  0217                     	;# 
   142  0217                     	;# 
   143  028C                     	;# 
   144  028D                     	;# 
   145  028E                     	;# 
   146  0291                     	;# 
   147  0291                     	;# 
   148  0292                     	;# 
   149  0293                     	;# 
   150  0298                     	;# 
   151  0298                     	;# 
   152  0299                     	;# 
   153  029A                     	;# 
   154  030C                     	;# 
   155  030D                     	;# 
   156  030E                     	;# 
   157  0311                     	;# 
   158  0311                     	;# 
   159  0312                     	;# 
   160  0313                     	;# 
   161  038C                     	;# 
   162  038D                     	;# 
   163  038E                     	;# 
   164  0390                     	;# 
   165  0391                     	;# 
   166  0392                     	;# 
   167  0393                     	;# 
   168  0394                     	;# 
   169  0395                     	;# 
   170  0396                     	;# 
   171  0397                     	;# 
   172  0398                     	;# 
   173  0399                     	;# 
   174  039D                     	;# 
   175  039E                     	;# 
   176  039F                     	;# 
   177  0511                     	;# 
   178  0513                     	;# 
   179  051A                     	;# 
   180  0591                     	;# 
   181  0592                     	;# 
   182  0592                     	;# 
   183  0593                     	;# 
   184  0594                     	;# 
   185  0594                     	;# 
   186  0595                     	;# 
   187  0596                     	;# 
   188  0596                     	;# 
   189  0E91                     	;# 
   190  0E92                     	;# 
   191  0E93                     	;# 
   192  0E94                     	;# 
   193  0E95                     	;# 
   194  0E96                     	;# 
   195  0E97                     	;# 
   196  0E98                     	;# 
   197  0E99                     	;# 
   198  0E9A                     	;# 
   199  0E9B                     	;# 
   200  0E9C                     	;# 
   201  0E9D                     	;# 
   202  0E9E                     	;# 
   203  0E9F                     	;# 
   204  0EA0                     	;# 
   205  0EA1                     	;# 
   206  0EA1                     	;# 
   207  0EA2                     	;# 
   208  0EA3                     	;# 
   209  0EA3                     	;# 
   210  0EA4                     	;# 
   211  0EA5                     	;# 
   212  0EA5                     	;# 
   213  0EA6                     	;# 
   214  0EA7                     	;# 
   215  0EA7                     	;# 
   216  0EA8                     	;# 
   217  0EA9                     	;# 
   218  0EAA                     	;# 
   219  0EAB                     	;# 
   220  0EAC                     	;# 
   221  0EAD                     	;# 
   222  0EAE                     	;# 
   223  0EAF                     	;# 
   224  0EB1                     	;# 
   225  0EB2                     	;# 
   226  0EB3                     	;# 
   227  0EB4                     	;# 
   228  0EB5                     	;# 
   229  0EB6                     	;# 
   230  0EB7                     	;# 
   231  0EB8                     	;# 
   232  0EB9                     	;# 
   233  0EBA                     	;# 
   234  0EBB                     	;# 
   235  0EBC                     	;# 
   236  0EBD                     	;# 
   237  0EBE                     	;# 
   238  0EBF                     	;# 
   239  0EC0                     	;# 
   240  0EC1                     	;# 
   241  0EC1                     	;# 
   242  0EC2                     	;# 
   243  0EC3                     	;# 
   244  0EC3                     	;# 
   245  0EC4                     	;# 
   246  0EC5                     	;# 
   247  0EC5                     	;# 
   248  0EC6                     	;# 
   249  0EC7                     	;# 
   250  0EC7                     	;# 
   251  0EC8                     	;# 
   252  0EC9                     	;# 
   253  0ECA                     	;# 
   254  0ECB                     	;# 
   255  0ECC                     	;# 
   256  0ECD                     	;# 
   257  0ECE                     	;# 
   258  0ECF                     	;# 
   259  0ED1                     	;# 
   260  0ED2                     	;# 
   261  0ED3                     	;# 
   262  0ED4                     	;# 
   263  0ED5                     	;# 
   264  0ED6                     	;# 
   265  0ED7                     	;# 
   266  0ED8                     	;# 
   267  0ED9                     	;# 
   268  0EDA                     	;# 
   269  0EDB                     	;# 
   270  0EDC                     	;# 
   271  0EDD                     	;# 
   272  0EDE                     	;# 
   273  0EDF                     	;# 
   274  0EE0                     	;# 
   275  0EE1                     	;# 
   276  0EE1                     	;# 
   277  0EE2                     	;# 
   278  0EE3                     	;# 
   279  0EE3                     	;# 
   280  0EE4                     	;# 
   281  0EE5                     	;# 
   282  0EE5                     	;# 
   283  0EE6                     	;# 
   284  0EE7                     	;# 
   285  0EE7                     	;# 
   286  0EE8                     	;# 
   287  0EE9                     	;# 
   288  0EEA                     	;# 
   289  0EEB                     	;# 
   290  0EEC                     	;# 
   291  0EED                     	;# 
   292  0EEE                     	;# 
   293  0EEF                     	;# 
   294  0F11                     	;# 
   295  0F12                     	;# 
   296  0F13                     	;# 
   297  0F14                     	;# 
   298  0F15                     	;# 
   299  0F16                     	;# 
   300  0F17                     	;# 
   301  0F18                     	;# 
   302  0F19                     	;# 
   303  0F1A                     	;# 
   304  0F1B                     	;# 
   305  0F1C                     	;# 
   306  0F1D                     	;# 
   307  0F1E                     	;# 
   308  0F1F                     	;# 
   309  0F20                     	;# 
   310  0F21                     	;# 
   311  0F21                     	;# 
   312  0F22                     	;# 
   313  0F23                     	;# 
   314  0F23                     	;# 
   315  0F24                     	;# 
   316  0F25                     	;# 
   317  0F25                     	;# 
   318  0F26                     	;# 
   319  0F27                     	;# 
   320  0F27                     	;# 
   321  0F28                     	;# 
   322  0F29                     	;# 
   323  0F2A                     	;# 
   324  0F2B                     	;# 
   325  0F2C                     	;# 
   326  0F2D                     	;# 
   327  0F2E                     	;# 
   328  0F2F                     	;# 
   329  0FE4                     	;# 
   330  0FE5                     	;# 
   331  0FE6                     	;# 
   332  0FE7                     	;# 
   333  0FE8                     	;# 
   334  0FE9                     	;# 
   335  0FEA                     	;# 
   336  0FEB                     	;# 
   337  0FED                     	;# 
   338  0FEE                     	;# 
   339  0FEF                     	;# 
   340  0000                     	;# 
   341  0001                     	;# 
   342  0002                     	;# 
   343  0003                     	;# 
   344  0004                     	;# 
   345  0005                     	;# 
   346  0006                     	;# 
   347  0007                     	;# 
   348  0008                     	;# 
   349  0009                     	;# 
   350  000A                     	;# 
   351  000B                     	;# 
   352  000C                     	;# 
   353  000D                     	;# 
   354  000E                     	;# 
   355  0010                     	;# 
   356  0011                     	;# 
   357  0012                     	;# 
   358  0013                     	;# 
   359  0014                     	;# 
   360  0015                     	;# 
   361  0016                     	;# 
   362  0016                     	;# 
   363  0017                     	;# 
   364  0018                     	;# 
   365  0019                     	;# 
   366  001A                     	;# 
   367  001B                     	;# 
   368  001C                     	;# 
   369  008C                     	;# 
   370  008D                     	;# 
   371  008E                     	;# 
   372  0090                     	;# 
   373  0091                     	;# 
   374  0092                     	;# 
   375  0093                     	;# 
   376  0094                     	;# 
   377  0095                     	;# 
   378  0096                     	;# 
   379  0097                     	;# 
   380  0098                     	;# 
   381  0099                     	;# 
   382  009A                     	;# 
   383  009B                     	;# 
   384  009B                     	;# 
   385  009C                     	;# 
   386  009D                     	;# 
   387  009E                     	;# 
   388  009F                     	;# 
   389  010C                     	;# 
   390  010D                     	;# 
   391  010E                     	;# 
   392  0111                     	;# 
   393  0112                     	;# 
   394  0113                     	;# 
   395  0114                     	;# 
   396  0115                     	;# 
   397  0116                     	;# 
   398  0117                     	;# 
   399  0118                     	;# 
   400  0119                     	;# 
   401  011A                     	;# 
   402  011B                     	;# 
   403  011C                     	;# 
   404  011D                     	;# 
   405  011D                     	;# 
   406  011D                     	;# 
   407  011E                     	;# 
   408  011F                     	;# 
   409  018C                     	;# 
   410  018D                     	;# 
   411  018E                     	;# 
   412  0191                     	;# 
   413  0191                     	;# 
   414  0192                     	;# 
   415  0193                     	;# 
   416  0193                     	;# 
   417  0193                     	;# 
   418  0194                     	;# 
   419  0195                     	;# 
   420  0196                     	;# 
   421  0197                     	;# 
   422  0199                     	;# 
   423  0199                     	;# 
   424  0199                     	;# 
   425  019A                     	;# 
   426  019A                     	;# 
   427  019A                     	;# 
   428  019B                     	;# 
   429  019B                     	;# 
   430  019B                     	;# 
   431  019B                     	;# 
   432  019B                     	;# 
   433  019C                     	;# 
   434  019C                     	;# 
   435  019C                     	;# 
   436  019D                     	;# 
   437  019D                     	;# 
   438  019D                     	;# 
   439  019E                     	;# 
   440  019E                     	;# 
   441  019E                     	;# 
   442  019F                     	;# 
   443  019F                     	;# 
   444  019F                     	;# 
   445  019F                     	;# 
   446  019F                     	;# 
   447  020C                     	;# 
   448  020D                     	;# 
   449  020E                     	;# 
   450  0210                     	;# 
   451  0211                     	;# 
   452  0211                     	;# 
   453  0212                     	;# 
   454  0212                     	;# 
   455  0213                     	;# 
   456  0213                     	;# 
   457  0214                     	;# 
   458  0214                     	;# 
   459  0215                     	;# 
   460  0215                     	;# 
   461  0215                     	;# 
   462  0215                     	;# 
   463  0216                     	;# 
   464  0216                     	;# 
   465  0217                     	;# 
   466  0217                     	;# 
   467  028C                     	;# 
   468  028D                     	;# 
   469  028E                     	;# 
   470  0291                     	;# 
   471  0291                     	;# 
   472  0292                     	;# 
   473  0293                     	;# 
   474  0298                     	;# 
   475  0298                     	;# 
   476  0299                     	;# 
   477  029A                     	;# 
   478  030C                     	;# 
   479  030D                     	;# 
   480  030E                     	;# 
   481  0311                     	;# 
   482  0311                     	;# 
   483  0312                     	;# 
   484  0313                     	;# 
   485  038C                     	;# 
   486  038D                     	;# 
   487  038E                     	;# 
   488  0390                     	;# 
   489  0391                     	;# 
   490  0392                     	;# 
   491  0393                     	;# 
   492  0394                     	;# 
   493  0395                     	;# 
   494  0396                     	;# 
   495  0397                     	;# 
   496  0398                     	;# 
   497  0399                     	;# 
   498  039D                     	;# 
   499  039E                     	;# 
   500  039F                     	;# 
   501  0511                     	;# 
   502  0513                     	;# 
   503  051A                     	;# 
   504  0591                     	;# 
   505  0592                     	;# 
   506  0592                     	;# 
   507  0593                     	;# 
   508  0594                     	;# 
   509  0594                     	;# 
   510  0595                     	;# 
   511  0596                     	;# 
   512  0596                     	;# 
   513  0E91                     	;# 
   514  0E92                     	;# 
   515  0E93                     	;# 
   516  0E94                     	;# 
   517  0E95                     	;# 
   518  0E96                     	;# 
   519  0E97                     	;# 
   520  0E98                     	;# 
   521  0E99                     	;# 
   522  0E9A                     	;# 
   523  0E9B                     	;# 
   524  0E9C                     	;# 
   525  0E9D                     	;# 
   526  0E9E                     	;# 
   527  0E9F                     	;# 
   528  0EA0                     	;# 
   529  0EA1                     	;# 
   530  0EA1                     	;# 
   531  0EA2                     	;# 
   532  0EA3                     	;# 
   533  0EA3                     	;# 
   534  0EA4                     	;# 
   535  0EA5                     	;# 
   536  0EA5                     	;# 
   537  0EA6                     	;# 
   538  0EA7                     	;# 
   539  0EA7                     	;# 
   540  0EA8                     	;# 
   541  0EA9                     	;# 
   542  0EAA                     	;# 
   543  0EAB                     	;# 
   544  0EAC                     	;# 
   545  0EAD                     	;# 
   546  0EAE                     	;# 
   547  0EAF                     	;# 
   548  0EB1                     	;# 
   549  0EB2                     	;# 
   550  0EB3                     	;# 
   551  0EB4                     	;# 
   552  0EB5                     	;# 
   553  0EB6                     	;# 
   554  0EB7                     	;# 
   555  0EB8                     	;# 
   556  0EB9                     	;# 
   557  0EBA                     	;# 
   558  0EBB                     	;# 
   559  0EBC                     	;# 
   560  0EBD                     	;# 
   561  0EBE                     	;# 
   562  0EBF                     	;# 
   563  0EC0                     	;# 
   564  0EC1                     	;# 
   565  0EC1                     	;# 
   566  0EC2                     	;# 
   567  0EC3                     	;# 
   568  0EC3                     	;# 
   569  0EC4                     	;# 
   570  0EC5                     	;# 
   571  0EC5                     	;# 
   572  0EC6                     	;# 
   573  0EC7                     	;# 
   574  0EC7                     	;# 
   575  0EC8                     	;# 
   576  0EC9                     	;# 
   577  0ECA                     	;# 
   578  0ECB                     	;# 
   579  0ECC                     	;# 
   580  0ECD                     	;# 
   581  0ECE                     	;# 
   582  0ECF                     	;# 
   583  0ED1                     	;# 
   584  0ED2                     	;# 
   585  0ED3                     	;# 
   586  0ED4                     	;# 
   587  0ED5                     	;# 
   588  0ED6                     	;# 
   589  0ED7                     	;# 
   590  0ED8                     	;# 
   591  0ED9                     	;# 
   592  0EDA                     	;# 
   593  0EDB                     	;# 
   594  0EDC                     	;# 
   595  0EDD                     	;# 
   596  0EDE                     	;# 
   597  0EDF                     	;# 
   598  0EE0                     	;# 
   599  0EE1                     	;# 
   600  0EE1                     	;# 
   601  0EE2                     	;# 
   602  0EE3                     	;# 
   603  0EE3                     	;# 
   604  0EE4                     	;# 
   605  0EE5                     	;# 
   606  0EE5                     	;# 
   607  0EE6                     	;# 
   608  0EE7                     	;# 
   609  0EE7                     	;# 
   610  0EE8                     	;# 
   611  0EE9                     	;# 
   612  0EEA                     	;# 
   613  0EEB                     	;# 
   614  0EEC                     	;# 
   615  0EED                     	;# 
   616  0EEE                     	;# 
   617  0EEF                     	;# 
   618  0F11                     	;# 
   619  0F12                     	;# 
   620  0F13                     	;# 
   621  0F14                     	;# 
   622  0F15                     	;# 
   623  0F16                     	;# 
   624  0F17                     	;# 
   625  0F18                     	;# 
   626  0F19                     	;# 
   627  0F1A                     	;# 
   628  0F1B                     	;# 
   629  0F1C                     	;# 
   630  0F1D                     	;# 
   631  0F1E                     	;# 
   632  0F1F                     	;# 
   633  0F20                     	;# 
   634  0F21                     	;# 
   635  0F21                     	;# 
   636  0F22                     	;# 
   637  0F23                     	;# 
   638  0F23                     	;# 
   639  0F24                     	;# 
   640  0F25                     	;# 
   641  0F25                     	;# 
   642  0F26                     	;# 
   643  0F27                     	;# 
   644  0F27                     	;# 
   645  0F28                     	;# 
   646  0F29                     	;# 
   647  0F2A                     	;# 
   648  0F2B                     	;# 
   649  0F2C                     	;# 
   650  0F2D                     	;# 
   651  0F2E                     	;# 
   652  0F2F                     	;# 
   653  0FE4                     	;# 
   654  0FE5                     	;# 
   655  0FE6                     	;# 
   656  0FE7                     	;# 
   657  0FE8                     	;# 
   658  0FE9                     	;# 
   659  0FEA                     	;# 
   660  0FEB                     	;# 
   661  0FED                     	;# 
   662  0FEE                     	;# 
   663  0FEF                     	;# 
   664  006B                     _RB3	set	107
   665  0099                     _OSCCON	set	153
   666  008D                     _TRISB	set	141
   667                           
   668                           	psect	cinit
   669  07FD                     start_initialization:	
   670                           ; #config settings
   671                           
   672  07FD                     __initialization:	
   673  07FD                     end_of_initialization:	
   674                           ;End of C runtime variable initialization code
   675                           
   676  07FD                     __end_of__initialization:	
   677  07FD  0020               	movlb	0
   678  07FE  3187  2FE0         	ljmp	_main	;jump to C main() function
   679                           
   680                           	psect	cstackCOMMON
   681  0070                     __pcstackCOMMON:	
   682  0070                     ?_main_loop_individual:	
   683  0070                     ??_main_loop_individual:	
   684                           ; 0 bytes @ 0x0
   685                           
   686  0070                     ?_main_loop_omega:	
   687                           ; 0 bytes @ 0x0
   688                           
   689  0070                     ??_main_loop_omega:	
   690                           ; 0 bytes @ 0x0
   691                           
   692  0070                     ?_init_pic:	
   693                           ; 0 bytes @ 0x0
   694                           
   695  0070                     ??_init_pic:	
   696                           ; 0 bytes @ 0x0
   697                           
   698  0070                     ?_init_ir:	
   699                           ; 0 bytes @ 0x0
   700                           
   701  0070                     ??_init_ir:	
   702                           ; 0 bytes @ 0x0
   703                           
   704  0070                     ?_init_accel:	
   705                           ; 0 bytes @ 0x0
   706                           
   707  0070                     ??_init_accel:	
   708                           ; 0 bytes @ 0x0
   709                           
   710  0070                     ??_determine_omega_mode_active:	
   711                           ; 0 bytes @ 0x0
   712                           
   713  0070                     ?_init_leds:	
   714                           ; 0 bytes @ 0x0
   715                           
   716  0070                     ??_init_leds:	
   717                           ; 0 bytes @ 0x0
   718                           
   719  0070                     ?_init_isr:	
   720                           ; 0 bytes @ 0x0
   721                           
   722  0070                     ??_init_isr:	
   723                           ; 0 bytes @ 0x0
   724                           
   725  0070                     ?_determine_omega_mode_active:	
   726                           ; 0 bytes @ 0x0
   727                           
   728  0070                     ?_main:	
   729                           ; 1 bytes @ 0x0
   730                           
   731                           
   732                           ; 2 bytes @ 0x0
   733  0070                     	ds	1
   734  0071                     ??_main:	
   735                           
   736                           	psect	maintext
   737  07E0                     __pmaintext:	
   738                           ; 0 bytes @ 0x1
   739 ;;
   740 ;;Main: autosize = 0, tempsize = 0, incstack = 0, save=0
   741 ;;
   742 ;; *************** function _main *****************
   743 ;; Defined at:
   744 ;;		line 13 in file "../../source/main.c"
   745 ;; Parameters:    Size  Location     Type
   746 ;;		None
   747 ;; Auto vars:     Size  Location     Type
   748 ;;		None
   749 ;; Return value:  Size  Location     Type
   750 ;;                  2   63[None  ] int 
   751 ;; Registers used:
   752 ;;		wreg, status,2, status,0, pclath, cstack
   753 ;; Tracked objects:
   754 ;;		On entry : B1F/0
   755 ;;		On exit  : 0/0
   756 ;;		Unchanged: 0/0
   757 ;; Data sizes:     COMMON   BANK0   BANK1   BANK2   BANK3   BANK4   BANK5   BANK6   BANK7   BANK8   BANK9  BANK10  BANK1
      +1  BANK12  BANK13  BANK14  BANK15  BANK16  BANK17  BANK18  BANK19  BANK20  BANK21  BANK22  BANK23  BANK24  BANK25
   758 ;;      Params:         0       0       0       0       0       0       0       0       0       0       0       0       
      +0       0       0       0       0       0       0       0       0       0       0       0       0       0       0
   759 ;;      Locals:         0       0       0       0       0       0       0       0       0       0       0       0       
      +0       0       0       0       0       0       0       0       0       0       0       0       0       0       0
   760 ;;      Temps:          0       0       0       0       0       0       0       0       0       0       0       0       
      +0       0       0       0       0       0       0       0       0       0       0       0       0       0       0
   761 ;;      Totals:         0       0       0       0       0       0       0       0       0       0       0       0       
      +0       0       0       0       0       0       0       0       0       0       0       0       0       0       0
   762 ;;Total ram usage:        0 bytes
   763 ;; Hardware stack levels required when called:    1
   764 ;; This function calls:
   765 ;;		_determine_omega_mode_active
   766 ;;		_init_accel
   767 ;;		_init_ir
   768 ;;		_init_isr
   769 ;;		_init_leds
   770 ;;		_init_pic
   771 ;;		_main_loop_individual
   772 ;;		_main_loop_omega
   773 ;; This function is called by:
   774 ;;		Startup code after reset
   775 ;; This function uses a non-reentrant model
   776 ;;
   777                           
   778                           
   779                           ;psect for function _main
   780  07E0                     _main:	
   781                           
   782                           ;main.c: 16: init_pic();
   783                           
   784                           ;incstack = 0
   785                           ; Regs used in _main: [wreg+status,2+status,0+pclath+cstack]
   786  07E0  3187  27D6  3187   	fcall	_init_pic
   787                           
   788                           ;main.c: 17: init_ir();
   789  07E3  3187  27CD  3187   	fcall	_init_ir
   790                           
   791                           ;main.c: 18: init_accel();
   792  07E6  3187  27CC  3187   	fcall	_init_accel
   793                           
   794                           ;main.c: 19: init_leds();
   795  07E9  3187  27CF  3187   	fcall	_init_leds
   796                           
   797                           ;main.c: 20: init_isr();
   798  07EC  3187  27CE  3187   	fcall	_init_isr
   799  07EF  2FF3               	goto	l579
   800  07F0                     l581:	
   801                           
   802                           ;main.c: 27: {
   803                           ;main.c: 28: main_loop_individual();
   804  07F0  3187  27D0  3187   	fcall	_main_loop_individual
   805  07F3                     l579:	
   806                           ;main.c: 23: while(1)
   807                           
   808                           ;main.c: 29: }
   809                           
   810                           
   811                           ;main.c: 24: {
   812                           ;main.c: 26: if(determine_omega_mode_active() <= 0)
   813  07F3  3187  27D2  3187   	fcall	_determine_omega_mode_active
   814  07F6  3A00               	xorlw	0
   815  07F7  1903               	btfsc	3,2
   816  07F8  2FF0               	goto	l581
   817                           
   818                           ;main.c: 30: else
   819                           ;main.c: 31: {
   820                           ;main.c: 32: main_loop_omega();
   821  07F9  3187  27D1  3187   	fcall	_main_loop_omega
   822  07FC  2FF3               	goto	l579
   823  07FD                     __end_of_main:	
   824                           
   825                           	psect	text1
   826  07D1                     __ptext1:	
   827 ;; *************** function _main_loop_omega *****************
   828 ;; Defined at:
   829 ;;		line 55 in file "../../source/main.c"
   830 ;; Parameters:    Size  Location     Type
   831 ;;		None
   832 ;; Auto vars:     Size  Location     Type
   833 ;;		None
   834 ;; Return value:  Size  Location     Type
   835 ;;		None               void
   836 ;; Registers used:
   837 ;;		None
   838 ;; Tracked objects:
   839 ;;		On entry : 0/0
   840 ;;		On exit  : 0/0
   841 ;;		Unchanged: 0/0
   842 ;; Data sizes:     COMMON   BANK0   BANK1   BANK2   BANK3   BANK4   BANK5   BANK6   BANK7   BANK8   BANK9  BANK10  BANK1
      +1  BANK12  BANK13  BANK14  BANK15  BANK16  BANK17  BANK18  BANK19  BANK20  BANK21  BANK22  BANK23  BANK24  BANK25
   843 ;;      Params:         0       0       0       0       0       0       0       0       0       0       0       0       
      +0       0       0       0       0       0       0       0       0       0       0       0       0       0       0
   844 ;;      Locals:         0       0       0       0       0       0       0       0       0       0       0       0       
      +0       0       0       0       0       0       0       0       0       0       0       0       0       0       0
   845 ;;      Temps:          0       0       0       0       0       0       0       0       0       0       0       0       
      +0       0       0       0       0       0       0       0       0       0       0       0       0       0       0
   846 ;;      Totals:         0       0       0       0       0       0       0       0       0       0       0       0       
      +0       0       0       0       0       0       0       0       0       0       0       0       0       0       0
   847 ;;Total ram usage:        0 bytes
   848 ;; Hardware stack levels used:    1
   849 ;; This function calls:
   850 ;;		Nothing
   851 ;; This function is called by:
   852 ;;		_main
   853 ;; This function uses a non-reentrant model
   854 ;;
   855                           
   856                           
   857                           ;psect for function _main_loop_omega
   858  07D1                     _main_loop_omega:	
   859                           
   860                           ;main.c: 58: return;
   861                           
   862                           ;incstack = 0
   863                           ; Regs used in _main_loop_omega: []
   864  07D1  0008               	return
   865  07D2                     __end_of_main_loop_omega:	
   866                           
   867                           	psect	text2
   868  07D0                     __ptext2:	
   869 ;; *************** function _main_loop_individual *****************
   870 ;; Defined at:
   871 ;;		line 38 in file "../../source/main.c"
   872 ;; Parameters:    Size  Location     Type
   873 ;;		None
   874 ;; Auto vars:     Size  Location     Type
   875 ;;		None
   876 ;; Return value:  Size  Location     Type
   877 ;;		None               void
   878 ;; Registers used:
   879 ;;		None
   880 ;; Tracked objects:
   881 ;;		On entry : 0/0
   882 ;;		On exit  : 0/0
   883 ;;		Unchanged: 0/0
   884 ;; Data sizes:     COMMON   BANK0   BANK1   BANK2   BANK3   BANK4   BANK5   BANK6   BANK7   BANK8   BANK9  BANK10  BANK1
      +1  BANK12  BANK13  BANK14  BANK15  BANK16  BANK17  BANK18  BANK19  BANK20  BANK21  BANK22  BANK23  BANK24  BANK25
   885 ;;      Params:         0       0       0       0       0       0       0       0       0       0       0       0       
      +0       0       0       0       0       0       0       0       0       0       0       0       0       0       0
   886 ;;      Locals:         0       0       0       0       0       0       0       0       0       0       0       0       
      +0       0       0       0       0       0       0       0       0       0       0       0       0       0       0
   887 ;;      Temps:          0       0       0       0       0       0       0       0       0       0       0       0       
      +0       0       0       0       0       0       0       0       0       0       0       0       0       0       0
   888 ;;      Totals:         0       0       0       0       0       0       0       0       0       0       0       0       
      +0       0       0       0       0       0       0       0       0       0       0       0       0       0       0
   889 ;;Total ram usage:        0 bytes
   890 ;; Hardware stack levels used:    1
   891 ;; This function calls:
   892 ;;		Nothing
   893 ;; This function is called by:
   894 ;;		_main
   895 ;; This function uses a non-reentrant model
   896 ;;
   897                           
   898                           
   899                           ;psect for function _main_loop_individual
   900  07D0                     _main_loop_individual:	
   901                           
   902                           ;main.c: 41: return;
   903                           
   904                           ;incstack = 0
   905                           ; Regs used in _main_loop_individual: []
   906  07D0  0008               	return
   907  07D1                     __end_of_main_loop_individual:	
   908                           
   909                           	psect	text3
   910  07D6                     __ptext3:	
   911 ;; *************** function _init_pic *****************
   912 ;; Defined at:
   913 ;;		line 12 in file "../../source/function_stubs.c"
   914 ;; Parameters:    Size  Location     Type
   915 ;;		None
   916 ;; Auto vars:     Size  Location     Type
   917 ;;		None
   918 ;; Return value:  Size  Location     Type
   919 ;;		None               void
   920 ;; Registers used:
   921 ;;		wreg, status,2, status,0
   922 ;; Tracked objects:
   923 ;;		On entry : 0/0
   924 ;;		On exit  : 0/0
   925 ;;		Unchanged: 0/0
   926 ;; Data sizes:     COMMON   BANK0   BANK1   BANK2   BANK3   BANK4   BANK5   BANK6   BANK7   BANK8   BANK9  BANK10  BANK1
      +1  BANK12  BANK13  BANK14  BANK15  BANK16  BANK17  BANK18  BANK19  BANK20  BANK21  BANK22  BANK23  BANK24  BANK25
   927 ;;      Params:         0       0       0       0       0       0       0       0       0       0       0       0       
      +0       0       0       0       0       0       0       0       0       0       0       0       0       0       0
   928 ;;      Locals:         0       0       0       0       0       0       0       0       0       0       0       0       
      +0       0       0       0       0       0       0       0       0       0       0       0       0       0       0
   929 ;;      Temps:          1       0       0       0       0       0       0       0       0       0       0       0       
      +0       0       0       0       0       0       0       0       0       0       0       0       0       0       0
   930 ;;      Totals:         1       0       0       0       0       0       0       0       0       0       0       0       
      +0       0       0       0       0       0       0       0       0       0       0       0       0       0       0
   931 ;;Total ram usage:        1 bytes
   932 ;; Hardware stack levels used:    1
   933 ;; This function calls:
   934 ;;		Nothing
   935 ;; This function is called by:
   936 ;;		_main
   937 ;; This function uses a non-reentrant model
   938 ;;
   939                           
   940                           
   941                           ;psect for function _init_pic
   942  07D6                     _init_pic:	
   943                           
   944                           ;function_stubs.c: 15: OSCCON |= 0b11111010;
   945                           
   946                           ;incstack = 0
   947                           ; Regs used in _init_pic: [wreg+status,2+status,0]
   948  07D6  30FA               	movlw	250
   949  07D7  00F0               	movwf	??_init_pic
   950  07D8  0870               	movf	??_init_pic,w
   951  07D9  0021               	movlb	1	; select bank1
   952  07DA  0499               	iorwf	25,f	;volatile
   953                           
   954                           ;function_stubs.c: 18: TRISB &= 0b11110111;
   955  07DB  30F7               	movlw	247
   956  07DC  00F0               	movwf	??_init_pic
   957  07DD  0870               	movf	??_init_pic,w
   958  07DE  058D               	andwf	13,f	;volatile
   959  07DF  0008               	return
   960  07E0                     __end_of_init_pic:	
   961                           
   962                           	psect	text4
   963  07CF                     __ptext4:	
   964 ;; *************** function _init_leds *****************
   965 ;; Defined at:
   966 ;;		line 32 in file "../../source/function_stubs.c"
   967 ;; Parameters:    Size  Location     Type
   968 ;;		None
   969 ;; Auto vars:     Size  Location     Type
   970 ;;		None
   971 ;; Return value:  Size  Location     Type
   972 ;;		None               void
   973 ;; Registers used:
   974 ;;		None
   975 ;; Tracked objects:
   976 ;;		On entry : 0/0
   977 ;;		On exit  : 0/0
   978 ;;		Unchanged: 0/0
   979 ;; Data sizes:     COMMON   BANK0   BANK1   BANK2   BANK3   BANK4   BANK5   BANK6   BANK7   BANK8   BANK9  BANK10  BANK1
      +1  BANK12  BANK13  BANK14  BANK15  BANK16  BANK17  BANK18  BANK19  BANK20  BANK21  BANK22  BANK23  BANK24  BANK25
   980 ;;      Params:         0       0       0       0       0       0       0       0       0       0       0       0       
      +0       0       0       0       0       0       0       0       0       0       0       0       0       0       0
   981 ;;      Locals:         0       0       0       0       0       0       0       0       0       0       0       0       
      +0       0       0       0       0       0       0       0       0       0       0       0       0       0       0
   982 ;;      Temps:          0       0       0       0       0       0       0       0       0       0       0       0       
      +0       0       0       0       0       0       0       0       0       0       0       0       0       0       0
   983 ;;      Totals:         0       0       0       0       0       0       0       0       0       0       0       0       
      +0       0       0       0       0       0       0       0       0       0       0       0       0       0       0
   984 ;;Total ram usage:        0 bytes
   985 ;; Hardware stack levels used:    1
   986 ;; This function calls:
   987 ;;		Nothing
   988 ;; This function is called by:
   989 ;;		_main
   990 ;; This function uses a non-reentrant model
   991 ;;
   992                           
   993                           
   994                           ;psect for function _init_leds
   995  07CF                     _init_leds:	
   996                           
   997                           ;incstack = 0
   998                           ; Regs used in _init_leds: []
   999  07CF  0008               	return
  1000  07D0                     __end_of_init_leds:	
  1001                           
  1002                           	psect	text5
  1003  07CE                     __ptext5:	
  1004 ;; *************** function _init_isr *****************
  1005 ;; Defined at:
  1006 ;;		line 34 in file "../../source/function_stubs.c"
  1007 ;; Parameters:    Size  Location     Type
  1008 ;;		None
  1009 ;; Auto vars:     Size  Location     Type
  1010 ;;		None
  1011 ;; Return value:  Size  Location     Type
  1012 ;;		None               void
  1013 ;; Registers used:
  1014 ;;		None
  1015 ;; Tracked objects:
  1016 ;;		On entry : 0/0
  1017 ;;		On exit  : 0/0
  1018 ;;		Unchanged: 0/0
  1019 ;; Data sizes:     COMMON   BANK0   BANK1   BANK2   BANK3   BANK4   BANK5   BANK6   BANK7   BANK8   BANK9  BANK10  BANK1
      +1  BANK12  BANK13  BANK14  BANK15  BANK16  BANK17  BANK18  BANK19  BANK20  BANK21  BANK22  BANK23  BANK24  BANK25
  1020 ;;      Params:         0       0       0       0       0       0       0       0       0       0       0       0       
      +0       0       0       0       0       0       0       0       0       0       0       0       0       0       0
  1021 ;;      Locals:         0       0       0       0       0       0       0       0       0       0       0       0       
      +0       0       0       0       0       0       0       0       0       0       0       0       0       0       0
  1022 ;;      Temps:          0       0       0       0       0       0       0       0       0       0       0       0       
      +0       0       0       0       0       0       0       0       0       0       0       0       0       0       0
  1023 ;;      Totals:         0       0       0       0       0       0       0       0       0       0       0       0       
      +0       0       0       0       0       0       0       0       0       0       0       0       0       0       0
  1024 ;;Total ram usage:        0 bytes
  1025 ;; Hardware stack levels used:    1
  1026 ;; This function calls:
  1027 ;;		Nothing
  1028 ;; This function is called by:
  1029 ;;		_main
  1030 ;; This function uses a non-reentrant model
  1031 ;;
  1032                           
  1033                           
  1034                           ;psect for function _init_isr
  1035  07CE                     _init_isr:	
  1036                           
  1037                           ;incstack = 0
  1038                           ; Regs used in _init_isr: []
  1039  07CE  0008               	return
  1040  07CF                     __end_of_init_isr:	
  1041                           
  1042                           	psect	text6
  1043  07CD                     __ptext6:	
  1044 ;; *************** function _init_ir *****************
  1045 ;; Defined at:
  1046 ;;		line 20 in file "../../source/function_stubs.c"
  1047 ;; Parameters:    Size  Location     Type
  1048 ;;		None
  1049 ;; Auto vars:     Size  Location     Type
  1050 ;;		None
  1051 ;; Return value:  Size  Location     Type
  1052 ;;		None               void
  1053 ;; Registers used:
  1054 ;;		None
  1055 ;; Tracked objects:
  1056 ;;		On entry : 0/0
  1057 ;;		On exit  : 0/0
  1058 ;;		Unchanged: 0/0
  1059 ;; Data sizes:     COMMON   BANK0   BANK1   BANK2   BANK3   BANK4   BANK5   BANK6   BANK7   BANK8   BANK9  BANK10  BANK1
      +1  BANK12  BANK13  BANK14  BANK15  BANK16  BANK17  BANK18  BANK19  BANK20  BANK21  BANK22  BANK23  BANK24  BANK25
  1060 ;;      Params:         0       0       0       0       0       0       0       0       0       0       0       0       
      +0       0       0       0       0       0       0       0       0       0       0       0       0       0       0
  1061 ;;      Locals:         0       0       0       0       0       0       0       0       0       0       0       0       
      +0       0       0       0       0       0       0       0       0       0       0       0       0       0       0
  1062 ;;      Temps:          0       0       0       0       0       0       0       0       0       0       0       0       
      +0       0       0       0       0       0       0       0       0       0       0       0       0       0       0
  1063 ;;      Totals:         0       0       0       0       0       0       0       0       0       0       0       0       
      +0       0       0       0       0       0       0       0       0       0       0       0       0       0       0
  1064 ;;Total ram usage:        0 bytes
  1065 ;; Hardware stack levels used:    1
  1066 ;; This function calls:
  1067 ;;		Nothing
  1068 ;; This function is called by:
  1069 ;;		_main
  1070 ;; This function uses a non-reentrant model
  1071 ;;
  1072                           
  1073                           
  1074                           ;psect for function _init_ir
  1075  07CD                     _init_ir:	
  1076                           
  1077                           ;incstack = 0
  1078                           ; Regs used in _init_ir: []
  1079  07CD  0008               	return
  1080  07CE                     __end_of_init_ir:	
  1081                           
  1082                           	psect	text7
  1083  07CC                     __ptext7:	
  1084 ;; *************** function _init_accel *****************
  1085 ;; Defined at:
  1086 ;;		line 23 in file "../../source/function_stubs.c"
  1087 ;; Parameters:    Size  Location     Type
  1088 ;;		None
  1089 ;; Auto vars:     Size  Location     Type
  1090 ;;		None
  1091 ;; Return value:  Size  Location     Type
  1092 ;;		None               void
  1093 ;; Registers used:
  1094 ;;		None
  1095 ;; Tracked objects:
  1096 ;;		On entry : 0/0
  1097 ;;		On exit  : 0/0
  1098 ;;		Unchanged: 0/0
  1099 ;; Data sizes:     COMMON   BANK0   BANK1   BANK2   BANK3   BANK4   BANK5   BANK6   BANK7   BANK8   BANK9  BANK10  BANK1
      +1  BANK12  BANK13  BANK14  BANK15  BANK16  BANK17  BANK18  BANK19  BANK20  BANK21  BANK22  BANK23  BANK24  BANK25
  1100 ;;      Params:         0       0       0       0       0       0       0       0       0       0       0       0       
      +0       0       0       0       0       0       0       0       0       0       0       0       0       0       0
  1101 ;;      Locals:         0       0       0       0       0       0       0       0       0       0       0       0       
      +0       0       0       0       0       0       0       0       0       0       0       0       0       0       0
  1102 ;;      Temps:          0       0       0       0       0       0       0       0       0       0       0       0       
      +0       0       0       0       0       0       0       0       0       0       0       0       0       0       0
  1103 ;;      Totals:         0       0       0       0       0       0       0       0       0       0       0       0       
      +0       0       0       0       0       0       0       0       0       0       0       0       0       0       0
  1104 ;;Total ram usage:        0 bytes
  1105 ;; Hardware stack levels used:    1
  1106 ;; This function calls:
  1107 ;;		Nothing
  1108 ;; This function is called by:
  1109 ;;		_main
  1110 ;; This function uses a non-reentrant model
  1111 ;;
  1112                           
  1113                           
  1114                           ;psect for function _init_accel
  1115  07CC                     _init_accel:	
  1116                           
  1117                           ;incstack = 0
  1118                           ; Regs used in _init_accel: []
  1119  07CC  0008               	return
  1120  07CD                     __end_of_init_accel:	
  1121                           
  1122                           	psect	text8
  1123  07D2                     __ptext8:	
  1124 ;; *************** function _determine_omega_mode_active *****************
  1125 ;; Defined at:
  1126 ;;		line 25 in file "../../source/function_stubs.c"
  1127 ;; Parameters:    Size  Location     Type
  1128 ;;		None
  1129 ;; Auto vars:     Size  Location     Type
  1130 ;;		None
  1131 ;; Return value:  Size  Location     Type
  1132 ;;                  1    wreg      unsigned char 
  1133 ;; Registers used:
  1134 ;;		wreg
  1135 ;; Tracked objects:
  1136 ;;		On entry : 0/0
  1137 ;;		On exit  : 0/0
  1138 ;;		Unchanged: 0/0
  1139 ;; Data sizes:     COMMON   BANK0   BANK1   BANK2   BANK3   BANK4   BANK5   BANK6   BANK7   BANK8   BANK9  BANK10  BANK1
      +1  BANK12  BANK13  BANK14  BANK15  BANK16  BANK17  BANK18  BANK19  BANK20  BANK21  BANK22  BANK23  BANK24  BANK25
  1140 ;;      Params:         0       0       0       0       0       0       0       0       0       0       0       0       
      +0       0       0       0       0       0       0       0       0       0       0       0       0       0       0
  1141 ;;      Locals:         0       0       0       0       0       0       0       0       0       0       0       0       
      +0       0       0       0       0       0       0       0       0       0       0       0       0       0       0
  1142 ;;      Temps:          0       0       0       0       0       0       0       0       0       0       0       0       
      +0       0       0       0       0       0       0       0       0       0       0       0       0       0       0
  1143 ;;      Totals:         0       0       0       0       0       0       0       0       0       0       0       0       
      +0       0       0       0       0       0       0       0       0       0       0       0       0       0       0
  1144 ;;Total ram usage:        0 bytes
  1145 ;; Hardware stack levels used:    1
  1146 ;; This function calls:
  1147 ;;		Nothing
  1148 ;; This function is called by:
  1149 ;;		_main
  1150 ;; This function uses a non-reentrant model
  1151 ;;
  1152                           
  1153                           
  1154                           ;psect for function _determine_omega_mode_active
  1155  07D2                     _determine_omega_mode_active:	
  1156                           
  1157                           ;function_stubs.c: 27: RB3 = 1;
  1158                           
  1159                           ;incstack = 0
  1160                           ; Regs used in _determine_omega_mode_active: [wreg]
  1161  07D2  0020               	movlb	0	; select bank0
  1162  07D3  158D               	bsf	13,3	;volatile
  1163                           
  1164                           ;function_stubs.c: 28: return 0;
  1165  07D4  3000               	movlw	0
  1166  07D5  0008               	return
  1167  07D6                     __end_of_determine_omega_mode_active:	
  1168  007E                     btemp	set	126	;btemp
  1169  007E                     wtemp	set	126
  1170  007E                     wtemp0	set	126
  1171  0080                     wtemp1	set	128
  1172  0082                     wtemp2	set	130
  1173  0084                     wtemp3	set	132
  1174  0086                     wtemp4	set	134
  1175  0088                     wtemp5	set	136
  1176  007F                     wtemp6	set	127
  1177  007E                     ttemp	set	126
  1178  007E                     ttemp0	set	126
  1179  0081                     ttemp1	set	129
  1180  0084                     ttemp2	set	132
  1181  0087                     ttemp3	set	135
  1182  007F                     ttemp4	set	127
  1183  007E                     ltemp	set	126
  1184  007E                     ltemp0	set	126
  1185  0082                     ltemp1	set	130
  1186  0086                     ltemp2	set	134
  1187  0080                     ltemp3	set	128


Data Sizes:
    Strings     0
    Constant    0
    Data        0
    BSS         0
    Persistent  0
    Stack       0

Auto Spaces:
    Space          Size  Autos    Used
    COMMON           14      1       1
    BANK0            80      0       0
    BANK1            80      0       0
    BANK2            80      0       0
    BANK3            80      0       0
    BANK4            80      0       0
    BANK5            80      0       0
    BANK6            80      0       0
    BANK7            80      0       0
    BANK8            80      0       0
    BANK9            80      0       0
    BANK10           80      0       0
    BANK11           80      0       0
    BANK12           80      0       0
    BANK13           80      0       0
    BANK14           80      0       0
    BANK15           80      0       0
    BANK16           80      0       0
    BANK17           80      0       0
    BANK18           80      0       0
    BANK19           80      0       0
    BANK20           80      0       0
    BANK21           80      0       0
    BANK22           80      0       0
    BANK23           80      0       0
    BANK24           80      0       0
    BANK25           32      0       0

Pointer List with Targets:

    None.

Critical Paths under _main in COMMON

    _main->_init_pic

Critical Paths under _main in BANK0

    None.

Critical Paths under _main in BANK1

    None.

Critical Paths under _main in BANK2

    None.

Critical Paths under _main in BANK3

    None.

Critical Paths under _main in BANK4

    None.

Critical Paths under _main in BANK5

    None.

Critical Paths under _main in BANK6

    None.

Critical Paths under _main in BANK7

    None.

Critical Paths under _main in BANK8

    None.

Critical Paths under _main in BANK9

    None.

Critical Paths under _main in BANK10

    None.

Critical Paths under _main in BANK11

    None.

Critical Paths under _main in BANK12

    None.

Critical Paths under _main in BANK13

    None.

Critical Paths under _main in BANK14

    None.

Critical Paths under _main in BANK15

    None.

Critical Paths under _main in BANK16

    None.

Critical Paths under _main in BANK17

    None.

Critical Paths under _main in BANK18

    None.

Critical Paths under _main in BANK19

    None.

Critical Paths under _main in BANK20

    None.

Critical Paths under _main in BANK21

    None.

Critical Paths under _main in BANK22

    None.

Critical Paths under _main in BANK23

    None.

Critical Paths under _main in BANK24

    None.

Critical Paths under _main in BANK25

    None.

Call Graph Tables:

 ---------------------------------------------------------------------------------
 (Depth) Function   	        Calls       Base Space   Used Autos Params    Refs
 ---------------------------------------------------------------------------------
 (0) _main                                                 0     0      0       0
        _determine_omega_mode_active
                         _init_accel
                            _init_ir
                           _init_isr
                          _init_leds
                           _init_pic
               _main_loop_individual
                    _main_loop_omega
 ---------------------------------------------------------------------------------
 (1) _main_loop_omega                                      0     0      0       0
 ---------------------------------------------------------------------------------
 (1) _main_loop_individual                                 0     0      0       0
 ---------------------------------------------------------------------------------
 (1) _init_pic                                             1     1      0       0
                                              0 COMMON     1     1      0
 ---------------------------------------------------------------------------------
 (1) _init_leds                                            0     0      0       0
 ---------------------------------------------------------------------------------
 (1) _init_isr                                             0     0      0       0
 ---------------------------------------------------------------------------------
 (1) _init_ir                                              0     0      0       0
 ---------------------------------------------------------------------------------
 (1) _init_accel                                           0     0      0       0
 ---------------------------------------------------------------------------------
 (1) _determine_omega_mode_active                          0     0      0       0
 ---------------------------------------------------------------------------------
 Estimated maximum stack depth 1
 ---------------------------------------------------------------------------------

 Call Graph Graphs:

 _main (ROOT)
   _determine_omega_mode_active
   _init_accel
   _init_ir
   _init_isr
   _init_leds
   _init_pic
   _main_loop_individual
   _main_loop_omega

 Address spaces:
Name               Size   Autos  Total    Cost      Usage
BIGRAM             7F0      0       0       0        0.0%
EEDATA             100      0       0       0        0.0%
NULL                 0      0       0       0        0.0%
CODE                 0      0       0       0        0.0%
BITCOMMON            E      0       0       1        0.0%
BITSFR0              0      0       0       1        0.0%
SFR0                 0      0       0       1        0.0%
COMMON               E      1       1       2        7.1%
BITSFR1              0      0       0       2        0.0%
SFR1                 0      0       0       2        0.0%
BITSFR2              0      0       0       3        0.0%
SFR2                 0      0       0       3        0.0%
STACK                0      0       0       3        0.0%
BITBANK0            50      0       0       4        0.0%
BITSFR3              0      0       0       4        0.0%
SFR3                 0      0       0       4        0.0%
BANK0               50      0       0       5        0.0%
BITSFR4              0      0       0       5        0.0%
SFR4                 0      0       0       5        0.0%
BITBANK1            50      0       0       6        0.0%
BITSFR5              0      0       0       6        0.0%
SFR5                 0      0       0       6        0.0%
BANK1               50      0       0       7        0.0%
BITSFR6              0      0       0       7        0.0%
SFR6                 0      0       0       7        0.0%
BITBANK2            50      0       0       8        0.0%
BITSFR7              0      0       0       8        0.0%
SFR7                 0      0       0       8        0.0%
BANK2               50      0       0       9        0.0%
BITSFR8              0      0       0       9        0.0%
SFR8                 0      0       0       9        0.0%
BITBANK3            50      0       0      10        0.0%
BITSFR9              0      0       0      10        0.0%
SFR9                 0      0       0      10        0.0%
BANK3               50      0       0      11        0.0%
BITSFR10             0      0       0      11        0.0%
SFR10                0      0       0      11        0.0%
BITBANK4            50      0       0      12        0.0%
BITSFR11             0      0       0      12        0.0%
SFR11                0      0       0      12        0.0%
BANK4               50      0       0      13        0.0%
BITSFR12             0      0       0      13        0.0%
SFR12                0      0       0      13        0.0%
BITSFR13             0      0       0      14        0.0%
SFR13                0      0       0      14        0.0%
ABS                  0      0       0      14        0.0%
BITBANK5            50      0       0      15        0.0%
BITSFR14             0      0       0      15        0.0%
SFR14                0      0       0      15        0.0%
BANK5               50      0       0      16        0.0%
BITSFR15             0      0       0      16        0.0%
SFR15                0      0       0      16        0.0%
BITBANK6            50      0       0      17        0.0%
BITSFR16             0      0       0      17        0.0%
SFR16                0      0       0      17        0.0%
BANK6               50      0       0      18        0.0%
BITSFR17             0      0       0      18        0.0%
SFR17                0      0       0      18        0.0%
BITBANK7            50      0       0      19        0.0%
BITSFR18             0      0       0      19        0.0%
SFR18                0      0       0      19        0.0%
BANK7               50      0       0      20        0.0%
BITSFR19             0      0       0      20        0.0%
SFR19                0      0       0      20        0.0%
BITBANK8            50      0       0      21        0.0%
BITSFR20             0      0       0      21        0.0%
SFR20                0      0       0      21        0.0%
BANK8               50      0       0      22        0.0%
BITSFR21             0      0       0      22        0.0%
SFR21                0      0       0      22        0.0%
BITBANK9            50      0       0      23        0.0%
BITSFR22             0      0       0      23        0.0%
SFR22                0      0       0      23        0.0%
BANK9               50      0       0      24        0.0%
BITSFR23             0      0       0      24        0.0%
SFR23                0      0       0      24        0.0%
BITBANK10           50      0       0      25        0.0%
BITSFR24             0      0       0      25        0.0%
SFR24                0      0       0      25        0.0%
BANK10              50      0       0      26        0.0%
BITSFR25             0      0       0      26        0.0%
SFR25                0      0       0      26        0.0%
BITBANK11           50      0       0      27        0.0%
BITSFR26             0      0       0      27        0.0%
SFR26                0      0       0      27        0.0%
BITSFR27             0      0       0      28        0.0%
SFR27                0      0       0      28        0.0%
DATA                 0      0       0      28        0.0%
BANK11              50      0       0      29        0.0%
BITSFR28             0      0       0      29        0.0%
SFR28                0      0       0      29        0.0%
BITBANK12           50      0       0      30        0.0%
BITSFR29             0      0       0      30        0.0%
SFR29                0      0       0      30        0.0%
BANK12              50      0       0      31        0.0%
BITSFR30             0      0       0      31        0.0%
SFR30                0      0       0      31        0.0%
BITBANK13           50      0       0      32        0.0%
BITSFR31             0      0       0      32        0.0%
SFR31                0      0       0      32        0.0%
BANK13              50      0       0      33        0.0%
BITBANK14           50      0       0      34        0.0%
BANK14              50      0       0      35        0.0%
BITBANK15           50      0       0      36        0.0%
BANK15              50      0       0      37        0.0%
BITBANK16           50      0       0      38        0.0%
BANK16              50      0       0      39        0.0%
BITBANK17           50      0       0      40        0.0%
BANK17              50      0       0      41        0.0%
BITBANK18           50      0       0      42        0.0%
BANK18              50      0       0      43        0.0%
BITBANK19           50      0       0      44        0.0%
BANK19              50      0       0      45        0.0%
BITBANK20           50      0       0      46        0.0%
BANK20              50      0       0      47        0.0%
BITBANK21           50      0       0      48        0.0%
BANK21              50      0       0      49        0.0%
BITBANK22           50      0       0      50        0.0%
BANK22              50      0       0      51        0.0%
BITBANK23           50      0       0      52        0.0%
BANK23              50      0       0      53        0.0%
BITBANK24           50      0       0      54        0.0%
BANK24              50      0       0      55        0.0%
BITBANK25           20      0       0      56        0.0%
BANK25              20      0       0      57        0.0%


Microchip Technology PIC Macro Assembler V1.35 build -356382666 
Symbol Table                                                                                   Thu Oct 15 15:06:33 2015

            __size_of_main_loop_omega 0001                                   l581 07F0  
                                 l579 07F3                                   _RB3 006B  
                                _main 07E0                                  btemp 007E  
                                ltemp 007E                                  start 0002  
                                ttemp 007E                                  wtemp 007E  
              ??_main_loop_individual 0070                                 ?_main 0070  
                               _TRISB 008D                       __end_of_init_ir 07CE  
                               ltemp0 007E                                 ltemp1 0082  
                               ltemp2 0086                                 ltemp3 0080  
                               ttemp0 007E                                 ttemp1 0081  
                               ttemp2 0084                                 ttemp3 0087  
                               ttemp4 007F                                 wtemp0 007E  
                               wtemp1 0080                                 wtemp2 0082  
                               wtemp3 0084                                 wtemp4 0086  
                               wtemp5 0088                                 wtemp6 007F  
                     __initialization 07FD                          __end_of_main 07FD  
                              ??_main 0071                     ??_main_loop_omega 0070  
                              _OSCCON 0099                      __end_of_init_pic 07E0  
                    __end_of_init_isr 07CF                             ??_init_ir 0070  
             __end_of__initialization 07FD                        __pcstackCOMMON 0070  
                  __size_of_init_leds 0001                            __pmaintext 07E0  
                           ?_init_pic 0070                             ?_init_isr 0070  
                     _main_loop_omega 07D1                            _init_accel 07CC  
       __size_of_main_loop_individual 0001                               __ptext1 07D1  
                             __ptext2 07D0                               __ptext3 07D6  
                             __ptext4 07CF                               __ptext5 07CE  
                             __ptext6 07CD                               __ptext7 07CC  
                             __ptext8 07D2                               _init_ir 07CD  
                   __end_of_init_leds 07D0          ?_determine_omega_mode_active 0070  
                end_of_initialization 07FD                            ??_init_pic 0070  
                          ??_init_isr 0070               __end_of_main_loop_omega 07D2  
                         ?_init_accel 0070                   start_initialization 07FD  
__size_of_determine_omega_mode_active 0004                             ___latbits 0003  
                 __size_of_init_accel 0001                      ?_main_loop_omega 0070  
                   __size_of_init_pic 000A                     __size_of_init_isr 0001  
                            ?_init_ir 0070                             _init_leds 07CF  
        __end_of_main_loop_individual 07D1                            ?_init_leds 0070  
                        ??_init_accel 0070                      __size_of_init_ir 0001  
                  __end_of_init_accel 07CD                         __size_of_main 001D  
                            _init_pic 07D6                              _init_isr 07CE  
                _main_loop_individual 07D0   __end_of_determine_omega_mode_active 07D6  
         _determine_omega_mode_active 07D2                           ??_init_leds 0070  
       ??_determine_omega_mode_active 0070                 ?_main_loop_individual 0070  
