

Microchip Technology PIC LITE Macro Assembler V1.35 build -356382666 
                                                                                               Fri Nov 20 18:33:01 2015

Microchip Technology Omniscient Code Generator v1.35 (Free mode) build 201507080246
     1                           	processor	16F1788
     2                           	opt	pw 120
     3                           	opt	lm
     4                           	psect	idataBANK1,global,class=CODE,delta=2
     5                           	psect	stringtext,global,class=STRCODE,delta=2
     6                           	psect	cinit,global,class=CODE,merge=1,delta=2
     7                           	psect	bssBANK0,global,class=BANK0,space=1,delta=1
     8                           	psect	bssBANK1,global,class=BANK1,space=1,delta=1
     9                           	psect	dataBANK1,global,class=BANK1,space=1,delta=1
    10                           	psect	cstackBANK1,global,class=BANK1,space=1,delta=1
    11                           	psect	cstackCOMMON,global,class=COMMON,space=1,delta=1
    12                           	psect	cstackBANK0,global,class=BANK0,space=1,delta=1
    13                           	psect	maintext,global,class=CODE,merge=1,split=1,delta=2
    14                           	psect	text1,local,class=CODE,merge=1,delta=2
    15                           	psect	text2,local,class=CODE,merge=1,delta=2
    16                           	psect	text3,local,class=CODE,merge=1,delta=2
    17                           	psect	text4,local,class=CODE,merge=1,delta=2
    18                           	psect	text5,local,class=CODE,merge=1,delta=2
    19                           	psect	text6,local,class=CODE,merge=1,delta=2
    20                           	psect	text7,local,class=CODE,merge=1,delta=2
    21                           	psect	text8,local,class=CODE,merge=1,delta=2
    22                           	psect	text9,local,class=CODE,merge=1,delta=2
    23                           	psect	text10,local,class=CODE,merge=1,delta=2
    24                           	psect	text11,local,class=CODE,merge=1,delta=2
    25                           	psect	text12,local,class=CODE,merge=1,delta=2
    26                           	psect	text13,local,class=CODE,merge=1,delta=2
    27                           	psect	text14,local,class=CODE,merge=1,delta=2
    28                           	psect	text15,local,class=CODE,merge=1,delta=2
    29                           	psect	text16,local,class=CODE,merge=1,delta=2
    30                           	psect	text17,local,class=CODE,merge=1,delta=2
    31                           	psect	text18,local,class=CODE,merge=1,delta=2
    32                           	psect	text19,local,class=CODE,merge=1,delta=2
    33                           	psect	text20,local,class=CODE,merge=1,delta=2
    34                           	psect	text21,local,class=CODE,merge=1,delta=2
    35                           	psect	intentry,global,class=CODE,delta=2
    36                           	psect	text23,local,class=CODE,merge=1,delta=2
    37                           	psect	text24,local,class=CODE,merge=1,delta=2
    38                           	psect	text25,local,class=CODE,merge=1,delta=2
    39                           	psect	text26,local,class=CODE,merge=1,delta=2
    40                           	psect	text27,local,class=CODE,merge=1,delta=2
    41                           	psect	text28,local,class=CODE,merge=1,delta=2
    42                           	psect	text29,local,class=CODE,merge=1,delta=2
    43                           	psect	text30,local,class=CODE,merge=1,delta=2
    44                           	psect	text31,local,class=CODE,merge=1,delta=2
    45                           	psect	text32,local,class=CODE,merge=1,delta=2
    46                           	psect	text33,local,class=CODE,merge=1,delta=2
    47                           	psect	text34,local,class=CODE,merge=1,delta=2
    48                           	psect	text35,local,class=CODE,merge=1,delta=2
    49                           	psect	text36,local,class=CODE,merge=1,delta=2
    50                           	psect	text37,local,class=CODE,merge=1,delta=2
    51                           	psect	text38,local,class=CODE,merge=1,delta=2
    52                           	psect	text39,local,class=CODE,merge=1,delta=2
    53                           	psect	text40,local,class=CODE,merge=1,delta=2
    54                           	dabs	1,0x7E,2
    55  0000                     	;# 
    56  0001                     	;# 
    57  0002                     	;# 
    58  0003                     	;# 
    59  0004                     	;# 
    60  0005                     	;# 
    61  0006                     	;# 
    62  0007                     	;# 
    63  0008                     	;# 
    64  0009                     	;# 
    65  000A                     	;# 
    66  000B                     	;# 
    67  000C                     	;# 
    68  000D                     	;# 
    69  000E                     	;# 
    70  0010                     	;# 
    71  0011                     	;# 
    72  0012                     	;# 
    73  0013                     	;# 
    74  0014                     	;# 
    75  0015                     	;# 
    76  0016                     	;# 
    77  0016                     	;# 
    78  0017                     	;# 
    79  0018                     	;# 
    80  0019                     	;# 
    81  001A                     	;# 
    82  001B                     	;# 
    83  001C                     	;# 
    84  008C                     	;# 
    85  008D                     	;# 
    86  008E                     	;# 
    87  0090                     	;# 
    88  0091                     	;# 
    89  0092                     	;# 
    90  0093                     	;# 
    91  0094                     	;# 
    92  0095                     	;# 
    93  0096                     	;# 
    94  0097                     	;# 
    95  0098                     	;# 
    96  0099                     	;# 
    97  009A                     	;# 
    98  009B                     	;# 
    99  009B                     	;# 
   100  009C                     	;# 
   101  009D                     	;# 
   102  009E                     	;# 
   103  009F                     	;# 
   104  010C                     	;# 
   105  010D                     	;# 
   106  010E                     	;# 
   107  0111                     	;# 
   108  0112                     	;# 
   109  0113                     	;# 
   110  0114                     	;# 
   111  0115                     	;# 
   112  0116                     	;# 
   113  0117                     	;# 
   114  0118                     	;# 
   115  0119                     	;# 
   116  011A                     	;# 
   117  011B                     	;# 
   118  011C                     	;# 
   119  011D                     	;# 
   120  011D                     	;# 
   121  011D                     	;# 
   122  011E                     	;# 
   123  011F                     	;# 
   124  018C                     	;# 
   125  018D                     	;# 
   126  018E                     	;# 
   127  0191                     	;# 
   128  0191                     	;# 
   129  0192                     	;# 
   130  0193                     	;# 
   131  0193                     	;# 
   132  0193                     	;# 
   133  0194                     	;# 
   134  0195                     	;# 
   135  0196                     	;# 
   136  0197                     	;# 
   137  0199                     	;# 
   138  0199                     	;# 
   139  0199                     	;# 
   140  019A                     	;# 
   141  019A                     	;# 
   142  019A                     	;# 
   143  019B                     	;# 
   144  019B                     	;# 
   145  019B                     	;# 
   146  019B                     	;# 
   147  019B                     	;# 
   148  019C                     	;# 
   149  019C                     	;# 
   150  019C                     	;# 
   151  019D                     	;# 
   152  019D                     	;# 
   153  019D                     	;# 
   154  019E                     	;# 
   155  019E                     	;# 
   156  019E                     	;# 
   157  019F                     	;# 
   158  019F                     	;# 
   159  019F                     	;# 
   160  019F                     	;# 
   161  019F                     	;# 
   162  020C                     	;# 
   163  020D                     	;# 
   164  020E                     	;# 
   165  0210                     	;# 
   166  0211                     	;# 
   167  0211                     	;# 
   168  0212                     	;# 
   169  0212                     	;# 
   170  0213                     	;# 
   171  0213                     	;# 
   172  0214                     	;# 
   173  0214                     	;# 
   174  0215                     	;# 
   175  0215                     	;# 
   176  0215                     	;# 
   177  0215                     	;# 
   178  0216                     	;# 
   179  0216                     	;# 
   180  0217                     	;# 
   181  0217                     	;# 
   182  028C                     	;# 
   183  028D                     	;# 
   184  028E                     	;# 
   185  0291                     	;# 
   186  0291                     	;# 
   187  0292                     	;# 
   188  0293                     	;# 
   189  0298                     	;# 
   190  0298                     	;# 
   191  0299                     	;# 
   192  029A                     	;# 
   193  030C                     	;# 
   194  030D                     	;# 
   195  030E                     	;# 
   196  0311                     	;# 
   197  0311                     	;# 
   198  0312                     	;# 
   199  0313                     	;# 
   200  038C                     	;# 
   201  038D                     	;# 
   202  038E                     	;# 
   203  0390                     	;# 
   204  0391                     	;# 
   205  0392                     	;# 
   206  0393                     	;# 
   207  0394                     	;# 
   208  0395                     	;# 
   209  0396                     	;# 
   210  0397                     	;# 
   211  0398                     	;# 
   212  0399                     	;# 
   213  039D                     	;# 
   214  039E                     	;# 
   215  039F                     	;# 
   216  0511                     	;# 
   217  0513                     	;# 
   218  051A                     	;# 
   219  0591                     	;# 
   220  0592                     	;# 
   221  0592                     	;# 
   222  0593                     	;# 
   223  0594                     	;# 
   224  0594                     	;# 
   225  0595                     	;# 
   226  0596                     	;# 
   227  0596                     	;# 
   228  0E91                     	;# 
   229  0E92                     	;# 
   230  0E93                     	;# 
   231  0E94                     	;# 
   232  0E95                     	;# 
   233  0E96                     	;# 
   234  0E97                     	;# 
   235  0E98                     	;# 
   236  0E99                     	;# 
   237  0E9A                     	;# 
   238  0E9B                     	;# 
   239  0E9C                     	;# 
   240  0E9D                     	;# 
   241  0E9E                     	;# 
   242  0E9F                     	;# 
   243  0EA0                     	;# 
   244  0EA1                     	;# 
   245  0EA1                     	;# 
   246  0EA2                     	;# 
   247  0EA3                     	;# 
   248  0EA3                     	;# 
   249  0EA4                     	;# 
   250  0EA5                     	;# 
   251  0EA5                     	;# 
   252  0EA6                     	;# 
   253  0EA7                     	;# 
   254  0EA7                     	;# 
   255  0EA8                     	;# 
   256  0EA9                     	;# 
   257  0EAA                     	;# 
   258  0EAB                     	;# 
   259  0EAC                     	;# 
   260  0EAD                     	;# 
   261  0EAE                     	;# 
   262  0EAF                     	;# 
   263  0EB1                     	;# 
   264  0EB2                     	;# 
   265  0EB3                     	;# 
   266  0EB4                     	;# 
   267  0EB5                     	;# 
   268  0EB6                     	;# 
   269  0EB7                     	;# 
   270  0EB8                     	;# 
   271  0EB9                     	;# 
   272  0EBA                     	;# 
   273  0EBB                     	;# 
   274  0EBC                     	;# 
   275  0EBD                     	;# 
   276  0EBE                     	;# 
   277  0EBF                     	;# 
   278  0EC0                     	;# 
   279  0EC1                     	;# 
   280  0EC1                     	;# 
   281  0EC2                     	;# 
   282  0EC3                     	;# 
   283  0EC3                     	;# 
   284  0EC4                     	;# 
   285  0EC5                     	;# 
   286  0EC5                     	;# 
   287  0EC6                     	;# 
   288  0EC7                     	;# 
   289  0EC7                     	;# 
   290  0EC8                     	;# 
   291  0EC9                     	;# 
   292  0ECA                     	;# 
   293  0ECB                     	;# 
   294  0ECC                     	;# 
   295  0ECD                     	;# 
   296  0ECE                     	;# 
   297  0ECF                     	;# 
   298  0ED1                     	;# 
   299  0ED2                     	;# 
   300  0ED3                     	;# 
   301  0ED4                     	;# 
   302  0ED5                     	;# 
   303  0ED6                     	;# 
   304  0ED7                     	;# 
   305  0ED8                     	;# 
   306  0ED9                     	;# 
   307  0EDA                     	;# 
   308  0EDB                     	;# 
   309  0EDC                     	;# 
   310  0EDD                     	;# 
   311  0EDE                     	;# 
   312  0EDF                     	;# 
   313  0EE0                     	;# 
   314  0EE1                     	;# 
   315  0EE1                     	;# 
   316  0EE2                     	;# 
   317  0EE3                     	;# 
   318  0EE3                     	;# 
   319  0EE4                     	;# 
   320  0EE5                     	;# 
   321  0EE5                     	;# 
   322  0EE6                     	;# 
   323  0EE7                     	;# 
   324  0EE7                     	;# 
   325  0EE8                     	;# 
   326  0EE9                     	;# 
   327  0EEA                     	;# 
   328  0EEB                     	;# 
   329  0EEC                     	;# 
   330  0EED                     	;# 
   331  0EEE                     	;# 
   332  0EEF                     	;# 
   333  0F11                     	;# 
   334  0F12                     	;# 
   335  0F13                     	;# 
   336  0F14                     	;# 
   337  0F15                     	;# 
   338  0F16                     	;# 
   339  0F17                     	;# 
   340  0F18                     	;# 
   341  0F19                     	;# 
   342  0F1A                     	;# 
   343  0F1B                     	;# 
   344  0F1C                     	;# 
   345  0F1D                     	;# 
   346  0F1E                     	;# 
   347  0F1F                     	;# 
   348  0F20                     	;# 
   349  0F21                     	;# 
   350  0F21                     	;# 
   351  0F22                     	;# 
   352  0F23                     	;# 
   353  0F23                     	;# 
   354  0F24                     	;# 
   355  0F25                     	;# 
   356  0F25                     	;# 
   357  0F26                     	;# 
   358  0F27                     	;# 
   359  0F27                     	;# 
   360  0F28                     	;# 
   361  0F29                     	;# 
   362  0F2A                     	;# 
   363  0F2B                     	;# 
   364  0F2C                     	;# 
   365  0F2D                     	;# 
   366  0F2E                     	;# 
   367  0F2F                     	;# 
   368  0FE4                     	;# 
   369  0FE5                     	;# 
   370  0FE6                     	;# 
   371  0FE7                     	;# 
   372  0FE8                     	;# 
   373  0FE9                     	;# 
   374  0FEA                     	;# 
   375  0FEB                     	;# 
   376  0FED                     	;# 
   377  0FEE                     	;# 
   378  0FEF                     	;# 
   379  0000                     	;# 
   380  0001                     	;# 
   381  0002                     	;# 
   382  0003                     	;# 
   383  0004                     	;# 
   384  0005                     	;# 
   385  0006                     	;# 
   386  0007                     	;# 
   387  0008                     	;# 
   388  0009                     	;# 
   389  000A                     	;# 
   390  000B                     	;# 
   391  000C                     	;# 
   392  000D                     	;# 
   393  000E                     	;# 
   394  0010                     	;# 
   395  0011                     	;# 
   396  0012                     	;# 
   397  0013                     	;# 
   398  0014                     	;# 
   399  0015                     	;# 
   400  0016                     	;# 
   401  0016                     	;# 
   402  0017                     	;# 
   403  0018                     	;# 
   404  0019                     	;# 
   405  001A                     	;# 
   406  001B                     	;# 
   407  001C                     	;# 
   408  008C                     	;# 
   409  008D                     	;# 
   410  008E                     	;# 
   411  0090                     	;# 
   412  0091                     	;# 
   413  0092                     	;# 
   414  0093                     	;# 
   415  0094                     	;# 
   416  0095                     	;# 
   417  0096                     	;# 
   418  0097                     	;# 
   419  0098                     	;# 
   420  0099                     	;# 
   421  009A                     	;# 
   422  009B                     	;# 
   423  009B                     	;# 
   424  009C                     	;# 
   425  009D                     	;# 
   426  009E                     	;# 
   427  009F                     	;# 
   428  010C                     	;# 
   429  010D                     	;# 
   430  010E                     	;# 
   431  0111                     	;# 
   432  0112                     	;# 
   433  0113                     	;# 
   434  0114                     	;# 
   435  0115                     	;# 
   436  0116                     	;# 
   437  0117                     	;# 
   438  0118                     	;# 
   439  0119                     	;# 
   440  011A                     	;# 
   441  011B                     	;# 
   442  011C                     	;# 
   443  011D                     	;# 
   444  011D                     	;# 
   445  011D                     	;# 
   446  011E                     	;# 
   447  011F                     	;# 
   448  018C                     	;# 
   449  018D                     	;# 
   450  018E                     	;# 
   451  0191                     	;# 
   452  0191                     	;# 
   453  0192                     	;# 
   454  0193                     	;# 
   455  0193                     	;# 
   456  0193                     	;# 
   457  0194                     	;# 
   458  0195                     	;# 
   459  0196                     	;# 
   460  0197                     	;# 
   461  0199                     	;# 
   462  0199                     	;# 
   463  0199                     	;# 
   464  019A                     	;# 
   465  019A                     	;# 
   466  019A                     	;# 
   467  019B                     	;# 
   468  019B                     	;# 
   469  019B                     	;# 
   470  019B                     	;# 
   471  019B                     	;# 
   472  019C                     	;# 
   473  019C                     	;# 
   474  019C                     	;# 
   475  019D                     	;# 
   476  019D                     	;# 
   477  019D                     	;# 
   478  019E                     	;# 
   479  019E                     	;# 
   480  019E                     	;# 
   481  019F                     	;# 
   482  019F                     	;# 
   483  019F                     	;# 
   484  019F                     	;# 
   485  019F                     	;# 
   486  020C                     	;# 
   487  020D                     	;# 
   488  020E                     	;# 
   489  0210                     	;# 
   490  0211                     	;# 
   491  0211                     	;# 
   492  0212                     	;# 
   493  0212                     	;# 
   494  0213                     	;# 
   495  0213                     	;# 
   496  0214                     	;# 
   497  0214                     	;# 
   498  0215                     	;# 
   499  0215                     	;# 
   500  0215                     	;# 
   501  0215                     	;# 
   502  0216                     	;# 
   503  0216                     	;# 
   504  0217                     	;# 
   505  0217                     	;# 
   506  028C                     	;# 
   507  028D                     	;# 
   508  028E                     	;# 
   509  0291                     	;# 
   510  0291                     	;# 
   511  0292                     	;# 
   512  0293                     	;# 
   513  0298                     	;# 
   514  0298                     	;# 
   515  0299                     	;# 
   516  029A                     	;# 
   517  030C                     	;# 
   518  030D                     	;# 
   519  030E                     	;# 
   520  0311                     	;# 
   521  0311                     	;# 
   522  0312                     	;# 
   523  0313                     	;# 
   524  038C                     	;# 
   525  038D                     	;# 
   526  038E                     	;# 
   527  0390                     	;# 
   528  0391                     	;# 
   529  0392                     	;# 
   530  0393                     	;# 
   531  0394                     	;# 
   532  0395                     	;# 
   533  0396                     	;# 
   534  0397                     	;# 
   535  0398                     	;# 
   536  0399                     	;# 
   537  039D                     	;# 
   538  039E                     	;# 
   539  039F                     	;# 
   540  0511                     	;# 
   541  0513                     	;# 
   542  051A                     	;# 
   543  0591                     	;# 
   544  0592                     	;# 
   545  0592                     	;# 
   546  0593                     	;# 
   547  0594                     	;# 
   548  0594                     	;# 
   549  0595                     	;# 
   550  0596                     	;# 
   551  0596                     	;# 
   552  0E91                     	;# 
   553  0E92                     	;# 
   554  0E93                     	;# 
   555  0E94                     	;# 
   556  0E95                     	;# 
   557  0E96                     	;# 
   558  0E97                     	;# 
   559  0E98                     	;# 
   560  0E99                     	;# 
   561  0E9A                     	;# 
   562  0E9B                     	;# 
   563  0E9C                     	;# 
   564  0E9D                     	;# 
   565  0E9E                     	;# 
   566  0E9F                     	;# 
   567  0EA0                     	;# 
   568  0EA1                     	;# 
   569  0EA1                     	;# 
   570  0EA2                     	;# 
   571  0EA3                     	;# 
   572  0EA3                     	;# 
   573  0EA4                     	;# 
   574  0EA5                     	;# 
   575  0EA5                     	;# 
   576  0EA6                     	;# 
   577  0EA7                     	;# 
   578  0EA7                     	;# 
   579  0EA8                     	;# 
   580  0EA9                     	;# 
   581  0EAA                     	;# 
   582  0EAB                     	;# 
   583  0EAC                     	;# 
   584  0EAD                     	;# 
   585  0EAE                     	;# 
   586  0EAF                     	;# 
   587  0EB1                     	;# 
   588  0EB2                     	;# 
   589  0EB3                     	;# 
   590  0EB4                     	;# 
   591  0EB5                     	;# 
   592  0EB6                     	;# 
   593  0EB7                     	;# 
   594  0EB8                     	;# 
   595  0EB9                     	;# 
   596  0EBA                     	;# 
   597  0EBB                     	;# 
   598  0EBC                     	;# 
   599  0EBD                     	;# 
   600  0EBE                     	;# 
   601  0EBF                     	;# 
   602  0EC0                     	;# 
   603  0EC1                     	;# 
   604  0EC1                     	;# 
   605  0EC2                     	;# 
   606  0EC3                     	;# 
   607  0EC3                     	;# 
   608  0EC4                     	;# 
   609  0EC5                     	;# 
   610  0EC5                     	;# 
   611  0EC6                     	;# 
   612  0EC7                     	;# 
   613  0EC7                     	;# 
   614  0EC8                     	;# 
   615  0EC9                     	;# 
   616  0ECA                     	;# 
   617  0ECB                     	;# 
   618  0ECC                     	;# 
   619  0ECD                     	;# 
   620  0ECE                     	;# 
   621  0ECF                     	;# 
   622  0ED1                     	;# 
   623  0ED2                     	;# 
   624  0ED3                     	;# 
   625  0ED4                     	;# 
   626  0ED5                     	;# 
   627  0ED6                     	;# 
   628  0ED7                     	;# 
   629  0ED8                     	;# 
   630  0ED9                     	;# 
   631  0EDA                     	;# 
   632  0EDB                     	;# 
   633  0EDC                     	;# 
   634  0EDD                     	;# 
   635  0EDE                     	;# 
   636  0EDF                     	;# 
   637  0EE0                     	;# 
   638  0EE1                     	;# 
   639  0EE1                     	;# 
   640  0EE2                     	;# 
   641  0EE3                     	;# 
   642  0EE3                     	;# 
   643  0EE4                     	;# 
   644  0EE5                     	;# 
   645  0EE5                     	;# 
   646  0EE6                     	;# 
   647  0EE7                     	;# 
   648  0EE7                     	;# 
   649  0EE8                     	;# 
   650  0EE9                     	;# 
   651  0EEA                     	;# 
   652  0EEB                     	;# 
   653  0EEC                     	;# 
   654  0EED                     	;# 
   655  0EEE                     	;# 
   656  0EEF                     	;# 
   657  0F11                     	;# 
   658  0F12                     	;# 
   659  0F13                     	;# 
   660  0F14                     	;# 
   661  0F15                     	;# 
   662  0F16                     	;# 
   663  0F17                     	;# 
   664  0F18                     	;# 
   665  0F19                     	;# 
   666  0F1A                     	;# 
   667  0F1B                     	;# 
   668  0F1C                     	;# 
   669  0F1D                     	;# 
   670  0F1E                     	;# 
   671  0F1F                     	;# 
   672  0F20                     	;# 
   673  0F21                     	;# 
   674  0F21                     	;# 
   675  0F22                     	;# 
   676  0F23                     	;# 
   677  0F23                     	;# 
   678  0F24                     	;# 
   679  0F25                     	;# 
   680  0F25                     	;# 
   681  0F26                     	;# 
   682  0F27                     	;# 
   683  0F27                     	;# 
   684  0F28                     	;# 
   685  0F29                     	;# 
   686  0F2A                     	;# 
   687  0F2B                     	;# 
   688  0F2C                     	;# 
   689  0F2D                     	;# 
   690  0F2E                     	;# 
   691  0F2F                     	;# 
   692  0FE4                     	;# 
   693  0FE5                     	;# 
   694  0FE6                     	;# 
   695  0FE7                     	;# 
   696  0FE8                     	;# 
   697  0FE9                     	;# 
   698  0FEA                     	;# 
   699  0FEB                     	;# 
   700  0FED                     	;# 
   701  0FEE                     	;# 
   702  0FEF                     	;# 
   703  0000                     	;# 
   704  0001                     	;# 
   705  0002                     	;# 
   706  0003                     	;# 
   707  0004                     	;# 
   708  0005                     	;# 
   709  0006                     	;# 
   710  0007                     	;# 
   711  0008                     	;# 
   712  0009                     	;# 
   713  000A                     	;# 
   714  000B                     	;# 
   715  000C                     	;# 
   716  000D                     	;# 
   717  000E                     	;# 
   718  0010                     	;# 
   719  0011                     	;# 
   720  0012                     	;# 
   721  0013                     	;# 
   722  0014                     	;# 
   723  0015                     	;# 
   724  0016                     	;# 
   725  0016                     	;# 
   726  0017                     	;# 
   727  0018                     	;# 
   728  0019                     	;# 
   729  001A                     	;# 
   730  001B                     	;# 
   731  001C                     	;# 
   732  008C                     	;# 
   733  008D                     	;# 
   734  008E                     	;# 
   735  0090                     	;# 
   736  0091                     	;# 
   737  0092                     	;# 
   738  0093                     	;# 
   739  0094                     	;# 
   740  0095                     	;# 
   741  0096                     	;# 
   742  0097                     	;# 
   743  0098                     	;# 
   744  0099                     	;# 
   745  009A                     	;# 
   746  009B                     	;# 
   747  009B                     	;# 
   748  009C                     	;# 
   749  009D                     	;# 
   750  009E                     	;# 
   751  009F                     	;# 
   752  010C                     	;# 
   753  010D                     	;# 
   754  010E                     	;# 
   755  0111                     	;# 
   756  0112                     	;# 
   757  0113                     	;# 
   758  0114                     	;# 
   759  0115                     	;# 
   760  0116                     	;# 
   761  0117                     	;# 
   762  0118                     	;# 
   763  0119                     	;# 
   764  011A                     	;# 
   765  011B                     	;# 
   766  011C                     	;# 
   767  011D                     	;# 
   768  011D                     	;# 
   769  011D                     	;# 
   770  011E                     	;# 
   771  011F                     	;# 
   772  018C                     	;# 
   773  018D                     	;# 
   774  018E                     	;# 
   775  0191                     	;# 
   776  0191                     	;# 
   777  0192                     	;# 
   778  0193                     	;# 
   779  0193                     	;# 
   780  0193                     	;# 
   781  0194                     	;# 
   782  0195                     	;# 
   783  0196                     	;# 
   784  0197                     	;# 
   785  0199                     	;# 
   786  0199                     	;# 
   787  0199                     	;# 
   788  019A                     	;# 
   789  019A                     	;# 
   790  019A                     	;# 
   791  019B                     	;# 
   792  019B                     	;# 
   793  019B                     	;# 
   794  019B                     	;# 
   795  019B                     	;# 
   796  019C                     	;# 
   797  019C                     	;# 
   798  019C                     	;# 
   799  019D                     	;# 
   800  019D                     	;# 
   801  019D                     	;# 
   802  019E                     	;# 
   803  019E                     	;# 
   804  019E                     	;# 
   805  019F                     	;# 
   806  019F                     	;# 
   807  019F                     	;# 
   808  019F                     	;# 
   809  019F                     	;# 
   810  020C                     	;# 
   811  020D                     	;# 
   812  020E                     	;# 
   813  0210                     	;# 
   814  0211                     	;# 
   815  0211                     	;# 
   816  0212                     	;# 
   817  0212                     	;# 
   818  0213                     	;# 
   819  0213                     	;# 
   820  0214                     	;# 
   821  0214                     	;# 
   822  0215                     	;# 
   823  0215                     	;# 
   824  0215                     	;# 
   825  0215                     	;# 
   826  0216                     	;# 
   827  0216                     	;# 
   828  0217                     	;# 
   829  0217                     	;# 
   830  028C                     	;# 
   831  028D                     	;# 
   832  028E                     	;# 
   833  0291                     	;# 
   834  0291                     	;# 
   835  0292                     	;# 
   836  0293                     	;# 
   837  0298                     	;# 
   838  0298                     	;# 
   839  0299                     	;# 
   840  029A                     	;# 
   841  030C                     	;# 
   842  030D                     	;# 
   843  030E                     	;# 
   844  0311                     	;# 
   845  0311                     	;# 
   846  0312                     	;# 
   847  0313                     	;# 
   848  038C                     	;# 
   849  038D                     	;# 
   850  038E                     	;# 
   851  0390                     	;# 
   852  0391                     	;# 
   853  0392                     	;# 
   854  0393                     	;# 
   855  0394                     	;# 
   856  0395                     	;# 
   857  0396                     	;# 
   858  0397                     	;# 
   859  0398                     	;# 
   860  0399                     	;# 
   861  039D                     	;# 
   862  039E                     	;# 
   863  039F                     	;# 
   864  0511                     	;# 
   865  0513                     	;# 
   866  051A                     	;# 
   867  0591                     	;# 
   868  0592                     	;# 
   869  0592                     	;# 
   870  0593                     	;# 
   871  0594                     	;# 
   872  0594                     	;# 
   873  0595                     	;# 
   874  0596                     	;# 
   875  0596                     	;# 
   876  0E91                     	;# 
   877  0E92                     	;# 
   878  0E93                     	;# 
   879  0E94                     	;# 
   880  0E95                     	;# 
   881  0E96                     	;# 
   882  0E97                     	;# 
   883  0E98                     	;# 
   884  0E99                     	;# 
   885  0E9A                     	;# 
   886  0E9B                     	;# 
   887  0E9C                     	;# 
   888  0E9D                     	;# 
   889  0E9E                     	;# 
   890  0E9F                     	;# 
   891  0EA0                     	;# 
   892  0EA1                     	;# 
   893  0EA1                     	;# 
   894  0EA2                     	;# 
   895  0EA3                     	;# 
   896  0EA3                     	;# 
   897  0EA4                     	;# 
   898  0EA5                     	;# 
   899  0EA5                     	;# 
   900  0EA6                     	;# 
   901  0EA7                     	;# 
   902  0EA7                     	;# 
   903  0EA8                     	;# 
   904  0EA9                     	;# 
   905  0EAA                     	;# 
   906  0EAB                     	;# 
   907  0EAC                     	;# 
   908  0EAD                     	;# 
   909  0EAE                     	;# 
   910  0EAF                     	;# 
   911  0EB1                     	;# 
   912  0EB2                     	;# 
   913  0EB3                     	;# 
   914  0EB4                     	;# 
   915  0EB5                     	;# 
   916  0EB6                     	;# 
   917  0EB7                     	;# 
   918  0EB8                     	;# 
   919  0EB9                     	;# 
   920  0EBA                     	;# 
   921  0EBB                     	;# 
   922  0EBC                     	;# 
   923  0EBD                     	;# 
   924  0EBE                     	;# 
   925  0EBF                     	;# 
   926  0EC0                     	;# 
   927  0EC1                     	;# 
   928  0EC1                     	;# 
   929  0EC2                     	;# 
   930  0EC3                     	;# 
   931  0EC3                     	;# 
   932  0EC4                     	;# 
   933  0EC5                     	;# 
   934  0EC5                     	;# 
   935  0EC6                     	;# 
   936  0EC7                     	;# 
   937  0EC7                     	;# 
   938  0EC8                     	;# 
   939  0EC9                     	;# 
   940  0ECA                     	;# 
   941  0ECB                     	;# 
   942  0ECC                     	;# 
   943  0ECD                     	;# 
   944  0ECE                     	;# 
   945  0ECF                     	;# 
   946  0ED1                     	;# 
   947  0ED2                     	;# 
   948  0ED3                     	;# 
   949  0ED4                     	;# 
   950  0ED5                     	;# 
   951  0ED6                     	;# 
   952  0ED7                     	;# 
   953  0ED8                     	;# 
   954  0ED9                     	;# 
   955  0EDA                     	;# 
   956  0EDB                     	;# 
   957  0EDC                     	;# 
   958  0EDD                     	;# 
   959  0EDE                     	;# 
   960  0EDF                     	;# 
   961  0EE0                     	;# 
   962  0EE1                     	;# 
   963  0EE1                     	;# 
   964  0EE2                     	;# 
   965  0EE3                     	;# 
   966  0EE3                     	;# 
   967  0EE4                     	;# 
   968  0EE5                     	;# 
   969  0EE5                     	;# 
   970  0EE6                     	;# 
   971  0EE7                     	;# 
   972  0EE7                     	;# 
   973  0EE8                     	;# 
   974  0EE9                     	;# 
   975  0EEA                     	;# 
   976  0EEB                     	;# 
   977  0EEC                     	;# 
   978  0EED                     	;# 
   979  0EEE                     	;# 
   980  0EEF                     	;# 
   981  0F11                     	;# 
   982  0F12                     	;# 
   983  0F13                     	;# 
   984  0F14                     	;# 
   985  0F15                     	;# 
   986  0F16                     	;# 
   987  0F17                     	;# 
   988  0F18                     	;# 
   989  0F19                     	;# 
   990  0F1A                     	;# 
   991  0F1B                     	;# 
   992  0F1C                     	;# 
   993  0F1D                     	;# 
   994  0F1E                     	;# 
   995  0F1F                     	;# 
   996  0F20                     	;# 
   997  0F21                     	;# 
   998  0F21                     	;# 
   999  0F22                     	;# 
  1000  0F23                     	;# 
  1001  0F23                     	;# 
  1002  0F24                     	;# 
  1003  0F25                     	;# 
  1004  0F25                     	;# 
  1005  0F26                     	;# 
  1006  0F27                     	;# 
  1007  0F27                     	;# 
  1008  0F28                     	;# 
  1009  0F29                     	;# 
  1010  0F2A                     	;# 
  1011  0F2B                     	;# 
  1012  0F2C                     	;# 
  1013  0F2D                     	;# 
  1014  0F2E                     	;# 
  1015  0F2F                     	;# 
  1016  0FE4                     	;# 
  1017  0FE5                     	;# 
  1018  0FE6                     	;# 
  1019  0FE7                     	;# 
  1020  0FE8                     	;# 
  1021  0FE9                     	;# 
  1022  0FEA                     	;# 
  1023  0FEB                     	;# 
  1024  0FED                     	;# 
  1025  0FEE                     	;# 
  1026  0FEF                     	;# 
  1027  0000                     	;# 
  1028  0001                     	;# 
  1029  0002                     	;# 
  1030  0003                     	;# 
  1031  0004                     	;# 
  1032  0005                     	;# 
  1033  0006                     	;# 
  1034  0007                     	;# 
  1035  0008                     	;# 
  1036  0009                     	;# 
  1037  000A                     	;# 
  1038  000B                     	;# 
  1039  000C                     	;# 
  1040  000D                     	;# 
  1041  000E                     	;# 
  1042  0010                     	;# 
  1043  0011                     	;# 
  1044  0012                     	;# 
  1045  0013                     	;# 
  1046  0014                     	;# 
  1047  0015                     	;# 
  1048  0016                     	;# 
  1049  0016                     	;# 
  1050  0017                     	;# 
  1051  0018                     	;# 
  1052  0019                     	;# 
  1053  001A                     	;# 
  1054  001B                     	;# 
  1055  001C                     	;# 
  1056  008C                     	;# 
  1057  008D                     	;# 
  1058  008E                     	;# 
  1059  0090                     	;# 
  1060  0091                     	;# 
  1061  0092                     	;# 
  1062  0093                     	;# 
  1063  0094                     	;# 
  1064  0095                     	;# 
  1065  0096                     	;# 
  1066  0097                     	;# 
  1067  0098                     	;# 
  1068  0099                     	;# 
  1069  009A                     	;# 
  1070  009B                     	;# 
  1071  009B                     	;# 
  1072  009C                     	;# 
  1073  009D                     	;# 
  1074  009E                     	;# 
  1075  009F                     	;# 
  1076  010C                     	;# 
  1077  010D                     	;# 
  1078  010E                     	;# 
  1079  0111                     	;# 
  1080  0112                     	;# 
  1081  0113                     	;# 
  1082  0114                     	;# 
  1083  0115                     	;# 
  1084  0116                     	;# 
  1085  0117                     	;# 
  1086  0118                     	;# 
  1087  0119                     	;# 
  1088  011A                     	;# 
  1089  011B                     	;# 
  1090  011C                     	;# 
  1091  011D                     	;# 
  1092  011D                     	;# 
  1093  011D                     	;# 
  1094  011E                     	;# 
  1095  011F                     	;# 
  1096  018C                     	;# 
  1097  018D                     	;# 
  1098  018E                     	;# 
  1099  0191                     	;# 
  1100  0191                     	;# 
  1101  0192                     	;# 
  1102  0193                     	;# 
  1103  0193                     	;# 
  1104  0193                     	;# 
  1105  0194                     	;# 
  1106  0195                     	;# 
  1107  0196                     	;# 
  1108  0197                     	;# 
  1109  0199                     	;# 
  1110  0199                     	;# 
  1111  0199                     	;# 
  1112  019A                     	;# 
  1113  019A                     	;# 
  1114  019A                     	;# 
  1115  019B                     	;# 
  1116  019B                     	;# 
  1117  019B                     	;# 
  1118  019B                     	;# 
  1119  019B                     	;# 
  1120  019C                     	;# 
  1121  019C                     	;# 
  1122  019C                     	;# 
  1123  019D                     	;# 
  1124  019D                     	;# 
  1125  019D                     	;# 
  1126  019E                     	;# 
  1127  019E                     	;# 
  1128  019E                     	;# 
  1129  019F                     	;# 
  1130  019F                     	;# 
  1131  019F                     	;# 
  1132  019F                     	;# 
  1133  019F                     	;# 
  1134  020C                     	;# 
  1135  020D                     	;# 
  1136  020E                     	;# 
  1137  0210                     	;# 
  1138  0211                     	;# 
  1139  0211                     	;# 
  1140  0212                     	;# 
  1141  0212                     	;# 
  1142  0213                     	;# 
  1143  0213                     	;# 
  1144  0214                     	;# 
  1145  0214                     	;# 
  1146  0215                     	;# 
  1147  0215                     	;# 
  1148  0215                     	;# 
  1149  0215                     	;# 
  1150  0216                     	;# 
  1151  0216                     	;# 
  1152  0217                     	;# 
  1153  0217                     	;# 
  1154  028C                     	;# 
  1155  028D                     	;# 
  1156  028E                     	;# 
  1157  0291                     	;# 
  1158  0291                     	;# 
  1159  0292                     	;# 
  1160  0293                     	;# 
  1161  0298                     	;# 
  1162  0298                     	;# 
  1163  0299                     	;# 
  1164  029A                     	;# 
  1165  030C                     	;# 
  1166  030D                     	;# 
  1167  030E                     	;# 
  1168  0311                     	;# 
  1169  0311                     	;# 
  1170  0312                     	;# 
  1171  0313                     	;# 
  1172  038C                     	;# 
  1173  038D                     	;# 
  1174  038E                     	;# 
  1175  0390                     	;# 
  1176  0391                     	;# 
  1177  0392                     	;# 
  1178  0393                     	;# 
  1179  0394                     	;# 
  1180  0395                     	;# 
  1181  0396                     	;# 
  1182  0397                     	;# 
  1183  0398                     	;# 
  1184  0399                     	;# 
  1185  039D                     	;# 
  1186  039E                     	;# 
  1187  039F                     	;# 
  1188  0511                     	;# 
  1189  0513                     	;# 
  1190  051A                     	;# 
  1191  0591                     	;# 
  1192  0592                     	;# 
  1193  0592                     	;# 
  1194  0593                     	;# 
  1195  0594                     	;# 
  1196  0594                     	;# 
  1197  0595                     	;# 
  1198  0596                     	;# 
  1199  0596                     	;# 
  1200  0E91                     	;# 
  1201  0E92                     	;# 
  1202  0E93                     	;# 
  1203  0E94                     	;# 
  1204  0E95                     	;# 
  1205  0E96                     	;# 
  1206  0E97                     	;# 
  1207  0E98                     	;# 
  1208  0E99                     	;# 
  1209  0E9A                     	;# 
  1210  0E9B                     	;# 
  1211  0E9C                     	;# 
  1212  0E9D                     	;# 
  1213  0E9E                     	;# 
  1214  0E9F                     	;# 
  1215  0EA0                     	;# 
  1216  0EA1                     	;# 
  1217  0EA1                     	;# 
  1218  0EA2                     	;# 
  1219  0EA3                     	;# 
  1220  0EA3                     	;# 
  1221  0EA4                     	;# 
  1222  0EA5                     	;# 
  1223  0EA5                     	;# 
  1224  0EA6                     	;# 
  1225  0EA7                     	;# 
  1226  0EA7                     	;# 
  1227  0EA8                     	;# 
  1228  0EA9                     	;# 
  1229  0EAA                     	;# 
  1230  0EAB                     	;# 
  1231  0EAC                     	;# 
  1232  0EAD                     	;# 
  1233  0EAE                     	;# 
  1234  0EAF                     	;# 
  1235  0EB1                     	;# 
  1236  0EB2                     	;# 
  1237  0EB3                     	;# 
  1238  0EB4                     	;# 
  1239  0EB5                     	;# 
  1240  0EB6                     	;# 
  1241  0EB7                     	;# 
  1242  0EB8                     	;# 
  1243  0EB9                     	;# 
  1244  0EBA                     	;# 
  1245  0EBB                     	;# 
  1246  0EBC                     	;# 
  1247  0EBD                     	;# 
  1248  0EBE                     	;# 
  1249  0EBF                     	;# 
  1250  0EC0                     	;# 
  1251  0EC1                     	;# 
  1252  0EC1                     	;# 
  1253  0EC2                     	;# 
  1254  0EC3                     	;# 
  1255  0EC3                     	;# 
  1256  0EC4                     	;# 
  1257  0EC5                     	;# 
  1258  0EC5                     	;# 
  1259  0EC6                     	;# 
  1260  0EC7                     	;# 
  1261  0EC7                     	;# 
  1262  0EC8                     	;# 
  1263  0EC9                     	;# 
  1264  0ECA                     	;# 
  1265  0ECB                     	;# 
  1266  0ECC                     	;# 
  1267  0ECD                     	;# 
  1268  0ECE                     	;# 
  1269  0ECF                     	;# 
  1270  0ED1                     	;# 
  1271  0ED2                     	;# 
  1272  0ED3                     	;# 
  1273  0ED4                     	;# 
  1274  0ED5                     	;# 
  1275  0ED6                     	;# 
  1276  0ED7                     	;# 
  1277  0ED8                     	;# 
  1278  0ED9                     	;# 
  1279  0EDA                     	;# 
  1280  0EDB                     	;# 
  1281  0EDC                     	;# 
  1282  0EDD                     	;# 
  1283  0EDE                     	;# 
  1284  0EDF                     	;# 
  1285  0EE0                     	;# 
  1286  0EE1                     	;# 
  1287  0EE1                     	;# 
  1288  0EE2                     	;# 
  1289  0EE3                     	;# 
  1290  0EE3                     	;# 
  1291  0EE4                     	;# 
  1292  0EE5                     	;# 
  1293  0EE5                     	;# 
  1294  0EE6                     	;# 
  1295  0EE7                     	;# 
  1296  0EE7                     	;# 
  1297  0EE8                     	;# 
  1298  0EE9                     	;# 
  1299  0EEA                     	;# 
  1300  0EEB                     	;# 
  1301  0EEC                     	;# 
  1302  0EED                     	;# 
  1303  0EEE                     	;# 
  1304  0EEF                     	;# 
  1305  0F11                     	;# 
  1306  0F12                     	;# 
  1307  0F13                     	;# 
  1308  0F14                     	;# 
  1309  0F15                     	;# 
  1310  0F16                     	;# 
  1311  0F17                     	;# 
  1312  0F18                     	;# 
  1313  0F19                     	;# 
  1314  0F1A                     	;# 
  1315  0F1B                     	;# 
  1316  0F1C                     	;# 
  1317  0F1D                     	;# 
  1318  0F1E                     	;# 
  1319  0F1F                     	;# 
  1320  0F20                     	;# 
  1321  0F21                     	;# 
  1322  0F21                     	;# 
  1323  0F22                     	;# 
  1324  0F23                     	;# 
  1325  0F23                     	;# 
  1326  0F24                     	;# 
  1327  0F25                     	;# 
  1328  0F25                     	;# 
  1329  0F26                     	;# 
  1330  0F27                     	;# 
  1331  0F27                     	;# 
  1332  0F28                     	;# 
  1333  0F29                     	;# 
  1334  0F2A                     	;# 
  1335  0F2B                     	;# 
  1336  0F2C                     	;# 
  1337  0F2D                     	;# 
  1338  0F2E                     	;# 
  1339  0F2F                     	;# 
  1340  0FE4                     	;# 
  1341  0FE5                     	;# 
  1342  0FE6                     	;# 
  1343  0FE7                     	;# 
  1344  0FE8                     	;# 
  1345  0FE9                     	;# 
  1346  0FEA                     	;# 
  1347  0FEB                     	;# 
  1348  0FED                     	;# 
  1349  0FEE                     	;# 
  1350  0FEF                     	;# 
  1351  0000                     	;# 
  1352  0001                     	;# 
  1353  0002                     	;# 
  1354  0003                     	;# 
  1355  0004                     	;# 
  1356  0005                     	;# 
  1357  0006                     	;# 
  1358  0007                     	;# 
  1359  0008                     	;# 
  1360  0009                     	;# 
  1361  000A                     	;# 
  1362  000B                     	;# 
  1363  000C                     	;# 
  1364  000D                     	;# 
  1365  000E                     	;# 
  1366  0010                     	;# 
  1367  0011                     	;# 
  1368  0012                     	;# 
  1369  0013                     	;# 
  1370  0014                     	;# 
  1371  0015                     	;# 
  1372  0016                     	;# 
  1373  0016                     	;# 
  1374  0017                     	;# 
  1375  0018                     	;# 
  1376  0019                     	;# 
  1377  001A                     	;# 
  1378  001B                     	;# 
  1379  001C                     	;# 
  1380  008C                     	;# 
  1381  008D                     	;# 
  1382  008E                     	;# 
  1383  0090                     	;# 
  1384  0091                     	;# 
  1385  0092                     	;# 
  1386  0093                     	;# 
  1387  0094                     	;# 
  1388  0095                     	;# 
  1389  0096                     	;# 
  1390  0097                     	;# 
  1391  0098                     	;# 
  1392  0099                     	;# 
  1393  009A                     	;# 
  1394  009B                     	;# 
  1395  009B                     	;# 
  1396  009C                     	;# 
  1397  009D                     	;# 
  1398  009E                     	;# 
  1399  009F                     	;# 
  1400  010C                     	;# 
  1401  010D                     	;# 
  1402  010E                     	;# 
  1403  0111                     	;# 
  1404  0112                     	;# 
  1405  0113                     	;# 
  1406  0114                     	;# 
  1407  0115                     	;# 
  1408  0116                     	;# 
  1409  0117                     	;# 
  1410  0118                     	;# 
  1411  0119                     	;# 
  1412  011A                     	;# 
  1413  011B                     	;# 
  1414  011C                     	;# 
  1415  011D                     	;# 
  1416  011D                     	;# 
  1417  011D                     	;# 
  1418  011E                     	;# 
  1419  011F                     	;# 
  1420  018C                     	;# 
  1421  018D                     	;# 
  1422  018E                     	;# 
  1423  0191                     	;# 
  1424  0191                     	;# 
  1425  0192                     	;# 
  1426  0193                     	;# 
  1427  0193                     	;# 
  1428  0193                     	;# 
  1429  0194                     	;# 
  1430  0195                     	;# 
  1431  0196                     	;# 
  1432  0197                     	;# 
  1433  0199                     	;# 
  1434  0199                     	;# 
  1435  0199                     	;# 
  1436  019A                     	;# 
  1437  019A                     	;# 
  1438  019A                     	;# 
  1439  019B                     	;# 
  1440  019B                     	;# 
  1441  019B                     	;# 
  1442  019B                     	;# 
  1443  019B                     	;# 
  1444  019C                     	;# 
  1445  019C                     	;# 
  1446  019C                     	;# 
  1447  019D                     	;# 
  1448  019D                     	;# 
  1449  019D                     	;# 
  1450  019E                     	;# 
  1451  019E                     	;# 
  1452  019E                     	;# 
  1453  019F                     	;# 
  1454  019F                     	;# 
  1455  019F                     	;# 
  1456  019F                     	;# 
  1457  019F                     	;# 
  1458  020C                     	;# 
  1459  020D                     	;# 
  1460  020E                     	;# 
  1461  0210                     	;# 
  1462  0211                     	;# 
  1463  0211                     	;# 
  1464  0212                     	;# 
  1465  0212                     	;# 
  1466  0213                     	;# 
  1467  0213                     	;# 
  1468  0214                     	;# 
  1469  0214                     	;# 
  1470  0215                     	;# 
  1471  0215                     	;# 
  1472  0215                     	;# 
  1473  0215                     	;# 
  1474  0216                     	;# 
  1475  0216                     	;# 
  1476  0217                     	;# 
  1477  0217                     	;# 
  1478  028C                     	;# 
  1479  028D                     	;# 
  1480  028E                     	;# 
  1481  0291                     	;# 
  1482  0291                     	;# 
  1483  0292                     	;# 
  1484  0293                     	;# 
  1485  0298                     	;# 
  1486  0298                     	;# 
  1487  0299                     	;# 
  1488  029A                     	;# 
  1489  030C                     	;# 
  1490  030D                     	;# 
  1491  030E                     	;# 
  1492  0311                     	;# 
  1493  0311                     	;# 
  1494  0312                     	;# 
  1495  0313                     	;# 
  1496  038C                     	;# 
  1497  038D                     	;# 
  1498  038E                     	;# 
  1499  0390                     	;# 
  1500  0391                     	;# 
  1501  0392                     	;# 
  1502  0393                     	;# 
  1503  0394                     	;# 
  1504  0395                     	;# 
  1505  0396                     	;# 
  1506  0397                     	;# 
  1507  0398                     	;# 
  1508  0399                     	;# 
  1509  039D                     	;# 
  1510  039E                     	;# 
  1511  039F                     	;# 
  1512  0511                     	;# 
  1513  0513                     	;# 
  1514  051A                     	;# 
  1515  0591                     	;# 
  1516  0592                     	;# 
  1517  0592                     	;# 
  1518  0593                     	;# 
  1519  0594                     	;# 
  1520  0594                     	;# 
  1521  0595                     	;# 
  1522  0596                     	;# 
  1523  0596                     	;# 
  1524  0E91                     	;# 
  1525  0E92                     	;# 
  1526  0E93                     	;# 
  1527  0E94                     	;# 
  1528  0E95                     	;# 
  1529  0E96                     	;# 
  1530  0E97                     	;# 
  1531  0E98                     	;# 
  1532  0E99                     	;# 
  1533  0E9A                     	;# 
  1534  0E9B                     	;# 
  1535  0E9C                     	;# 
  1536  0E9D                     	;# 
  1537  0E9E                     	;# 
  1538  0E9F                     	;# 
  1539  0EA0                     	;# 
  1540  0EA1                     	;# 
  1541  0EA1                     	;# 
  1542  0EA2                     	;# 
  1543  0EA3                     	;# 
  1544  0EA3                     	;# 
  1545  0EA4                     	;# 
  1546  0EA5                     	;# 
  1547  0EA5                     	;# 
  1548  0EA6                     	;# 
  1549  0EA7                     	;# 
  1550  0EA7                     	;# 
  1551  0EA8                     	;# 
  1552  0EA9                     	;# 
  1553  0EAA                     	;# 
  1554  0EAB                     	;# 
  1555  0EAC                     	;# 
  1556  0EAD                     	;# 
  1557  0EAE                     	;# 
  1558  0EAF                     	;# 
  1559  0EB1                     	;# 
  1560  0EB2                     	;# 
  1561  0EB3                     	;# 
  1562  0EB4                     	;# 
  1563  0EB5                     	;# 
  1564  0EB6                     	;# 
  1565  0EB7                     	;# 
  1566  0EB8                     	;# 
  1567  0EB9                     	;# 
  1568  0EBA                     	;# 
  1569  0EBB                     	;# 
  1570  0EBC                     	;# 
  1571  0EBD                     	;# 
  1572  0EBE                     	;# 
  1573  0EBF                     	;# 
  1574  0EC0                     	;# 
  1575  0EC1                     	;# 
  1576  0EC1                     	;# 
  1577  0EC2                     	;# 
  1578  0EC3                     	;# 
  1579  0EC3                     	;# 
  1580  0EC4                     	;# 
  1581  0EC5                     	;# 
  1582  0EC5                     	;# 
  1583  0EC6                     	;# 
  1584  0EC7                     	;# 
  1585  0EC7                     	;# 
  1586  0EC8                     	;# 
  1587  0EC9                     	;# 
  1588  0ECA                     	;# 
  1589  0ECB                     	;# 
  1590  0ECC                     	;# 
  1591  0ECD                     	;# 
  1592  0ECE                     	;# 
  1593  0ECF                     	;# 
  1594  0ED1                     	;# 
  1595  0ED2                     	;# 
  1596  0ED3                     	;# 
  1597  0ED4                     	;# 
  1598  0ED5                     	;# 
  1599  0ED6                     	;# 
  1600  0ED7                     	;# 
  1601  0ED8                     	;# 
  1602  0ED9                     	;# 
  1603  0EDA                     	;# 
  1604  0EDB                     	;# 
  1605  0EDC                     	;# 
  1606  0EDD                     	;# 
  1607  0EDE                     	;# 
  1608  0EDF                     	;# 
  1609  0EE0                     	;# 
  1610  0EE1                     	;# 
  1611  0EE1                     	;# 
  1612  0EE2                     	;# 
  1613  0EE3                     	;# 
  1614  0EE3                     	;# 
  1615  0EE4                     	;# 
  1616  0EE5                     	;# 
  1617  0EE5                     	;# 
  1618  0EE6                     	;# 
  1619  0EE7                     	;# 
  1620  0EE7                     	;# 
  1621  0EE8                     	;# 
  1622  0EE9                     	;# 
  1623  0EEA                     	;# 
  1624  0EEB                     	;# 
  1625  0EEC                     	;# 
  1626  0EED                     	;# 
  1627  0EEE                     	;# 
  1628  0EEF                     	;# 
  1629  0F11                     	;# 
  1630  0F12                     	;# 
  1631  0F13                     	;# 
  1632  0F14                     	;# 
  1633  0F15                     	;# 
  1634  0F16                     	;# 
  1635  0F17                     	;# 
  1636  0F18                     	;# 
  1637  0F19                     	;# 
  1638  0F1A                     	;# 
  1639  0F1B                     	;# 
  1640  0F1C                     	;# 
  1641  0F1D                     	;# 
  1642  0F1E                     	;# 
  1643  0F1F                     	;# 
  1644  0F20                     	;# 
  1645  0F21                     	;# 
  1646  0F21                     	;# 
  1647  0F22                     	;# 
  1648  0F23                     	;# 
  1649  0F23                     	;# 
  1650  0F24                     	;# 
  1651  0F25                     	;# 
  1652  0F25                     	;# 
  1653  0F26                     	;# 
  1654  0F27                     	;# 
  1655  0F27                     	;# 
  1656  0F28                     	;# 
  1657  0F29                     	;# 
  1658  0F2A                     	;# 
  1659  0F2B                     	;# 
  1660  0F2C                     	;# 
  1661  0F2D                     	;# 
  1662  0F2E                     	;# 
  1663  0F2F                     	;# 
  1664  0FE4                     	;# 
  1665  0FE5                     	;# 
  1666  0FE6                     	;# 
  1667  0FE7                     	;# 
  1668  0FE8                     	;# 
  1669  0FE9                     	;# 
  1670  0FEA                     	;# 
  1671  0FEB                     	;# 
  1672  0FED                     	;# 
  1673  0FEE                     	;# 
  1674  0FEF                     	;# 
  1675  0000                     	;# 
  1676  0001                     	;# 
  1677  0002                     	;# 
  1678  0003                     	;# 
  1679  0004                     	;# 
  1680  0005                     	;# 
  1681  0006                     	;# 
  1682  0007                     	;# 
  1683  0008                     	;# 
  1684  0009                     	;# 
  1685  000A                     	;# 
  1686  000B                     	;# 
  1687  000C                     	;# 
  1688  000D                     	;# 
  1689  000E                     	;# 
  1690  0010                     	;# 
  1691  0011                     	;# 
  1692  0012                     	;# 
  1693  0013                     	;# 
  1694  0014                     	;# 
  1695  0015                     	;# 
  1696  0016                     	;# 
  1697  0016                     	;# 
  1698  0017                     	;# 
  1699  0018                     	;# 
  1700  0019                     	;# 
  1701  001A                     	;# 
  1702  001B                     	;# 
  1703  001C                     	;# 
  1704  008C                     	;# 
  1705  008D                     	;# 
  1706  008E                     	;# 
  1707  0090                     	;# 
  1708  0091                     	;# 
  1709  0092                     	;# 
  1710  0093                     	;# 
  1711  0094                     	;# 
  1712  0095                     	;# 
  1713  0096                     	;# 
  1714  0097                     	;# 
  1715  0098                     	;# 
  1716  0099                     	;# 
  1717  009A                     	;# 
  1718  009B                     	;# 
  1719  009B                     	;# 
  1720  009C                     	;# 
  1721  009D                     	;# 
  1722  009E                     	;# 
  1723  009F                     	;# 
  1724  010C                     	;# 
  1725  010D                     	;# 
  1726  010E                     	;# 
  1727  0111                     	;# 
  1728  0112                     	;# 
  1729  0113                     	;# 
  1730  0114                     	;# 
  1731  0115                     	;# 
  1732  0116                     	;# 
  1733  0117                     	;# 
  1734  0118                     	;# 
  1735  0119                     	;# 
  1736  011A                     	;# 
  1737  011B                     	;# 
  1738  011C                     	;# 
  1739  011D                     	;# 
  1740  011D                     	;# 
  1741  011D                     	;# 
  1742  011E                     	;# 
  1743  011F                     	;# 
  1744  018C                     	;# 
  1745  018D                     	;# 
  1746  018E                     	;# 
  1747  0191                     	;# 
  1748  0191                     	;# 
  1749  0192                     	;# 
  1750  0193                     	;# 
  1751  0193                     	;# 
  1752  0193                     	;# 
  1753  0194                     	;# 
  1754  0195                     	;# 
  1755  0196                     	;# 
  1756  0197                     	;# 
  1757  0199                     	;# 
  1758  0199                     	;# 
  1759  0199                     	;# 
  1760  019A                     	;# 
  1761  019A                     	;# 
  1762  019A                     	;# 
  1763  019B                     	;# 
  1764  019B                     	;# 
  1765  019B                     	;# 
  1766  019B                     	;# 
  1767  019B                     	;# 
  1768  019C                     	;# 
  1769  019C                     	;# 
  1770  019C                     	;# 
  1771  019D                     	;# 
  1772  019D                     	;# 
  1773  019D                     	;# 
  1774  019E                     	;# 
  1775  019E                     	;# 
  1776  019E                     	;# 
  1777  019F                     	;# 
  1778  019F                     	;# 
  1779  019F                     	;# 
  1780  019F                     	;# 
  1781  019F                     	;# 
  1782  020C                     	;# 
  1783  020D                     	;# 
  1784  020E                     	;# 
  1785  0210                     	;# 
  1786  0211                     	;# 
  1787  0211                     	;# 
  1788  0212                     	;# 
  1789  0212                     	;# 
  1790  0213                     	;# 
  1791  0213                     	;# 
  1792  0214                     	;# 
  1793  0214                     	;# 
  1794  0215                     	;# 
  1795  0215                     	;# 
  1796  0215                     	;# 
  1797  0215                     	;# 
  1798  0216                     	;# 
  1799  0216                     	;# 
  1800  0217                     	;# 
  1801  0217                     	;# 
  1802  028C                     	;# 
  1803  028D                     	;# 
  1804  028E                     	;# 
  1805  0291                     	;# 
  1806  0291                     	;# 
  1807  0292                     	;# 
  1808  0293                     	;# 
  1809  0298                     	;# 
  1810  0298                     	;# 
  1811  0299                     	;# 
  1812  029A                     	;# 
  1813  030C                     	;# 
  1814  030D                     	;# 
  1815  030E                     	;# 
  1816  0311                     	;# 
  1817  0311                     	;# 
  1818  0312                     	;# 
  1819  0313                     	;# 
  1820  038C                     	;# 
  1821  038D                     	;# 
  1822  038E                     	;# 
  1823  0390                     	;# 
  1824  0391                     	;# 
  1825  0392                     	;# 
  1826  0393                     	;# 
  1827  0394                     	;# 
  1828  0395                     	;# 
  1829  0396                     	;# 
  1830  0397                     	;# 
  1831  0398                     	;# 
  1832  0399                     	;# 
  1833  039D                     	;# 
  1834  039E                     	;# 
  1835  039F                     	;# 
  1836  0511                     	;# 
  1837  0513                     	;# 
  1838  051A                     	;# 
  1839  0591                     	;# 
  1840  0592                     	;# 
  1841  0592                     	;# 
  1842  0593                     	;# 
  1843  0594                     	;# 
  1844  0594                     	;# 
  1845  0595                     	;# 
  1846  0596                     	;# 
  1847  0596                     	;# 
  1848  0E91                     	;# 
  1849  0E92                     	;# 
  1850  0E93                     	;# 
  1851  0E94                     	;# 
  1852  0E95                     	;# 
  1853  0E96                     	;# 
  1854  0E97                     	;# 
  1855  0E98                     	;# 
  1856  0E99                     	;# 
  1857  0E9A                     	;# 
  1858  0E9B                     	;# 
  1859  0E9C                     	;# 
  1860  0E9D                     	;# 
  1861  0E9E                     	;# 
  1862  0E9F                     	;# 
  1863  0EA0                     	;# 
  1864  0EA1                     	;# 
  1865  0EA1                     	;# 
  1866  0EA2                     	;# 
  1867  0EA3                     	;# 
  1868  0EA3                     	;# 
  1869  0EA4                     	;# 
  1870  0EA5                     	;# 
  1871  0EA5                     	;# 
  1872  0EA6                     	;# 
  1873  0EA7                     	;# 
  1874  0EA7                     	;# 
  1875  0EA8                     	;# 
  1876  0EA9                     	;# 
  1877  0EAA                     	;# 
  1878  0EAB                     	;# 
  1879  0EAC                     	;# 
  1880  0EAD                     	;# 
  1881  0EAE                     	;# 
  1882  0EAF                     	;# 
  1883  0EB1                     	;# 
  1884  0EB2                     	;# 
  1885  0EB3                     	;# 
  1886  0EB4                     	;# 
  1887  0EB5                     	;# 
  1888  0EB6                     	;# 
  1889  0EB7                     	;# 
  1890  0EB8                     	;# 
  1891  0EB9                     	;# 
  1892  0EBA                     	;# 
  1893  0EBB                     	;# 
  1894  0EBC                     	;# 
  1895  0EBD                     	;# 
  1896  0EBE                     	;# 
  1897  0EBF                     	;# 
  1898  0EC0                     	;# 
  1899  0EC1                     	;# 
  1900  0EC1                     	;# 
  1901  0EC2                     	;# 
  1902  0EC3                     	;# 
  1903  0EC3                     	;# 
  1904  0EC4                     	;# 
  1905  0EC5                     	;# 
  1906  0EC5                     	;# 
  1907  0EC6                     	;# 
  1908  0EC7                     	;# 
  1909  0EC7                     	;# 
  1910  0EC8                     	;# 
  1911  0EC9                     	;# 
  1912  0ECA                     	;# 
  1913  0ECB                     	;# 
  1914  0ECC                     	;# 
  1915  0ECD                     	;# 
  1916  0ECE                     	;# 
  1917  0ECF                     	;# 
  1918  0ED1                     	;# 
  1919  0ED2                     	;# 
  1920  0ED3                     	;# 
  1921  0ED4                     	;# 
  1922  0ED5                     	;# 
  1923  0ED6                     	;# 
  1924  0ED7                     	;# 
  1925  0ED8                     	;# 
  1926  0ED9                     	;# 
  1927  0EDA                     	;# 
  1928  0EDB                     	;# 
  1929  0EDC                     	;# 
  1930  0EDD                     	;# 
  1931  0EDE                     	;# 
  1932  0EDF                     	;# 
  1933  0EE0                     	;# 
  1934  0EE1                     	;# 
  1935  0EE1                     	;# 
  1936  0EE2                     	;# 
  1937  0EE3                     	;# 
  1938  0EE3                     	;# 
  1939  0EE4                     	;# 
  1940  0EE5                     	;# 
  1941  0EE5                     	;# 
  1942  0EE6                     	;# 
  1943  0EE7                     	;# 
  1944  0EE7                     	;# 
  1945  0EE8                     	;# 
  1946  0EE9                     	;# 
  1947  0EEA                     	;# 
  1948  0EEB                     	;# 
  1949  0EEC                     	;# 
  1950  0EED                     	;# 
  1951  0EEE                     	;# 
  1952  0EEF                     	;# 
  1953  0F11                     	;# 
  1954  0F12                     	;# 
  1955  0F13                     	;# 
  1956  0F14                     	;# 
  1957  0F15                     	;# 
  1958  0F16                     	;# 
  1959  0F17                     	;# 
  1960  0F18                     	;# 
  1961  0F19                     	;# 
  1962  0F1A                     	;# 
  1963  0F1B                     	;# 
  1964  0F1C                     	;# 
  1965  0F1D                     	;# 
  1966  0F1E                     	;# 
  1967  0F1F                     	;# 
  1968  0F20                     	;# 
  1969  0F21                     	;# 
  1970  0F21                     	;# 
  1971  0F22                     	;# 
  1972  0F23                     	;# 
  1973  0F23                     	;# 
  1974  0F24                     	;# 
  1975  0F25                     	;# 
  1976  0F25                     	;# 
  1977  0F26                     	;# 
  1978  0F27                     	;# 
  1979  0F27                     	;# 
  1980  0F28                     	;# 
  1981  0F29                     	;# 
  1982  0F2A                     	;# 
  1983  0F2B                     	;# 
  1984  0F2C                     	;# 
  1985  0F2D                     	;# 
  1986  0F2E                     	;# 
  1987  0F2F                     	;# 
  1988  0FE4                     	;# 
  1989  0FE5                     	;# 
  1990  0FE6                     	;# 
  1991  0FE7                     	;# 
  1992  0FE8                     	;# 
  1993  0FE9                     	;# 
  1994  0FEA                     	;# 
  1995  0FEB                     	;# 
  1996  0FED                     	;# 
  1997  0FEE                     	;# 
  1998  0FEF                     	;# 
  1999  0000                     	;# 
  2000  0001                     	;# 
  2001  0002                     	;# 
  2002  0003                     	;# 
  2003  0004                     	;# 
  2004  0005                     	;# 
  2005  0006                     	;# 
  2006  0007                     	;# 
  2007  0008                     	;# 
  2008  0009                     	;# 
  2009  000A                     	;# 
  2010  000B                     	;# 
  2011  000C                     	;# 
  2012  000D                     	;# 
  2013  000E                     	;# 
  2014  0010                     	;# 
  2015  0011                     	;# 
  2016  0012                     	;# 
  2017  0013                     	;# 
  2018  0014                     	;# 
  2019  0015                     	;# 
  2020  0016                     	;# 
  2021  0016                     	;# 
  2022  0017                     	;# 
  2023  0018                     	;# 
  2024  0019                     	;# 
  2025  001A                     	;# 
  2026  001B                     	;# 
  2027  001C                     	;# 
  2028  008C                     	;# 
  2029  008D                     	;# 
  2030  008E                     	;# 
  2031  0090                     	;# 
  2032  0091                     	;# 
  2033  0092                     	;# 
  2034  0093                     	;# 
  2035  0094                     	;# 
  2036  0095                     	;# 
  2037  0096                     	;# 
  2038  0097                     	;# 
  2039  0098                     	;# 
  2040  0099                     	;# 
  2041  009A                     	;# 
  2042  009B                     	;# 
  2043  009B                     	;# 
  2044  009C                     	;# 
  2045  009D                     	;# 
  2046  009E                     	;# 
  2047  009F                     	;# 
  2048  010C                     	;# 
  2049  010D                     	;# 
  2050  010E                     	;# 
  2051  0111                     	;# 
  2052  0112                     	;# 
  2053  0113                     	;# 
  2054  0114                     	;# 
  2055  0115                     	;# 
  2056  0116                     	;# 
  2057  0117                     	;# 
  2058  0118                     	;# 
  2059  0119                     	;# 
  2060  011A                     	;# 
  2061  011B                     	;# 
  2062  011C                     	;# 
  2063  011D                     	;# 
  2064  011D                     	;# 
  2065  011D                     	;# 
  2066  011E                     	;# 
  2067  011F                     	;# 
  2068  018C                     	;# 
  2069  018D                     	;# 
  2070  018E                     	;# 
  2071  0191                     	;# 
  2072  0191                     	;# 
  2073  0192                     	;# 
  2074  0193                     	;# 
  2075  0193                     	;# 
  2076  0193                     	;# 
  2077  0194                     	;# 
  2078  0195                     	;# 
  2079  0196                     	;# 
  2080  0197                     	;# 
  2081  0199                     	;# 
  2082  0199                     	;# 
  2083  0199                     	;# 
  2084  019A                     	;# 
  2085  019A                     	;# 
  2086  019A                     	;# 
  2087  019B                     	;# 
  2088  019B                     	;# 
  2089  019B                     	;# 
  2090  019B                     	;# 
  2091  019B                     	;# 
  2092  019C                     	;# 
  2093  019C                     	;# 
  2094  019C                     	;# 
  2095  019D                     	;# 
  2096  019D                     	;# 
  2097  019D                     	;# 
  2098  019E                     	;# 
  2099  019E                     	;# 
  2100  019E                     	;# 
  2101  019F                     	;# 
  2102  019F                     	;# 
  2103  019F                     	;# 
  2104  019F                     	;# 
  2105  019F                     	;# 
  2106  020C                     	;# 
  2107  020D                     	;# 
  2108  020E                     	;# 
  2109  0210                     	;# 
  2110  0211                     	;# 
  2111  0211                     	;# 
  2112  0212                     	;# 
  2113  0212                     	;# 
  2114  0213                     	;# 
  2115  0213                     	;# 
  2116  0214                     	;# 
  2117  0214                     	;# 
  2118  0215                     	;# 
  2119  0215                     	;# 
  2120  0215                     	;# 
  2121  0215                     	;# 
  2122  0216                     	;# 
  2123  0216                     	;# 
  2124  0217                     	;# 
  2125  0217                     	;# 
  2126  028C                     	;# 
  2127  028D                     	;# 
  2128  028E                     	;# 
  2129  0291                     	;# 
  2130  0291                     	;# 
  2131  0292                     	;# 
  2132  0293                     	;# 
  2133  0298                     	;# 
  2134  0298                     	;# 
  2135  0299                     	;# 
  2136  029A                     	;# 
  2137  030C                     	;# 
  2138  030D                     	;# 
  2139  030E                     	;# 
  2140  0311                     	;# 
  2141  0311                     	;# 
  2142  0312                     	;# 
  2143  0313                     	;# 
  2144  038C                     	;# 
  2145  038D                     	;# 
  2146  038E                     	;# 
  2147  0390                     	;# 
  2148  0391                     	;# 
  2149  0392                     	;# 
  2150  0393                     	;# 
  2151  0394                     	;# 
  2152  0395                     	;# 
  2153  0396                     	;# 
  2154  0397                     	;# 
  2155  0398                     	;# 
  2156  0399                     	;# 
  2157  039D                     	;# 
  2158  039E                     	;# 
  2159  039F                     	;# 
  2160  0511                     	;# 
  2161  0513                     	;# 
  2162  051A                     	;# 
  2163  0591                     	;# 
  2164  0592                     	;# 
  2165  0592                     	;# 
  2166  0593                     	;# 
  2167  0594                     	;# 
  2168  0594                     	;# 
  2169  0595                     	;# 
  2170  0596                     	;# 
  2171  0596                     	;# 
  2172  0E91                     	;# 
  2173  0E92                     	;# 
  2174  0E93                     	;# 
  2175  0E94                     	;# 
  2176  0E95                     	;# 
  2177  0E96                     	;# 
  2178  0E97                     	;# 
  2179  0E98                     	;# 
  2180  0E99                     	;# 
  2181  0E9A                     	;# 
  2182  0E9B                     	;# 
  2183  0E9C                     	;# 
  2184  0E9D                     	;# 
  2185  0E9E                     	;# 
  2186  0E9F                     	;# 
  2187  0EA0                     	;# 
  2188  0EA1                     	;# 
  2189  0EA1                     	;# 
  2190  0EA2                     	;# 
  2191  0EA3                     	;# 
  2192  0EA3                     	;# 
  2193  0EA4                     	;# 
  2194  0EA5                     	;# 
  2195  0EA5                     	;# 
  2196  0EA6                     	;# 
  2197  0EA7                     	;# 
  2198  0EA7                     	;# 
  2199  0EA8                     	;# 
  2200  0EA9                     	;# 
  2201  0EAA                     	;# 
  2202  0EAB                     	;# 
  2203  0EAC                     	;# 
  2204  0EAD                     	;# 
  2205  0EAE                     	;# 
  2206  0EAF                     	;# 
  2207  0EB1                     	;# 
  2208  0EB2                     	;# 
  2209  0EB3                     	;# 
  2210  0EB4                     	;# 
  2211  0EB5                     	;# 
  2212  0EB6                     	;# 
  2213  0EB7                     	;# 
  2214  0EB8                     	;# 
  2215  0EB9                     	;# 
  2216  0EBA                     	;# 
  2217  0EBB                     	;# 
  2218  0EBC                     	;# 
  2219  0EBD                     	;# 
  2220  0EBE                     	;# 
  2221  0EBF                     	;# 
  2222  0EC0                     	;# 
  2223  0EC1                     	;# 
  2224  0EC1                     	;# 
  2225  0EC2                     	;# 
  2226  0EC3                     	;# 
  2227  0EC3                     	;# 
  2228  0EC4                     	;# 
  2229  0EC5                     	;# 
  2230  0EC5                     	;# 
  2231  0EC6                     	;# 
  2232  0EC7                     	;# 
  2233  0EC7                     	;# 
  2234  0EC8                     	;# 
  2235  0EC9                     	;# 
  2236  0ECA                     	;# 
  2237  0ECB                     	;# 
  2238  0ECC                     	;# 
  2239  0ECD                     	;# 
  2240  0ECE                     	;# 
  2241  0ECF                     	;# 
  2242  0ED1                     	;# 
  2243  0ED2                     	;# 
  2244  0ED3                     	;# 
  2245  0ED4                     	;# 
  2246  0ED5                     	;# 
  2247  0ED6                     	;# 
  2248  0ED7                     	;# 
  2249  0ED8                     	;# 
  2250  0ED9                     	;# 
  2251  0EDA                     	;# 
  2252  0EDB                     	;# 
  2253  0EDC                     	;# 
  2254  0EDD                     	;# 
  2255  0EDE                     	;# 
  2256  0EDF                     	;# 
  2257  0EE0                     	;# 
  2258  0EE1                     	;# 
  2259  0EE1                     	;# 
  2260  0EE2                     	;# 
  2261  0EE3                     	;# 
  2262  0EE3                     	;# 
  2263  0EE4                     	;# 
  2264  0EE5                     	;# 
  2265  0EE5                     	;# 
  2266  0EE6                     	;# 
  2267  0EE7                     	;# 
  2268  0EE7                     	;# 
  2269  0EE8                     	;# 
  2270  0EE9                     	;# 
  2271  0EEA                     	;# 
  2272  0EEB                     	;# 
  2273  0EEC                     	;# 
  2274  0EED                     	;# 
  2275  0EEE                     	;# 
  2276  0EEF                     	;# 
  2277  0F11                     	;# 
  2278  0F12                     	;# 
  2279  0F13                     	;# 
  2280  0F14                     	;# 
  2281  0F15                     	;# 
  2282  0F16                     	;# 
  2283  0F17                     	;# 
  2284  0F18                     	;# 
  2285  0F19                     	;# 
  2286  0F1A                     	;# 
  2287  0F1B                     	;# 
  2288  0F1C                     	;# 
  2289  0F1D                     	;# 
  2290  0F1E                     	;# 
  2291  0F1F                     	;# 
  2292  0F20                     	;# 
  2293  0F21                     	;# 
  2294  0F21                     	;# 
  2295  0F22                     	;# 
  2296  0F23                     	;# 
  2297  0F23                     	;# 
  2298  0F24                     	;# 
  2299  0F25                     	;# 
  2300  0F25                     	;# 
  2301  0F26                     	;# 
  2302  0F27                     	;# 
  2303  0F27                     	;# 
  2304  0F28                     	;# 
  2305  0F29                     	;# 
  2306  0F2A                     	;# 
  2307  0F2B                     	;# 
  2308  0F2C                     	;# 
  2309  0F2D                     	;# 
  2310  0F2E                     	;# 
  2311  0F2F                     	;# 
  2312  0FE4                     	;# 
  2313  0FE5                     	;# 
  2314  0FE6                     	;# 
  2315  0FE7                     	;# 
  2316  0FE8                     	;# 
  2317  0FE9                     	;# 
  2318  0FEA                     	;# 
  2319  0FEB                     	;# 
  2320  0FED                     	;# 
  2321  0FEE                     	;# 
  2322  0FEF                     	;# 
  2323  0000                     	;# 
  2324  0001                     	;# 
  2325  0002                     	;# 
  2326  0003                     	;# 
  2327  0004                     	;# 
  2328  0005                     	;# 
  2329  0006                     	;# 
  2330  0007                     	;# 
  2331  0008                     	;# 
  2332  0009                     	;# 
  2333  000A                     	;# 
  2334  000B                     	;# 
  2335  000C                     	;# 
  2336  000D                     	;# 
  2337  000E                     	;# 
  2338  0010                     	;# 
  2339  0011                     	;# 
  2340  0012                     	;# 
  2341  0013                     	;# 
  2342  0014                     	;# 
  2343  0015                     	;# 
  2344  0016                     	;# 
  2345  0016                     	;# 
  2346  0017                     	;# 
  2347  0018                     	;# 
  2348  0019                     	;# 
  2349  001A                     	;# 
  2350  001B                     	;# 
  2351  001C                     	;# 
  2352  008C                     	;# 
  2353  008D                     	;# 
  2354  008E                     	;# 
  2355  0090                     	;# 
  2356  0091                     	;# 
  2357  0092                     	;# 
  2358  0093                     	;# 
  2359  0094                     	;# 
  2360  0095                     	;# 
  2361  0096                     	;# 
  2362  0097                     	;# 
  2363  0098                     	;# 
  2364  0099                     	;# 
  2365  009A                     	;# 
  2366  009B                     	;# 
  2367  009B                     	;# 
  2368  009C                     	;# 
  2369  009D                     	;# 
  2370  009E                     	;# 
  2371  009F                     	;# 
  2372  010C                     	;# 
  2373  010D                     	;# 
  2374  010E                     	;# 
  2375  0111                     	;# 
  2376  0112                     	;# 
  2377  0113                     	;# 
  2378  0114                     	;# 
  2379  0115                     	;# 
  2380  0116                     	;# 
  2381  0117                     	;# 
  2382  0118                     	;# 
  2383  0119                     	;# 
  2384  011A                     	;# 
  2385  011B                     	;# 
  2386  011C                     	;# 
  2387  011D                     	;# 
  2388  011D                     	;# 
  2389  011D                     	;# 
  2390  011E                     	;# 
  2391  011F                     	;# 
  2392  018C                     	;# 
  2393  018D                     	;# 
  2394  018E                     	;# 
  2395  0191                     	;# 
  2396  0191                     	;# 
  2397  0192                     	;# 
  2398  0193                     	;# 
  2399  0193                     	;# 
  2400  0193                     	;# 
  2401  0194                     	;# 
  2402  0195                     	;# 
  2403  0196                     	;# 
  2404  0197                     	;# 
  2405  0199                     	;# 
  2406  0199                     	;# 
  2407  0199                     	;# 
  2408  019A                     	;# 
  2409  019A                     	;# 
  2410  019A                     	;# 
  2411  019B                     	;# 
  2412  019B                     	;# 
  2413  019B                     	;# 
  2414  019B                     	;# 
  2415  019B                     	;# 
  2416  019C                     	;# 
  2417  019C                     	;# 
  2418  019C                     	;# 
  2419  019D                     	;# 
  2420  019D                     	;# 
  2421  019D                     	;# 
  2422  019E                     	;# 
  2423  019E                     	;# 
  2424  019E                     	;# 
  2425  019F                     	;# 
  2426  019F                     	;# 
  2427  019F                     	;# 
  2428  019F                     	;# 
  2429  019F                     	;# 
  2430  020C                     	;# 
  2431  020D                     	;# 
  2432  020E                     	;# 
  2433  0210                     	;# 
  2434  0211                     	;# 
  2435  0211                     	;# 
  2436  0212                     	;# 
  2437  0212                     	;# 
  2438  0213                     	;# 
  2439  0213                     	;# 
  2440  0214                     	;# 
  2441  0214                     	;# 
  2442  0215                     	;# 
  2443  0215                     	;# 
  2444  0215                     	;# 
  2445  0215                     	;# 
  2446  0216                     	;# 
  2447  0216                     	;# 
  2448  0217                     	;# 
  2449  0217                     	;# 
  2450  028C                     	;# 
  2451  028D                     	;# 
  2452  028E                     	;# 
  2453  0291                     	;# 
  2454  0291                     	;# 
  2455  0292                     	;# 
  2456  0293                     	;# 
  2457  0298                     	;# 
  2458  0298                     	;# 
  2459  0299                     	;# 
  2460  029A                     	;# 
  2461  030C                     	;# 
  2462  030D                     	;# 
  2463  030E                     	;# 
  2464  0311                     	;# 
  2465  0311                     	;# 
  2466  0312                     	;# 
  2467  0313                     	;# 
  2468  038C                     	;# 
  2469  038D                     	;# 
  2470  038E                     	;# 
  2471  0390                     	;# 
  2472  0391                     	;# 
  2473  0392                     	;# 
  2474  0393                     	;# 
  2475  0394                     	;# 
  2476  0395                     	;# 
  2477  0396                     	;# 
  2478  0397                     	;# 
  2479  0398                     	;# 
  2480  0399                     	;# 
  2481  039D                     	;# 
  2482  039E                     	;# 
  2483  039F                     	;# 
  2484  0511                     	;# 
  2485  0513                     	;# 
  2486  051A                     	;# 
  2487  0591                     	;# 
  2488  0592                     	;# 
  2489  0592                     	;# 
  2490  0593                     	;# 
  2491  0594                     	;# 
  2492  0594                     	;# 
  2493  0595                     	;# 
  2494  0596                     	;# 
  2495  0596                     	;# 
  2496  0E91                     	;# 
  2497  0E92                     	;# 
  2498  0E93                     	;# 
  2499  0E94                     	;# 
  2500  0E95                     	;# 
  2501  0E96                     	;# 
  2502  0E97                     	;# 
  2503  0E98                     	;# 
  2504  0E99                     	;# 
  2505  0E9A                     	;# 
  2506  0E9B                     	;# 
  2507  0E9C                     	;# 
  2508  0E9D                     	;# 
  2509  0E9E                     	;# 
  2510  0E9F                     	;# 
  2511  0EA0                     	;# 
  2512  0EA1                     	;# 
  2513  0EA1                     	;# 
  2514  0EA2                     	;# 
  2515  0EA3                     	;# 
  2516  0EA3                     	;# 
  2517  0EA4                     	;# 
  2518  0EA5                     	;# 
  2519  0EA5                     	;# 
  2520  0EA6                     	;# 
  2521  0EA7                     	;# 
  2522  0EA7                     	;# 
  2523  0EA8                     	;# 
  2524  0EA9                     	;# 
  2525  0EAA                     	;# 
  2526  0EAB                     	;# 
  2527  0EAC                     	;# 
  2528  0EAD                     	;# 
  2529  0EAE                     	;# 
  2530  0EAF                     	;# 
  2531  0EB1                     	;# 
  2532  0EB2                     	;# 
  2533  0EB3                     	;# 
  2534  0EB4                     	;# 
  2535  0EB5                     	;# 
  2536  0EB6                     	;# 
  2537  0EB7                     	;# 
  2538  0EB8                     	;# 
  2539  0EB9                     	;# 
  2540  0EBA                     	;# 
  2541  0EBB                     	;# 
  2542  0EBC                     	;# 
  2543  0EBD                     	;# 
  2544  0EBE                     	;# 
  2545  0EBF                     	;# 
  2546  0EC0                     	;# 
  2547  0EC1                     	;# 
  2548  0EC1                     	;# 
  2549  0EC2                     	;# 
  2550  0EC3                     	;# 
  2551  0EC3                     	;# 
  2552  0EC4                     	;# 
  2553  0EC5                     	;# 
  2554  0EC5                     	;# 
  2555  0EC6                     	;# 
  2556  0EC7                     	;# 
  2557  0EC7                     	;# 
  2558  0EC8                     	;# 
  2559  0EC9                     	;# 
  2560  0ECA                     	;# 
  2561  0ECB                     	;# 
  2562  0ECC                     	;# 
  2563  0ECD                     	;# 
  2564  0ECE                     	;# 
  2565  0ECF                     	;# 
  2566  0ED1                     	;# 
  2567  0ED2                     	;# 
  2568  0ED3                     	;# 
  2569  0ED4                     	;# 
  2570  0ED5                     	;# 
  2571  0ED6                     	;# 
  2572  0ED7                     	;# 
  2573  0ED8                     	;# 
  2574  0ED9                     	;# 
  2575  0EDA                     	;# 
  2576  0EDB                     	;# 
  2577  0EDC                     	;# 
  2578  0EDD                     	;# 
  2579  0EDE                     	;# 
  2580  0EDF                     	;# 
  2581  0EE0                     	;# 
  2582  0EE1                     	;# 
  2583  0EE1                     	;# 
  2584  0EE2                     	;# 
  2585  0EE3                     	;# 
  2586  0EE3                     	;# 
  2587  0EE4                     	;# 
  2588  0EE5                     	;# 
  2589  0EE5                     	;# 
  2590  0EE6                     	;# 
  2591  0EE7                     	;# 
  2592  0EE7                     	;# 
  2593  0EE8                     	;# 
  2594  0EE9                     	;# 
  2595  0EEA                     	;# 
  2596  0EEB                     	;# 
  2597  0EEC                     	;# 
  2598  0EED                     	;# 
  2599  0EEE                     	;# 
  2600  0EEF                     	;# 
  2601  0F11                     	;# 
  2602  0F12                     	;# 
  2603  0F13                     	;# 
  2604  0F14                     	;# 
  2605  0F15                     	;# 
  2606  0F16                     	;# 
  2607  0F17                     	;# 
  2608  0F18                     	;# 
  2609  0F19                     	;# 
  2610  0F1A                     	;# 
  2611  0F1B                     	;# 
  2612  0F1C                     	;# 
  2613  0F1D                     	;# 
  2614  0F1E                     	;# 
  2615  0F1F                     	;# 
  2616  0F20                     	;# 
  2617  0F21                     	;# 
  2618  0F21                     	;# 
  2619  0F22                     	;# 
  2620  0F23                     	;# 
  2621  0F23                     	;# 
  2622  0F24                     	;# 
  2623  0F25                     	;# 
  2624  0F25                     	;# 
  2625  0F26                     	;# 
  2626  0F27                     	;# 
  2627  0F27                     	;# 
  2628  0F28                     	;# 
  2629  0F29                     	;# 
  2630  0F2A                     	;# 
  2631  0F2B                     	;# 
  2632  0F2C                     	;# 
  2633  0F2D                     	;# 
  2634  0F2E                     	;# 
  2635  0F2F                     	;# 
  2636  0FE4                     	;# 
  2637  0FE5                     	;# 
  2638  0FE6                     	;# 
  2639  0FE7                     	;# 
  2640  0FE8                     	;# 
  2641  0FE9                     	;# 
  2642  0FEA                     	;# 
  2643  0FEB                     	;# 
  2644  0FED                     	;# 
  2645  0FEE                     	;# 
  2646  0FEF                     	;# 
  2647  0000                     	;# 
  2648  0001                     	;# 
  2649  0002                     	;# 
  2650  0003                     	;# 
  2651  0004                     	;# 
  2652  0005                     	;# 
  2653  0006                     	;# 
  2654  0007                     	;# 
  2655  0008                     	;# 
  2656  0009                     	;# 
  2657  000A                     	;# 
  2658  000B                     	;# 
  2659  000C                     	;# 
  2660  000D                     	;# 
  2661  000E                     	;# 
  2662  0010                     	;# 
  2663  0011                     	;# 
  2664  0012                     	;# 
  2665  0013                     	;# 
  2666  0014                     	;# 
  2667  0015                     	;# 
  2668  0016                     	;# 
  2669  0016                     	;# 
  2670  0017                     	;# 
  2671  0018                     	;# 
  2672  0019                     	;# 
  2673  001A                     	;# 
  2674  001B                     	;# 
  2675  001C                     	;# 
  2676  008C                     	;# 
  2677  008D                     	;# 
  2678  008E                     	;# 
  2679  0090                     	;# 
  2680  0091                     	;# 
  2681  0092                     	;# 
  2682  0093                     	;# 
  2683  0094                     	;# 
  2684  0095                     	;# 
  2685  0096                     	;# 
  2686  0097                     	;# 
  2687  0098                     	;# 
  2688  0099                     	;# 
  2689  009A                     	;# 
  2690  009B                     	;# 
  2691  009B                     	;# 
  2692  009C                     	;# 
  2693  009D                     	;# 
  2694  009E                     	;# 
  2695  009F                     	;# 
  2696  010C                     	;# 
  2697  010D                     	;# 
  2698  010E                     	;# 
  2699  0111                     	;# 
  2700  0112                     	;# 
  2701  0113                     	;# 
  2702  0114                     	;# 
  2703  0115                     	;# 
  2704  0116                     	;# 
  2705  0117                     	;# 
  2706  0118                     	;# 
  2707  0119                     	;# 
  2708  011A                     	;# 
  2709  011B                     	;# 
  2710  011C                     	;# 
  2711  011D                     	;# 
  2712  011D                     	;# 
  2713  011D                     	;# 
  2714  011E                     	;# 
  2715  011F                     	;# 
  2716  018C                     	;# 
  2717  018D                     	;# 
  2718  018E                     	;# 
  2719  0191                     	;# 
  2720  0191                     	;# 
  2721  0192                     	;# 
  2722  0193                     	;# 
  2723  0193                     	;# 
  2724  0193                     	;# 
  2725  0194                     	;# 
  2726  0195                     	;# 
  2727  0196                     	;# 
  2728  0197                     	;# 
  2729  0199                     	;# 
  2730  0199                     	;# 
  2731  0199                     	;# 
  2732  019A                     	;# 
  2733  019A                     	;# 
  2734  019A                     	;# 
  2735  019B                     	;# 
  2736  019B                     	;# 
  2737  019B                     	;# 
  2738  019B                     	;# 
  2739  019B                     	;# 
  2740  019C                     	;# 
  2741  019C                     	;# 
  2742  019C                     	;# 
  2743  019D                     	;# 
  2744  019D                     	;# 
  2745  019D                     	;# 
  2746  019E                     	;# 
  2747  019E                     	;# 
  2748  019E                     	;# 
  2749  019F                     	;# 
  2750  019F                     	;# 
  2751  019F                     	;# 
  2752  019F                     	;# 
  2753  019F                     	;# 
  2754  020C                     	;# 
  2755  020D                     	;# 
  2756  020E                     	;# 
  2757  0210                     	;# 
  2758  0211                     	;# 
  2759  0211                     	;# 
  2760  0212                     	;# 
  2761  0212                     	;# 
  2762  0213                     	;# 
  2763  0213                     	;# 
  2764  0214                     	;# 
  2765  0214                     	;# 
  2766  0215                     	;# 
  2767  0215                     	;# 
  2768  0215                     	;# 
  2769  0215                     	;# 
  2770  0216                     	;# 
  2771  0216                     	;# 
  2772  0217                     	;# 
  2773  0217                     	;# 
  2774  028C                     	;# 
  2775  028D                     	;# 
  2776  028E                     	;# 
  2777  0291                     	;# 
  2778  0291                     	;# 
  2779  0292                     	;# 
  2780  0293                     	;# 
  2781  0298                     	;# 
  2782  0298                     	;# 
  2783  0299                     	;# 
  2784  029A                     	;# 
  2785  030C                     	;# 
  2786  030D                     	;# 
  2787  030E                     	;# 
  2788  0311                     	;# 
  2789  0311                     	;# 
  2790  0312                     	;# 
  2791  0313                     	;# 
  2792  038C                     	;# 
  2793  038D                     	;# 
  2794  038E                     	;# 
  2795  0390                     	;# 
  2796  0391                     	;# 
  2797  0392                     	;# 
  2798  0393                     	;# 
  2799  0394                     	;# 
  2800  0395                     	;# 
  2801  0396                     	;# 
  2802  0397                     	;# 
  2803  0398                     	;# 
  2804  0399                     	;# 
  2805  039D                     	;# 
  2806  039E                     	;# 
  2807  039F                     	;# 
  2808  0511                     	;# 
  2809  0513                     	;# 
  2810  051A                     	;# 
  2811  0591                     	;# 
  2812  0592                     	;# 
  2813  0592                     	;# 
  2814  0593                     	;# 
  2815  0594                     	;# 
  2816  0594                     	;# 
  2817  0595                     	;# 
  2818  0596                     	;# 
  2819  0596                     	;# 
  2820  0E91                     	;# 
  2821  0E92                     	;# 
  2822  0E93                     	;# 
  2823  0E94                     	;# 
  2824  0E95                     	;# 
  2825  0E96                     	;# 
  2826  0E97                     	;# 
  2827  0E98                     	;# 
  2828  0E99                     	;# 
  2829  0E9A                     	;# 
  2830  0E9B                     	;# 
  2831  0E9C                     	;# 
  2832  0E9D                     	;# 
  2833  0E9E                     	;# 
  2834  0E9F                     	;# 
  2835  0EA0                     	;# 
  2836  0EA1                     	;# 
  2837  0EA1                     	;# 
  2838  0EA2                     	;# 
  2839  0EA3                     	;# 
  2840  0EA3                     	;# 
  2841  0EA4                     	;# 
  2842  0EA5                     	;# 
  2843  0EA5                     	;# 
  2844  0EA6                     	;# 
  2845  0EA7                     	;# 
  2846  0EA7                     	;# 
  2847  0EA8                     	;# 
  2848  0EA9                     	;# 
  2849  0EAA                     	;# 
  2850  0EAB                     	;# 
  2851  0EAC                     	;# 
  2852  0EAD                     	;# 
  2853  0EAE                     	;# 
  2854  0EAF                     	;# 
  2855  0EB1                     	;# 
  2856  0EB2                     	;# 
  2857  0EB3                     	;# 
  2858  0EB4                     	;# 
  2859  0EB5                     	;# 
  2860  0EB6                     	;# 
  2861  0EB7                     	;# 
  2862  0EB8                     	;# 
  2863  0EB9                     	;# 
  2864  0EBA                     	;# 
  2865  0EBB                     	;# 
  2866  0EBC                     	;# 
  2867  0EBD                     	;# 
  2868  0EBE                     	;# 
  2869  0EBF                     	;# 
  2870  0EC0                     	;# 
  2871  0EC1                     	;# 
  2872  0EC1                     	;# 
  2873  0EC2                     	;# 
  2874  0EC3                     	;# 
  2875  0EC3                     	;# 
  2876  0EC4                     	;# 
  2877  0EC5                     	;# 
  2878  0EC5                     	;# 
  2879  0EC6                     	;# 
  2880  0EC7                     	;# 
  2881  0EC7                     	;# 
  2882  0EC8                     	;# 
  2883  0EC9                     	;# 
  2884  0ECA                     	;# 
  2885  0ECB                     	;# 
  2886  0ECC                     	;# 
  2887  0ECD                     	;# 
  2888  0ECE                     	;# 
  2889  0ECF                     	;# 
  2890  0ED1                     	;# 
  2891  0ED2                     	;# 
  2892  0ED3                     	;# 
  2893  0ED4                     	;# 
  2894  0ED5                     	;# 
  2895  0ED6                     	;# 
  2896  0ED7                     	;# 
  2897  0ED8                     	;# 
  2898  0ED9                     	;# 
  2899  0EDA                     	;# 
  2900  0EDB                     	;# 
  2901  0EDC                     	;# 
  2902  0EDD                     	;# 
  2903  0EDE                     	;# 
  2904  0EDF                     	;# 
  2905  0EE0                     	;# 
  2906  0EE1                     	;# 
  2907  0EE1                     	;# 
  2908  0EE2                     	;# 
  2909  0EE3                     	;# 
  2910  0EE3                     	;# 
  2911  0EE4                     	;# 
  2912  0EE5                     	;# 
  2913  0EE5                     	;# 
  2914  0EE6                     	;# 
  2915  0EE7                     	;# 
  2916  0EE7                     	;# 
  2917  0EE8                     	;# 
  2918  0EE9                     	;# 
  2919  0EEA                     	;# 
  2920  0EEB                     	;# 
  2921  0EEC                     	;# 
  2922  0EED                     	;# 
  2923  0EEE                     	;# 
  2924  0EEF                     	;# 
  2925  0F11                     	;# 
  2926  0F12                     	;# 
  2927  0F13                     	;# 
  2928  0F14                     	;# 
  2929  0F15                     	;# 
  2930  0F16                     	;# 
  2931  0F17                     	;# 
  2932  0F18                     	;# 
  2933  0F19                     	;# 
  2934  0F1A                     	;# 
  2935  0F1B                     	;# 
  2936  0F1C                     	;# 
  2937  0F1D                     	;# 
  2938  0F1E                     	;# 
  2939  0F1F                     	;# 
  2940  0F20                     	;# 
  2941  0F21                     	;# 
  2942  0F21                     	;# 
  2943  0F22                     	;# 
  2944  0F23                     	;# 
  2945  0F23                     	;# 
  2946  0F24                     	;# 
  2947  0F25                     	;# 
  2948  0F25                     	;# 
  2949  0F26                     	;# 
  2950  0F27                     	;# 
  2951  0F27                     	;# 
  2952  0F28                     	;# 
  2953  0F29                     	;# 
  2954  0F2A                     	;# 
  2955  0F2B                     	;# 
  2956  0F2C                     	;# 
  2957  0F2D                     	;# 
  2958  0F2E                     	;# 
  2959  0F2F                     	;# 
  2960  0FE4                     	;# 
  2961  0FE5                     	;# 
  2962  0FE6                     	;# 
  2963  0FE7                     	;# 
  2964  0FE8                     	;# 
  2965  0FE9                     	;# 
  2966  0FEA                     	;# 
  2967  0FEB                     	;# 
  2968  0FED                     	;# 
  2969  0FEE                     	;# 
  2970  0FEF                     	;# 
  2971                           
  2972                           	psect	idataBANK1
  2973  0003                     __pidataBANK1:	
  2974                           
  2975                           ;initializer for _health
  2976  0003  3432               	retlw	50
  2977                           
  2978                           	psect	stringtext
  2979  2000                     __pstringtext:	
  2980  2000                     determine_sword_was_swung@midpoint:	
  2981  2000  3400               	retlw	0
  2982  2001  3410               	retlw	16
  2983  2002                     __end_ofdetermine_sword_was_swung@midpoint:	
  2984  2002                     determine_sword_was_swung@neg_shock_thresh:	
  2985  2002  3418               	retlw	24
  2986  2003  340C               	retlw	12
  2987  2004                     __end_ofdetermine_sword_was_swung@neg_shock_thresh:	
  2988  2004                     determine_sword_was_swung@pos_shock_thresh:	
  2989  2004  34E8               	retlw	232
  2990  2005  3413               	retlw	19
  2991  2006                     __end_ofdetermine_sword_was_swung@pos_shock_thresh:	
  2992  0016                     _TMR1	set	22
  2993  000B                     _INTCON	set	11
  2994  0011                     _PIR1bits	set	17
  2995  000C                     _PORTAbits	set	12
  2996  000D                     _PORTBbits	set	13
  2997  0018                     _T1CON	set	24
  2998  005F                     _GIE	set	95
  2999  0061                     _RA1	set	97
  3000  006A                     _RB2	set	106
  3001  006B                     _RB3	set	107
  3002  0077                     _RC7	set	119
  3003  008D                     _RCIF	set	141
  3004  009B                     _ADRES	set	155
  3005  009D                     _ADCON0	set	157
  3006  009E                     _ADCON1	set	158
  3007  009F                     _ADCON2	set	159
  3008  0099                     _OSCCON	set	153
  3009  0094                     _PIE4	set	148
  3010  008C                     _TRISA	set	140
  3011  008D                     _TRISB	set	141
  3012  008D                     _TRISBbits	set	141
  3013  008E                     _TRISC	set	142
  3014  04E9                     _ADGO	set	1257
  3015  048D                     _RCIE	set	1165
  3016  010D                     _LATBbits	set	269
  3017  08EC                     _SCKSEL	set	2284
  3018  08EB                     _SDISEL	set	2283
  3019  08ED                     _SDOSEL	set	2285
  3020  018C                     _ANSELA	set	396
  3021  018D                     _ANSELB	set	397
  3022  0199                     _RCREG	set	409
  3023  019B                     _SPBRG	set	411
  3024  019A                     _TXREG	set	410
  3025  0CFB                     _BRG16	set	3323
  3026  0CF2                     _BRGH	set	3314
  3027  0CEC                     _CREN	set	3308
  3028  0CEF                     _SPEN	set	3311
  3029  0CF4                     _SYNC	set	3316
  3030  0CF1                     _TRMT	set	3313
  3031  0CF5                     _TXEN	set	3317
  3032  0211                     _SSPBUF	set	529
  3033  0215                     _SSPCON1	set	533
  3034  0215                     _SSPCON1bits	set	533
  3035  10AD                     _SSPEN	set	4269
  3036  106A                     _WPUB2	set	4202
  3037  106B                     _WPUB3	set	4203
  3038  0393                     _IOCAF	set	915
  3039  0393                     _IOCAFbits	set	915
  3040  0392                     _IOCAN	set	914
  3041  0391                     _IOCAP	set	913
  3042  1C99                     _IOCAF1	set	7321
  3043  0E9D                     _PSMC1ASDC	set	3741
  3044  0E9E                     _PSMC1ASDL	set	3742
  3045  0E9F                     _PSMC1ASDS	set	3743
  3046  0EAC                     _PSMC1BLKF	set	3756
  3047  0EAB                     _PSMC1BLKR	set	3755
  3048  0E97                     _PSMC1BLNK	set	3735
  3049  0E94                     _PSMC1CLK	set	3732
  3050  0E91                     _PSMC1CON	set	3729
  3051  0EAA                     _PSMC1DBF	set	3754
  3052  0EA9                     _PSMC1DBR	set	3753
  3053  0EA4                     _PSMC1DCH	set	3748
  3054  0EA3                     _PSMC1DCL	set	3747
  3055  0E9B                     _PSMC1DCS	set	3739
  3056  0E99                     _PSMC1FEBS	set	3737
  3057  0EAD                     _PSMC1FFA	set	3757
  3058  0EA0                     _PSMC1INT	set	3744
  3059  0E92                     _PSMC1MDL	set	3730
  3060  0E95                     _PSMC1OEN	set	3733
  3061  0EA2                     _PSMC1PHH	set	3746
  3062  0EA1                     _PSMC1PHL	set	3745
  3063  0E9A                     _PSMC1PHS	set	3738
  3064  0E96                     _PSMC1POL	set	3734
  3065  0EA6                     _PSMC1PRH	set	3750
  3066  0EA5                     _PSMC1PRL	set	3749
  3067  0E9C                     _PSMC1PRS	set	3740
  3068  0E98                     _PSMC1REBS	set	3736
  3069  0EAE                     _PSMC1STR0	set	3758
  3070  0EAF                     _PSMC1STR1	set	3759
  3071  0E93                     _PSMC1SYNC	set	3731
  3072  0EBD                     _PSMC2ASDC	set	3773
  3073  0EBE                     _PSMC2ASDL	set	3774
  3074  0EBF                     _PSMC2ASDS	set	3775
  3075  0ECC                     _PSMC2BLKF	set	3788
  3076  0ECB                     _PSMC2BLKR	set	3787
  3077  0EB7                     _PSMC2BLNK	set	3767
  3078  0EB4                     _PSMC2CLK	set	3764
  3079  0EB1                     _PSMC2CON	set	3761
  3080  0ECA                     _PSMC2DBF	set	3786
  3081  0EC9                     _PSMC2DBR	set	3785
  3082  0EC4                     _PSMC2DCH	set	3780
  3083  0EC3                     _PSMC2DCL	set	3779
  3084  0EBB                     _PSMC2DCS	set	3771
  3085  0EB9                     _PSMC2FEBS	set	3769
  3086  0ECD                     _PSMC2FFA	set	3789
  3087  0EC0                     _PSMC2INT	set	3776
  3088  0EB2                     _PSMC2MDL	set	3762
  3089  0EB5                     _PSMC2OEN	set	3765
  3090  0EC2                     _PSMC2PHH	set	3778
  3091  0EC1                     _PSMC2PHL	set	3777
  3092  0EBA                     _PSMC2PHS	set	3770
  3093  0EB6                     _PSMC2POL	set	3766
  3094  0EC6                     _PSMC2PRH	set	3782
  3095  0EC5                     _PSMC2PRL	set	3781
  3096  0EBC                     _PSMC2PRS	set	3772
  3097  0EB8                     _PSMC2REBS	set	3768
  3098  0ECE                     _PSMC2STR0	set	3790
  3099  0ECF                     _PSMC2STR1	set	3791
  3100  0EB3                     _PSMC2SYNC	set	3763
  3101  0EDD                     _PSMC3ASDC	set	3805
  3102  0EDE                     _PSMC3ASDL	set	3806
  3103  0EDF                     _PSMC3ASDS	set	3807
  3104  0EEC                     _PSMC3BLKF	set	3820
  3105  0EEB                     _PSMC3BLKR	set	3819
  3106  0ED7                     _PSMC3BLNK	set	3799
  3107  0ED4                     _PSMC3CLK	set	3796
  3108  0ED1                     _PSMC3CON	set	3793
  3109  0EEA                     _PSMC3DBF	set	3818
  3110  0EE9                     _PSMC3DBR	set	3817
  3111  0EE4                     _PSMC3DCH	set	3812
  3112  0EE3                     _PSMC3DCL	set	3811
  3113  0EDB                     _PSMC3DCS	set	3803
  3114  0ED9                     _PSMC3FEBS	set	3801
  3115  0EED                     _PSMC3FFA	set	3821
  3116  0EE0                     _PSMC3INT	set	3808
  3117  0ED2                     _PSMC3MDL	set	3794
  3118  0ED5                     _PSMC3OEN	set	3797
  3119  0EE2                     _PSMC3PHH	set	3810
  3120  0EE1                     _PSMC3PHL	set	3809
  3121  0EDA                     _PSMC3PHS	set	3802
  3122  0ED6                     _PSMC3POL	set	3798
  3123  0EE6                     _PSMC3PRH	set	3814
  3124  0EE5                     _PSMC3PRL	set	3813
  3125  0EDC                     _PSMC3PRS	set	3804
  3126  0ED8                     _PSMC3REBS	set	3800
  3127  0EEE                     _PSMC3STR0	set	3822
  3128  0EEF                     _PSMC3STR1	set	3823
  3129  0ED3                     _PSMC3SYNC	set	3795
  3130  7495                     _P1MDLBIT	set	29845
  3131  758E                     _PSMC2LD	set	30094
  3132  768E                     _PSMC3LD	set	30350
  3133  0F1D                     _PSMC4ASDC	set	3869
  3134  0F1E                     _PSMC4ASDL	set	3870
  3135  0F1F                     _PSMC4ASDS	set	3871
  3136  0F2C                     _PSMC4BLKF	set	3884
  3137  0F2B                     _PSMC4BLKR	set	3883
  3138  0F17                     _PSMC4BLNK	set	3863
  3139  0F14                     _PSMC4CLK	set	3860
  3140  0F11                     _PSMC4CON	set	3857
  3141  0F2A                     _PSMC4DBF	set	3882
  3142  0F29                     _PSMC4DBR	set	3881
  3143  0F24                     _PSMC4DCH	set	3876
  3144  0F23                     _PSMC4DCL	set	3875
  3145  0F1B                     _PSMC4DCS	set	3867
  3146  0F19                     _PSMC4FEBS	set	3865
  3147  0F2D                     _PSMC4FFA	set	3885
  3148  0F20                     _PSMC4INT	set	3872
  3149  0F12                     _PSMC4MDL	set	3858
  3150  0F15                     _PSMC4OEN	set	3861
  3151  0F22                     _PSMC4PHH	set	3874
  3152  0F21                     _PSMC4PHL	set	3873
  3153  0F1A                     _PSMC4PHS	set	3866
  3154  0F16                     _PSMC4POL	set	3862
  3155  0F26                     _PSMC4PRH	set	3878
  3156  0F25                     _PSMC4PRL	set	3877
  3157  0F1C                     _PSMC4PRS	set	3868
  3158  0F18                     _PSMC4REBS	set	3864
  3159  0F2E                     _PSMC4STR0	set	3886
  3160  0F2F                     _PSMC4STR1	set	3887
  3161  0F13                     _PSMC4SYNC	set	3859
  3162  788E                     _PSMC4LD	set	30862
  3163  2006                     STR_3:	
  3164  2006  340A               	retlw	10
  3165  2007  340D               	retlw	13
  3166  2008  3447               	retlw	71	;'G'
  3167  2009  346F               	retlw	111	;'o'
  3168  200A  346F               	retlw	111	;'o'
  3169  200B  3464               	retlw	100	;'d'
  3170  200C  3420               	retlw	32	;' '
  3171  200D  346A               	retlw	106	;'j'
  3172  200E  346F               	retlw	111	;'o'
  3173  200F  3462               	retlw	98	;'b'
  3174  2010  342E               	retlw	46	;'.'
  3175  2011  3420               	retlw	32	;' '
  3176  2012  3459               	retlw	89	;'Y'
  3177  2013  346F               	retlw	111	;'o'
  3178  2014  3475               	retlw	117	;'u'
  3179  2015  3420               	retlw	32	;' '
  3180  2016  346B               	retlw	107	;'k'
  3181  2017  346E               	retlw	110	;'n'
  3182  2018  346F               	retlw	111	;'o'
  3183  2019  3477               	retlw	119	;'w'
  3184  201A  3420               	retlw	32	;' '
  3185  201B  3468               	retlw	104	;'h'
  3186  201C  346F               	retlw	111	;'o'
  3187  201D  3477               	retlw	119	;'w'
  3188  201E  3420               	retlw	32	;' '
  3189  201F  3474               	retlw	116	;'t'
  3190  2020  346F               	retlw	111	;'o'
  3191  2021  3420               	retlw	32	;' '
  3192  2022  3472               	retlw	114	;'r'
  3193  2023  3465               	retlw	101	;'e'
  3194  2024  3461               	retlw	97	;'a'
  3195  2025  3464               	retlw	100	;'d'
  3196  2026  3420               	retlw	32	;' '
  3197  2027  3469               	retlw	105	;'i'
  3198  2028  346E               	retlw	110	;'n'
  3199  2029  3473               	retlw	115	;'s'
  3200  202A  3474               	retlw	116	;'t'
  3201  202B  3472               	retlw	114	;'r'
  3202  202C  3475               	retlw	117	;'u'
  3203  202D  3463               	retlw	99	;'c'
  3204  202E  3474               	retlw	116	;'t'
  3205  202F  3469               	retlw	105	;'i'
  3206  2030  346F               	retlw	111	;'o'
  3207  2031  346E               	retlw	110	;'n'
  3208  2032  3473               	retlw	115	;'s'
  3209  2033  342E               	retlw	46	;'.'
  3210  2034  340A               	retlw	10
  3211  2035  340A               	retlw	10
  3212  2036  3400               	retlw	0
  3213  2037                     STR_2:	
  3214  2037  3450               	retlw	80	;'P'
  3215  2038  346C               	retlw	108	;'l'
  3216  2039  3465               	retlw	101	;'e'
  3217  203A  3461               	retlw	97	;'a'
  3218  203B  3473               	retlw	115	;'s'
  3219  203C  3465               	retlw	101	;'e'
  3220  203D  3420               	retlw	32	;' '
  3221  203E  3465               	retlw	101	;'e'
  3222  203F  346E               	retlw	110	;'n'
  3223  2040  3474               	retlw	116	;'t'
  3224  2041  3465               	retlw	101	;'e'
  3225  2042  3472               	retlw	114	;'r'
  3226  2043  3420               	retlw	32	;' '
  3227  2044  3474               	retlw	116	;'t'
  3228  2045  3468               	retlw	104	;'h'
  3229  2046  3465               	retlw	101	;'e'
  3230  2047  3420               	retlw	32	;' '
  3231  2048  3463               	retlw	99	;'c'
  3232  2049  3468               	retlw	104	;'h'
  3233  204A  3461               	retlw	97	;'a'
  3234  204B  3472               	retlw	114	;'r'
  3235  204C  3461               	retlw	97	;'a'
  3236  204D  3463               	retlw	99	;'c'
  3237  204E  3474               	retlw	116	;'t'
  3238  204F  3465               	retlw	101	;'e'
  3239  2050  3472               	retlw	114	;'r'
  3240  2051  3420               	retlw	32	;' '
  3241  2052  3441               	retlw	65	;'A'
  3242  2053  343A               	retlw	58	;':'
  3243  2054  3420               	retlw	32	;' '
  3244  2055  3400               	retlw	0
  3245  2056                     STR_4:	
  3246  2056  340A               	retlw	10
  3247  2057  340D               	retlw	13
  3248  2058  3457               	retlw	87	;'W'
  3249  2059  3472               	retlw	114	;'r'
  3250  205A  346F               	retlw	111	;'o'
  3251  205B  346E               	retlw	110	;'n'
  3252  205C  3467               	retlw	103	;'g'
  3253  205D  3420               	retlw	32	;' '
  3254  205E  346B               	retlw	107	;'k'
  3255  205F  3465               	retlw	101	;'e'
  3256  2060  3479               	retlw	121	;'y'
  3257  2061  342E               	retlw	46	;'.'
  3258  2062  3420               	retlw	32	;' '
  3259  2063  3454               	retlw	84	;'T'
  3260  2064  3472               	retlw	114	;'r'
  3261  2065  3479               	retlw	121	;'y'
  3262  2066  3420               	retlw	32	;' '
  3263  2067  3461               	retlw	97	;'a'
  3264  2068  3467               	retlw	103	;'g'
  3265  2069  3461               	retlw	97	;'a'
  3266  206A  3469               	retlw	105	;'i'
  3267  206B  346E               	retlw	110	;'n'
  3268  206C  342E               	retlw	46	;'.'
  3269  206D  340A               	retlw	10
  3270  206E  340D               	retlw	13
  3271  206F  3400               	retlw	0
  3272  2070                     STR_1:	
  3273  2070  340A               	retlw	10
  3274  2071  340D               	retlw	13
  3275  2072  344D               	retlw	77	;'M'
  3276  2073  3461               	retlw	97	;'a'
  3277  2074  3469               	retlw	105	;'i'
  3278  2075  346E               	retlw	110	;'n'
  3279  2076  3420               	retlw	32	;' '
  3280  2077  344C               	retlw	76	;'L'
  3281  2078  346F               	retlw	111	;'o'
  3282  2079  346F               	retlw	111	;'o'
  3283  207A  3470               	retlw	112	;'p'
  3284  207B  3420               	retlw	32	;' '
  3285  207C  3449               	retlw	73	;'I'
  3286  207D  346E               	retlw	110	;'n'
  3287  207E  3464               	retlw	100	;'d'
  3288  207F  3469               	retlw	105	;'i'
  3289  2080  3476               	retlw	118	;'v'
  3290  2081  3469               	retlw	105	;'i'
  3291  2082  3464               	retlw	100	;'d'
  3292  2083  3475               	retlw	117	;'u'
  3293  2084  3461               	retlw	97	;'a'
  3294  2085  346C               	retlw	108	;'l'
  3295  2086  340A               	retlw	10
  3296  2087  340D               	retlw	13
  3297  2088  3400               	retlw	0
  3298                           
  3299                           ; #config settings
  3300  0000                     
  3301                           	psect	cinit
  3302  0178                     start_initialization:	
  3303  0178                     __initialization:	
  3304                           
  3305                           ; Clear objects allocated to BANK0
  3306  0178  01C8               	clrf	__pbssBANK0& (0+127)
  3307  0179  01C9               	clrf	(__pbssBANK0+1)& (0+127)
  3308  017A  01CA               	clrf	(__pbssBANK0+2)& (0+127)
  3309  017B  01CB               	clrf	(__pbssBANK0+3)& (0+127)
  3310  017C  01CC               	clrf	(__pbssBANK0+4)& (0+127)
  3311  017D  01CD               	clrf	(__pbssBANK0+5)& (0+127)
  3312  017E  01CE               	clrf	(__pbssBANK0+6)& (0+127)
  3313  017F  01CF               	clrf	(__pbssBANK0+7)& (0+127)
  3314                           
  3315                           ; Clear objects allocated to BANK1
  3316  0180  0021               	movlb	1	; select bank1
  3317  0181  01C0               	clrf	__pbssBANK1& (0+127)
  3318  0182  01C1               	clrf	(__pbssBANK1+1)& (0+127)
  3319  0183  01C2               	clrf	(__pbssBANK1+2)& (0+127)
  3320  0184  01C3               	clrf	(__pbssBANK1+3)& (0+127)
  3321  0185  01C4               	clrf	(__pbssBANK1+4)& (0+127)
  3322                           
  3323                           ; Initialize objects allocated to BANK1
  3324  0186  3180  2003         	fcall	__pidataBANK1	;fetch initializer
  3325  0188  00C5               	movwf	__pdataBANK1& (0+127)
  3326  0189                     end_of_initialization:	
  3327                           ;End of C runtime variable initialization code
  3328                           
  3329  0189                     __end_of__initialization:	
  3330  0189  107E               	bcf	int$flags,0	;clear compiler interrupt flag (level 1)
  3331  018A  0020               	movlb	0
  3332  018B  3194  2CE2         	ljmp	_main	;jump to C main() function
  3333                           
  3334                           	psect	bssBANK0
  3335  0048                     __pbssBANK0:	
  3336  0048                     _D1cycles:	
  3337  0048                     	ds	2
  3338  004A                     _D2cycles:	
  3339  004A                     	ds	2
  3340  004C                     _Davgcycles:	
  3341  004C                     	ds	2
  3342  004E                     _numPackets:	
  3343  004E                     	ds	2
  3344                           
  3345                           	psect	bssBANK1
  3346  00C0                     __pbssBANK1:	
  3347  00C0                     main@F7258:	
  3348  00C0                     	ds	3
  3349  00C3                     _damage_received:	
  3350  00C3                     	ds	1
  3351  00C4                     _stun_counter:	
  3352  00C4                     	ds	1
  3353                           
  3354                           	psect	dataBANK1
  3355  00C5                     __pdataBANK1:	
  3356  00C5                     _health:	
  3357  00C5                     	ds	1
  3358                           
  3359                           	psect	cstackBANK1
  3360  00A0                     __pcstackBANK1:	
  3361  00A0                     determine_sword_was_swung@xh:	
  3362  00A0                     led1_command@brightness:	
  3363                           ; 1 bytes @ 0x0
  3364                           
  3365  00A0                     led2_command@brightness:	
  3366                           ; 1 bytes @ 0x0
  3367                           
  3368  00A0                     led3_command@brightness:	
  3369                           ; 1 bytes @ 0x0
  3370                           
  3371  00A0                     led4_command@brightness:	
  3372                           ; 1 bytes @ 0x0
  3373                           
  3374  00A0                     led5_command@brightness:	
  3375                           ; 1 bytes @ 0x0
  3376                           
  3377  00A0                     led6_command@brightness:	
  3378                           ; 1 bytes @ 0x0
  3379                           
  3380  00A0                     led7_command@brightness:	
  3381                           ; 1 bytes @ 0x0
  3382                           
  3383  00A0                     output_ir@i:	
  3384                           ; 1 bytes @ 0x0
  3385                           
  3386  00A0                     leds_off@i:	
  3387                           ; 2 bytes @ 0x0
  3388                           
  3389                           
  3390                           ; 2 bytes @ 0x0
  3391  00A0                     	ds	1
  3392  00A1                     determine_sword_was_swung@yh:	
  3393  00A1                     led1_command@i:	
  3394                           ; 1 bytes @ 0x1
  3395                           
  3396  00A1                     led2_command@i:	
  3397                           ; 2 bytes @ 0x1
  3398                           
  3399  00A1                     led3_command@i:	
  3400                           ; 2 bytes @ 0x1
  3401                           
  3402  00A1                     led4_command@i:	
  3403                           ; 2 bytes @ 0x1
  3404                           
  3405  00A1                     led5_command@i:	
  3406                           ; 2 bytes @ 0x1
  3407                           
  3408  00A1                     led6_command@i:	
  3409                           ; 2 bytes @ 0x1
  3410                           
  3411  00A1                     led7_command@i:	
  3412                           ; 2 bytes @ 0x1
  3413                           
  3414                           
  3415                           ; 2 bytes @ 0x1
  3416  00A1                     	ds	1
  3417  00A2                     determine_sword_was_swung@zh:	
  3418  00A2                     output_ir@i_336:	
  3419                           ; 1 bytes @ 0x2
  3420                           
  3421  00A2                     leds_off@i_720:	
  3422                           ; 2 bytes @ 0x2
  3423                           
  3424                           
  3425                           ; 2 bytes @ 0x2
  3426  00A2                     	ds	1
  3427  00A3                     determine_sword_was_swung@xl:	
  3428  00A3                     led1_command@i_675:	
  3429                           ; 1 bytes @ 0x3
  3430                           
  3431  00A3                     led2_command@i_682:	
  3432                           ; 2 bytes @ 0x3
  3433                           
  3434  00A3                     led3_command@i_689:	
  3435                           ; 2 bytes @ 0x3
  3436                           
  3437  00A3                     led4_command@i_696:	
  3438                           ; 2 bytes @ 0x3
  3439                           
  3440  00A3                     led5_command@i_703:	
  3441                           ; 2 bytes @ 0x3
  3442                           
  3443  00A3                     led6_command@i_710:	
  3444                           ; 2 bytes @ 0x3
  3445                           
  3446  00A3                     led7_command@i_717:	
  3447                           ; 2 bytes @ 0x3
  3448                           
  3449                           
  3450                           ; 2 bytes @ 0x3
  3451  00A3                     	ds	1
  3452  00A4                     determine_sword_was_swung@yl:	
  3453  00A4                     output_ir@i_337:	
  3454                           ; 1 bytes @ 0x4
  3455                           
  3456                           
  3457                           ; 2 bytes @ 0x4
  3458  00A4                     	ds	1
  3459  00A5                     ??_display_blade_lights:	
  3460  00A5                     determine_sword_was_swung@zl:	
  3461                           ; 0 bytes @ 0x5
  3462                           
  3463                           
  3464                           ; 1 bytes @ 0x5
  3465  00A5                     	ds	1
  3466  00A6                     output_ir@pkt_type:	
  3467  00A6                     determine_sword_was_swung@x_pos_thresh:	
  3468                           ; 1 bytes @ 0x6
  3469                           
  3470                           
  3471                           ; 2 bytes @ 0x6
  3472  00A6                     	ds	2
  3473  00A8                     determine_sword_was_swung@x_neg_thresh:	
  3474  00A8                     display_blade_lights@i_638:	
  3475                           ; 2 bytes @ 0x8
  3476                           
  3477                           
  3478                           ; 2 bytes @ 0x8
  3479  00A8                     	ds	2
  3480  00AA                     determine_sword_was_swung@y_pos_thresh:	
  3481  00AA                     display_blade_lights@i_639:	
  3482                           ; 2 bytes @ 0xA
  3483                           
  3484                           
  3485                           ; 2 bytes @ 0xA
  3486  00AA                     	ds	2
  3487  00AC                     determine_sword_was_swung@y_neg_thresh:	
  3488  00AC                     display_blade_lights@i_641:	
  3489                           ; 2 bytes @ 0xC
  3490                           
  3491                           
  3492                           ; 2 bytes @ 0xC
  3493  00AC                     	ds	2
  3494  00AE                     determine_sword_was_swung@z_pos_thresh:	
  3495  00AE                     display_blade_lights@i_642:	
  3496                           ; 2 bytes @ 0xE
  3497                           
  3498                           
  3499                           ; 2 bytes @ 0xE
  3500  00AE                     	ds	2
  3501  00B0                     display_blade_lights@i:	
  3502  00B0                     determine_sword_was_swung@z_neg_thresh:	
  3503                           ; 1 bytes @ 0x10
  3504                           
  3505                           
  3506                           ; 2 bytes @ 0x10
  3507  00B0                     	ds	1
  3508  00B1                     display_blade_lights@i_643:	
  3509                           
  3510                           ; 1 bytes @ 0x11
  3511  00B1                     	ds	1
  3512  00B2                     display_blade_lights@mode:	
  3513  00B2                     determine_sword_was_swung@x:	
  3514                           ; 1 bytes @ 0x12
  3515                           
  3516                           
  3517                           ; 2 bytes @ 0x12
  3518  00B2                     	ds	1
  3519  00B3                     display_blade_lights@r:	
  3520                           
  3521                           ; 1 bytes @ 0x13
  3522  00B3                     	ds	1
  3523  00B4                     display_blade_lights@r_640:	
  3524  00B4                     determine_sword_was_swung@y:	
  3525                           ; 1 bytes @ 0x14
  3526                           
  3527                           
  3528                           ; 2 bytes @ 0x14
  3529  00B4                     	ds	1
  3530  00B5                     display_blade_lights@brightness:	
  3531                           
  3532                           ; 1 bytes @ 0x15
  3533  00B5                     	ds	1
  3534  00B6                     display_blade_lights@red:	
  3535  00B6                     determine_sword_was_swung@z:	
  3536                           ; 1 bytes @ 0x16
  3537                           
  3538                           
  3539                           ; 2 bytes @ 0x16
  3540  00B6                     	ds	1
  3541  00B7                     display_blade_lights@green:	
  3542                           
  3543                           ; 1 bytes @ 0x17
  3544  00B7                     	ds	1
  3545  00B8                     display_blade_lights@blue:	
  3546                           
  3547                           ; 1 bytes @ 0x18
  3548  00B8                     	ds	1
  3549  00B9                     ??_main:	
  3550                           
  3551                           ; 0 bytes @ 0x19
  3552  00B9                     	ds	3
  3553  00BC                     main@pkt_arr:	
  3554                           
  3555                           ; 3 bytes @ 0x1C
  3556  00BC                     	ds	3
  3557  00BF                     main@i:	
  3558                           
  3559                           ; 1 bytes @ 0x1F
  3560  00BF                     	ds	1
  3561                           
  3562                           	psect	cstackCOMMON
  3563  0070                     __pcstackCOMMON:	
  3564  0070                     ?_init_pic:	
  3565  0070                     ?_init_ir:	
  3566                           ; 0 bytes @ 0x0
  3567                           
  3568  0070                     ?_init_accel:	
  3569                           ; 0 bytes @ 0x0
  3570                           
  3571  0070                     ?_init_leds:	
  3572                           ; 0 bytes @ 0x0
  3573                           
  3574  0070                     ?_init_isr:	
  3575                           ; 0 bytes @ 0x0
  3576                           
  3577  0070                     ?_init_conn:	
  3578                           ; 0 bytes @ 0x0
  3579                           
  3580  0070                     ?_display_health:	
  3581                           ; 0 bytes @ 0x0
  3582                           
  3583  0070                     ?_display_blade_lights:	
  3584                           ; 0 bytes @ 0x0
  3585                           
  3586  0070                     ?_determine_packets_to_send:	
  3587                           ; 0 bytes @ 0x0
  3588                           
  3589  0070                     ?_leds_off:	
  3590                           ; 0 bytes @ 0x0
  3591                           
  3592  0070                     ?_writespi:	
  3593                           ; 0 bytes @ 0x0
  3594                           
  3595  0070                     ?_isr:	
  3596                           ; 0 bytes @ 0x0
  3597                           
  3598  0070                     ??i1_determine_omega_mode_active:	
  3599                           ; 0 bytes @ 0x0
  3600                           
  3601  0070                     ?i1_display_health:	
  3602                           ; 0 bytes @ 0x0
  3603                           
  3604  0070                     ??i1_display_health:	
  3605                           ; 0 bytes @ 0x0
  3606                           
  3607  0070                     ?i1_display_blade_lights:	
  3608                           ; 0 bytes @ 0x0
  3609                           
  3610  0070                     ?i1_writespi:	
  3611                           ; 0 bytes @ 0x0
  3612                           
  3613  0070                     ??i1_writespi:	
  3614                           ; 0 bytes @ 0x0
  3615                           
  3616  0070                     ?i1_leds_off:	
  3617                           ; 0 bytes @ 0x0
  3618                           
  3619  0070                     ?_determine_sword_was_swung:	
  3620                           ; 0 bytes @ 0x0
  3621                           
  3622  0070                     ?_determine_omega_mode_active:	
  3623                           ; 1 bytes @ 0x0
  3624                           
  3625  0070                     ?i1_determine_omega_mode_active:	
  3626                           ; 1 bytes @ 0x0
  3627                           
  3628  0070                     ?_main:	
  3629                           ; 1 bytes @ 0x0
  3630                           
  3631  0070                     ?___awdiv:	
  3632                           ; 2 bytes @ 0x0
  3633                           
  3634  0070                     ?___ftpack:	
  3635                           ; 2 bytes @ 0x0
  3636                           
  3637  0070                     ___awdiv@divisor:	
  3638                           ; 3 bytes @ 0x0
  3639                           
  3640  0070                     ___ftpack@arg:	
  3641                           ; 2 bytes @ 0x0
  3642                           
  3643                           
  3644                           ; 3 bytes @ 0x0
  3645  0070                     	ds	1
  3646  0071                     i1writespi@TempVar:	
  3647                           
  3648                           ; 1 bytes @ 0x1
  3649  0071                     	ds	1
  3650  0072                     i1writespi@data_out:	
  3651  0072                     ___awdiv@dividend:	
  3652                           ; 1 bytes @ 0x2
  3653                           
  3654                           
  3655                           ; 2 bytes @ 0x2
  3656  0072                     	ds	1
  3657  0073                     ?i1_led1_command:	
  3658  0073                     ?i1_led2_command:	
  3659                           ; 0 bytes @ 0x3
  3660                           
  3661  0073                     ?i1_led3_command:	
  3662                           ; 0 bytes @ 0x3
  3663                           
  3664  0073                     ?i1_led4_command:	
  3665                           ; 0 bytes @ 0x3
  3666                           
  3667  0073                     ?i1_led5_command:	
  3668                           ; 0 bytes @ 0x3
  3669                           
  3670  0073                     ?i1_led6_command:	
  3671                           ; 0 bytes @ 0x3
  3672                           
  3673  0073                     ?i1_led7_command:	
  3674                           ; 0 bytes @ 0x3
  3675                           
  3676  0073                     ??i1_leds_off:	
  3677                           ; 0 bytes @ 0x3
  3678                           
  3679  0073                     ___ftpack@exp:	
  3680                           ; 0 bytes @ 0x3
  3681                           
  3682  0073                     i1led1_command@red:	
  3683                           ; 1 bytes @ 0x3
  3684                           
  3685  0073                     i1led2_command@red:	
  3686                           ; 1 bytes @ 0x3
  3687                           
  3688  0073                     i1led3_command@red:	
  3689                           ; 1 bytes @ 0x3
  3690                           
  3691  0073                     i1led4_command@red:	
  3692                           ; 1 bytes @ 0x3
  3693                           
  3694  0073                     i1led5_command@red:	
  3695                           ; 1 bytes @ 0x3
  3696                           
  3697  0073                     i1led6_command@red:	
  3698                           ; 1 bytes @ 0x3
  3699                           
  3700  0073                     i1led7_command@red:	
  3701                           ; 1 bytes @ 0x3
  3702                           
  3703                           
  3704                           ; 1 bytes @ 0x3
  3705  0073                     	ds	1
  3706  0074                     ??___awdiv:	
  3707  0074                     ___ftpack@sign:	
  3708                           ; 0 bytes @ 0x4
  3709                           
  3710  0074                     i1led1_command@green:	
  3711                           ; 1 bytes @ 0x4
  3712                           
  3713  0074                     i1led2_command@green:	
  3714                           ; 1 bytes @ 0x4
  3715                           
  3716  0074                     i1led3_command@green:	
  3717                           ; 1 bytes @ 0x4
  3718                           
  3719  0074                     i1led4_command@green:	
  3720                           ; 1 bytes @ 0x4
  3721                           
  3722  0074                     i1led5_command@green:	
  3723                           ; 1 bytes @ 0x4
  3724                           
  3725  0074                     i1led6_command@green:	
  3726                           ; 1 bytes @ 0x4
  3727                           
  3728  0074                     i1led7_command@green:	
  3729                           ; 1 bytes @ 0x4
  3730                           
  3731                           
  3732                           ; 1 bytes @ 0x4
  3733  0074                     	ds	1
  3734  0075                     ??___ftpack:	
  3735  0075                     ___awdiv@counter:	
  3736                           ; 0 bytes @ 0x5
  3737                           
  3738  0075                     i1led1_command@blue:	
  3739                           ; 1 bytes @ 0x5
  3740                           
  3741  0075                     i1led2_command@blue:	
  3742                           ; 1 bytes @ 0x5
  3743                           
  3744  0075                     i1led3_command@blue:	
  3745                           ; 1 bytes @ 0x5
  3746                           
  3747  0075                     i1led4_command@blue:	
  3748                           ; 1 bytes @ 0x5
  3749                           
  3750  0075                     i1led5_command@blue:	
  3751                           ; 1 bytes @ 0x5
  3752                           
  3753  0075                     i1led6_command@blue:	
  3754                           ; 1 bytes @ 0x5
  3755                           
  3756  0075                     i1led7_command@blue:	
  3757                           ; 1 bytes @ 0x5
  3758                           
  3759  0075                     i1leds_off@i:	
  3760                           ; 1 bytes @ 0x5
  3761                           
  3762                           
  3763                           ; 2 bytes @ 0x5
  3764  0075                     	ds	1
  3765  0076                     ??i1_led1_command:	
  3766  0076                     ??i1_led2_command:	
  3767                           ; 0 bytes @ 0x6
  3768                           
  3769  0076                     ??i1_led3_command:	
  3770                           ; 0 bytes @ 0x6
  3771                           
  3772  0076                     ??i1_led4_command:	
  3773                           ; 0 bytes @ 0x6
  3774                           
  3775  0076                     ??i1_led5_command:	
  3776                           ; 0 bytes @ 0x6
  3777                           
  3778  0076                     ??i1_led6_command:	
  3779                           ; 0 bytes @ 0x6
  3780                           
  3781  0076                     ??i1_led7_command:	
  3782                           ; 0 bytes @ 0x6
  3783                           
  3784  0076                     ___awdiv@sign:	
  3785                           ; 0 bytes @ 0x6
  3786                           
  3787                           
  3788                           ; 1 bytes @ 0x6
  3789  0076                     	ds	1
  3790  0077                     ___awdiv@quotient:	
  3791  0077                     i1leds_off@i_720:	
  3792                           ; 2 bytes @ 0x7
  3793                           
  3794                           
  3795                           ; 2 bytes @ 0x7
  3796  0077                     	ds	1
  3797  0078                     ?___awtoft:	
  3798  0078                     i1led1_command@brightness:	
  3799                           ; 3 bytes @ 0x8
  3800                           
  3801  0078                     i1led2_command@brightness:	
  3802                           ; 1 bytes @ 0x8
  3803                           
  3804  0078                     i1led3_command@brightness:	
  3805                           ; 1 bytes @ 0x8
  3806                           
  3807  0078                     i1led4_command@brightness:	
  3808                           ; 1 bytes @ 0x8
  3809                           
  3810  0078                     i1led5_command@brightness:	
  3811                           ; 1 bytes @ 0x8
  3812                           
  3813  0078                     i1led6_command@brightness:	
  3814                           ; 1 bytes @ 0x8
  3815                           
  3816  0078                     i1led7_command@brightness:	
  3817                           ; 1 bytes @ 0x8
  3818                           
  3819  0078                     ___awtoft@c:	
  3820                           ; 1 bytes @ 0x8
  3821                           
  3822                           
  3823                           ; 2 bytes @ 0x8
  3824  0078                     	ds	1
  3825  0079                     i1led1_command@i:	
  3826  0079                     i1led2_command@i:	
  3827                           ; 2 bytes @ 0x9
  3828                           
  3829  0079                     i1led3_command@i:	
  3830                           ; 2 bytes @ 0x9
  3831                           
  3832  0079                     i1led4_command@i:	
  3833                           ; 2 bytes @ 0x9
  3834                           
  3835  0079                     i1led5_command@i:	
  3836                           ; 2 bytes @ 0x9
  3837                           
  3838  0079                     i1led6_command@i:	
  3839                           ; 2 bytes @ 0x9
  3840                           
  3841  0079                     i1led7_command@i:	
  3842                           ; 2 bytes @ 0x9
  3843                           
  3844                           
  3845                           ; 2 bytes @ 0x9
  3846  0079                     	ds	2
  3847  007B                     ??___awtoft:	
  3848  007B                     i1led1_command@i_675:	
  3849                           ; 0 bytes @ 0xB
  3850                           
  3851  007B                     i1led2_command@i_682:	
  3852                           ; 2 bytes @ 0xB
  3853                           
  3854  007B                     i1led3_command@i_689:	
  3855                           ; 2 bytes @ 0xB
  3856                           
  3857  007B                     i1led4_command@i_696:	
  3858                           ; 2 bytes @ 0xB
  3859                           
  3860  007B                     i1led5_command@i_703:	
  3861                           ; 2 bytes @ 0xB
  3862                           
  3863  007B                     i1led6_command@i_710:	
  3864                           ; 2 bytes @ 0xB
  3865                           
  3866  007B                     i1led7_command@i_717:	
  3867                           ; 2 bytes @ 0xB
  3868                           
  3869                           
  3870                           ; 2 bytes @ 0xB
  3871  007B                     	ds	2
  3872  007D                     ___awtoft@sign:	
  3873                           
  3874                           ; 1 bytes @ 0xD
  3875  007D                     	ds	1
  3876                           
  3877                           	psect	cstackBANK0
  3878  0020                     __pcstackBANK0:	
  3879  0020                     ??i1_display_blade_lights:	
  3880  0020                     ?___ftmul:	
  3881                           ; 0 bytes @ 0x0
  3882                           
  3883  0020                     ___ftmul@f1:	
  3884                           ; 3 bytes @ 0x0
  3885                           
  3886                           
  3887                           ; 3 bytes @ 0x0
  3888  0020                     	ds	3
  3889  0023                     i1display_blade_lights@mode:	
  3890  0023                     ___ftmul@f2:	
  3891                           ; 1 bytes @ 0x3
  3892                           
  3893                           
  3894                           ; 3 bytes @ 0x3
  3895  0023                     	ds	1
  3896  0024                     i1display_blade_lights@i_638:	
  3897                           
  3898                           ; 2 bytes @ 0x4
  3899  0024                     	ds	2
  3900  0026                     ??___ftmul:	
  3901  0026                     i1display_blade_lights@i_639:	
  3902                           ; 0 bytes @ 0x6
  3903                           
  3904                           
  3905                           ; 2 bytes @ 0x6
  3906  0026                     	ds	2
  3907  0028                     i1display_blade_lights@i_641:	
  3908                           
  3909                           ; 2 bytes @ 0x8
  3910  0028                     	ds	2
  3911  002A                     ___ftmul@exp:	
  3912  002A                     i1display_blade_lights@i_642:	
  3913                           ; 1 bytes @ 0xA
  3914                           
  3915                           
  3916                           ; 2 bytes @ 0xA
  3917  002A                     	ds	1
  3918  002B                     ___ftmul@f3_as_product:	
  3919                           
  3920                           ; 3 bytes @ 0xB
  3921  002B                     	ds	1
  3922  002C                     i1display_blade_lights@i:	
  3923                           
  3924                           ; 1 bytes @ 0xC
  3925  002C                     	ds	1
  3926  002D                     i1display_blade_lights@i_643:	
  3927                           
  3928                           ; 1 bytes @ 0xD
  3929  002D                     	ds	1
  3930  002E                     ___ftmul@cntr:	
  3931  002E                     i1display_blade_lights@r:	
  3932                           ; 1 bytes @ 0xE
  3933                           
  3934                           
  3935                           ; 1 bytes @ 0xE
  3936  002E                     	ds	1
  3937  002F                     ___ftmul@sign:	
  3938  002F                     i1display_blade_lights@r_640:	
  3939                           ; 1 bytes @ 0xF
  3940                           
  3941                           
  3942                           ; 1 bytes @ 0xF
  3943  002F                     	ds	1
  3944  0030                     ?___ftge:	
  3945  0030                     ?___fttol:	
  3946                           ; 1 bit 
  3947                           
  3948  0030                     i1display_blade_lights@brightness:	
  3949                           ; 4 bytes @ 0x10
  3950                           
  3951  0030                     ___ftge@ff1:	
  3952                           ; 1 bytes @ 0x10
  3953                           
  3954  0030                     ___fttol@f1:	
  3955                           ; 3 bytes @ 0x10
  3956                           
  3957                           
  3958                           ; 3 bytes @ 0x10
  3959  0030                     	ds	1
  3960  0031                     i1display_blade_lights@red:	
  3961                           
  3962                           ; 1 bytes @ 0x11
  3963  0031                     	ds	1
  3964  0032                     i1display_blade_lights@green:	
  3965                           
  3966                           ; 1 bytes @ 0x12
  3967  0032                     	ds	1
  3968  0033                     i1display_blade_lights@blue:	
  3969  0033                     ___ftge@ff2:	
  3970                           ; 1 bytes @ 0x13
  3971                           
  3972                           
  3973                           ; 3 bytes @ 0x13
  3974  0033                     	ds	1
  3975  0034                     ??___fttol:	
  3976                           
  3977                           ; 0 bytes @ 0x14
  3978  0034                     	ds	2
  3979  0036                     ??___ftge:	
  3980                           
  3981                           ; 0 bytes @ 0x16
  3982  0036                     	ds	2
  3983  0038                     ___fttol@sign1:	
  3984                           
  3985                           ; 1 bytes @ 0x18
  3986  0038                     	ds	1
  3987  0039                     ___fttol@lval:	
  3988                           
  3989                           ; 4 bytes @ 0x19
  3990  0039                     	ds	4
  3991  003D                     ___fttol@exp1:	
  3992                           
  3993                           ; 1 bytes @ 0x1D
  3994  003D                     	ds	1
  3995  003E                     ??_isr:	
  3996                           
  3997                           ; 0 bytes @ 0x1E
  3998  003E                     	ds	2
  3999  0040                     ??_init_pic:	
  4000  0040                     ??_init_ir:	
  4001                           ; 0 bytes @ 0x20
  4002                           
  4003  0040                     ??_init_accel:	
  4004                           ; 0 bytes @ 0x20
  4005                           
  4006  0040                     ??_init_isr:	
  4007                           ; 0 bytes @ 0x20
  4008                           
  4009  0040                     ??_init_conn:	
  4010                           ; 0 bytes @ 0x20
  4011                           
  4012  0040                     ??_display_health:	
  4013                           ; 0 bytes @ 0x20
  4014                           
  4015  0040                     ??_determine_sword_was_swung:	
  4016                           ; 0 bytes @ 0x20
  4017                           
  4018  0040                     ??_determine_omega_mode_active:	
  4019                           ; 0 bytes @ 0x20
  4020                           
  4021  0040                     ??_determine_packets_to_send:	
  4022                           ; 0 bytes @ 0x20
  4023                           
  4024  0040                     ?_output_ir:	
  4025                           ; 0 bytes @ 0x20
  4026                           
  4027  0040                     ??_writespi:	
  4028                           ; 0 bytes @ 0x20
  4029                           
  4030  0040                     output_ir@amount:	
  4031                           ; 0 bytes @ 0x20
  4032                           
  4033                           
  4034                           ; 1 bytes @ 0x20
  4035  0040                     	ds	1
  4036  0041                     ??_output_ir:	
  4037  0041                     determine_packets_to_send@packets:	
  4038                           ; 0 bytes @ 0x21
  4039                           
  4040  0041                     writespi@TempVar:	
  4041                           ; 1 bytes @ 0x21
  4042                           
  4043                           
  4044                           ; 1 bytes @ 0x21
  4045  0041                     	ds	1
  4046  0042                     writespi@data_out:	
  4047                           
  4048                           ; 1 bytes @ 0x22
  4049  0042                     	ds	1
  4050  0043                     ??_leds_off:	
  4051  0043                     ?_led7_command:	
  4052                           ; 0 bytes @ 0x23
  4053                           
  4054  0043                     ?_led6_command:	
  4055                           ; 0 bytes @ 0x23
  4056                           
  4057  0043                     ?_led5_command:	
  4058                           ; 0 bytes @ 0x23
  4059                           
  4060  0043                     ?_led4_command:	
  4061                           ; 0 bytes @ 0x23
  4062                           
  4063  0043                     ?_led3_command:	
  4064                           ; 0 bytes @ 0x23
  4065                           
  4066  0043                     ?_led2_command:	
  4067                           ; 0 bytes @ 0x23
  4068                           
  4069  0043                     ?_led1_command:	
  4070                           ; 0 bytes @ 0x23
  4071                           
  4072  0043                     led1_command@red:	
  4073                           ; 0 bytes @ 0x23
  4074                           
  4075  0043                     led2_command@red:	
  4076                           ; 1 bytes @ 0x23
  4077                           
  4078  0043                     led3_command@red:	
  4079                           ; 1 bytes @ 0x23
  4080                           
  4081  0043                     led4_command@red:	
  4082                           ; 1 bytes @ 0x23
  4083                           
  4084  0043                     led5_command@red:	
  4085                           ; 1 bytes @ 0x23
  4086                           
  4087  0043                     led6_command@red:	
  4088                           ; 1 bytes @ 0x23
  4089                           
  4090  0043                     led7_command@red:	
  4091                           ; 1 bytes @ 0x23
  4092                           
  4093                           
  4094                           ; 1 bytes @ 0x23
  4095  0043                     	ds	1
  4096  0044                     led1_command@green:	
  4097  0044                     led2_command@green:	
  4098                           ; 1 bytes @ 0x24
  4099                           
  4100  0044                     led3_command@green:	
  4101                           ; 1 bytes @ 0x24
  4102                           
  4103  0044                     led4_command@green:	
  4104                           ; 1 bytes @ 0x24
  4105                           
  4106  0044                     led5_command@green:	
  4107                           ; 1 bytes @ 0x24
  4108                           
  4109  0044                     led6_command@green:	
  4110                           ; 1 bytes @ 0x24
  4111                           
  4112  0044                     led7_command@green:	
  4113                           ; 1 bytes @ 0x24
  4114                           
  4115                           
  4116                           ; 1 bytes @ 0x24
  4117  0044                     	ds	1
  4118  0045                     ??_init_leds:	
  4119  0045                     led1_command@blue:	
  4120                           ; 0 bytes @ 0x25
  4121                           
  4122  0045                     led2_command@blue:	
  4123                           ; 1 bytes @ 0x25
  4124                           
  4125  0045                     led3_command@blue:	
  4126                           ; 1 bytes @ 0x25
  4127                           
  4128  0045                     led4_command@blue:	
  4129                           ; 1 bytes @ 0x25
  4130                           
  4131  0045                     led5_command@blue:	
  4132                           ; 1 bytes @ 0x25
  4133                           
  4134  0045                     led6_command@blue:	
  4135                           ; 1 bytes @ 0x25
  4136                           
  4137  0045                     led7_command@blue:	
  4138                           ; 1 bytes @ 0x25
  4139                           
  4140                           
  4141                           ; 1 bytes @ 0x25
  4142  0045                     	ds	1
  4143  0046                     ??_led7_command:	
  4144  0046                     ??_led6_command:	
  4145                           ; 0 bytes @ 0x26
  4146                           
  4147  0046                     ??_led5_command:	
  4148                           ; 0 bytes @ 0x26
  4149                           
  4150  0046                     ??_led4_command:	
  4151                           ; 0 bytes @ 0x26
  4152                           
  4153  0046                     ??_led3_command:	
  4154                           ; 0 bytes @ 0x26
  4155                           
  4156  0046                     ??_led2_command:	
  4157                           ; 0 bytes @ 0x26
  4158                           
  4159  0046                     ??_led1_command:	
  4160                           ; 0 bytes @ 0x26
  4161                           
  4162                           
  4163                           ; 0 bytes @ 0x26
  4164  0046                     	ds	2
  4165                           
  4166                           	psect	maintext
  4167  14E2                     __pmaintext:	
  4168 ;;
  4169 ;;Main: autosize = 0, tempsize = 3, incstack = 0, save=0
  4170 ;;
  4171 ;; *************** function _main *****************
  4172 ;; Defined at:
  4173 ;;		line 17 in file "../../source/main.c"
  4174 ;; Parameters:    Size  Location     Type
  4175 ;;		None
  4176 ;; Auto vars:     Size  Location     Type
  4177 ;;  pkt_arr         3   28[BANK1 ] unsigned char [3]
  4178 ;;  i               1   31[BANK1 ] unsigned char 
  4179 ;; Return value:  Size  Location     Type
  4180 ;;                  2   74[None  ] int 
  4181 ;; Registers used:
  4182 ;;		wreg, fsr0l, fsr0h, fsr1l, fsr1h, status,2, status,0, pclath, cstack
  4183 ;; Tracked objects:
  4184 ;;		On entry : B1F/0
  4185 ;;		On exit  : 0/0
  4186 ;;		Unchanged: 0/0
  4187 ;; Data sizes:     COMMON   BANK0   BANK1   BANK2   BANK3   BANK4   BANK5   BANK6   BANK7   BANK8   BANK9  BANK10  BANK1
      +1  BANK12  BANK13  BANK14  BANK15  BANK16  BANK17  BANK18  BANK19  BANK20  BANK21  BANK22  BANK23  BANK24  BANK25
  4188 ;;      Params:         0       0       0       0       0       0       0       0       0       0       0       0       
      +0       0       0       0       0       0       0       0       0       0       0       0       0       0       0
  4189 ;;      Locals:         0       0       4       0       0       0       0       0       0       0       0       0       
      +0       0       0       0       0       0       0       0       0       0       0       0       0       0       0
  4190 ;;      Temps:          0       0       3       0       0       0       0       0       0       0       0       0       
      +0       0       0       0       0       0       0       0       0       0       0       0       0       0       0
  4191 ;;      Totals:         0       0       7       0       0       0       0       0       0       0       0       0       
      +0       0       0       0       0       0       0       0       0       0       0       0       0       0       0
  4192 ;;Total ram usage:        7 bytes
  4193 ;; Hardware stack levels required when called:    7
  4194 ;; This function calls:
  4195 ;;		_determine_omega_mode_active
  4196 ;;		_determine_packets_to_send
  4197 ;;		_determine_sword_was_swung
  4198 ;;		_display_blade_lights
  4199 ;;		_display_health
  4200 ;;		_init_accel
  4201 ;;		_init_conn
  4202 ;;		_init_ir
  4203 ;;		_init_isr
  4204 ;;		_init_leds
  4205 ;;		_init_pic
  4206 ;;		_output_ir
  4207 ;; This function is called by:
  4208 ;;		Startup code after reset
  4209 ;; This function uses a non-reentrant model
  4210 ;;
  4211                           
  4212                           
  4213                           ;psect for function _main
  4214  14E2                     _main:	
  4215                           
  4216                           ;main.c: 19: char pkt_arr[] = {0, 0, 0};
  4217                           
  4218                           ;incstack = 0
  4219                           ; Regs used in _main: [wreg-fsr1h+status,2+status,0+pclath+cstack]
  4220  14E2  0021               	movlb	1	; select bank1
  4221  14E3  0840               	movf	main@F7258^(0+128),w
  4222  14E4  00BC               	movwf	main@pkt_arr^(0+128)
  4223  14E5  0841               	movf	(main@F7258+1)^(0+128),w
  4224  14E6  00BD               	movwf	(main@pkt_arr+1)^(0+128)
  4225  14E7  0842               	movf	(main@F7258+2)^(0+128),w
  4226  14E8  00BE               	movwf	(main@pkt_arr+2)^(0+128)
  4227                           
  4228                           ;main.c: 20: unsigned char i = 0;
  4229  14E9  01BF               	clrf	main@i^(0+128)
  4230                           
  4231                           ;main.c: 23: init_pic();
  4232  14EA  319B  237C  3194   	fcall	_init_pic
  4233                           
  4234                           ;main.c: 27: init_ir();
  4235  14ED  319B  23A9  3194   	fcall	_init_ir
  4236                           
  4237                           ;main.c: 28: init_accel();
  4238  14F0  3190  2007  3194   	fcall	_init_accel
  4239                           
  4240                           ;main.c: 29: init_leds();
  4241  14F3  319D  252D  3194   	fcall	_init_leds
  4242                           
  4243                           ;main.c: 30: init_isr();
  4244  14F6  319B  2301  3194   	fcall	_init_isr
  4245                           
  4246                           ;main.c: 31: init_conn();
  4247  14F9  3190  2004  3194   	fcall	_init_conn
  4248  14FC                     l5715:	
  4249                           ;main.c: 48: while(1)
  4250                           
  4251                           
  4252                           ;main.c: 49: {
  4253                           ;main.c: 51: display_health();
  4254  14FC  3188  2005  3194   	fcall	_display_health
  4255                           
  4256                           ;main.c: 52: if(damage_received)
  4257  14FF  0021               	movlb	1	; select bank1
  4258  1500  0843               	movf	_damage_received^(0+128),w
  4259  1501  1903               	btfsc	3,2
  4260  1502  2D09               	goto	l5723
  4261                           
  4262                           ;main.c: 53: {
  4263                           ;main.c: 54: display_blade_lights(3);
  4264  1503  3003               	movlw	3
  4265  1504  3181  218D  3194   	fcall	_display_blade_lights
  4266                           
  4267                           ;main.c: 55: damage_received = 0;
  4268  1507  0021               	movlb	1	; select bank1
  4269  1508  01C3               	clrf	_damage_received^(0+128)
  4270  1509                     l5723:	
  4271                           
  4272                           ;main.c: 56: }
  4273                           ;main.c: 58: if( determine_sword_was_swung() && ( ( health > 0) || determine_omega_mode_
      +                          active() ) )
  4274  1509  3186  2681  3194   	fcall	_determine_sword_was_swung
  4275  150C  3A00               	xorlw	0
  4276  150D  1903               	skipnz
  4277  150E  2D51               	goto	l5755
  4278  150F  0021               	movlb	1	; select bank1
  4279  1510  0845               	movf	_health^(0+128),w
  4280  1511  1D03               	btfss	3,2
  4281  1512  2D19               	goto	l5729
  4282  1513  3187  27FB  3194   	fcall	_determine_omega_mode_active
  4283  1516  3A00               	xorlw	0
  4284  1517  1903               	skipnz
  4285  1518  2D51               	goto	l5755
  4286  1519                     l5729:	
  4287                           
  4288                           ;main.c: 59: {
  4289                           ;main.c: 61: if(!determine_omega_mode_active())
  4290  1519  3187  27FB  3194   	fcall	_determine_omega_mode_active
  4291  151C  3A00               	xorlw	0
  4292  151D  1D03               	skipz
  4293  151E  2D4D               	goto	l5753
  4294                           
  4295                           ;main.c: 62: {
  4296                           ;main.c: 63: display_blade_lights(0);
  4297  151F  3000               	movlw	0
  4298  1520  3181  218D  3194   	fcall	_display_blade_lights
  4299                           
  4300                           ;main.c: 65: determine_packets_to_send(&pkt_arr);
  4301  1523  30BC               	movlw	(low (main@pkt_arr| 0))& (0+255)
  4302  1524  319B  2353  3194   	fcall	_determine_packets_to_send
  4303                           
  4304                           ;main.c: 67: for(i = 3; i > 0; --i)
  4305  1527  3003               	movlw	3
  4306  1528  0021               	movlb	1	; select bank1
  4307  1529  00B9               	movwf	??_main^(0+128)
  4308  152A  0839               	movf	??_main^(0+128),w
  4309  152B  00BF               	movwf	main@i^(0+128)
  4310  152C                     L1:	
  4311  152C  083F               	movf	main@i^(0+128),w
  4312  152D  1903               	btfsc	3,2
  4313  152E  2D51               	goto	l5755
  4314                           
  4315                           ;main.c: 68: {
  4316                           ;main.c: 69: if(pkt_arr[i-1] > 0)
  4317  152F  083F               	movf	main@i^(0+128),w
  4318  1530  3EFF               	addlw	255
  4319  1531  3EBC               	addlw	(low (main@pkt_arr| 0))& (0+255)
  4320  1532  0086               	movwf	6
  4321  1533  0187               	clrf	7
  4322  1534  0801               	movf	1,w
  4323  1535  1903               	btfsc	3,2
  4324  1536  2D49               	goto	l5749
  4325                           
  4326                           ;main.c: 70: {
  4327                           ;main.c: 71: GIE = 0;
  4328  1537  138B               	bcf	11,7	;volatile
  4329                           
  4330                           ;main.c: 72: output_ir(i-1, pkt_arr[i-1]);
  4331  1538  083F               	movf	main@i^(0+128),w
  4332  1539  3EFF               	addlw	255
  4333  153A  3EBC               	addlw	(low (main@pkt_arr| 0))& (0+255)
  4334  153B  0086               	movwf	6
  4335  153C  0187               	clrf	7
  4336  153D  0801               	movf	1,w
  4337  153E  00B9               	movwf	??_main^(0+128)
  4338  153F  0839               	movf	??_main^(0+128),w
  4339  1540  0020               	movlb	0	; select bank0
  4340  1541  00C0               	movwf	output_ir@amount
  4341  1542  0021               	movlb	1	; select bank1
  4342  1543  083F               	movf	main@i^(0+128),w
  4343  1544  3EFF               	addlw	255
  4344  1545  3185  253C  3194   	fcall	_output_ir
  4345                           
  4346                           ;main.c: 73: GIE = 1;
  4347  1548  178B               	bsf	11,7	;volatile
  4348  1549                     l5749:	
  4349  1549  3001               	movlw	1
  4350  154A  0021               	movlb	1	; select bank1
  4351  154B  02BF               	subwf	main@i^(0+128),f
  4352  154C  2D2C               	goto	L1
  4353  154D                     l5753:	
  4354                           ;main.c: 74: }
  4355                           ;main.c: 75: }
  4356                           ;main.c: 76: }
  4357                           
  4358                           
  4359                           ;main.c: 77: else
  4360                           ;main.c: 78: {
  4361                           ;main.c: 79: display_blade_lights(1);
  4362  154D  3001               	movlw	1
  4363  154E  3181  218D  3194   	fcall	_display_blade_lights
  4364  1551                     l5755:	
  4365                           
  4366                           ;main.c: 80: }
  4367                           ;main.c: 81: }
  4368                           ;main.c: 84: GIE = 0;
  4369  1551  138B               	bcf	11,7	;volatile
  4370                           
  4371                           ;main.c: 85: while( ( stun_counter > 0 ) && !determine_omega_mode_active() )
  4372  1552  2D95               	goto	l5797
  4373  1553                     l88:	
  4374                           
  4375                           ;main.c: 86: {
  4376                           ;main.c: 87: GIE = 1;
  4377  1553  178B               	bsf	11,7	;volatile
  4378                           
  4379                           ;main.c: 91: PSMC2DCH = 0xFF;
  4380  1554  30FF               	movlw	255
  4381  1555  003D               	movlb	29	; select bank29
  4382  1556  00C4               	movwf	68	;volatile
  4383                           
  4384                           ;main.c: 92: PSMC2DCL = 0xFF;
  4385  1557  30FF               	movlw	255
  4386  1558  00C3               	movwf	67	;volatile
  4387                           
  4388                           ;main.c: 93: PSMC2LD = 1;
  4389  1559  1731               	bsf	49,6	;volatile
  4390                           
  4391                           ;main.c: 95: PSMC3DCH = 0x00;
  4392  155A  01E4               	clrf	100	;volatile
  4393                           
  4394                           ;main.c: 96: PSMC3DCL = 0x00;
  4395  155B  01E3               	clrf	99	;volatile
  4396                           
  4397                           ;main.c: 97: PSMC3LD = 1;
  4398  155C  1751               	bsf	81,6	;volatile
  4399                           
  4400                           ;main.c: 99: PSMC4DCH = 0xFF;
  4401  155D  30FF               	movlw	255
  4402  155E  003E               	movlb	30	; select bank30
  4403  155F  00A4               	movwf	36	;volatile
  4404                           
  4405                           ;main.c: 100: PSMC4DCL = 0x00;
  4406  1560  01A3               	clrf	35	;volatile
  4407                           
  4408                           ;main.c: 101: PSMC4LD = 1;
  4409  1561  1711               	bsf	17,6	;volatile
  4410                           
  4411                           ;main.c: 103: PSMC2LD = 1;
  4412  1562  003D               	movlb	29	; select bank29
  4413  1563  1731               	bsf	49,6	;volatile
  4414                           
  4415                           ;main.c: 104: PSMC3LD = 1;
  4416  1564  1751               	bsf	81,6	;volatile
  4417                           
  4418                           ;main.c: 105: PSMC4LD = 1;
  4419  1565  003E               	movlb	30	; select bank30
  4420  1566  1711               	bsf	17,6	;volatile
  4421                           
  4422                           ;main.c: 107: _delay((unsigned long)((50)*(32000000/4000.0)));
  4423  1567  3003               	movlw	3
  4424  1568  0021               	movlb	1	; select bank1
  4425  1569  00BB               	movwf	(??_main^(0+128)+2)
  4426  156A  3008               	movlw	8
  4427  156B  00BA               	movwf	(??_main^(0+128)+1)
  4428  156C  3078               	movlw	120
  4429  156D  00B9               	movwf	??_main^(0+128)
  4430  156E                     u5137:	
  4431  156E  0BB9               	decfsz	??_main^(0+128),f
  4432  156F  2D6E               	goto	u5137
  4433  1570  0BBA               	decfsz	(??_main^(0+128)+1),f
  4434  1571  2D6E               	goto	u5137
  4435  1572  0BBB               	decfsz	(??_main^(0+128)+2),f
  4436  1573  2D6E               	goto	u5137
  4437                           
  4438                           ;main.c: 111: PSMC2DCH = 0x00;
  4439  1574  003D               	movlb	29	; select bank29
  4440  1575  01C4               	clrf	68	;volatile
  4441                           
  4442                           ;main.c: 112: PSMC2DCL = 0x00;
  4443  1576  01C3               	clrf	67	;volatile
  4444                           
  4445                           ;main.c: 113: PSMC2LD = 1;
  4446  1577  1731               	bsf	49,6	;volatile
  4447                           
  4448                           ;main.c: 115: PSMC3DCH = 0x00;
  4449  1578  01E4               	clrf	100	;volatile
  4450                           
  4451                           ;main.c: 116: PSMC3DCL = 0x00;
  4452  1579  01E3               	clrf	99	;volatile
  4453                           
  4454                           ;main.c: 117: PSMC3LD = 1;
  4455  157A  1751               	bsf	81,6	;volatile
  4456                           
  4457                           ;main.c: 119: PSMC4DCH = 0x00;
  4458  157B  003E               	movlb	30	; select bank30
  4459  157C  01A4               	clrf	36	;volatile
  4460                           
  4461                           ;main.c: 120: PSMC4DCL = 0x00;
  4462  157D  01A3               	clrf	35	;volatile
  4463                           
  4464                           ;main.c: 121: PSMC4LD = 1;
  4465  157E  1711               	bsf	17,6	;volatile
  4466                           
  4467                           ;main.c: 123: PSMC2LD = 1;
  4468  157F  003D               	movlb	29	; select bank29
  4469  1580  1731               	bsf	49,6	;volatile
  4470                           
  4471                           ;main.c: 124: PSMC3LD = 1;
  4472  1581  1751               	bsf	81,6	;volatile
  4473                           
  4474                           ;main.c: 125: PSMC4LD = 1;
  4475  1582  003E               	movlb	30	; select bank30
  4476  1583  1711               	bsf	17,6	;volatile
  4477                           
  4478                           ;main.c: 127: _delay((unsigned long)((50)*(32000000/4000.0)));
  4479  1584  3003               	movlw	3
  4480  1585  0021               	movlb	1	; select bank1
  4481  1586  00BB               	movwf	(??_main^(0+128)+2)
  4482  1587  3008               	movlw	8
  4483  1588  00BA               	movwf	(??_main^(0+128)+1)
  4484  1589  3078               	movlw	120
  4485  158A  00B9               	movwf	??_main^(0+128)
  4486  158B                     u5147:	
  4487  158B  0BB9               	decfsz	??_main^(0+128),f
  4488  158C  2D8B               	goto	u5147
  4489  158D  0BBA               	decfsz	(??_main^(0+128)+1),f
  4490  158E  2D8B               	goto	u5147
  4491  158F  0BBB               	decfsz	(??_main^(0+128)+2),f
  4492  1590  2D8B               	goto	u5147
  4493                           
  4494                           ;main.c: 129: GIE = 0;
  4495  1591  138B               	bcf	11,7	;volatile
  4496                           
  4497                           ;main.c: 130: --stun_counter;
  4498  1592  3001               	movlw	1
  4499  1593  0021               	movlb	1	; select bank1
  4500  1594  02C4               	subwf	_stun_counter^(0+128),f
  4501  1595                     l5797:	
  4502  1595  0021               	movlb	1	; select bank1
  4503  1596  0844               	movf	_stun_counter^(0+128),w
  4504  1597  1903               	btfsc	3,2
  4505  1598  2D9F               	goto	l91
  4506  1599  3187  27FB  3194   	fcall	_determine_omega_mode_active
  4507  159C  3A00               	xorlw	0
  4508  159D  1903               	skipnz
  4509  159E  2D53               	goto	l88
  4510  159F                     l91:	
  4511                           
  4512                           ;main.c: 131: }
  4513                           ;main.c: 132: GIE = 1;
  4514  159F  178B               	bsf	11,7	;volatile
  4515  15A0  2CFC               	goto	l5715
  4516  15A1                     __end_of_main:	
  4517                           
  4518                           	psect	text1
  4519  053C                     __ptext1:	
  4520 ;; *************** function _output_ir *****************
  4521 ;; Defined at:
  4522 ;;		line 41 in file "../../source/ir.c"
  4523 ;; Parameters:    Size  Location     Type
  4524 ;;  pkt_type        1    wreg     unsigned char 
  4525 ;;  amount          1   32[BANK0 ] unsigned char 
  4526 ;; Auto vars:     Size  Location     Type
  4527 ;;  pkt_type        1    6[BANK1 ] unsigned char 
  4528 ;;  i               2    4[BANK1 ] int 
  4529 ;;  i               2    2[BANK1 ] int 
  4530 ;;  i               2    0[BANK1 ] int 
  4531 ;; Return value:  Size  Location     Type
  4532 ;;		None               void
  4533 ;; Registers used:
  4534 ;;		wreg, status,2, status,0
  4535 ;; Tracked objects:
  4536 ;;		On entry : 0/0
  4537 ;;		On exit  : 0/0
  4538 ;;		Unchanged: 0/0
  4539 ;; Data sizes:     COMMON   BANK0   BANK1   BANK2   BANK3   BANK4   BANK5   BANK6   BANK7   BANK8   BANK9  BANK10  BANK1
      +1  BANK12  BANK13  BANK14  BANK15  BANK16  BANK17  BANK18  BANK19  BANK20  BANK21  BANK22  BANK23  BANK24  BANK25
  4540 ;;      Params:         0       1       0       0       0       0       0       0       0       0       0       0       
      +0       0       0       0       0       0       0       0       0       0       0       0       0       0       0
  4541 ;;      Locals:         0       0       7       0       0       0       0       0       0       0       0       0       
      +0       0       0       0       0       0       0       0       0       0       0       0       0       0       0
  4542 ;;      Temps:          0       2       0       0       0       0       0       0       0       0       0       0       
      +0       0       0       0       0       0       0       0       0       0       0       0       0       0       0
  4543 ;;      Totals:         0       3       7       0       0       0       0       0       0       0       0       0       
      +0       0       0       0       0       0       0       0       0       0       0       0       0       0       0
  4544 ;;Total ram usage:       10 bytes
  4545 ;; Hardware stack levels used:    1
  4546 ;; Hardware stack levels required when called:    4
  4547 ;; This function calls:
  4548 ;;		Nothing
  4549 ;; This function is called by:
  4550 ;;		_main
  4551 ;; This function uses a non-reentrant model
  4552 ;;
  4553                           
  4554                           
  4555                           ;psect for function _output_ir
  4556  053C                     _output_ir:	
  4557                           
  4558                           ;incstack = 0
  4559                           ; Regs used in _output_ir: [wreg+status,2+status,0]
  4560                           ;output_ir@pkt_type stored from wreg
  4561  053C  0021               	movlb	1	; select bank1
  4562  053D  00A6               	movwf	output_ir@pkt_type^(0+128)
  4563                           
  4564                           ;ir.c: 43: if(pkt_type == 0)
  4565  053E  0826               	movf	output_ir@pkt_type^(0+128),w
  4566  053F  1D03               	btfss	3,2
  4567  0540  2DAA               	goto	l5661
  4568                           
  4569                           ;ir.c: 44: {
  4570                           ;ir.c: 45: for(int i = 0;i < amount;i++){
  4571  0541  01A0               	clrf	output_ir@i^(0+128)
  4572  0542  01A1               	clrf	(output_ir@i+1)^(0+128)
  4573  0543                     l316:	
  4574  0543  0821               	movf	(output_ir@i+1)^(0+128),w
  4575  0544  3A80               	xorlw	128
  4576  0545  0020               	movlb	0	; select bank0
  4577  0546  00C1               	movwf	??_output_ir
  4578  0547  3080               	movlw	128
  4579  0548  0241               	subwf	??_output_ir,w
  4580  0549  1D03               	skipz
  4581  054A  2D4E               	goto	u4955
  4582  054B  0840               	movf	output_ir@amount,w
  4583  054C  0021               	movlb	1	; select bank1
  4584  054D  0220               	subwf	output_ir@i^(0+128),w
  4585  054E                     u4955:	
  4586  054E  1803               	btfsc	3,0
  4587  054F  0008               	return
  4588                           
  4589                           ;ir.c: 47: P1MDLBIT = 1;
  4590  0550  003D               	movlb	29	; select bank29
  4591  0551  1692               	bsf	18,5	;volatile
  4592                           
  4593                           ;ir.c: 48: _delay((unsigned long)((178)*(32000000/4000000.0)));
  4594  0552  30ED               	movlw	237
  4595  0553  0020               	movlb	0	; select bank0
  4596  0554  00C1               	movwf	??_output_ir
  4597  0555                     u5157:	
  4598  0555  3200               	nop2
  4599  0556  0000               	nop
  4600  0557  0BC1               	decfsz	??_output_ir,f
  4601  0558  2D55               	goto	u5157
  4602  0559  0000               	nop
  4603                           
  4604                           ;ir.c: 49: P1MDLBIT = 0;
  4605  055A  003D               	movlb	29	; select bank29
  4606  055B  1292               	bcf	18,5	;volatile
  4607                           
  4608                           ;ir.c: 50: _delay((unsigned long)((2678-178)*(32000000/4000000.0)));
  4609  055C  301A               	movlw	26
  4610  055D  0020               	movlb	0	; select bank0
  4611  055E  00C2               	movwf	??_output_ir+1
  4612  055F  30F8               	movlw	248
  4613  0560  00C1               	movwf	??_output_ir
  4614  0561                     u5167:	
  4615  0561  0BC1               	decfsz	??_output_ir,f
  4616  0562  2D61               	goto	u5167
  4617  0563  0BC2               	decfsz	??_output_ir+1,f
  4618  0564  2D61               	goto	u5167
  4619  0565  0000               	nop
  4620                           
  4621                           ;ir.c: 53: P1MDLBIT = 1;
  4622  0566  003D               	movlb	29	; select bank29
  4623  0567  1692               	bsf	18,5	;volatile
  4624                           
  4625                           ;ir.c: 54: _delay((unsigned long)((357)*(32000000/4000000.0)));
  4626  0568  3004               	movlw	4
  4627  0569  0020               	movlb	0	; select bank0
  4628  056A  00C2               	movwf	??_output_ir+1
  4629  056B  30B4               	movlw	180
  4630  056C  00C1               	movwf	??_output_ir
  4631  056D                     u5177:	
  4632  056D  0BC1               	decfsz	??_output_ir,f
  4633  056E  2D6D               	goto	u5177
  4634  056F  0BC2               	decfsz	??_output_ir+1,f
  4635  0570  2D6D               	goto	u5177
  4636  0571  0000               	nop
  4637                           
  4638                           ;ir.c: 55: P1MDLBIT = 0;
  4639  0572  003D               	movlb	29	; select bank29
  4640  0573  1292               	bcf	18,5	;volatile
  4641                           
  4642                           ;ir.c: 56: _delay((unsigned long)((2678-357)*(32000000/4000000.0)));
  4643  0574  3019               	movlw	25
  4644  0575  0020               	movlb	0	; select bank0
  4645  0576  00C2               	movwf	??_output_ir+1
  4646  0577  301B               	movlw	27
  4647  0578  00C1               	movwf	??_output_ir
  4648  0579                     u5187:	
  4649  0579  0BC1               	decfsz	??_output_ir,f
  4650  057A  2D79               	goto	u5187
  4651  057B  0BC2               	decfsz	??_output_ir+1,f
  4652  057C  2D79               	goto	u5187
  4653  057D  3200               	nop2
  4654                           
  4655                           ;ir.c: 57: P1MDLBIT = 1;
  4656  057E  003D               	movlb	29	; select bank29
  4657  057F  1692               	bsf	18,5	;volatile
  4658                           
  4659                           ;ir.c: 58: _delay((unsigned long)((357)*(32000000/4000000.0)));
  4660  0580  3004               	movlw	4
  4661  0581  0020               	movlb	0	; select bank0
  4662  0582  00C2               	movwf	??_output_ir+1
  4663  0583  30B4               	movlw	180
  4664  0584  00C1               	movwf	??_output_ir
  4665  0585                     u5197:	
  4666  0585  0BC1               	decfsz	??_output_ir,f
  4667  0586  2D85               	goto	u5197
  4668  0587  0BC2               	decfsz	??_output_ir+1,f
  4669  0588  2D85               	goto	u5197
  4670  0589  0000               	nop
  4671                           
  4672                           ;ir.c: 59: P1MDLBIT = 0;
  4673  058A  003D               	movlb	29	; select bank29
  4674  058B  1292               	bcf	18,5	;volatile
  4675                           
  4676                           ;ir.c: 60: _delay((unsigned long)((2678-357)*(32000000/4000000.0)));
  4677  058C  3019               	movlw	25
  4678  058D  0020               	movlb	0	; select bank0
  4679  058E  00C2               	movwf	??_output_ir+1
  4680  058F  301B               	movlw	27
  4681  0590  00C1               	movwf	??_output_ir
  4682  0591                     u5207:	
  4683  0591  0BC1               	decfsz	??_output_ir,f
  4684  0592  2D91               	goto	u5207
  4685  0593  0BC2               	decfsz	??_output_ir+1,f
  4686  0594  2D91               	goto	u5207
  4687  0595  3200               	nop2
  4688                           
  4689                           ;ir.c: 63: P1MDLBIT = 1;
  4690  0596  003D               	movlb	29	; select bank29
  4691  0597  1692               	bsf	18,5	;volatile
  4692                           
  4693                           ;ir.c: 64: _delay((unsigned long)((2678)*(32000000/4000000.0)));
  4694  0598  301C               	movlw	28
  4695  0599  0020               	movlb	0	; select bank0
  4696  059A  00C2               	movwf	??_output_ir+1
  4697  059B  30D1               	movlw	209
  4698  059C  00C1               	movwf	??_output_ir
  4699  059D                     u5217:	
  4700  059D  0BC1               	decfsz	??_output_ir,f
  4701  059E  2D9D               	goto	u5217
  4702  059F  0BC2               	decfsz	??_output_ir+1,f
  4703  05A0  2D9D               	goto	u5217
  4704  05A1  3200               	nop2
  4705                           
  4706                           ;ir.c: 65: P1MDLBIT = 0;
  4707  05A2  003D               	movlb	29	; select bank29
  4708  05A3  1292               	bcf	18,5	;volatile
  4709  05A4  3001               	movlw	1
  4710  05A5  0021               	movlb	1	; select bank1
  4711  05A6  07A0               	addwf	output_ir@i^(0+128),f
  4712  05A7  3000               	movlw	0
  4713  05A8  3DA1               	addwfc	(output_ir@i+1)^(0+128),f
  4714  05A9  2D43               	goto	l316
  4715  05AA                     l5661:	
  4716                           ;ir.c: 66: }
  4717                           ;ir.c: 68: }
  4718                           
  4719                           
  4720                           ;ir.c: 69: else if(pkt_type == 1)
  4721  05AA  0021               	movlb	1	; select bank1
  4722  05AB  0326               	decf	output_ir@pkt_type^(0+128),w
  4723  05AC  1D03               	btfss	3,2
  4724  05AD  2E17               	goto	l5681
  4725                           
  4726                           ;ir.c: 70: {
  4727                           ;ir.c: 71: for(int i = 0;i < amount;i++){
  4728  05AE  01A2               	clrf	output_ir@i_336^(0+128)
  4729  05AF  01A3               	clrf	(output_ir@i_336+1)^(0+128)
  4730  05B0                     l321:	
  4731  05B0  0823               	movf	(output_ir@i_336+1)^(0+128),w
  4732  05B1  3A80               	xorlw	128
  4733  05B2  0020               	movlb	0	; select bank0
  4734  05B3  00C1               	movwf	??_output_ir
  4735  05B4  3080               	movlw	128
  4736  05B5  0241               	subwf	??_output_ir,w
  4737  05B6  1D03               	skipz
  4738  05B7  2DBB               	goto	u4975
  4739  05B8  0840               	movf	output_ir@amount,w
  4740  05B9  0021               	movlb	1	; select bank1
  4741  05BA  0222               	subwf	output_ir@i_336^(0+128),w
  4742  05BB                     u4975:	
  4743  05BB  1803               	btfsc	3,0
  4744  05BC  0008               	return
  4745                           
  4746                           ;ir.c: 73: P1MDLBIT = 1;
  4747  05BD  003D               	movlb	29	; select bank29
  4748  05BE  1692               	bsf	18,5	;volatile
  4749                           
  4750                           ;ir.c: 74: _delay((unsigned long)((178)*(32000000/4000000.0)));
  4751  05BF  30ED               	movlw	237
  4752  05C0  0020               	movlb	0	; select bank0
  4753  05C1  00C1               	movwf	??_output_ir
  4754  05C2                     u5227:	
  4755  05C2  3200               	nop2
  4756  05C3  0000               	nop
  4757  05C4  0BC1               	decfsz	??_output_ir,f
  4758  05C5  2DC2               	goto	u5227
  4759  05C6  0000               	nop
  4760                           
  4761                           ;ir.c: 75: P1MDLBIT = 0;
  4762  05C7  003D               	movlb	29	; select bank29
  4763  05C8  1292               	bcf	18,5	;volatile
  4764                           
  4765                           ;ir.c: 76: _delay((unsigned long)((2678-178)*(32000000/4000000.0)));
  4766  05C9  301A               	movlw	26
  4767  05CA  0020               	movlb	0	; select bank0
  4768  05CB  00C2               	movwf	??_output_ir+1
  4769  05CC  30F8               	movlw	248
  4770  05CD  00C1               	movwf	??_output_ir
  4771  05CE                     u5237:	
  4772  05CE  0BC1               	decfsz	??_output_ir,f
  4773  05CF  2DCE               	goto	u5237
  4774  05D0  0BC2               	decfsz	??_output_ir+1,f
  4775  05D1  2DCE               	goto	u5237
  4776  05D2  0000               	nop
  4777                           
  4778                           ;ir.c: 79: P1MDLBIT = 1;
  4779  05D3  003D               	movlb	29	; select bank29
  4780  05D4  1692               	bsf	18,5	;volatile
  4781                           
  4782                           ;ir.c: 80: _delay((unsigned long)((535)*(32000000/4000000.0)));
  4783  05D5  3006               	movlw	6
  4784  05D6  0020               	movlb	0	; select bank0
  4785  05D7  00C2               	movwf	??_output_ir+1
  4786  05D8  308D               	movlw	141
  4787  05D9  00C1               	movwf	??_output_ir
  4788  05DA                     u5247:	
  4789  05DA  0BC1               	decfsz	??_output_ir,f
  4790  05DB  2DDA               	goto	u5247
  4791  05DC  0BC2               	decfsz	??_output_ir+1,f
  4792  05DD  2DDA               	goto	u5247
  4793  05DE  3200               	nop2
  4794                           
  4795                           ;ir.c: 81: P1MDLBIT = 0;
  4796  05DF  003D               	movlb	29	; select bank29
  4797  05E0  1292               	bcf	18,5	;volatile
  4798                           
  4799                           ;ir.c: 82: _delay((unsigned long)((2678-535)*(32000000/4000000.0)));
  4800  05E1  3017               	movlw	23
  4801  05E2  0020               	movlb	0	; select bank0
  4802  05E3  00C2               	movwf	??_output_ir+1
  4803  05E4  3042               	movlw	66
  4804  05E5  00C1               	movwf	??_output_ir
  4805  05E6                     u5257:	
  4806  05E6  0BC1               	decfsz	??_output_ir,f
  4807  05E7  2DE6               	goto	u5257
  4808  05E8  0BC2               	decfsz	??_output_ir+1,f
  4809  05E9  2DE6               	goto	u5257
  4810  05EA  0000               	nop
  4811                           
  4812                           ;ir.c: 83: P1MDLBIT = 1;
  4813  05EB  003D               	movlb	29	; select bank29
  4814  05EC  1692               	bsf	18,5	;volatile
  4815                           
  4816                           ;ir.c: 84: _delay((unsigned long)((535)*(32000000/4000000.0)));
  4817  05ED  3006               	movlw	6
  4818  05EE  0020               	movlb	0	; select bank0
  4819  05EF  00C2               	movwf	??_output_ir+1
  4820  05F0  308D               	movlw	141
  4821  05F1  00C1               	movwf	??_output_ir
  4822  05F2                     u5267:	
  4823  05F2  0BC1               	decfsz	??_output_ir,f
  4824  05F3  2DF2               	goto	u5267
  4825  05F4  0BC2               	decfsz	??_output_ir+1,f
  4826  05F5  2DF2               	goto	u5267
  4827  05F6  3200               	nop2
  4828                           
  4829                           ;ir.c: 85: P1MDLBIT = 0;
  4830  05F7  003D               	movlb	29	; select bank29
  4831  05F8  1292               	bcf	18,5	;volatile
  4832                           
  4833                           ;ir.c: 86: _delay((unsigned long)((2678-535)*(32000000/4000000.0)));
  4834  05F9  3017               	movlw	23
  4835  05FA  0020               	movlb	0	; select bank0
  4836  05FB  00C2               	movwf	??_output_ir+1
  4837  05FC  3042               	movlw	66
  4838  05FD  00C1               	movwf	??_output_ir
  4839  05FE                     u5277:	
  4840  05FE  0BC1               	decfsz	??_output_ir,f
  4841  05FF  2DFE               	goto	u5277
  4842  0600  0BC2               	decfsz	??_output_ir+1,f
  4843  0601  2DFE               	goto	u5277
  4844  0602  0000               	nop
  4845                           
  4846                           ;ir.c: 89: P1MDLBIT = 1;
  4847  0603  003D               	movlb	29	; select bank29
  4848  0604  1692               	bsf	18,5	;volatile
  4849                           
  4850                           ;ir.c: 90: _delay((unsigned long)((2678)*(32000000/4000000.0)));
  4851  0605  301C               	movlw	28
  4852  0606  0020               	movlb	0	; select bank0
  4853  0607  00C2               	movwf	??_output_ir+1
  4854  0608  30D1               	movlw	209
  4855  0609  00C1               	movwf	??_output_ir
  4856  060A                     u5287:	
  4857  060A  0BC1               	decfsz	??_output_ir,f
  4858  060B  2E0A               	goto	u5287
  4859  060C  0BC2               	decfsz	??_output_ir+1,f
  4860  060D  2E0A               	goto	u5287
  4861  060E  3200               	nop2
  4862                           
  4863                           ;ir.c: 91: P1MDLBIT = 0;
  4864  060F  003D               	movlb	29	; select bank29
  4865  0610  1292               	bcf	18,5	;volatile
  4866  0611  3001               	movlw	1
  4867  0612  0021               	movlb	1	; select bank1
  4868  0613  07A2               	addwf	output_ir@i_336^(0+128),f
  4869  0614  3000               	movlw	0
  4870  0615  3DA3               	addwfc	(output_ir@i_336+1)^(0+128),f
  4871  0616  2DB0               	goto	l321
  4872  0617                     l5681:	
  4873                           ;ir.c: 92: }
  4874                           ;ir.c: 93: }
  4875                           
  4876                           
  4877                           ;ir.c: 94: else
  4878                           ;ir.c: 95: {
  4879                           ;ir.c: 96: for(int i = 0;i < amount;i++){
  4880  0617  0021               	movlb	1	; select bank1
  4881  0618  01A4               	clrf	output_ir@i_337^(0+128)
  4882  0619  01A5               	clrf	(output_ir@i_337+1)^(0+128)
  4883  061A                     l325:	
  4884  061A  0825               	movf	(output_ir@i_337+1)^(0+128),w
  4885  061B  3A80               	xorlw	128
  4886  061C  0020               	movlb	0	; select bank0
  4887  061D  00C1               	movwf	??_output_ir
  4888  061E  3080               	movlw	128
  4889  061F  0241               	subwf	??_output_ir,w
  4890  0620  1D03               	skipz
  4891  0621  2E25               	goto	u4985
  4892  0622  0840               	movf	output_ir@amount,w
  4893  0623  0021               	movlb	1	; select bank1
  4894  0624  0224               	subwf	output_ir@i_337^(0+128),w
  4895  0625                     u4985:	
  4896  0625  1803               	btfsc	3,0
  4897  0626  0008               	return
  4898                           
  4899                           ;ir.c: 98: P1MDLBIT = 1;
  4900  0627  003D               	movlb	29	; select bank29
  4901  0628  1692               	bsf	18,5	;volatile
  4902                           
  4903                           ;ir.c: 99: _delay((unsigned long)((178)*(32000000/4000000.0)));
  4904  0629  30ED               	movlw	237
  4905  062A  0020               	movlb	0	; select bank0
  4906  062B  00C1               	movwf	??_output_ir
  4907  062C                     u5297:	
  4908  062C  3200               	nop2
  4909  062D  0000               	nop
  4910  062E  0BC1               	decfsz	??_output_ir,f
  4911  062F  2E2C               	goto	u5297
  4912  0630  0000               	nop
  4913                           
  4914                           ;ir.c: 100: P1MDLBIT = 0;
  4915  0631  003D               	movlb	29	; select bank29
  4916  0632  1292               	bcf	18,5	;volatile
  4917                           
  4918                           ;ir.c: 101: _delay((unsigned long)((2678-178)*(32000000/4000000.0)));
  4919  0633  301A               	movlw	26
  4920  0634  0020               	movlb	0	; select bank0
  4921  0635  00C2               	movwf	??_output_ir+1
  4922  0636  30F8               	movlw	248
  4923  0637  00C1               	movwf	??_output_ir
  4924  0638                     u5307:	
  4925  0638  0BC1               	decfsz	??_output_ir,f
  4926  0639  2E38               	goto	u5307
  4927  063A  0BC2               	decfsz	??_output_ir+1,f
  4928  063B  2E38               	goto	u5307
  4929  063C  0000               	nop
  4930                           
  4931                           ;ir.c: 104: P1MDLBIT = 1;
  4932  063D  003D               	movlb	29	; select bank29
  4933  063E  1692               	bsf	18,5	;volatile
  4934                           
  4935                           ;ir.c: 105: _delay((unsigned long)((714)*(32000000/4000000.0)));
  4936  063F  3008               	movlw	8
  4937  0640  0020               	movlb	0	; select bank0
  4938  0641  00C2               	movwf	??_output_ir+1
  4939  0642  3069               	movlw	105
  4940  0643  00C1               	movwf	??_output_ir
  4941  0644                     u5317:	
  4942  0644  0BC1               	decfsz	??_output_ir,f
  4943  0645  2E44               	goto	u5317
  4944  0646  0BC2               	decfsz	??_output_ir+1,f
  4945  0647  2E44               	goto	u5317
  4946  0648  3200               	nop2
  4947                           
  4948                           ;ir.c: 106: P1MDLBIT = 0;
  4949  0649  003D               	movlb	29	; select bank29
  4950  064A  1292               	bcf	18,5	;volatile
  4951                           
  4952                           ;ir.c: 107: _delay((unsigned long)((2678-714)*(32000000/4000000.0)));
  4953  064B  3015               	movlw	21
  4954  064C  0020               	movlb	0	; select bank0
  4955  064D  00C2               	movwf	??_output_ir+1
  4956  064E  3066               	movlw	102
  4957  064F  00C1               	movwf	??_output_ir
  4958  0650                     u5327:	
  4959  0650  0BC1               	decfsz	??_output_ir,f
  4960  0651  2E50               	goto	u5327
  4961  0652  0BC2               	decfsz	??_output_ir+1,f
  4962  0653  2E50               	goto	u5327
  4963  0654  0000               	nop
  4964                           
  4965                           ;ir.c: 108: P1MDLBIT = 1;
  4966  0655  003D               	movlb	29	; select bank29
  4967  0656  1692               	bsf	18,5	;volatile
  4968                           
  4969                           ;ir.c: 109: _delay((unsigned long)((714)*(32000000/4000000.0)));
  4970  0657  3008               	movlw	8
  4971  0658  0020               	movlb	0	; select bank0
  4972  0659  00C2               	movwf	??_output_ir+1
  4973  065A  3069               	movlw	105
  4974  065B  00C1               	movwf	??_output_ir
  4975  065C                     u5337:	
  4976  065C  0BC1               	decfsz	??_output_ir,f
  4977  065D  2E5C               	goto	u5337
  4978  065E  0BC2               	decfsz	??_output_ir+1,f
  4979  065F  2E5C               	goto	u5337
  4980  0660  3200               	nop2
  4981                           
  4982                           ;ir.c: 110: P1MDLBIT = 0;
  4983  0661  003D               	movlb	29	; select bank29
  4984  0662  1292               	bcf	18,5	;volatile
  4985                           
  4986                           ;ir.c: 111: _delay((unsigned long)((2678-714)*(32000000/4000000.0)));
  4987  0663  3015               	movlw	21
  4988  0664  0020               	movlb	0	; select bank0
  4989  0665  00C2               	movwf	??_output_ir+1
  4990  0666  3066               	movlw	102
  4991  0667  00C1               	movwf	??_output_ir
  4992  0668                     u5347:	
  4993  0668  0BC1               	decfsz	??_output_ir,f
  4994  0669  2E68               	goto	u5347
  4995  066A  0BC2               	decfsz	??_output_ir+1,f
  4996  066B  2E68               	goto	u5347
  4997  066C  0000               	nop
  4998                           
  4999                           ;ir.c: 114: P1MDLBIT = 1;
  5000  066D  003D               	movlb	29	; select bank29
  5001  066E  1692               	bsf	18,5	;volatile
  5002                           
  5003                           ;ir.c: 115: _delay((unsigned long)((2678)*(32000000/4000000.0)));
  5004  066F  301C               	movlw	28
  5005  0670  0020               	movlb	0	; select bank0
  5006  0671  00C2               	movwf	??_output_ir+1
  5007  0672  30D1               	movlw	209
  5008  0673  00C1               	movwf	??_output_ir
  5009  0674                     u5357:	
  5010  0674  0BC1               	decfsz	??_output_ir,f
  5011  0675  2E74               	goto	u5357
  5012  0676  0BC2               	decfsz	??_output_ir+1,f
  5013  0677  2E74               	goto	u5357
  5014  0678  3200               	nop2
  5015                           
  5016                           ;ir.c: 116: P1MDLBIT = 0;
  5017  0679  003D               	movlb	29	; select bank29
  5018  067A  1292               	bcf	18,5	;volatile
  5019  067B  3001               	movlw	1
  5020  067C  0021               	movlb	1	; select bank1
  5021  067D  07A4               	addwf	output_ir@i_337^(0+128),f
  5022  067E  3000               	movlw	0
  5023  067F  3DA5               	addwfc	(output_ir@i_337+1)^(0+128),f
  5024  0680  2E1A               	goto	l325
  5025  0681                     __end_of_output_ir:	
  5026                           
  5027                           	psect	text2
  5028  1B7C                     __ptext2:	
  5029 ;; *************** function _init_pic *****************
  5030 ;; Defined at:
  5031 ;;		line 335 in file "../../source/main.c"
  5032 ;; Parameters:    Size  Location     Type
  5033 ;;		None
  5034 ;; Auto vars:     Size  Location     Type
  5035 ;;		None
  5036 ;; Return value:  Size  Location     Type
  5037 ;;		None               void
  5038 ;; Registers used:
  5039 ;;		wreg, status,2, status,0
  5040 ;; Tracked objects:
  5041 ;;		On entry : 0/0
  5042 ;;		On exit  : 0/0
  5043 ;;		Unchanged: 0/0
  5044 ;; Data sizes:     COMMON   BANK0   BANK1   BANK2   BANK3   BANK4   BANK5   BANK6   BANK7   BANK8   BANK9  BANK10  BANK1
      +1  BANK12  BANK13  BANK14  BANK15  BANK16  BANK17  BANK18  BANK19  BANK20  BANK21  BANK22  BANK23  BANK24  BANK25
  5045 ;;      Params:         0       0       0       0       0       0       0       0       0       0       0       0       
      +0       0       0       0       0       0       0       0       0       0       0       0       0       0       0
  5046 ;;      Locals:         0       0       0       0       0       0       0       0       0       0       0       0       
      +0       0       0       0       0       0       0       0       0       0       0       0       0       0       0
  5047 ;;      Temps:          0       3       0       0       0       0       0       0       0       0       0       0       
      +0       0       0       0       0       0       0       0       0       0       0       0       0       0       0
  5048 ;;      Totals:         0       3       0       0       0       0       0       0       0       0       0       0       
      +0       0       0       0       0       0       0       0       0       0       0       0       0       0       0
  5049 ;;Total ram usage:        3 bytes
  5050 ;; Hardware stack levels used:    1
  5051 ;; Hardware stack levels required when called:    4
  5052 ;; This function calls:
  5053 ;;		Nothing
  5054 ;; This function is called by:
  5055 ;;		_main
  5056 ;; This function uses a non-reentrant model
  5057 ;;
  5058                           
  5059                           
  5060                           ;psect for function _init_pic
  5061  1B7C                     _init_pic:	
  5062                           
  5063                           ;main.c: 338: ANSELA = 0;
  5064                           
  5065                           ;incstack = 0
  5066                           ; Regs used in _init_pic: [wreg+status,2+status,0]
  5067  1B7C  0023               	movlb	3	; select bank3
  5068  1B7D  018C               	clrf	12	;volatile
  5069                           
  5070                           ;main.c: 339: ANSELB = 0;
  5071  1B7E  018D               	clrf	13	;volatile
  5072                           
  5073                           ;main.c: 342: LATBbits.LATB2 = 1;
  5074  1B7F  0022               	movlb	2	; select bank2
  5075  1B80  150D               	bsf	13,2	;volatile
  5076                           
  5077                           ;main.c: 343: LATBbits.LATB3 = 1;
  5078  1B81  158D               	bsf	13,3	;volatile
  5079                           
  5080                           ;main.c: 344: PORTBbits.RB2 = 1;
  5081  1B82  0020               	movlb	0	; select bank0
  5082  1B83  150D               	bsf	13,2	;volatile
  5083                           
  5084                           ;main.c: 345: PORTBbits.RB3 = 1;
  5085  1B84  158D               	bsf	13,3	;volatile
  5086                           
  5087                           ;main.c: 348: WPUB2 = 1;
  5088  1B85  0024               	movlb	4	; select bank4
  5089  1B86  150D               	bsf	13,2	;volatile
  5090                           
  5091                           ;main.c: 349: WPUB3 = 1;
  5092  1B87  158D               	bsf	13,3	;volatile
  5093                           
  5094                           ;main.c: 352: OSCCON |= 0b11111000;
  5095  1B88  30F8               	movlw	248
  5096  1B89  0020               	movlb	0	; select bank0
  5097  1B8A  00C0               	movwf	??_init_pic
  5098  1B8B  0840               	movf	??_init_pic,w
  5099  1B8C  0021               	movlb	1	; select bank1
  5100  1B8D  0499               	iorwf	25,f	;volatile
  5101                           
  5102                           ;main.c: 354: _delay((unsigned long)((100)*(32000000/4000.0)));
  5103  1B8E  3005               	movlw	5
  5104  1B8F  0020               	movlb	0	; select bank0
  5105  1B90  00C2               	movwf	??_init_pic+2
  5106  1B91  300F               	movlw	15
  5107  1B92  00C1               	movwf	??_init_pic+1
  5108  1B93  30F4               	movlw	244
  5109  1B94  00C0               	movwf	??_init_pic
  5110  1B95                     u5367:	
  5111  1B95  0BC0               	decfsz	??_init_pic,f
  5112  1B96  2B95               	goto	u5367
  5113  1B97  0BC1               	decfsz	??_init_pic+1,f
  5114  1B98  2B95               	goto	u5367
  5115  1B99  0BC2               	decfsz	??_init_pic+2,f
  5116  1B9A  2B95               	goto	u5367
  5117                           
  5118                           ;main.c: 357: TRISB &= 0b11110011;
  5119  1B9B  30F3               	movlw	243
  5120  1B9C  0020               	movlb	0	; select bank0
  5121  1B9D  00C0               	movwf	??_init_pic
  5122  1B9E  0840               	movf	??_init_pic,w
  5123  1B9F  0021               	movlb	1	; select bank1
  5124  1BA0  058D               	andwf	13,f	;volatile
  5125                           
  5126                           ;main.c: 358: RB2 = 1;
  5127  1BA1  0020               	movlb	0	; select bank0
  5128  1BA2  150D               	bsf	13,2	;volatile
  5129                           
  5130                           ;main.c: 359: RB3 = 1;
  5131  1BA3  158D               	bsf	13,3	;volatile
  5132                           
  5133                           ;main.c: 362: if(RB2 == 0 || RB3 == 0)
  5134  1BA4  190D               	btfsc	13,2	;volatile
  5135  1BA5  1D8D               	btfss	13,3	;volatile
  5136  1BA6  0001               	reset	;# 
  5137                           
  5138                           ;main.c: 365: }
  5139                           ;main.c: 368: GIE = 1;
  5140  1BA7  178B               	bsf	11,7	;volatile
  5141  1BA8  0008               	return
  5142  1BA9                     __end_of_init_pic:	
  5143                           
  5144                           	psect	text3
  5145  1D2D                     __ptext3:	
  5146 ;; *************** function _init_leds *****************
  5147 ;; Defined at:
  5148 ;;		line 40 in file "../../source/lighting.c"
  5149 ;; Parameters:    Size  Location     Type
  5150 ;;		None
  5151 ;; Auto vars:     Size  Location     Type
  5152 ;;		None
  5153 ;; Return value:  Size  Location     Type
  5154 ;;		None               void
  5155 ;; Registers used:
  5156 ;;		wreg, status,2, status,0, pclath, cstack
  5157 ;; Tracked objects:
  5158 ;;		On entry : 0/0
  5159 ;;		On exit  : 0/0
  5160 ;;		Unchanged: 0/0
  5161 ;; Data sizes:     COMMON   BANK0   BANK1   BANK2   BANK3   BANK4   BANK5   BANK6   BANK7   BANK8   BANK9  BANK10  BANK1
      +1  BANK12  BANK13  BANK14  BANK15  BANK16  BANK17  BANK18  BANK19  BANK20  BANK21  BANK22  BANK23  BANK24  BANK25
  5162 ;;      Params:         0       0       0       0       0       0       0       0       0       0       0       0       
      +0       0       0       0       0       0       0       0       0       0       0       0       0       0       0
  5163 ;;      Locals:         0       0       0       0       0       0       0       0       0       0       0       0       
      +0       0       0       0       0       0       0       0       0       0       0       0       0       0       0
  5164 ;;      Temps:          0       1       0       0       0       0       0       0       0       0       0       0       
      +0       0       0       0       0       0       0       0       0       0       0       0       0       0       0
  5165 ;;      Totals:         0       1       0       0       0       0       0       0       0       0       0       0       
      +0       0       0       0       0       0       0       0       0       0       0       0       0       0       0
  5166 ;;Total ram usage:        1 bytes
  5167 ;; Hardware stack levels used:    1
  5168 ;; Hardware stack levels required when called:    6
  5169 ;; This function calls:
  5170 ;;		_leds_off
  5171 ;; This function is called by:
  5172 ;;		_main
  5173 ;; This function uses a non-reentrant model
  5174 ;;
  5175                           
  5176                           
  5177                           ;psect for function _init_leds
  5178  1D2D                     _init_leds:	
  5179                           
  5180                           ;lighting.c: 43: TRISC &= 0b10001111;
  5181                           
  5182                           ;incstack = 0
  5183                           ; Regs used in _init_leds: [wreg+status,2+status,0+pclath+cstack]
  5184  1D2D  308F               	movlw	143
  5185  1D2E  0020               	movlb	0	; select bank0
  5186  1D2F  00C5               	movwf	??_init_leds
  5187  1D30  0845               	movf	??_init_leds,w
  5188  1D31  0021               	movlb	1	; select bank1
  5189  1D32  058E               	andwf	14,f	;volatile
  5190                           
  5191                           ;lighting.c: 46: TRISBbits.TRISB7 = 0;
  5192  1D33  138D               	bcf	13,7	;volatile
  5193                           
  5194                           ;lighting.c: 47: TRISBbits.TRISB5 = 0;
  5195  1D34  128D               	bcf	13,5	;volatile
  5196                           
  5197                           ;lighting.c: 51: PSMC2CON = 0x00;
  5198  1D35  003D               	movlb	29	; select bank29
  5199  1D36  01B1               	clrf	49	;volatile
  5200                           
  5201                           ;lighting.c: 52: PSMC2MDL = 0x00;
  5202  1D37  01B2               	clrf	50	;volatile
  5203                           
  5204                           ;lighting.c: 53: PSMC2SYNC = 0x00;
  5205  1D38  01B3               	clrf	51	;volatile
  5206                           
  5207                           ;lighting.c: 54: PSMC2CLK = 0x00;
  5208  1D39  01B4               	clrf	52	;volatile
  5209                           
  5210                           ;lighting.c: 55: PSMC2POL = 0x00;
  5211  1D3A  01B6               	clrf	54	;volatile
  5212                           
  5213                           ;lighting.c: 56: PSMC2BLNK = 0x00;
  5214  1D3B  01B7               	clrf	55	;volatile
  5215                           
  5216                           ;lighting.c: 57: PSMC2REBS = 0x00;
  5217  1D3C  01B8               	clrf	56	;volatile
  5218                           
  5219                           ;lighting.c: 58: PSMC2FEBS = 0x00;
  5220  1D3D  01B9               	clrf	57	;volatile
  5221                           
  5222                           ;lighting.c: 59: PSMC2PHS = 0x01;
  5223  1D3E  3001               	movlw	1
  5224  1D3F  00BA               	movwf	58	;volatile
  5225                           
  5226                           ;lighting.c: 60: PSMC2DCS = 0x01;
  5227  1D40  3001               	movlw	1
  5228  1D41  00BB               	movwf	59	;volatile
  5229                           
  5230                           ;lighting.c: 61: PSMC2PRS = 0x01;
  5231  1D42  3001               	movlw	1
  5232  1D43  00BC               	movwf	60	;volatile
  5233                           
  5234                           ;lighting.c: 62: PSMC2ASDC = 0x00;
  5235  1D44  01BD               	clrf	61	;volatile
  5236                           
  5237                           ;lighting.c: 63: PSMC2ASDL = 0x01;
  5238  1D45  3001               	movlw	1
  5239  1D46  00BE               	movwf	62	;volatile
  5240                           
  5241                           ;lighting.c: 64: PSMC2ASDS = 0x00;
  5242  1D47  01BF               	clrf	63	;volatile
  5243                           
  5244                           ;lighting.c: 65: PSMC2PHH = 0x00;
  5245  1D48  01C2               	clrf	66	;volatile
  5246                           
  5247                           ;lighting.c: 66: PSMC2PHL = 0x00;
  5248  1D49  01C1               	clrf	65	;volatile
  5249                           
  5250                           ;lighting.c: 67: PSMC2DCH = 0x01;
  5251  1D4A  3001               	movlw	1
  5252  1D4B  00C4               	movwf	68	;volatile
  5253                           
  5254                           ;lighting.c: 68: PSMC2DCL = 0xF4;
  5255  1D4C  30F4               	movlw	244
  5256  1D4D  00C3               	movwf	67	;volatile
  5257                           
  5258                           ;lighting.c: 69: PSMC2PRH = 0x03;
  5259  1D4E  3003               	movlw	3
  5260  1D4F  00C6               	movwf	70	;volatile
  5261                           
  5262                           ;lighting.c: 70: PSMC2PRL = 0xE7;
  5263  1D50  30E7               	movlw	231
  5264  1D51  00C5               	movwf	69	;volatile
  5265                           
  5266                           ;lighting.c: 71: PSMC2DBR = 0x00;
  5267  1D52  01C9               	clrf	73	;volatile
  5268                           
  5269                           ;lighting.c: 72: PSMC2DBF = 0x00;
  5270  1D53  01CA               	clrf	74	;volatile
  5271                           
  5272                           ;lighting.c: 73: PSMC2FFA = 0x00;
  5273  1D54  01CD               	clrf	77	;volatile
  5274                           
  5275                           ;lighting.c: 74: PSMC2BLKR = 0x00;
  5276  1D55  01CB               	clrf	75	;volatile
  5277                           
  5278                           ;lighting.c: 75: PSMC2BLKF = 0x00;
  5279  1D56  01CC               	clrf	76	;volatile
  5280                           
  5281                           ;lighting.c: 76: PSMC2STR0 = 0x01;
  5282  1D57  3001               	movlw	1
  5283  1D58  00CE               	movwf	78	;volatile
  5284                           
  5285                           ;lighting.c: 77: PSMC2STR1 = 0x00;
  5286  1D59  01CF               	clrf	79	;volatile
  5287                           
  5288                           ;lighting.c: 78: PSMC2INT = 0x00;
  5289  1D5A  01C0               	clrf	64	;volatile
  5290                           
  5291                           ;lighting.c: 79: PSMC2OEN = 0x01;
  5292  1D5B  3001               	movlw	1
  5293  1D5C  00B5               	movwf	53	;volatile
  5294                           
  5295                           ;lighting.c: 80: PSMC2CON = 0x80;
  5296  1D5D  3080               	movlw	128
  5297  1D5E  00B1               	movwf	49	;volatile
  5298                           
  5299                           ;lighting.c: 81: PIE4 &= 0xDD;
  5300  1D5F  30DD               	movlw	221
  5301  1D60  0020               	movlb	0	; select bank0
  5302  1D61  00C5               	movwf	??_init_leds
  5303  1D62  0845               	movf	??_init_leds,w
  5304  1D63  0021               	movlb	1	; select bank1
  5305  1D64  0594               	andwf	20,f	;volatile
  5306                           
  5307                           ;lighting.c: 82: PIE4 |= 0x00;
  5308  1D65  0814               	movf	20,w	;volatile
  5309                           
  5310                           ;lighting.c: 85: PSMC3CON = 0x00;
  5311  1D66  003D               	movlb	29	; select bank29
  5312  1D67  01D1               	clrf	81	;volatile
  5313                           
  5314                           ;lighting.c: 86: PSMC3MDL = 0x00;
  5315  1D68  01D2               	clrf	82	;volatile
  5316                           
  5317                           ;lighting.c: 87: PSMC3SYNC = 0x02;
  5318  1D69  3002               	movlw	2
  5319  1D6A  00D3               	movwf	83	;volatile
  5320                           
  5321                           ;lighting.c: 88: PSMC3CLK = 0x00;
  5322  1D6B  01D4               	clrf	84	;volatile
  5323                           
  5324                           ;lighting.c: 89: PSMC3POL = 0x00;
  5325  1D6C  01D6               	clrf	86	;volatile
  5326                           
  5327                           ;lighting.c: 90: PSMC3BLNK = 0x00;
  5328  1D6D  01D7               	clrf	87	;volatile
  5329                           
  5330                           ;lighting.c: 91: PSMC3REBS = 0x00;
  5331  1D6E  01D8               	clrf	88	;volatile
  5332                           
  5333                           ;lighting.c: 92: PSMC3FEBS = 0x00;
  5334  1D6F  01D9               	clrf	89	;volatile
  5335                           
  5336                           ;lighting.c: 93: PSMC3PHS = 0x01;
  5337  1D70  3001               	movlw	1
  5338  1D71  00DA               	movwf	90	;volatile
  5339                           
  5340                           ;lighting.c: 94: PSMC3DCS = 0x01;
  5341  1D72  3001               	movlw	1
  5342  1D73  00DB               	movwf	91	;volatile
  5343                           
  5344                           ;lighting.c: 95: PSMC3PRS = 0x01;
  5345  1D74  3001               	movlw	1
  5346  1D75  00DC               	movwf	92	;volatile
  5347                           
  5348                           ;lighting.c: 96: PSMC3ASDC = 0x00;
  5349  1D76  01DD               	clrf	93	;volatile
  5350                           
  5351                           ;lighting.c: 97: PSMC3ASDL = 0x01;
  5352  1D77  3001               	movlw	1
  5353  1D78  00DE               	movwf	94	;volatile
  5354                           
  5355                           ;lighting.c: 98: PSMC3ASDS = 0x00;
  5356  1D79  01DF               	clrf	95	;volatile
  5357                           
  5358                           ;lighting.c: 99: PSMC3PHH = 0x00;
  5359  1D7A  01E2               	clrf	98	;volatile
  5360                           
  5361                           ;lighting.c: 100: PSMC3PHL = 0x00;
  5362  1D7B  01E1               	clrf	97	;volatile
  5363                           
  5364                           ;lighting.c: 101: PSMC3DCH = 0x01;
  5365  1D7C  3001               	movlw	1
  5366  1D7D  00E4               	movwf	100	;volatile
  5367                           
  5368                           ;lighting.c: 102: PSMC3DCL = 0xF4;
  5369  1D7E  30F4               	movlw	244
  5370  1D7F  00E3               	movwf	99	;volatile
  5371                           
  5372                           ;lighting.c: 103: PSMC3PRH = 0x03;
  5373  1D80  3003               	movlw	3
  5374  1D81  00E6               	movwf	102	;volatile
  5375                           
  5376                           ;lighting.c: 104: PSMC3PRL = 0xE7;
  5377  1D82  30E7               	movlw	231
  5378  1D83  00E5               	movwf	101	;volatile
  5379                           
  5380                           ;lighting.c: 105: PSMC3DBR = 0x00;
  5381  1D84  01E9               	clrf	105	;volatile
  5382                           
  5383                           ;lighting.c: 106: PSMC3DBF = 0x00;
  5384  1D85  01EA               	clrf	106	;volatile
  5385                           
  5386                           ;lighting.c: 107: PSMC3FFA = 0x00;
  5387  1D86  01ED               	clrf	109	;volatile
  5388                           
  5389                           ;lighting.c: 108: PSMC3BLKR = 0x00;
  5390  1D87  01EB               	clrf	107	;volatile
  5391                           
  5392                           ;lighting.c: 109: PSMC3BLKF = 0x00;
  5393  1D88  01EC               	clrf	108	;volatile
  5394                           
  5395                           ;lighting.c: 110: PSMC3STR0 = 0x01;
  5396  1D89  3001               	movlw	1
  5397  1D8A  00EE               	movwf	110	;volatile
  5398                           
  5399                           ;lighting.c: 111: PSMC3STR1 = 0x00;
  5400  1D8B  01EF               	clrf	111	;volatile
  5401                           
  5402                           ;lighting.c: 112: PSMC3INT = 0x00;
  5403  1D8C  01E0               	clrf	96	;volatile
  5404                           
  5405                           ;lighting.c: 113: PSMC3OEN = 0x01;
  5406  1D8D  3001               	movlw	1
  5407  1D8E  00D5               	movwf	85	;volatile
  5408                           
  5409                           ;lighting.c: 114: PSMC3CON = 0x80;
  5410  1D8F  3080               	movlw	128
  5411  1D90  00D1               	movwf	81	;volatile
  5412                           
  5413                           ;lighting.c: 115: PIE4 &= 0xBB;
  5414  1D91  30BB               	movlw	187
  5415  1D92  0020               	movlb	0	; select bank0
  5416  1D93  00C5               	movwf	??_init_leds
  5417  1D94  0845               	movf	??_init_leds,w
  5418  1D95  0021               	movlb	1	; select bank1
  5419  1D96  0594               	andwf	20,f	;volatile
  5420                           
  5421                           ;lighting.c: 116: PIE4 |= 0x00;
  5422  1D97  0814               	movf	20,w	;volatile
  5423                           
  5424                           ;lighting.c: 119: PSMC4CON = 0x00;
  5425  1D98  003E               	movlb	30	; select bank30
  5426  1D99  0191               	clrf	17	;volatile
  5427                           
  5428                           ;lighting.c: 120: PSMC4MDL = 0x00;
  5429  1D9A  0192               	clrf	18	;volatile
  5430                           
  5431                           ;lighting.c: 121: PSMC4SYNC = 0x02;
  5432  1D9B  3002               	movlw	2
  5433  1D9C  0093               	movwf	19	;volatile
  5434                           
  5435                           ;lighting.c: 122: PSMC4CLK = 0x00;
  5436  1D9D  0194               	clrf	20	;volatile
  5437                           
  5438                           ;lighting.c: 123: PSMC4POL = 0x00;
  5439  1D9E  0196               	clrf	22	;volatile
  5440                           
  5441                           ;lighting.c: 124: PSMC4BLNK = 0x00;
  5442  1D9F  0197               	clrf	23	;volatile
  5443                           
  5444                           ;lighting.c: 125: PSMC4REBS = 0x00;
  5445  1DA0  0198               	clrf	24	;volatile
  5446                           
  5447                           ;lighting.c: 126: PSMC4FEBS = 0x00;
  5448  1DA1  0199               	clrf	25	;volatile
  5449                           
  5450                           ;lighting.c: 127: PSMC4PHS = 0x01;
  5451  1DA2  3001               	movlw	1
  5452  1DA3  009A               	movwf	26	;volatile
  5453                           
  5454                           ;lighting.c: 128: PSMC4DCS = 0x01;
  5455  1DA4  3001               	movlw	1
  5456  1DA5  009B               	movwf	27	;volatile
  5457                           
  5458                           ;lighting.c: 129: PSMC4PRS = 0x01;
  5459  1DA6  3001               	movlw	1
  5460  1DA7  009C               	movwf	28	;volatile
  5461                           
  5462                           ;lighting.c: 130: PSMC4ASDC = 0x00;
  5463  1DA8  019D               	clrf	29	;volatile
  5464                           
  5465                           ;lighting.c: 131: PSMC4ASDL = 0x02;
  5466  1DA9  3002               	movlw	2
  5467  1DAA  009E               	movwf	30	;volatile
  5468                           
  5469                           ;lighting.c: 132: PSMC4ASDS = 0x00;
  5470  1DAB  019F               	clrf	31	;volatile
  5471                           
  5472                           ;lighting.c: 133: PSMC4PHH = 0x00;
  5473  1DAC  01A2               	clrf	34	;volatile
  5474                           
  5475                           ;lighting.c: 134: PSMC4PHL = 0x00;
  5476  1DAD  01A1               	clrf	33	;volatile
  5477                           
  5478                           ;lighting.c: 135: PSMC4DCH = 0x01;
  5479  1DAE  3001               	movlw	1
  5480  1DAF  00A4               	movwf	36	;volatile
  5481                           
  5482                           ;lighting.c: 136: PSMC4DCL = 0xF4;
  5483  1DB0  30F4               	movlw	244
  5484  1DB1  00A3               	movwf	35	;volatile
  5485                           
  5486                           ;lighting.c: 137: PSMC4PRH = 0x03;
  5487  1DB2  3003               	movlw	3
  5488  1DB3  00A6               	movwf	38	;volatile
  5489                           
  5490                           ;lighting.c: 138: PSMC4PRL = 0xE7;
  5491  1DB4  30E7               	movlw	231
  5492  1DB5  00A5               	movwf	37	;volatile
  5493                           
  5494                           ;lighting.c: 139: PSMC4DBR = 0x00;
  5495  1DB6  01A9               	clrf	41	;volatile
  5496                           
  5497                           ;lighting.c: 140: PSMC4DBF = 0x00;
  5498  1DB7  01AA               	clrf	42	;volatile
  5499                           
  5500                           ;lighting.c: 141: PSMC4FFA = 0x00;
  5501  1DB8  01AD               	clrf	45	;volatile
  5502                           
  5503                           ;lighting.c: 142: PSMC4BLKR = 0x00;
  5504  1DB9  01AB               	clrf	43	;volatile
  5505                           
  5506                           ;lighting.c: 143: PSMC4BLKF = 0x00;
  5507  1DBA  01AC               	clrf	44	;volatile
  5508                           
  5509                           ;lighting.c: 144: PSMC4STR0 = 0x02;
  5510  1DBB  3002               	movlw	2
  5511  1DBC  00AE               	movwf	46	;volatile
  5512                           
  5513                           ;lighting.c: 145: PSMC4STR1 = 0x00;
  5514  1DBD  01AF               	clrf	47	;volatile
  5515                           
  5516                           ;lighting.c: 146: PSMC4INT = 0x00;
  5517  1DBE  01A0               	clrf	32	;volatile
  5518                           
  5519                           ;lighting.c: 147: PSMC4OEN = 0x02;
  5520  1DBF  3002               	movlw	2
  5521  1DC0  0095               	movwf	21	;volatile
  5522                           
  5523                           ;lighting.c: 148: PSMC4CON = 0x80;
  5524  1DC1  3080               	movlw	128
  5525  1DC2  0091               	movwf	17	;volatile
  5526                           
  5527                           ;lighting.c: 149: PIE4 &= 0x77;
  5528  1DC3  3077               	movlw	119
  5529  1DC4  0020               	movlb	0	; select bank0
  5530  1DC5  00C5               	movwf	??_init_leds
  5531  1DC6  0845               	movf	??_init_leds,w
  5532  1DC7  0021               	movlb	1	; select bank1
  5533  1DC8  0594               	andwf	20,f	;volatile
  5534                           
  5535                           ;lighting.c: 150: PIE4 |= 0x00;
  5536  1DC9  0814               	movf	20,w	;volatile
  5537                           
  5538                           ;lighting.c: 154: SSPEN = 0;
  5539  1DCA  0024               	movlb	4	; select bank4
  5540  1DCB  1295               	bcf	21,5	;volatile
  5541                           
  5542                           ;lighting.c: 155: SSPCON1 = 0b00100000;
  5543  1DCC  3020               	movlw	32
  5544  1DCD  0095               	movwf	21	;volatile
  5545                           
  5546                           ;lighting.c: 156: SCKSEL = 1;
  5547  1DCE  0022               	movlb	2	; select bank2
  5548  1DCF  161D               	bsf	29,4	;volatile
  5549                           
  5550                           ;lighting.c: 157: SDOSEL = 1;
  5551  1DD0  169D               	bsf	29,5	;volatile
  5552                           
  5553                           ;lighting.c: 158: SDISEL = 1;
  5554  1DD1  159D               	bsf	29,3	;volatile
  5555                           
  5556                           ;lighting.c: 160: SSPEN = 1;
  5557  1DD2  0024               	movlb	4	; select bank4
  5558  1DD3  1695               	bsf	21,5	;volatile
  5559                           
  5560                           ;lighting.c: 163: leds_off();
  5561  1DD4  3195  25A1         	fcall	_leds_off
  5562  1DD6  0008               	return
  5563  1DD7                     __end_of_init_leds:	
  5564                           
  5565                           	psect	text4
  5566  1B01                     __ptext4:	
  5567 ;; *************** function _init_isr *****************
  5568 ;; Defined at:
  5569 ;;		line 19 in file "../../source/interrupt.c"
  5570 ;; Parameters:    Size  Location     Type
  5571 ;;		None
  5572 ;; Auto vars:     Size  Location     Type
  5573 ;;		None
  5574 ;; Return value:  Size  Location     Type
  5575 ;;		None               void
  5576 ;; Registers used:
  5577 ;;		wreg, status,2
  5578 ;; Tracked objects:
  5579 ;;		On entry : 0/0
  5580 ;;		On exit  : 0/0
  5581 ;;		Unchanged: 0/0
  5582 ;; Data sizes:     COMMON   BANK0   BANK1   BANK2   BANK3   BANK4   BANK5   BANK6   BANK7   BANK8   BANK9  BANK10  BANK1
      +1  BANK12  BANK13  BANK14  BANK15  BANK16  BANK17  BANK18  BANK19  BANK20  BANK21  BANK22  BANK23  BANK24  BANK25
  5583 ;;      Params:         0       0       0       0       0       0       0       0       0       0       0       0       
      +0       0       0       0       0       0       0       0       0       0       0       0       0       0       0
  5584 ;;      Locals:         0       0       0       0       0       0       0       0       0       0       0       0       
      +0       0       0       0       0       0       0       0       0       0       0       0       0       0       0
  5585 ;;      Temps:          0       0       0       0       0       0       0       0       0       0       0       0       
      +0       0       0       0       0       0       0       0       0       0       0       0       0       0       0
  5586 ;;      Totals:         0       0       0       0       0       0       0       0       0       0       0       0       
      +0       0       0       0       0       0       0       0       0       0       0       0       0       0       0
  5587 ;;Total ram usage:        0 bytes
  5588 ;; Hardware stack levels used:    1
  5589 ;; Hardware stack levels required when called:    4
  5590 ;; This function calls:
  5591 ;;		Nothing
  5592 ;; This function is called by:
  5593 ;;		_main
  5594 ;; This function uses a non-reentrant model
  5595 ;;
  5596                           
  5597                           
  5598                           ;psect for function _init_isr
  5599  1B01                     _init_isr:	
  5600                           
  5601                           ;interrupt.c: 21: INTCON = 0b11011000;
  5602                           
  5603                           ;incstack = 0
  5604                           ; Regs used in _init_isr: [wreg+status,2]
  5605  1B01  30D8               	movlw	216
  5606  1B02  008B               	movwf	11	;volatile
  5607                           
  5608                           ;interrupt.c: 24: IOCAP = IOCAP | 0b00010010;
  5609  1B03  0027               	movlb	7	; select bank7
  5610  1B04  0811               	movf	17,w	;volatile
  5611  1B05  3812               	iorlw	18
  5612  1B06  0091               	movwf	17	;volatile
  5613                           
  5614                           ;interrupt.c: 27: IOCAN = IOCAN | 0b00010000;
  5615  1B07  0812               	movf	18,w	;volatile
  5616  1B08  3810               	iorlw	16
  5617  1B09  0092               	movwf	18	;volatile
  5618                           
  5619                           ;interrupt.c: 31: T1CON = 0b00110001;
  5620  1B0A  3031               	movlw	49
  5621  1B0B  0020               	movlb	0	; select bank0
  5622  1B0C  0098               	movwf	24	;volatile
  5623                           
  5624                           ;interrupt.c: 34: TRISA |= 0b00010000;
  5625  1B0D  0021               	movlb	1	; select bank1
  5626  1B0E  160C               	bsf	12,4	;volatile
  5627  1B0F  0008               	return
  5628  1B10                     __end_of_init_isr:	
  5629                           
  5630                           	psect	text5
  5631  1BA9                     __ptext5:	
  5632 ;; *************** function _init_ir *****************
  5633 ;; Defined at:
  5634 ;;		line 3 in file "../../source/ir.c"
  5635 ;; Parameters:    Size  Location     Type
  5636 ;;		None
  5637 ;; Auto vars:     Size  Location     Type
  5638 ;;		None
  5639 ;; Return value:  Size  Location     Type
  5640 ;;		None               void
  5641 ;; Registers used:
  5642 ;;		wreg, status,2, status,0
  5643 ;; Tracked objects:
  5644 ;;		On entry : 0/0
  5645 ;;		On exit  : 0/0
  5646 ;;		Unchanged: 0/0
  5647 ;; Data sizes:     COMMON   BANK0   BANK1   BANK2   BANK3   BANK4   BANK5   BANK6   BANK7   BANK8   BANK9  BANK10  BANK1
      +1  BANK12  BANK13  BANK14  BANK15  BANK16  BANK17  BANK18  BANK19  BANK20  BANK21  BANK22  BANK23  BANK24  BANK25
  5648 ;;      Params:         0       0       0       0       0       0       0       0       0       0       0       0       
      +0       0       0       0       0       0       0       0       0       0       0       0       0       0       0
  5649 ;;      Locals:         0       0       0       0       0       0       0       0       0       0       0       0       
      +0       0       0       0       0       0       0       0       0       0       0       0       0       0       0
  5650 ;;      Temps:          0       1       0       0       0       0       0       0       0       0       0       0       
      +0       0       0       0       0       0       0       0       0       0       0       0       0       0       0
  5651 ;;      Totals:         0       1       0       0       0       0       0       0       0       0       0       0       
      +0       0       0       0       0       0       0       0       0       0       0       0       0       0       0
  5652 ;;Total ram usage:        1 bytes
  5653 ;; Hardware stack levels used:    1
  5654 ;; Hardware stack levels required when called:    4
  5655 ;; This function calls:
  5656 ;;		Nothing
  5657 ;; This function is called by:
  5658 ;;		_main
  5659 ;; This function uses a non-reentrant model
  5660 ;;
  5661                           
  5662                           
  5663                           ;psect for function _init_ir
  5664  1BA9                     _init_ir:	
  5665                           
  5666                           ;ir.c: 5: TRISC &= 0b11110111;
  5667                           
  5668                           ;incstack = 0
  5669                           ; Regs used in _init_ir: [wreg+status,2+status,0]
  5670  1BA9  30F7               	movlw	247
  5671  1BAA  0020               	movlb	0	; select bank0
  5672  1BAB  00C0               	movwf	??_init_ir
  5673  1BAC  0840               	movf	??_init_ir,w
  5674  1BAD  0021               	movlb	1	; select bank1
  5675  1BAE  058E               	andwf	14,f	;volatile
  5676                           
  5677                           ;ir.c: 7: PSMC1CON = 0x00;
  5678  1BAF  003D               	movlb	29	; select bank29
  5679  1BB0  0191               	clrf	17	;volatile
  5680                           
  5681                           ;ir.c: 8: PSMC1MDL = 0x80;
  5682  1BB1  3080               	movlw	128
  5683  1BB2  0092               	movwf	18	;volatile
  5684                           
  5685                           ;ir.c: 9: PSMC1SYNC = 0x00;
  5686  1BB3  0193               	clrf	19	;volatile
  5687                           
  5688                           ;ir.c: 10: PSMC1CLK = 0x00;
  5689  1BB4  0194               	clrf	20	;volatile
  5690                           
  5691                           ;ir.c: 11: PSMC1POL = 0x00;
  5692  1BB5  0196               	clrf	22	;volatile
  5693                           
  5694                           ;ir.c: 12: PSMC1BLNK = 0x00;
  5695  1BB6  0197               	clrf	23	;volatile
  5696                           
  5697                           ;ir.c: 13: PSMC1REBS = 0x00;
  5698  1BB7  0198               	clrf	24	;volatile
  5699                           
  5700                           ;ir.c: 14: PSMC1FEBS = 0x00;
  5701  1BB8  0199               	clrf	25	;volatile
  5702                           
  5703                           ;ir.c: 15: PSMC1PHS = 0x01;
  5704  1BB9  3001               	movlw	1
  5705  1BBA  009A               	movwf	26	;volatile
  5706                           
  5707                           ;ir.c: 16: PSMC1DCS = 0x01;
  5708  1BBB  3001               	movlw	1
  5709  1BBC  009B               	movwf	27	;volatile
  5710                           
  5711                           ;ir.c: 17: PSMC1PRS = 0x01;
  5712  1BBD  3001               	movlw	1
  5713  1BBE  009C               	movwf	28	;volatile
  5714                           
  5715                           ;ir.c: 18: PSMC1ASDC = 0x00;
  5716  1BBF  019D               	clrf	29	;volatile
  5717                           
  5718                           ;ir.c: 19: PSMC1ASDL = 0x08;
  5719  1BC0  3008               	movlw	8
  5720  1BC1  009E               	movwf	30	;volatile
  5721                           
  5722                           ;ir.c: 20: PSMC1ASDS = 0x00;
  5723  1BC2  019F               	clrf	31	;volatile
  5724                           
  5725                           ;ir.c: 21: PSMC1PHH = 0x00;
  5726  1BC3  01A2               	clrf	34	;volatile
  5727                           
  5728                           ;ir.c: 22: PSMC1PHL = 0x00;
  5729  1BC4  01A1               	clrf	33	;volatile
  5730                           
  5731                           ;ir.c: 23: PSMC1DCH = 0x01;
  5732  1BC5  3001               	movlw	1
  5733  1BC6  00A4               	movwf	36	;volatile
  5734                           
  5735                           ;ir.c: 24: PSMC1DCL = 0x6A;
  5736  1BC7  306A               	movlw	106
  5737  1BC8  00A3               	movwf	35	;volatile
  5738                           
  5739                           ;ir.c: 25: PSMC1PRH = 0x02;
  5740  1BC9  3002               	movlw	2
  5741  1BCA  00A6               	movwf	38	;volatile
  5742                           
  5743                           ;ir.c: 26: PSMC1PRL = 0x3A;
  5744  1BCB  303A               	movlw	58
  5745  1BCC  00A5               	movwf	37	;volatile
  5746                           
  5747                           ;ir.c: 27: PSMC1DBR = 0x00;
  5748  1BCD  01A9               	clrf	41	;volatile
  5749                           
  5750                           ;ir.c: 28: PSMC1DBF = 0x00;
  5751  1BCE  01AA               	clrf	42	;volatile
  5752                           
  5753                           ;ir.c: 29: PSMC1FFA = 0x00;
  5754  1BCF  01AD               	clrf	45	;volatile
  5755                           
  5756                           ;ir.c: 30: PSMC1BLKR = 0x00;
  5757  1BD0  01AB               	clrf	43	;volatile
  5758                           
  5759                           ;ir.c: 31: PSMC1BLKF = 0x00;
  5760  1BD1  01AC               	clrf	44	;volatile
  5761                           
  5762                           ;ir.c: 32: PSMC1STR0 = 0x08;
  5763  1BD2  3008               	movlw	8
  5764  1BD3  00AE               	movwf	46	;volatile
  5765                           
  5766                           ;ir.c: 33: PSMC1STR1 = 0x00;
  5767  1BD4  01AF               	clrf	47	;volatile
  5768                           
  5769                           ;ir.c: 34: PSMC1INT = 0x00;
  5770  1BD5  01A0               	clrf	32	;volatile
  5771                           
  5772                           ;ir.c: 35: PSMC1OEN = 0x08;
  5773  1BD6  3008               	movlw	8
  5774  1BD7  0095               	movwf	21	;volatile
  5775                           
  5776                           ;ir.c: 36: PSMC1CON = 0x80;
  5777  1BD8  3080               	movlw	128
  5778  1BD9  0091               	movwf	17	;volatile
  5779                           
  5780                           ;ir.c: 37: PIE4 &= 0xEE;
  5781  1BDA  30EE               	movlw	238
  5782  1BDB  0020               	movlb	0	; select bank0
  5783  1BDC  00C0               	movwf	??_init_ir
  5784  1BDD  0840               	movf	??_init_ir,w
  5785  1BDE  0021               	movlb	1	; select bank1
  5786  1BDF  0594               	andwf	20,f	;volatile
  5787                           
  5788                           ;ir.c: 38: PIE4 |= 0x00;
  5789  1BE0  0814               	movf	20,w	;volatile
  5790  1BE1  0008               	return
  5791  1BE2                     __end_of_init_ir:	
  5792                           
  5793                           	psect	text6
  5794  1004                     __ptext6:	
  5795 ;; *************** function _init_conn *****************
  5796 ;; Defined at:
  5797 ;;		line 3 in file "../../source/blade_connection.c"
  5798 ;; Parameters:    Size  Location     Type
  5799 ;;		None
  5800 ;; Auto vars:     Size  Location     Type
  5801 ;;		None
  5802 ;; Return value:  Size  Location     Type
  5803 ;;		None               void
  5804 ;; Registers used:
  5805 ;;		None
  5806 ;; Tracked objects:
  5807 ;;		On entry : 0/0
  5808 ;;		On exit  : 0/0
  5809 ;;		Unchanged: 0/0
  5810 ;; Data sizes:     COMMON   BANK0   BANK1   BANK2   BANK3   BANK4   BANK5   BANK6   BANK7   BANK8   BANK9  BANK10  BANK1
      +1  BANK12  BANK13  BANK14  BANK15  BANK16  BANK17  BANK18  BANK19  BANK20  BANK21  BANK22  BANK23  BANK24  BANK25
  5811 ;;      Params:         0       0       0       0       0       0       0       0       0       0       0       0       
      +0       0       0       0       0       0       0       0       0       0       0       0       0       0       0
  5812 ;;      Locals:         0       0       0       0       0       0       0       0       0       0       0       0       
      +0       0       0       0       0       0       0       0       0       0       0       0       0       0       0
  5813 ;;      Temps:          0       0       0       0       0       0       0       0       0       0       0       0       
      +0       0       0       0       0       0       0       0       0       0       0       0       0       0       0
  5814 ;;      Totals:         0       0       0       0       0       0       0       0       0       0       0       0       
      +0       0       0       0       0       0       0       0       0       0       0       0       0       0       0
  5815 ;;Total ram usage:        0 bytes
  5816 ;; Hardware stack levels used:    1
  5817 ;; Hardware stack levels required when called:    4
  5818 ;; This function calls:
  5819 ;;		Nothing
  5820 ;; This function is called by:
  5821 ;;		_main
  5822 ;; This function uses a non-reentrant model
  5823 ;;
  5824                           
  5825                           
  5826                           ;psect for function _init_conn
  5827  1004                     _init_conn:	
  5828                           
  5829                           ;blade_connection.c: 6: TRISA |= 0b00000010;
  5830                           
  5831                           ;incstack = 0
  5832                           ; Regs used in _init_conn: []
  5833  1004  0021               	movlb	1	; select bank1
  5834  1005  148C               	bsf	12,1	;volatile
  5835  1006  0008               	return
  5836  1007                     __end_of_init_conn:	
  5837                           
  5838                           	psect	text7
  5839  1007                     __ptext7:	
  5840 ;; *************** function _init_accel *****************
  5841 ;; Defined at:
  5842 ;;		line 138 in file "../../source/accelerometer.c"
  5843 ;; Parameters:    Size  Location     Type
  5844 ;;		None
  5845 ;; Auto vars:     Size  Location     Type
  5846 ;;		None
  5847 ;; Return value:  Size  Location     Type
  5848 ;;		None               void
  5849 ;; Registers used:
  5850 ;;		wreg, status,2, status,0
  5851 ;; Tracked objects:
  5852 ;;		On entry : 0/0
  5853 ;;		On exit  : 0/0
  5854 ;;		Unchanged: 0/0
  5855 ;; Data sizes:     COMMON   BANK0   BANK1   BANK2   BANK3   BANK4   BANK5   BANK6   BANK7   BANK8   BANK9  BANK10  BANK1
      +1  BANK12  BANK13  BANK14  BANK15  BANK16  BANK17  BANK18  BANK19  BANK20  BANK21  BANK22  BANK23  BANK24  BANK25
  5856 ;;      Params:         0       0       0       0       0       0       0       0       0       0       0       0       
      +0       0       0       0       0       0       0       0       0       0       0       0       0       0       0
  5857 ;;      Locals:         0       0       0       0       0       0       0       0       0       0       0       0       
      +0       0       0       0       0       0       0       0       0       0       0       0       0       0       0
  5858 ;;      Temps:          0       1       0       0       0       0       0       0       0       0       0       0       
      +0       0       0       0       0       0       0       0       0       0       0       0       0       0       0
  5859 ;;      Totals:         0       1       0       0       0       0       0       0       0       0       0       0       
      +0       0       0       0       0       0       0       0       0       0       0       0       0       0       0
  5860 ;;Total ram usage:        1 bytes
  5861 ;; Hardware stack levels used:    1
  5862 ;; Hardware stack levels required when called:    4
  5863 ;; This function calls:
  5864 ;;		Nothing
  5865 ;; This function is called by:
  5866 ;;		_main
  5867 ;; This function uses a non-reentrant model
  5868 ;;
  5869                           
  5870                           
  5871                           ;psect for function _init_accel
  5872  1007                     _init_accel:	
  5873                           
  5874                           ;accelerometer.c: 140: ADCON0 = 0;
  5875                           
  5876                           ;incstack = 0
  5877                           ; Regs used in _init_accel: [wreg+status,2+status,0]
  5878  1007  0021               	movlb	1	; select bank1
  5879  1008  019D               	clrf	29	;volatile
  5880                           
  5881                           ;accelerometer.c: 141: ADCON1 = 0b10000000;
  5882  1009  3080               	movlw	128
  5883  100A  009E               	movwf	30	;volatile
  5884                           
  5885                           ;accelerometer.c: 142: ADCON2 = 0b00001111;
  5886  100B  300F               	movlw	15
  5887  100C  009F               	movwf	31	;volatile
  5888                           
  5889                           ;accelerometer.c: 145: TRISA |= 0b00101100;
  5890  100D  302C               	movlw	44
  5891  100E  0020               	movlb	0	; select bank0
  5892  100F  00C0               	movwf	??_init_accel
  5893  1010  0840               	movf	??_init_accel,w
  5894  1011  0021               	movlb	1	; select bank1
  5895  1012  048C               	iorwf	12,f	;volatile
  5896                           
  5897                           ;accelerometer.c: 146: ANSELA |= 0b00101100;
  5898  1013  302C               	movlw	44
  5899  1014  0020               	movlb	0	; select bank0
  5900  1015  00C0               	movwf	??_init_accel
  5901  1016  0840               	movf	??_init_accel,w
  5902  1017  0023               	movlb	3	; select bank3
  5903  1018  048C               	iorwf	12,f	;volatile
  5904                           
  5905                           ;accelerometer.c: 149: TRISC |= 10000000;
  5906  1019  0021               	movlb	1	; select bank1
  5907  101A  178E               	bsf	14,7	;volatile
  5908  101B  0008               	return
  5909  101C                     __end_of_init_accel:	
  5910                           
  5911                           	psect	text8
  5912  0805                     __ptext8:	
  5913 ;; *************** function _display_health *****************
  5914 ;; Defined at:
  5915 ;;		line 166 in file "../../source/lighting.c"
  5916 ;; Parameters:    Size  Location     Type
  5917 ;;		None
  5918 ;; Auto vars:     Size  Location     Type
  5919 ;;		None
  5920 ;; Return value:  Size  Location     Type
  5921 ;;		None               void
  5922 ;; Registers used:
  5923 ;;		wreg, status,2, status,0
  5924 ;; Tracked objects:
  5925 ;;		On entry : 0/0
  5926 ;;		On exit  : 0/0
  5927 ;;		Unchanged: 0/0
  5928 ;; Data sizes:     COMMON   BANK0   BANK1   BANK2   BANK3   BANK4   BANK5   BANK6   BANK7   BANK8   BANK9  BANK10  BANK1
      +1  BANK12  BANK13  BANK14  BANK15  BANK16  BANK17  BANK18  BANK19  BANK20  BANK21  BANK22  BANK23  BANK24  BANK25
  5929 ;;      Params:         0       0       0       0       0       0       0       0       0       0       0       0       
      +0       0       0       0       0       0       0       0       0       0       0       0       0       0       0
  5930 ;;      Locals:         0       0       0       0       0       0       0       0       0       0       0       0       
      +0       0       0       0       0       0       0       0       0       0       0       0       0       0       0
  5931 ;;      Temps:          0       3       0       0       0       0       0       0       0       0       0       0       
      +0       0       0       0       0       0       0       0       0       0       0       0       0       0       0
  5932 ;;      Totals:         0       3       0       0       0       0       0       0       0       0       0       0       
      +0       0       0       0       0       0       0       0       0       0       0       0       0       0       0
  5933 ;;Total ram usage:        3 bytes
  5934 ;; Hardware stack levels used:    1
  5935 ;; Hardware stack levels required when called:    4
  5936 ;; This function calls:
  5937 ;;		Nothing
  5938 ;; This function is called by:
  5939 ;;		_main
  5940 ;; This function uses a non-reentrant model
  5941 ;;
  5942                           
  5943                           
  5944                           ;psect for function _display_health
  5945  0805                     _display_health:	
  5946  0805                     l4025:	
  5947                           ;lighting.c: 168: while(health == 0)
  5948                           
  5949                           ;incstack = 0
  5950                           ; Regs used in _display_health: [wreg+status,2+status,0]
  5951                           
  5952  0805  0021               	movlb	1	; select bank1
  5953  0806  0845               	movf	_health^(0+128),w
  5954  0807  1D03               	btfss	3,2
  5955  0808  2848               	goto	l4027
  5956                           
  5957                           ;lighting.c: 169: {
  5958                           ;lighting.c: 172: PSMC2DCH = 0x00;
  5959  0809  003D               	movlb	29	; select bank29
  5960  080A  01C4               	clrf	68	;volatile
  5961                           
  5962                           ;lighting.c: 173: PSMC2DCL = 0x00;
  5963  080B  01C3               	clrf	67	;volatile
  5964                           
  5965                           ;lighting.c: 174: PSMC2LD = 1;
  5966  080C  1731               	bsf	49,6	;volatile
  5967                           
  5968                           ;lighting.c: 176: PSMC3DCH = 0x00;
  5969  080D  01E4               	clrf	100	;volatile
  5970                           
  5971                           ;lighting.c: 177: PSMC3DCL = 0x00;
  5972  080E  01E3               	clrf	99	;volatile
  5973                           
  5974                           ;lighting.c: 178: PSMC3LD = 1;
  5975  080F  1751               	bsf	81,6	;volatile
  5976                           
  5977                           ;lighting.c: 180: PSMC4DCH = 0xFF;
  5978  0810  30FF               	movlw	255
  5979  0811  003E               	movlb	30	; select bank30
  5980  0812  00A4               	movwf	36	;volatile
  5981                           
  5982                           ;lighting.c: 181: PSMC4DCL = 0xFF;
  5983  0813  30FF               	movlw	255
  5984  0814  00A3               	movwf	35	;volatile
  5985                           
  5986                           ;lighting.c: 182: PSMC4LD = 1;
  5987  0815  1711               	bsf	17,6	;volatile
  5988                           
  5989                           ;lighting.c: 184: PSMC2LD = 1;
  5990  0816  003D               	movlb	29	; select bank29
  5991  0817  1731               	bsf	49,6	;volatile
  5992                           
  5993                           ;lighting.c: 185: PSMC3LD = 1;
  5994  0818  1751               	bsf	81,6	;volatile
  5995                           
  5996                           ;lighting.c: 186: PSMC4LD = 1;
  5997  0819  003E               	movlb	30	; select bank30
  5998  081A  1711               	bsf	17,6	;volatile
  5999                           
  6000                           ;lighting.c: 188: _delay((unsigned long)((500)*(32000000/4000.0)));
  6001  081B  3015               	movlw	21
  6002  081C  0020               	movlb	0	; select bank0
  6003  081D  00C2               	movwf	??_display_health+2
  6004  081E  304B               	movlw	75
  6005  081F  00C1               	movwf	??_display_health+1
  6006  0820  30D1               	movlw	209
  6007  0821  00C0               	movwf	??_display_health
  6008  0822                     u5377:	
  6009  0822  0BC0               	decfsz	??_display_health,f
  6010  0823  2822               	goto	u5377
  6011  0824  0BC1               	decfsz	??_display_health+1,f
  6012  0825  2822               	goto	u5377
  6013  0826  0BC2               	decfsz	??_display_health+2,f
  6014  0827  2822               	goto	u5377
  6015  0828  0000               	nop
  6016                           
  6017                           ;lighting.c: 192: PSMC2DCH = 0x00;
  6018  0829  003D               	movlb	29	; select bank29
  6019  082A  01C4               	clrf	68	;volatile
  6020                           
  6021                           ;lighting.c: 193: PSMC2DCL = 0x00;
  6022  082B  01C3               	clrf	67	;volatile
  6023                           
  6024                           ;lighting.c: 194: PSMC2LD = 1;
  6025  082C  1731               	bsf	49,6	;volatile
  6026                           
  6027                           ;lighting.c: 196: PSMC3DCH = 0x00;
  6028  082D  01E4               	clrf	100	;volatile
  6029                           
  6030                           ;lighting.c: 197: PSMC3DCL = 0x00;
  6031  082E  01E3               	clrf	99	;volatile
  6032                           
  6033                           ;lighting.c: 198: PSMC3LD = 1;
  6034  082F  1751               	bsf	81,6	;volatile
  6035                           
  6036                           ;lighting.c: 200: PSMC4DCH = 0x00;
  6037  0830  003E               	movlb	30	; select bank30
  6038  0831  01A4               	clrf	36	;volatile
  6039                           
  6040                           ;lighting.c: 201: PSMC4DCL = 0x00;
  6041  0832  01A3               	clrf	35	;volatile
  6042                           
  6043                           ;lighting.c: 202: PSMC4LD = 1;
  6044  0833  1711               	bsf	17,6	;volatile
  6045                           
  6046                           ;lighting.c: 204: PSMC2LD = 1;
  6047  0834  003D               	movlb	29	; select bank29
  6048  0835  1731               	bsf	49,6	;volatile
  6049                           
  6050                           ;lighting.c: 205: PSMC3LD = 1;
  6051  0836  1751               	bsf	81,6	;volatile
  6052                           
  6053                           ;lighting.c: 206: PSMC4LD = 1;
  6054  0837  003E               	movlb	30	; select bank30
  6055  0838  1711               	bsf	17,6	;volatile
  6056                           
  6057                           ;lighting.c: 208: _delay((unsigned long)((500)*(32000000/4000.0)));
  6058  0839  3015               	movlw	21
  6059  083A  0020               	movlb	0	; select bank0
  6060  083B  00C2               	movwf	??_display_health+2
  6061  083C  304B               	movlw	75
  6062  083D  00C1               	movwf	??_display_health+1
  6063  083E  30D1               	movlw	209
  6064  083F  00C0               	movwf	??_display_health
  6065  0840                     u5387:	
  6066  0840  0BC0               	decfsz	??_display_health,f
  6067  0841  2840               	goto	u5387
  6068  0842  0BC1               	decfsz	??_display_health+1,f
  6069  0843  2840               	goto	u5387
  6070  0844  0BC2               	decfsz	??_display_health+2,f
  6071  0845  2840               	goto	u5387
  6072  0846  0000               	nop
  6073  0847  2805               	goto	l4025
  6074  0848                     l4027:	
  6075                           
  6076                           ;lighting.c: 209: }
  6077                           ;lighting.c: 211: if(health <= 10)
  6078  0848  300B               	movlw	11
  6079  0849  0245               	subwf	_health^(0+128),w
  6080  084A  1803               	skipnc
  6081  084B  285F               	goto	l4047
  6082                           
  6083                           ;lighting.c: 212: {
  6084                           ;lighting.c: 215: PSMC2DCH = 0x00;
  6085  084C  003D               	movlb	29	; select bank29
  6086  084D  01C4               	clrf	68	;volatile
  6087                           
  6088                           ;lighting.c: 216: PSMC2DCL = 0x00;
  6089  084E  01C3               	clrf	67	;volatile
  6090                           
  6091                           ;lighting.c: 217: PSMC2LD = 1;
  6092  084F  1731               	bsf	49,6	;volatile
  6093                           
  6094                           ;lighting.c: 219: PSMC3DCH = 0x00;
  6095  0850  01E4               	clrf	100	;volatile
  6096                           
  6097                           ;lighting.c: 220: PSMC3DCL = 0x00;
  6098  0851  01E3               	clrf	99	;volatile
  6099                           
  6100                           ;lighting.c: 221: PSMC3LD = 1;
  6101  0852  1751               	bsf	81,6	;volatile
  6102                           
  6103                           ;lighting.c: 223: PSMC4DCH = 0xFF;
  6104  0853  30FF               	movlw	255
  6105  0854  003E               	movlb	30	; select bank30
  6106  0855  00A4               	movwf	36	;volatile
  6107                           
  6108                           ;lighting.c: 224: PSMC4DCL = 0xFF;
  6109  0856  30FF               	movlw	255
  6110  0857  00A3               	movwf	35	;volatile
  6111                           
  6112                           ;lighting.c: 225: PSMC4LD = 1;
  6113  0858  1711               	bsf	17,6	;volatile
  6114                           
  6115                           ;lighting.c: 227: PSMC2LD = 1;
  6116  0859  003D               	movlb	29	; select bank29
  6117  085A  1731               	bsf	49,6	;volatile
  6118                           
  6119                           ;lighting.c: 228: PSMC3LD = 1;
  6120  085B  1751               	bsf	81,6	;volatile
  6121                           
  6122                           ;lighting.c: 229: PSMC4LD = 1;
  6123  085C  003E               	movlb	30	; select bank30
  6124  085D  1711               	bsf	17,6	;volatile
  6125                           
  6126                           ;lighting.c: 230: }
  6127  085E  0008               	return
  6128  085F                     l4047:	
  6129                           
  6130                           ;lighting.c: 231: else if(10 < health && health < 35)
  6131  085F  300B               	movlw	11
  6132  0860  0021               	movlb	1	; select bank1
  6133  0861  0245               	subwf	_health^(0+128),w
  6134  0862  1C03               	skipc
  6135  0863  287C               	goto	l4071
  6136  0864  3023               	movlw	35
  6137  0865  0245               	subwf	_health^(0+128),w
  6138  0866  1803               	skipnc
  6139  0867  287C               	goto	l4071
  6140                           
  6141                           ;lighting.c: 232: {
  6142                           ;lighting.c: 235: PSMC2DCH = 0xFF;
  6143  0868  30FF               	movlw	255
  6144  0869  003D               	movlb	29	; select bank29
  6145  086A  00C4               	movwf	68	;volatile
  6146                           
  6147                           ;lighting.c: 236: PSMC2DCL = 0xFF;
  6148  086B  30FF               	movlw	255
  6149  086C  00C3               	movwf	67	;volatile
  6150                           
  6151                           ;lighting.c: 237: PSMC2LD = 1;
  6152  086D  1731               	bsf	49,6	;volatile
  6153                           
  6154                           ;lighting.c: 239: PSMC3DCH = 0x00;
  6155  086E  01E4               	clrf	100	;volatile
  6156                           
  6157                           ;lighting.c: 240: PSMC3DCL = 0x00;
  6158  086F  01E3               	clrf	99	;volatile
  6159                           
  6160                           ;lighting.c: 241: PSMC3LD = 1;
  6161  0870  1751               	bsf	81,6	;volatile
  6162                           
  6163                           ;lighting.c: 243: PSMC4DCH = 0xFF;
  6164  0871  30FF               	movlw	255
  6165  0872  003E               	movlb	30	; select bank30
  6166  0873  00A4               	movwf	36	;volatile
  6167                           
  6168                           ;lighting.c: 244: PSMC4DCL = 0x00;
  6169  0874  01A3               	clrf	35	;volatile
  6170                           
  6171                           ;lighting.c: 245: PSMC4LD = 1;
  6172  0875  1711               	bsf	17,6	;volatile
  6173                           
  6174                           ;lighting.c: 247: PSMC2LD = 1;
  6175  0876  003D               	movlb	29	; select bank29
  6176  0877  1731               	bsf	49,6	;volatile
  6177                           
  6178                           ;lighting.c: 248: PSMC3LD = 1;
  6179  0878  1751               	bsf	81,6	;volatile
  6180                           
  6181                           ;lighting.c: 249: PSMC4LD = 1;
  6182  0879  003E               	movlb	30	; select bank30
  6183  087A  1711               	bsf	17,6	;volatile
  6184                           
  6185                           ;lighting.c: 250: }
  6186  087B  0008               	return
  6187  087C                     l4071:	
  6188                           
  6189                           ;lighting.c: 251: else
  6190                           ;lighting.c: 252: {
  6191                           ;lighting.c: 255: PSMC2DCH = 0xFF;
  6192  087C  30FF               	movlw	255
  6193  087D  003D               	movlb	29	; select bank29
  6194  087E  00C4               	movwf	68	;volatile
  6195                           
  6196                           ;lighting.c: 256: PSMC2DCL = 0xFF;
  6197  087F  30FF               	movlw	255
  6198  0880  00C3               	movwf	67	;volatile
  6199                           
  6200                           ;lighting.c: 257: PSMC2LD = 1;
  6201  0881  1731               	bsf	49,6	;volatile
  6202                           
  6203                           ;lighting.c: 259: PSMC3DCH = 0x00;
  6204  0882  01E4               	clrf	100	;volatile
  6205                           
  6206                           ;lighting.c: 260: PSMC3DCL = 0x00;
  6207  0883  01E3               	clrf	99	;volatile
  6208                           
  6209                           ;lighting.c: 261: PSMC3LD = 1;
  6210  0884  1751               	bsf	81,6	;volatile
  6211                           
  6212                           ;lighting.c: 263: PSMC4DCH = 0x00;
  6213  0885  003E               	movlb	30	; select bank30
  6214  0886  01A4               	clrf	36	;volatile
  6215                           
  6216                           ;lighting.c: 264: PSMC4DCL = 0x00;
  6217  0887  01A3               	clrf	35	;volatile
  6218                           
  6219                           ;lighting.c: 265: PSMC4LD = 1;
  6220  0888  1711               	bsf	17,6	;volatile
  6221                           
  6222                           ;lighting.c: 267: PSMC2LD = 1;
  6223  0889  003D               	movlb	29	; select bank29
  6224  088A  1731               	bsf	49,6	;volatile
  6225                           
  6226                           ;lighting.c: 268: PSMC3LD = 1;
  6227  088B  1751               	bsf	81,6	;volatile
  6228                           
  6229                           ;lighting.c: 269: PSMC4LD = 1;
  6230  088C  003E               	movlb	30	; select bank30
  6231  088D  1711               	bsf	17,6	;volatile
  6232  088E  0008               	return
  6233  088F                     __end_of_display_health:	
  6234                           
  6235                           	psect	text9
  6236  018D                     __ptext9:	
  6237 ;; *************** function _display_blade_lights *****************
  6238 ;; Defined at:
  6239 ;;		line 273 in file "../../source/lighting.c"
  6240 ;; Parameters:    Size  Location     Type
  6241 ;;  mode            1    wreg     unsigned char 
  6242 ;; Auto vars:     Size  Location     Type
  6243 ;;  mode            1   18[BANK1 ] unsigned char 
  6244 ;;  i               2   14[BANK1 ] int 
  6245 ;;  i               2   12[BANK1 ] int 
  6246 ;;  i               2   10[BANK1 ] int 
  6247 ;;  i               2    8[BANK1 ] int 
  6248 ;;  i               1   17[BANK1 ] unsigned char 
  6249 ;;  r               1   20[BANK1 ] unsigned char 
  6250 ;;  r               1   19[BANK1 ] unsigned char 
  6251 ;;  i               1   16[BANK1 ] unsigned char 
  6252 ;;  blue            1   24[BANK1 ] unsigned char 
  6253 ;;  green           1   23[BANK1 ] unsigned char 
  6254 ;;  red             1   22[BANK1 ] unsigned char 
  6255 ;;  brightness      1   21[BANK1 ] unsigned char 
  6256 ;; Return value:  Size  Location     Type
  6257 ;;		None               void
  6258 ;; Registers used:
  6259 ;;		wreg, status,2, status,0, pclath, cstack
  6260 ;; Tracked objects:
  6261 ;;		On entry : 0/0
  6262 ;;		On exit  : 0/0
  6263 ;;		Unchanged: 0/0
  6264 ;; Data sizes:     COMMON   BANK0   BANK1   BANK2   BANK3   BANK4   BANK5   BANK6   BANK7   BANK8   BANK9  BANK10  BANK1
      +1  BANK12  BANK13  BANK14  BANK15  BANK16  BANK17  BANK18  BANK19  BANK20  BANK21  BANK22  BANK23  BANK24  BANK25
  6265 ;;      Params:         0       0       0       0       0       0       0       0       0       0       0       0       
      +0       0       0       0       0       0       0       0       0       0       0       0       0       0       0
  6266 ;;      Locals:         0       0      17       0       0       0       0       0       0       0       0       0       
      +0       0       0       0       0       0       0       0       0       0       0       0       0       0       0
  6267 ;;      Temps:          0       0       3       0       0       0       0       0       0       0       0       0       
      +0       0       0       0       0       0       0       0       0       0       0       0       0       0       0
  6268 ;;      Totals:         0       0      20       0       0       0       0       0       0       0       0       0       
      +0       0       0       0       0       0       0       0       0       0       0       0       0       0       0
  6269 ;;Total ram usage:       20 bytes
  6270 ;; Hardware stack levels used:    1
  6271 ;; Hardware stack levels required when called:    6
  6272 ;; This function calls:
  6273 ;;		_led1_command
  6274 ;;		_led2_command
  6275 ;;		_led3_command
  6276 ;;		_led4_command
  6277 ;;		_led5_command
  6278 ;;		_led6_command
  6279 ;;		_led7_command
  6280 ;;		_leds_off
  6281 ;;		_writespi
  6282 ;; This function is called by:
  6283 ;;		_main
  6284 ;; This function uses a non-reentrant model
  6285 ;;
  6286                           
  6287                           
  6288                           ;psect for function _display_blade_lights
  6289  018D                     _display_blade_lights:	
  6290                           
  6291                           ;incstack = 0
  6292                           ; Regs used in _display_blade_lights: [wreg+status,2+status,0+pclath+cstack]
  6293                           ;display_blade_lights@mode stored from wreg
  6294  018D  0021               	movlb	1	; select bank1
  6295  018E  00B2               	movwf	display_blade_lights@mode^(0+128)
  6296                           
  6297                           ;lighting.c: 275: unsigned char red = 0;
  6298  018F  01B6               	clrf	display_blade_lights@red^(0+128)
  6299                           
  6300                           ;lighting.c: 276: unsigned char green = 0;
  6301  0190  01B7               	clrf	display_blade_lights@green^(0+128)
  6302                           
  6303                           ;lighting.c: 277: unsigned char blue = 0;
  6304  0191  01B8               	clrf	display_blade_lights@blue^(0+128)
  6305                           
  6306                           ;lighting.c: 278: unsigned char brightness = 0xFF;
  6307  0192  30FF               	movlw	255
  6308  0193  00A5               	movwf	??_display_blade_lights^(0+128)
  6309  0194  0825               	movf	??_display_blade_lights^(0+128),w
  6310  0195  00B5               	movwf	display_blade_lights@brightness^(0+128)
  6311                           
  6312                           ;lighting.c: 281: red = 0x00;
  6313  0196  01B6               	clrf	display_blade_lights@red^(0+128)
  6314                           
  6315                           ;lighting.c: 282: green = 0xFF;
  6316  0197  30FF               	movlw	255
  6317  0198  00A5               	movwf	??_display_blade_lights^(0+128)
  6318  0199  0825               	movf	??_display_blade_lights^(0+128),w
  6319  019A  00B7               	movwf	display_blade_lights@green^(0+128)
  6320                           
  6321                           ;lighting.c: 283: blue = 0x00;
  6322  019B  01B8               	clrf	display_blade_lights@blue^(0+128)
  6323                           
  6324                           ;lighting.c: 298: if( (mode == 0)
  6325                           ;lighting.c: 299: || (mode == 1) )
  6326  019C  0832               	movf	display_blade_lights@mode^(0+128),w
  6327  019D  1D03               	btfss	3,2
  6328  019E  0332               	decf	display_blade_lights@mode^(0+128),w
  6329  019F  1D03               	btfss	3,2
  6330  01A0  2AE2               	goto	l5523
  6331                           
  6332                           ;lighting.c: 300: {
  6333                           ;lighting.c: 302: led7_command(brightness, red, green, blue);
  6334  01A1  0836               	movf	display_blade_lights@red^(0+128),w
  6335  01A2  00A5               	movwf	??_display_blade_lights^(0+128)
  6336  01A3  0825               	movf	??_display_blade_lights^(0+128),w
  6337  01A4  0020               	movlb	0	; select bank0
  6338  01A5  00C3               	movwf	led7_command@red
  6339  01A6  0021               	movlb	1	; select bank1
  6340  01A7  0837               	movf	display_blade_lights@green^(0+128),w
  6341  01A8  00A6               	movwf	(??_display_blade_lights+1)^(0+128)
  6342  01A9  0826               	movf	(??_display_blade_lights+1)^(0+128),w
  6343  01AA  0020               	movlb	0	; select bank0
  6344  01AB  00C4               	movwf	led7_command@green
  6345  01AC  0021               	movlb	1	; select bank1
  6346  01AD  0838               	movf	display_blade_lights@blue^(0+128),w
  6347  01AE  00A7               	movwf	(??_display_blade_lights+2)^(0+128)
  6348  01AF  0827               	movf	(??_display_blade_lights+2)^(0+128),w
  6349  01B0  0020               	movlb	0	; select bank0
  6350  01B1  00C5               	movwf	led7_command@blue
  6351  01B2  0021               	movlb	1	; select bank1
  6352  01B3  0835               	movf	display_blade_lights@brightness^(0+128),w
  6353  01B4  318B  23BF  3181   	fcall	_led7_command
  6354                           
  6355                           ;lighting.c: 303: _delay((unsigned long)((50)*(32000000/4000.0)));
  6356  01B7  3003               	movlw	3
  6357  01B8  0021               	movlb	1	; select bank1
  6358  01B9  00A7               	movwf	(??_display_blade_lights^(0+128)+2)
  6359  01BA  3008               	movlw	8
  6360  01BB  00A6               	movwf	(??_display_blade_lights^(0+128)+1)
  6361  01BC  3078               	movlw	120
  6362  01BD  00A5               	movwf	??_display_blade_lights^(0+128)
  6363  01BE                     u5397:	
  6364  01BE  0BA5               	decfsz	??_display_blade_lights^(0+128),f
  6365  01BF  29BE               	goto	u5397
  6366  01C0  0BA6               	decfsz	(??_display_blade_lights^(0+128)+1),f
  6367  01C1  29BE               	goto	u5397
  6368  01C2  0BA7               	decfsz	(??_display_blade_lights^(0+128)+2),f
  6369  01C3  29BE               	goto	u5397
  6370                           
  6371                           ;lighting.c: 305: led6_command(brightness, red, green, blue);
  6372  01C4  0021               	movlb	1	; select bank1
  6373  01C5  0836               	movf	display_blade_lights@red^(0+128),w
  6374  01C6  00A5               	movwf	??_display_blade_lights^(0+128)
  6375  01C7  0825               	movf	??_display_blade_lights^(0+128),w
  6376  01C8  0020               	movlb	0	; select bank0
  6377  01C9  00C3               	movwf	led6_command@red
  6378  01CA  0021               	movlb	1	; select bank1
  6379  01CB  0837               	movf	display_blade_lights@green^(0+128),w
  6380  01CC  00A6               	movwf	(??_display_blade_lights+1)^(0+128)
  6381  01CD  0826               	movf	(??_display_blade_lights+1)^(0+128),w
  6382  01CE  0020               	movlb	0	; select bank0
  6383  01CF  00C4               	movwf	led6_command@green
  6384  01D0  0021               	movlb	1	; select bank1
  6385  01D1  0838               	movf	display_blade_lights@blue^(0+128),w
  6386  01D2  00A7               	movwf	(??_display_blade_lights+2)^(0+128)
  6387  01D3  0827               	movf	(??_display_blade_lights+2)^(0+128),w
  6388  01D4  0020               	movlb	0	; select bank0
  6389  01D5  00C5               	movwf	led6_command@blue
  6390  01D6  0021               	movlb	1	; select bank1
  6391  01D7  0835               	movf	display_blade_lights@brightness^(0+128),w
  6392  01D8  318A  22F3  3181   	fcall	_led6_command
  6393                           
  6394                           ;lighting.c: 306: _delay((unsigned long)((50)*(32000000/4000.0)));
  6395  01DB  3003               	movlw	3
  6396  01DC  0021               	movlb	1	; select bank1
  6397  01DD  00A7               	movwf	(??_display_blade_lights^(0+128)+2)
  6398  01DE  3008               	movlw	8
  6399  01DF  00A6               	movwf	(??_display_blade_lights^(0+128)+1)
  6400  01E0  3078               	movlw	120
  6401  01E1  00A5               	movwf	??_display_blade_lights^(0+128)
  6402  01E2                     u5407:	
  6403  01E2  0BA5               	decfsz	??_display_blade_lights^(0+128),f
  6404  01E3  29E2               	goto	u5407
  6405  01E4  0BA6               	decfsz	(??_display_blade_lights^(0+128)+1),f
  6406  01E5  29E2               	goto	u5407
  6407  01E6  0BA7               	decfsz	(??_display_blade_lights^(0+128)+2),f
  6408  01E7  29E2               	goto	u5407
  6409                           
  6410                           ;lighting.c: 308: led5_command(brightness, red, green, blue);
  6411  01E8  0021               	movlb	1	; select bank1
  6412  01E9  0836               	movf	display_blade_lights@red^(0+128),w
  6413  01EA  00A5               	movwf	??_display_blade_lights^(0+128)
  6414  01EB  0825               	movf	??_display_blade_lights^(0+128),w
  6415  01EC  0020               	movlb	0	; select bank0
  6416  01ED  00C3               	movwf	led5_command@red
  6417  01EE  0021               	movlb	1	; select bank1
  6418  01EF  0837               	movf	display_blade_lights@green^(0+128),w
  6419  01F0  00A6               	movwf	(??_display_blade_lights+1)^(0+128)
  6420  01F1  0826               	movf	(??_display_blade_lights+1)^(0+128),w
  6421  01F2  0020               	movlb	0	; select bank0
  6422  01F3  00C4               	movwf	led5_command@green
  6423  01F4  0021               	movlb	1	; select bank1
  6424  01F5  0838               	movf	display_blade_lights@blue^(0+128),w
  6425  01F6  00A7               	movwf	(??_display_blade_lights+2)^(0+128)
  6426  01F7  0827               	movf	(??_display_blade_lights+2)^(0+128),w
  6427  01F8  0020               	movlb	0	; select bank0
  6428  01F9  00C5               	movwf	led5_command@blue
  6429  01FA  0021               	movlb	1	; select bank1
  6430  01FB  0835               	movf	display_blade_lights@brightness^(0+128),w
  6431  01FC  318A  2227  3181   	fcall	_led5_command
  6432                           
  6433                           ;lighting.c: 309: _delay((unsigned long)((50)*(32000000/4000.0)));
  6434  01FF  3003               	movlw	3
  6435  0200  0021               	movlb	1	; select bank1
  6436  0201  00A7               	movwf	(??_display_blade_lights^(0+128)+2)
  6437  0202  3008               	movlw	8
  6438  0203  00A6               	movwf	(??_display_blade_lights^(0+128)+1)
  6439  0204  3078               	movlw	120
  6440  0205  00A5               	movwf	??_display_blade_lights^(0+128)
  6441  0206                     u5417:	
  6442  0206  0BA5               	decfsz	??_display_blade_lights^(0+128),f
  6443  0207  2A06               	goto	u5417
  6444  0208  0BA6               	decfsz	(??_display_blade_lights^(0+128)+1),f
  6445  0209  2A06               	goto	u5417
  6446  020A  0BA7               	decfsz	(??_display_blade_lights^(0+128)+2),f
  6447  020B  2A06               	goto	u5417
  6448                           
  6449                           ;lighting.c: 311: led4_command(brightness, red, green, blue);
  6450  020C  0021               	movlb	1	; select bank1
  6451  020D  0836               	movf	display_blade_lights@red^(0+128),w
  6452  020E  00A5               	movwf	??_display_blade_lights^(0+128)
  6453  020F  0825               	movf	??_display_blade_lights^(0+128),w
  6454  0210  0020               	movlb	0	; select bank0
  6455  0211  00C3               	movwf	led4_command@red
  6456  0212  0021               	movlb	1	; select bank1
  6457  0213  0837               	movf	display_blade_lights@green^(0+128),w
  6458  0214  00A6               	movwf	(??_display_blade_lights+1)^(0+128)
  6459  0215  0826               	movf	(??_display_blade_lights+1)^(0+128),w
  6460  0216  0020               	movlb	0	; select bank0
  6461  0217  00C4               	movwf	led4_command@green
  6462  0218  0021               	movlb	1	; select bank1
  6463  0219  0838               	movf	display_blade_lights@blue^(0+128),w
  6464  021A  00A7               	movwf	(??_display_blade_lights+2)^(0+128)
  6465  021B  0827               	movf	(??_display_blade_lights+2)^(0+128),w
  6466  021C  0020               	movlb	0	; select bank0
  6467  021D  00C5               	movwf	led4_command@blue
  6468  021E  0021               	movlb	1	; select bank1
  6469  021F  0835               	movf	display_blade_lights@brightness^(0+128),w
  6470  0220  3189  215B  3181   	fcall	_led4_command
  6471                           
  6472                           ;lighting.c: 312: _delay((unsigned long)((50)*(32000000/4000.0)));
  6473  0223  3003               	movlw	3
  6474  0224  0021               	movlb	1	; select bank1
  6475  0225  00A7               	movwf	(??_display_blade_lights^(0+128)+2)
  6476  0226  3008               	movlw	8
  6477  0227  00A6               	movwf	(??_display_blade_lights^(0+128)+1)
  6478  0228  3078               	movlw	120
  6479  0229  00A5               	movwf	??_display_blade_lights^(0+128)
  6480  022A                     u5427:	
  6481  022A  0BA5               	decfsz	??_display_blade_lights^(0+128),f
  6482  022B  2A2A               	goto	u5427
  6483  022C  0BA6               	decfsz	(??_display_blade_lights^(0+128)+1),f
  6484  022D  2A2A               	goto	u5427
  6485  022E  0BA7               	decfsz	(??_display_blade_lights^(0+128)+2),f
  6486  022F  2A2A               	goto	u5427
  6487                           
  6488                           ;lighting.c: 314: led3_command(brightness, red, green, blue);
  6489  0230  0021               	movlb	1	; select bank1
  6490  0231  0836               	movf	display_blade_lights@red^(0+128),w
  6491  0232  00A5               	movwf	??_display_blade_lights^(0+128)
  6492  0233  0825               	movf	??_display_blade_lights^(0+128),w
  6493  0234  0020               	movlb	0	; select bank0
  6494  0235  00C3               	movwf	led3_command@red
  6495  0236  0021               	movlb	1	; select bank1
  6496  0237  0837               	movf	display_blade_lights@green^(0+128),w
  6497  0238  00A6               	movwf	(??_display_blade_lights+1)^(0+128)
  6498  0239  0826               	movf	(??_display_blade_lights+1)^(0+128),w
  6499  023A  0020               	movlb	0	; select bank0
  6500  023B  00C4               	movwf	led3_command@green
  6501  023C  0021               	movlb	1	; select bank1
  6502  023D  0838               	movf	display_blade_lights@blue^(0+128),w
  6503  023E  00A7               	movwf	(??_display_blade_lights+2)^(0+128)
  6504  023F  0827               	movf	(??_display_blade_lights+2)^(0+128),w
  6505  0240  0020               	movlb	0	; select bank0
  6506  0241  00C5               	movwf	led3_command@blue
  6507  0242  0021               	movlb	1	; select bank1
  6508  0243  0835               	movf	display_blade_lights@brightness^(0+128),w
  6509  0244  3188  208F  3181   	fcall	_led3_command
  6510                           
  6511                           ;lighting.c: 315: _delay((unsigned long)((50)*(32000000/4000.0)));
  6512  0247  3003               	movlw	3
  6513  0248  0021               	movlb	1	; select bank1
  6514  0249  00A7               	movwf	(??_display_blade_lights^(0+128)+2)
  6515  024A  3008               	movlw	8
  6516  024B  00A6               	movwf	(??_display_blade_lights^(0+128)+1)
  6517  024C  3078               	movlw	120
  6518  024D  00A5               	movwf	??_display_blade_lights^(0+128)
  6519  024E                     u5437:	
  6520  024E  0BA5               	decfsz	??_display_blade_lights^(0+128),f
  6521  024F  2A4E               	goto	u5437
  6522  0250  0BA6               	decfsz	(??_display_blade_lights^(0+128)+1),f
  6523  0251  2A4E               	goto	u5437
  6524  0252  0BA7               	decfsz	(??_display_blade_lights^(0+128)+2),f
  6525  0253  2A4E               	goto	u5437
  6526                           
  6527                           ;lighting.c: 317: led2_command(brightness, red, green, blue);
  6528  0254  0021               	movlb	1	; select bank1
  6529  0255  0836               	movf	display_blade_lights@red^(0+128),w
  6530  0256  00A5               	movwf	??_display_blade_lights^(0+128)
  6531  0257  0825               	movf	??_display_blade_lights^(0+128),w
  6532  0258  0020               	movlb	0	; select bank0
  6533  0259  00C3               	movwf	led2_command@red
  6534  025A  0021               	movlb	1	; select bank1
  6535  025B  0837               	movf	display_blade_lights@green^(0+128),w
  6536  025C  00A6               	movwf	(??_display_blade_lights+1)^(0+128)
  6537  025D  0826               	movf	(??_display_blade_lights+1)^(0+128),w
  6538  025E  0020               	movlb	0	; select bank0
  6539  025F  00C4               	movwf	led2_command@green
  6540  0260  0021               	movlb	1	; select bank1
  6541  0261  0838               	movf	display_blade_lights@blue^(0+128),w
  6542  0262  00A7               	movwf	(??_display_blade_lights+2)^(0+128)
  6543  0263  0827               	movf	(??_display_blade_lights+2)^(0+128),w
  6544  0264  0020               	movlb	0	; select bank0
  6545  0265  00C5               	movwf	led2_command@blue
  6546  0266  0021               	movlb	1	; select bank1
  6547  0267  0835               	movf	display_blade_lights@brightness^(0+128),w
  6548  0268  3197  2734  3181   	fcall	_led2_command
  6549                           
  6550                           ;lighting.c: 318: _delay((unsigned long)((50)*(32000000/4000.0)));
  6551  026B  3003               	movlw	3
  6552  026C  0021               	movlb	1	; select bank1
  6553  026D  00A7               	movwf	(??_display_blade_lights^(0+128)+2)
  6554  026E  3008               	movlw	8
  6555  026F  00A6               	movwf	(??_display_blade_lights^(0+128)+1)
  6556  0270  3078               	movlw	120
  6557  0271  00A5               	movwf	??_display_blade_lights^(0+128)
  6558  0272                     u5447:	
  6559  0272  0BA5               	decfsz	??_display_blade_lights^(0+128),f
  6560  0273  2A72               	goto	u5447
  6561  0274  0BA6               	decfsz	(??_display_blade_lights^(0+128)+1),f
  6562  0275  2A72               	goto	u5447
  6563  0276  0BA7               	decfsz	(??_display_blade_lights^(0+128)+2),f
  6564  0277  2A72               	goto	u5447
  6565                           
  6566                           ;lighting.c: 320: led1_command(brightness, red, green, blue);
  6567  0278  0021               	movlb	1	; select bank1
  6568  0279  0836               	movf	display_blade_lights@red^(0+128),w
  6569  027A  00A5               	movwf	??_display_blade_lights^(0+128)
  6570  027B  0825               	movf	??_display_blade_lights^(0+128),w
  6571  027C  0020               	movlb	0	; select bank0
  6572  027D  00C3               	movwf	led1_command@red
  6573  027E  0021               	movlb	1	; select bank1
  6574  027F  0837               	movf	display_blade_lights@green^(0+128),w
  6575  0280  00A6               	movwf	(??_display_blade_lights+1)^(0+128)
  6576  0281  0826               	movf	(??_display_blade_lights+1)^(0+128),w
  6577  0282  0020               	movlb	0	; select bank0
  6578  0283  00C4               	movwf	led1_command@green
  6579  0284  0021               	movlb	1	; select bank1
  6580  0285  0838               	movf	display_blade_lights@blue^(0+128),w
  6581  0286  00A7               	movwf	(??_display_blade_lights+2)^(0+128)
  6582  0287  0827               	movf	(??_display_blade_lights+2)^(0+128),w
  6583  0288  0020               	movlb	0	; select bank0
  6584  0289  00C5               	movwf	led1_command@blue
  6585  028A  0021               	movlb	1	; select bank1
  6586  028B  0835               	movf	display_blade_lights@brightness^(0+128),w
  6587  028C  3196  2668  3181   	fcall	_led1_command
  6588                           
  6589                           ;lighting.c: 321: _delay((unsigned long)((50)*(32000000/4000.0)));
  6590  028F  3003               	movlw	3
  6591  0290  0021               	movlb	1	; select bank1
  6592  0291  00A7               	movwf	(??_display_blade_lights^(0+128)+2)
  6593  0292  3008               	movlw	8
  6594  0293  00A6               	movwf	(??_display_blade_lights^(0+128)+1)
  6595  0294  3078               	movlw	120
  6596  0295  00A5               	movwf	??_display_blade_lights^(0+128)
  6597  0296                     u5457:	
  6598  0296  0BA5               	decfsz	??_display_blade_lights^(0+128),f
  6599  0297  2A96               	goto	u5457
  6600  0298  0BA6               	decfsz	(??_display_blade_lights^(0+128)+1),f
  6601  0299  2A96               	goto	u5457
  6602  029A  0BA7               	decfsz	(??_display_blade_lights^(0+128)+2),f
  6603  029B  2A96               	goto	u5457
  6604                           
  6605                           ;lighting.c: 323: for(unsigned char i = 0; i < 4; ++i)
  6606  029C  0021               	movlb	1	; select bank1
  6607  029D  01B0               	clrf	display_blade_lights@i^(0+128)
  6608  029E                     L2:	
  6609  029E  3004               	movlw	4
  6610  029F  0230               	subwf	display_blade_lights@i^(0+128),w
  6611  02A0  1803               	btfsc	3,0
  6612  02A1  2D39               	goto	l5639
  6613                           
  6614                           ;lighting.c: 324: {
  6615                           ;lighting.c: 326: led1_command(brightness, red, green, blue);
  6616  02A2  0836               	movf	display_blade_lights@red^(0+128),w
  6617  02A3  00A5               	movwf	??_display_blade_lights^(0+128)
  6618  02A4  0825               	movf	??_display_blade_lights^(0+128),w
  6619  02A5  0020               	movlb	0	; select bank0
  6620  02A6  00C3               	movwf	led1_command@red
  6621  02A7  0021               	movlb	1	; select bank1
  6622  02A8  0837               	movf	display_blade_lights@green^(0+128),w
  6623  02A9  00A6               	movwf	(??_display_blade_lights+1)^(0+128)
  6624  02AA  0826               	movf	(??_display_blade_lights+1)^(0+128),w
  6625  02AB  0020               	movlb	0	; select bank0
  6626  02AC  00C4               	movwf	led1_command@green
  6627  02AD  0021               	movlb	1	; select bank1
  6628  02AE  0838               	movf	display_blade_lights@blue^(0+128),w
  6629  02AF  00A7               	movwf	(??_display_blade_lights+2)^(0+128)
  6630  02B0  0827               	movf	(??_display_blade_lights+2)^(0+128),w
  6631  02B1  0020               	movlb	0	; select bank0
  6632  02B2  00C5               	movwf	led1_command@blue
  6633  02B3  0021               	movlb	1	; select bank1
  6634  02B4  0835               	movf	display_blade_lights@brightness^(0+128),w
  6635  02B5  3196  2668  3181   	fcall	_led1_command
  6636                           
  6637                           ;lighting.c: 327: _delay((unsigned long)((25)*(32000000/4000.0)));
  6638  02B8  3002               	movlw	2
  6639  02B9  0021               	movlb	1	; select bank1
  6640  02BA  00A7               	movwf	(??_display_blade_lights^(0+128)+2)
  6641  02BB  3004               	movlw	4
  6642  02BC  00A6               	movwf	(??_display_blade_lights^(0+128)+1)
  6643  02BD  30BA               	movlw	186
  6644  02BE  00A5               	movwf	??_display_blade_lights^(0+128)
  6645  02BF                     u5467:	
  6646  02BF  0BA5               	decfsz	??_display_blade_lights^(0+128),f
  6647  02C0  2ABF               	goto	u5467
  6648  02C1  0BA6               	decfsz	(??_display_blade_lights^(0+128)+1),f
  6649  02C2  2ABF               	goto	u5467
  6650  02C3  0BA7               	decfsz	(??_display_blade_lights^(0+128)+2),f
  6651  02C4  2ABF               	goto	u5467
  6652  02C5  0000               	nop
  6653                           
  6654                           ;lighting.c: 329: led1_command(0xFF, 0, 0, 0);
  6655  02C6  0020               	movlb	0	; select bank0
  6656  02C7  01C3               	clrf	led1_command@red
  6657  02C8  01C4               	clrf	led1_command@green
  6658  02C9  01C5               	clrf	led1_command@blue
  6659  02CA  30FF               	movlw	255
  6660  02CB  3196  2668  3181   	fcall	_led1_command
  6661                           
  6662                           ;lighting.c: 330: _delay((unsigned long)((25)*(32000000/4000.0)));
  6663  02CE  3002               	movlw	2
  6664  02CF  0021               	movlb	1	; select bank1
  6665  02D0  00A7               	movwf	(??_display_blade_lights^(0+128)+2)
  6666  02D1  3004               	movlw	4
  6667  02D2  00A6               	movwf	(??_display_blade_lights^(0+128)+1)
  6668  02D3  30BA               	movlw	186
  6669  02D4  00A5               	movwf	??_display_blade_lights^(0+128)
  6670  02D5                     u5477:	
  6671  02D5  0BA5               	decfsz	??_display_blade_lights^(0+128),f
  6672  02D6  2AD5               	goto	u5477
  6673  02D7  0BA6               	decfsz	(??_display_blade_lights^(0+128)+1),f
  6674  02D8  2AD5               	goto	u5477
  6675  02D9  0BA7               	decfsz	(??_display_blade_lights^(0+128)+2),f
  6676  02DA  2AD5               	goto	u5477
  6677  02DB  0000               	nop
  6678  02DC  3001               	movlw	1
  6679  02DD  0021               	movlb	1	; select bank1
  6680  02DE  00A5               	movwf	??_display_blade_lights^(0+128)
  6681  02DF  0825               	movf	??_display_blade_lights^(0+128),w
  6682  02E0  07B0               	addwf	display_blade_lights@i^(0+128),f
  6683  02E1  2A9E               	goto	L2
  6684  02E2                     l5523:	
  6685                           ;lighting.c: 331: }
  6686                           ;lighting.c: 332: }
  6687                           
  6688                           
  6689                           ;lighting.c: 333: else if( mode == 2 )
  6690  02E2  3002               	movlw	2
  6691  02E3  0632               	xorwf	display_blade_lights@mode^(0+128),w
  6692  02E4  1D03               	btfss	3,2
  6693  02E5  2C49               	goto	l5601
  6694                           
  6695                           ;lighting.c: 334: {
  6696                           ;lighting.c: 428: for(unsigned char r = 0;r < 255; r+=5)
  6697  02E6  01B3               	clrf	display_blade_lights@r^(0+128)
  6698  02E7  0A33               	incf	display_blade_lights@r^(0+128),w
  6699  02E8  1903               	btfsc	3,2
  6700  02E9  2B98               	goto	l5563
  6701  02EA                     l5531:	
  6702                           
  6703                           ;lighting.c: 429: {
  6704                           ;lighting.c: 431: for(int i = 0;i < 4; i++){
  6705  02EA  01A8               	clrf	display_blade_lights@i_638^(0+128)
  6706  02EB  01A9               	clrf	(display_blade_lights@i_638+1)^(0+128)
  6707  02EC  0829               	movf	(display_blade_lights@i_638+1)^(0+128),w
  6708  02ED  3A80               	xorlw	128
  6709  02EE  00A5               	movwf	??_display_blade_lights^(0+128)
  6710  02EF  3080               	movlw	128
  6711  02F0  0225               	subwf	??_display_blade_lights^(0+128),w
  6712  02F1  1D03               	skipz
  6713  02F2  2AF5               	goto	u4805
  6714  02F3  3004               	movlw	4
  6715  02F4  0228               	subwf	display_blade_lights@i_638^(0+128),w
  6716  02F5                     u4805:	
  6717  02F5  1803               	btfsc	3,0
  6718  02F6  2B0B               	goto	l5543
  6719  02F7                     l5537:	
  6720                           
  6721                           ;lighting.c: 432: writespi(0x00);
  6722  02F7  3000               	movlw	0
  6723  02F8  319B  2320  3181   	fcall	_writespi
  6724  02FB  3001               	movlw	1
  6725  02FC  0021               	movlb	1	; select bank1
  6726  02FD  07A8               	addwf	display_blade_lights@i_638^(0+128),f
  6727  02FE  3000               	movlw	0
  6728  02FF  3DA9               	addwfc	(display_blade_lights@i_638+1)^(0+128),f
  6729  0300  0829               	movf	(display_blade_lights@i_638+1)^(0+128),w
  6730  0301  3A80               	xorlw	128
  6731  0302  00A5               	movwf	??_display_blade_lights^(0+128)
  6732  0303  3080               	movlw	128
  6733  0304  0225               	subwf	??_display_blade_lights^(0+128),w
  6734  0305  1D03               	skipz
  6735  0306  2B09               	goto	u4815
  6736  0307  3004               	movlw	4
  6737  0308  0228               	subwf	display_blade_lights@i_638^(0+128),w
  6738  0309                     u4815:	
  6739  0309  1C03               	skipc
  6740  030A  2AF7               	goto	l5537
  6741  030B                     l5543:	
  6742                           
  6743                           ;lighting.c: 433: }
  6744                           ;lighting.c: 435: writespi(0xFF);
  6745  030B  30FF               	movlw	255
  6746  030C  319B  2320  3181   	fcall	_writespi
  6747                           
  6748                           ;lighting.c: 436: writespi(0x00);
  6749  030F  3000               	movlw	0
  6750  0310  319B  2320  3181   	fcall	_writespi
  6751                           
  6752                           ;lighting.c: 437: writespi(0x00);
  6753  0313  3000               	movlw	0
  6754  0314  319B  2320  3181   	fcall	_writespi
  6755                           
  6756                           ;lighting.c: 438: writespi(r);
  6757  0317  0021               	movlb	1	; select bank1
  6758  0318  0833               	movf	display_blade_lights@r^(0+128),w
  6759  0319  319B  2320  3181   	fcall	_writespi
  6760                           
  6761                           ;lighting.c: 440: writespi(0xFF);
  6762  031C  30FF               	movlw	255
  6763  031D  319B  2320  3181   	fcall	_writespi
  6764                           
  6765                           ;lighting.c: 441: writespi(0x00);
  6766  0320  3000               	movlw	0
  6767  0321  319B  2320  3181   	fcall	_writespi
  6768                           
  6769                           ;lighting.c: 442: writespi(0x00);
  6770  0324  3000               	movlw	0
  6771  0325  319B  2320  3181   	fcall	_writespi
  6772                           
  6773                           ;lighting.c: 443: writespi(255 - r);
  6774  0328  0021               	movlb	1	; select bank1
  6775  0329  0333               	decf	display_blade_lights@r^(0+128),w
  6776  032A  3AFF               	xorlw	255
  6777  032B  3EFF               	addlw	255
  6778  032C  319B  2320  3181   	fcall	_writespi
  6779                           
  6780                           ;lighting.c: 445: writespi(0xFF);
  6781  032F  30FF               	movlw	255
  6782  0330  319B  2320  3181   	fcall	_writespi
  6783                           
  6784                           ;lighting.c: 446: writespi(0x00);
  6785  0333  3000               	movlw	0
  6786  0334  319B  2320  3181   	fcall	_writespi
  6787                           
  6788                           ;lighting.c: 447: writespi(0x00);
  6789  0337  3000               	movlw	0
  6790  0338  319B  2320  3181   	fcall	_writespi
  6791                           
  6792                           ;lighting.c: 448: writespi(r);
  6793  033B  0021               	movlb	1	; select bank1
  6794  033C  0833               	movf	display_blade_lights@r^(0+128),w
  6795  033D  319B  2320  3181   	fcall	_writespi
  6796                           
  6797                           ;lighting.c: 450: writespi(0xFF);
  6798  0340  30FF               	movlw	255
  6799  0341  319B  2320  3181   	fcall	_writespi
  6800                           
  6801                           ;lighting.c: 451: writespi(0x00);
  6802  0344  3000               	movlw	0
  6803  0345  319B  2320  3181   	fcall	_writespi
  6804                           
  6805                           ;lighting.c: 452: writespi(0x00);
  6806  0348  3000               	movlw	0
  6807  0349  319B  2320  3181   	fcall	_writespi
  6808                           
  6809                           ;lighting.c: 453: writespi(255-r);
  6810  034C  0021               	movlb	1	; select bank1
  6811  034D  0333               	decf	display_blade_lights@r^(0+128),w
  6812  034E  3AFF               	xorlw	255
  6813  034F  3EFF               	addlw	255
  6814  0350  319B  2320  3181   	fcall	_writespi
  6815                           
  6816                           ;lighting.c: 455: writespi(0xFF);
  6817  0353  30FF               	movlw	255
  6818  0354  319B  2320  3181   	fcall	_writespi
  6819                           
  6820                           ;lighting.c: 456: writespi(0x00);
  6821  0357  3000               	movlw	0
  6822  0358  319B  2320  3181   	fcall	_writespi
  6823                           
  6824                           ;lighting.c: 457: writespi(0x00);
  6825  035B  3000               	movlw	0
  6826  035C  319B  2320  3181   	fcall	_writespi
  6827                           
  6828                           ;lighting.c: 458: writespi(r);
  6829  035F  0021               	movlb	1	; select bank1
  6830  0360  0833               	movf	display_blade_lights@r^(0+128),w
  6831  0361  319B  2320  3181   	fcall	_writespi
  6832                           
  6833                           ;lighting.c: 460: for(int i = 0;i < 4; i++){
  6834  0364  0021               	movlb	1	; select bank1
  6835  0365  01AA               	clrf	display_blade_lights@i_639^(0+128)
  6836  0366  01AB               	clrf	(display_blade_lights@i_639+1)^(0+128)
  6837  0367  082B               	movf	(display_blade_lights@i_639+1)^(0+128),w
  6838  0368  3A80               	xorlw	128
  6839  0369  00A5               	movwf	??_display_blade_lights^(0+128)
  6840  036A  3080               	movlw	128
  6841  036B  0225               	subwf	??_display_blade_lights^(0+128),w
  6842  036C  1D03               	skipz
  6843  036D  2B70               	goto	u4825
  6844  036E  3004               	movlw	4
  6845  036F  022A               	subwf	display_blade_lights@i_639^(0+128),w
  6846  0370                     u4825:	
  6847  0370  1803               	btfsc	3,0
  6848  0371  2B86               	goto	l5557
  6849  0372                     l5551:	
  6850                           
  6851                           ;lighting.c: 461: writespi(0xFF);
  6852  0372  30FF               	movlw	255
  6853  0373  319B  2320  3181   	fcall	_writespi
  6854  0376  3001               	movlw	1
  6855  0377  0021               	movlb	1	; select bank1
  6856  0378  07AA               	addwf	display_blade_lights@i_639^(0+128),f
  6857  0379  3000               	movlw	0
  6858  037A  3DAB               	addwfc	(display_blade_lights@i_639+1)^(0+128),f
  6859  037B  082B               	movf	(display_blade_lights@i_639+1)^(0+128),w
  6860  037C  3A80               	xorlw	128
  6861  037D  00A5               	movwf	??_display_blade_lights^(0+128)
  6862  037E  3080               	movlw	128
  6863  037F  0225               	subwf	??_display_blade_lights^(0+128),w
  6864  0380  1D03               	skipz
  6865  0381  2B84               	goto	u4835
  6866  0382  3004               	movlw	4
  6867  0383  022A               	subwf	display_blade_lights@i_639^(0+128),w
  6868  0384                     u4835:	
  6869  0384  1C03               	skipc
  6870  0385  2B72               	goto	l5551
  6871  0386                     l5557:	
  6872                           
  6873                           ;lighting.c: 462: }
  6874                           ;lighting.c: 463: _delay((unsigned long)((20)*(32000000/4000.0)));
  6875  0386  30D0               	movlw	208
  6876  0387  0021               	movlb	1	; select bank1
  6877  0388  00A6               	movwf	(??_display_blade_lights^(0+128)+1)
  6878  0389  30C9               	movlw	201
  6879  038A  00A5               	movwf	??_display_blade_lights^(0+128)
  6880  038B                     u5487:	
  6881  038B  0BA5               	decfsz	??_display_blade_lights^(0+128),f
  6882  038C  2B8B               	goto	u5487
  6883  038D  0BA6               	decfsz	(??_display_blade_lights^(0+128)+1),f
  6884  038E  2B8B               	goto	u5487
  6885  038F  3200               	nop2
  6886  0390  3005               	movlw	5
  6887  0391  0021               	movlb	1	; select bank1
  6888  0392  00A5               	movwf	??_display_blade_lights^(0+128)
  6889  0393  0825               	movf	??_display_blade_lights^(0+128),w
  6890  0394  07B3               	addwf	display_blade_lights@r^(0+128),f
  6891  0395  0A33               	incf	display_blade_lights@r^(0+128),w
  6892  0396  1D03               	btfss	3,2
  6893  0397  2AEA               	goto	l5531
  6894  0398                     l5563:	
  6895                           
  6896                           ;lighting.c: 464: }
  6897                           ;lighting.c: 467: for(unsigned char r = 255;r > 0; r-=5)
  6898  0398  30FF               	movlw	255
  6899  0399  00A5               	movwf	??_display_blade_lights^(0+128)
  6900  039A  0825               	movf	??_display_blade_lights^(0+128),w
  6901  039B  00B4               	movwf	display_blade_lights@r_640^(0+128)
  6902  039C                     L3:	
  6903  039C  0834               	movf	display_blade_lights@r_640^(0+128),w
  6904  039D  1903               	btfsc	3,2
  6905  039E  2D39               	goto	l5639
  6906                           
  6907                           ;lighting.c: 468: {
  6908                           ;lighting.c: 470: for(int i = 0;i < 4; i++){
  6909  039F  01AC               	clrf	display_blade_lights@i_641^(0+128)
  6910  03A0  01AD               	clrf	(display_blade_lights@i_641+1)^(0+128)
  6911  03A1  082D               	movf	(display_blade_lights@i_641+1)^(0+128),w
  6912  03A2  3A80               	xorlw	128
  6913  03A3  00A5               	movwf	??_display_blade_lights^(0+128)
  6914  03A4  3080               	movlw	128
  6915  03A5  0225               	subwf	??_display_blade_lights^(0+128),w
  6916  03A6  1D03               	skipz
  6917  03A7  2BAA               	goto	u4865
  6918  03A8  3004               	movlw	4
  6919  03A9  022C               	subwf	display_blade_lights@i_641^(0+128),w
  6920  03AA                     u4865:	
  6921  03AA  1803               	btfsc	3,0
  6922  03AB  2BC0               	goto	l5581
  6923  03AC                     l5575:	
  6924                           
  6925                           ;lighting.c: 471: writespi(0x00);
  6926  03AC  3000               	movlw	0
  6927  03AD  319B  2320  3181   	fcall	_writespi
  6928  03B0  3001               	movlw	1
  6929  03B1  0021               	movlb	1	; select bank1
  6930  03B2  07AC               	addwf	display_blade_lights@i_641^(0+128),f
  6931  03B3  3000               	movlw	0
  6932  03B4  3DAD               	addwfc	(display_blade_lights@i_641+1)^(0+128),f
  6933  03B5  082D               	movf	(display_blade_lights@i_641+1)^(0+128),w
  6934  03B6  3A80               	xorlw	128
  6935  03B7  00A5               	movwf	??_display_blade_lights^(0+128)
  6936  03B8  3080               	movlw	128
  6937  03B9  0225               	subwf	??_display_blade_lights^(0+128),w
  6938  03BA  1D03               	skipz
  6939  03BB  2BBE               	goto	u4875
  6940  03BC  3004               	movlw	4
  6941  03BD  022C               	subwf	display_blade_lights@i_641^(0+128),w
  6942  03BE                     u4875:	
  6943  03BE  1C03               	skipc
  6944  03BF  2BAC               	goto	l5575
  6945  03C0                     l5581:	
  6946                           
  6947                           ;lighting.c: 472: }
  6948                           ;lighting.c: 474: writespi(0xFF);
  6949  03C0  30FF               	movlw	255
  6950  03C1  319B  2320  3181   	fcall	_writespi
  6951                           
  6952                           ;lighting.c: 475: writespi(0x00);
  6953  03C4  3000               	movlw	0
  6954  03C5  319B  2320  3181   	fcall	_writespi
  6955                           
  6956                           ;lighting.c: 476: writespi(0x00);
  6957  03C8  3000               	movlw	0
  6958  03C9  319B  2320  3181   	fcall	_writespi
  6959                           
  6960                           ;lighting.c: 477: writespi(r);
  6961  03CC  0021               	movlb	1	; select bank1
  6962  03CD  0834               	movf	display_blade_lights@r_640^(0+128),w
  6963  03CE  319B  2320  3181   	fcall	_writespi
  6964                           
  6965                           ;lighting.c: 479: writespi(0xFF);
  6966  03D1  30FF               	movlw	255
  6967  03D2  319B  2320  3181   	fcall	_writespi
  6968                           
  6969                           ;lighting.c: 480: writespi(0x00);
  6970  03D5  3000               	movlw	0
  6971  03D6  319B  2320  3181   	fcall	_writespi
  6972                           
  6973                           ;lighting.c: 481: writespi(0x00);
  6974  03D9  3000               	movlw	0
  6975  03DA  319B  2320  3181   	fcall	_writespi
  6976                           
  6977                           ;lighting.c: 482: writespi(255 - r);
  6978  03DD  0021               	movlb	1	; select bank1
  6979  03DE  0334               	decf	display_blade_lights@r_640^(0+128),w
  6980  03DF  3AFF               	xorlw	255
  6981  03E0  3EFF               	addlw	255
  6982  03E1  319B  2320  3181   	fcall	_writespi
  6983                           
  6984                           ;lighting.c: 484: writespi(0xFF);
  6985  03E4  30FF               	movlw	255
  6986  03E5  319B  2320  3181   	fcall	_writespi
  6987                           
  6988                           ;lighting.c: 485: writespi(0x00);
  6989  03E8  3000               	movlw	0
  6990  03E9  319B  2320  3181   	fcall	_writespi
  6991                           
  6992                           ;lighting.c: 486: writespi(0x00);
  6993  03EC  3000               	movlw	0
  6994  03ED  319B  2320  3181   	fcall	_writespi
  6995                           
  6996                           ;lighting.c: 487: writespi(r);
  6997  03F0  0021               	movlb	1	; select bank1
  6998  03F1  0834               	movf	display_blade_lights@r_640^(0+128),w
  6999  03F2  319B  2320  3181   	fcall	_writespi
  7000                           
  7001                           ;lighting.c: 489: writespi(0xFF);
  7002  03F5  30FF               	movlw	255
  7003  03F6  319B  2320  3181   	fcall	_writespi
  7004                           
  7005                           ;lighting.c: 490: writespi(0x00);
  7006  03F9  3000               	movlw	0
  7007  03FA  319B  2320  3181   	fcall	_writespi
  7008                           
  7009                           ;lighting.c: 491: writespi(0x00);
  7010  03FD  3000               	movlw	0
  7011  03FE  319B  2320  3181   	fcall	_writespi
  7012                           
  7013                           ;lighting.c: 492: writespi(255-r);
  7014  0401  0021               	movlb	1	; select bank1
  7015  0402  0334               	decf	display_blade_lights@r_640^(0+128),w
  7016  0403  3AFF               	xorlw	255
  7017  0404  3EFF               	addlw	255
  7018  0405  319B  2320  3181   	fcall	_writespi
  7019                           
  7020                           ;lighting.c: 494: writespi(0xFF);
  7021  0408  30FF               	movlw	255
  7022  0409  319B  2320  3181   	fcall	_writespi
  7023                           
  7024                           ;lighting.c: 495: writespi(0x00);
  7025  040C  3000               	movlw	0
  7026  040D  319B  2320  3181   	fcall	_writespi
  7027                           
  7028                           ;lighting.c: 496: writespi(0x00);
  7029  0410  3000               	movlw	0
  7030  0411  319B  2320  3181   	fcall	_writespi
  7031                           
  7032                           ;lighting.c: 497: writespi(r);
  7033  0414  0021               	movlb	1	; select bank1
  7034  0415  0834               	movf	display_blade_lights@r_640^(0+128),w
  7035  0416  319B  2320  3181   	fcall	_writespi
  7036                           
  7037                           ;lighting.c: 499: for(int i = 0;i < 4; i++){
  7038  0419  0021               	movlb	1	; select bank1
  7039  041A  01AE               	clrf	display_blade_lights@i_642^(0+128)
  7040  041B  01AF               	clrf	(display_blade_lights@i_642+1)^(0+128)
  7041  041C  082F               	movf	(display_blade_lights@i_642+1)^(0+128),w
  7042  041D  3A80               	xorlw	128
  7043  041E  00A5               	movwf	??_display_blade_lights^(0+128)
  7044  041F  3080               	movlw	128
  7045  0420  0225               	subwf	??_display_blade_lights^(0+128),w
  7046  0421  1D03               	skipz
  7047  0422  2C25               	goto	u4885
  7048  0423  3004               	movlw	4
  7049  0424  022E               	subwf	display_blade_lights@i_642^(0+128),w
  7050  0425                     u4885:	
  7051  0425  1803               	btfsc	3,0
  7052  0426  2C3B               	goto	l5595
  7053  0427                     l5589:	
  7054                           
  7055                           ;lighting.c: 500: writespi(0xFF);
  7056  0427  30FF               	movlw	255
  7057  0428  319B  2320  3181   	fcall	_writespi
  7058  042B  3001               	movlw	1
  7059  042C  0021               	movlb	1	; select bank1
  7060  042D  07AE               	addwf	display_blade_lights@i_642^(0+128),f
  7061  042E  3000               	movlw	0
  7062  042F  3DAF               	addwfc	(display_blade_lights@i_642+1)^(0+128),f
  7063  0430  082F               	movf	(display_blade_lights@i_642+1)^(0+128),w
  7064  0431  3A80               	xorlw	128
  7065  0432  00A5               	movwf	??_display_blade_lights^(0+128)
  7066  0433  3080               	movlw	128
  7067  0434  0225               	subwf	??_display_blade_lights^(0+128),w
  7068  0435  1D03               	skipz
  7069  0436  2C39               	goto	u4895
  7070  0437  3004               	movlw	4
  7071  0438  022E               	subwf	display_blade_lights@i_642^(0+128),w
  7072  0439                     u4895:	
  7073  0439  1C03               	skipc
  7074  043A  2C27               	goto	l5589
  7075  043B                     l5595:	
  7076                           
  7077                           ;lighting.c: 501: }
  7078                           ;lighting.c: 502: _delay((unsigned long)((20)*(32000000/4000.0)));
  7079  043B  30D0               	movlw	208
  7080  043C  0021               	movlb	1	; select bank1
  7081  043D  00A6               	movwf	(??_display_blade_lights^(0+128)+1)
  7082  043E  30C9               	movlw	201
  7083  043F  00A5               	movwf	??_display_blade_lights^(0+128)
  7084  0440                     u5497:	
  7085  0440  0BA5               	decfsz	??_display_blade_lights^(0+128),f
  7086  0441  2C40               	goto	u5497
  7087  0442  0BA6               	decfsz	(??_display_blade_lights^(0+128)+1),f
  7088  0443  2C40               	goto	u5497
  7089  0444  3200               	nop2
  7090  0445  3005               	movlw	5
  7091  0446  0021               	movlb	1	; select bank1
  7092  0447  02B4               	subwf	display_blade_lights@r_640^(0+128),f
  7093  0448  2B9C               	goto	L3
  7094  0449                     l5601:	
  7095                           ;lighting.c: 503: }
  7096                           ;lighting.c: 505: }
  7097                           
  7098                           
  7099                           ;lighting.c: 506: else if( mode == 3 )
  7100  0449  3003               	movlw	3
  7101  044A  0632               	xorwf	display_blade_lights@mode^(0+128),w
  7102  044B  1D03               	btfss	3,2
  7103  044C  2D39               	goto	l5639
  7104                           
  7105                           ;lighting.c: 507: {
  7106                           ;lighting.c: 509: led1_command(0xFF, 0xFF, 0, 0);
  7107  044D  30FF               	movlw	255
  7108  044E  00A5               	movwf	??_display_blade_lights^(0+128)
  7109  044F  0825               	movf	??_display_blade_lights^(0+128),w
  7110  0450  0020               	movlb	0	; select bank0
  7111  0451  00C3               	movwf	led1_command@red
  7112  0452  01C4               	clrf	led1_command@green
  7113  0453  01C5               	clrf	led1_command@blue
  7114  0454  30FF               	movlw	255
  7115  0455  3196  2668  3181   	fcall	_led1_command
  7116                           
  7117                           ;lighting.c: 510: _delay((unsigned long)((50)*(32000000/4000.0)));
  7118  0458  3003               	movlw	3
  7119  0459  0021               	movlb	1	; select bank1
  7120  045A  00A7               	movwf	(??_display_blade_lights^(0+128)+2)
  7121  045B  3008               	movlw	8
  7122  045C  00A6               	movwf	(??_display_blade_lights^(0+128)+1)
  7123  045D  3078               	movlw	120
  7124  045E  00A5               	movwf	??_display_blade_lights^(0+128)
  7125  045F                     u5507:	
  7126  045F  0BA5               	decfsz	??_display_blade_lights^(0+128),f
  7127  0460  2C5F               	goto	u5507
  7128  0461  0BA6               	decfsz	(??_display_blade_lights^(0+128)+1),f
  7129  0462  2C5F               	goto	u5507
  7130  0463  0BA7               	decfsz	(??_display_blade_lights^(0+128)+2),f
  7131  0464  2C5F               	goto	u5507
  7132                           
  7133                           ;lighting.c: 512: led2_command(0xFF, 0xFF, 0, 0);
  7134  0465  30FF               	movlw	255
  7135  0466  0021               	movlb	1	; select bank1
  7136  0467  00A5               	movwf	??_display_blade_lights^(0+128)
  7137  0468  0825               	movf	??_display_blade_lights^(0+128),w
  7138  0469  0020               	movlb	0	; select bank0
  7139  046A  00C3               	movwf	led2_command@red
  7140  046B  01C4               	clrf	led2_command@green
  7141  046C  01C5               	clrf	led2_command@blue
  7142  046D  30FF               	movlw	255
  7143  046E  3197  2734  3181   	fcall	_led2_command
  7144                           
  7145                           ;lighting.c: 513: _delay((unsigned long)((50)*(32000000/4000.0)));
  7146  0471  3003               	movlw	3
  7147  0472  0021               	movlb	1	; select bank1
  7148  0473  00A7               	movwf	(??_display_blade_lights^(0+128)+2)
  7149  0474  3008               	movlw	8
  7150  0475  00A6               	movwf	(??_display_blade_lights^(0+128)+1)
  7151  0476  3078               	movlw	120
  7152  0477  00A5               	movwf	??_display_blade_lights^(0+128)
  7153  0478                     u5517:	
  7154  0478  0BA5               	decfsz	??_display_blade_lights^(0+128),f
  7155  0479  2C78               	goto	u5517
  7156  047A  0BA6               	decfsz	(??_display_blade_lights^(0+128)+1),f
  7157  047B  2C78               	goto	u5517
  7158  047C  0BA7               	decfsz	(??_display_blade_lights^(0+128)+2),f
  7159  047D  2C78               	goto	u5517
  7160                           
  7161                           ;lighting.c: 515: led3_command(0xFF, 0xFF, 0, 0);
  7162  047E  30FF               	movlw	255
  7163  047F  0021               	movlb	1	; select bank1
  7164  0480  00A5               	movwf	??_display_blade_lights^(0+128)
  7165  0481  0825               	movf	??_display_blade_lights^(0+128),w
  7166  0482  0020               	movlb	0	; select bank0
  7167  0483  00C3               	movwf	led3_command@red
  7168  0484  01C4               	clrf	led3_command@green
  7169  0485  01C5               	clrf	led3_command@blue
  7170  0486  30FF               	movlw	255
  7171  0487  3188  208F  3181   	fcall	_led3_command
  7172                           
  7173                           ;lighting.c: 516: _delay((unsigned long)((50)*(32000000/4000.0)));
  7174  048A  3003               	movlw	3
  7175  048B  0021               	movlb	1	; select bank1
  7176  048C  00A7               	movwf	(??_display_blade_lights^(0+128)+2)
  7177  048D  3008               	movlw	8
  7178  048E  00A6               	movwf	(??_display_blade_lights^(0+128)+1)
  7179  048F  3078               	movlw	120
  7180  0490  00A5               	movwf	??_display_blade_lights^(0+128)
  7181  0491                     u5527:	
  7182  0491  0BA5               	decfsz	??_display_blade_lights^(0+128),f
  7183  0492  2C91               	goto	u5527
  7184  0493  0BA6               	decfsz	(??_display_blade_lights^(0+128)+1),f
  7185  0494  2C91               	goto	u5527
  7186  0495  0BA7               	decfsz	(??_display_blade_lights^(0+128)+2),f
  7187  0496  2C91               	goto	u5527
  7188                           
  7189                           ;lighting.c: 518: led4_command(0xFF, 0xFF, 0, 0);
  7190  0497  30FF               	movlw	255
  7191  0498  0021               	movlb	1	; select bank1
  7192  0499  00A5               	movwf	??_display_blade_lights^(0+128)
  7193  049A  0825               	movf	??_display_blade_lights^(0+128),w
  7194  049B  0020               	movlb	0	; select bank0
  7195  049C  00C3               	movwf	led4_command@red
  7196  049D  01C4               	clrf	led4_command@green
  7197  049E  01C5               	clrf	led4_command@blue
  7198  049F  30FF               	movlw	255
  7199  04A0  3189  215B  3181   	fcall	_led4_command
  7200                           
  7201                           ;lighting.c: 519: _delay((unsigned long)((50)*(32000000/4000.0)));
  7202  04A3  3003               	movlw	3
  7203  04A4  0021               	movlb	1	; select bank1
  7204  04A5  00A7               	movwf	(??_display_blade_lights^(0+128)+2)
  7205  04A6  3008               	movlw	8
  7206  04A7  00A6               	movwf	(??_display_blade_lights^(0+128)+1)
  7207  04A8  3078               	movlw	120
  7208  04A9  00A5               	movwf	??_display_blade_lights^(0+128)
  7209  04AA                     u5537:	
  7210  04AA  0BA5               	decfsz	??_display_blade_lights^(0+128),f
  7211  04AB  2CAA               	goto	u5537
  7212  04AC  0BA6               	decfsz	(??_display_blade_lights^(0+128)+1),f
  7213  04AD  2CAA               	goto	u5537
  7214  04AE  0BA7               	decfsz	(??_display_blade_lights^(0+128)+2),f
  7215  04AF  2CAA               	goto	u5537
  7216                           
  7217                           ;lighting.c: 521: led5_command(0xFF, 0xFF, 0, 0);
  7218  04B0  30FF               	movlw	255
  7219  04B1  0021               	movlb	1	; select bank1
  7220  04B2  00A5               	movwf	??_display_blade_lights^(0+128)
  7221  04B3  0825               	movf	??_display_blade_lights^(0+128),w
  7222  04B4  0020               	movlb	0	; select bank0
  7223  04B5  00C3               	movwf	led5_command@red
  7224  04B6  01C4               	clrf	led5_command@green
  7225  04B7  01C5               	clrf	led5_command@blue
  7226  04B8  30FF               	movlw	255
  7227  04B9  318A  2227  3181   	fcall	_led5_command
  7228                           
  7229                           ;lighting.c: 522: _delay((unsigned long)((50)*(32000000/4000.0)));
  7230  04BC  3003               	movlw	3
  7231  04BD  0021               	movlb	1	; select bank1
  7232  04BE  00A7               	movwf	(??_display_blade_lights^(0+128)+2)
  7233  04BF  3008               	movlw	8
  7234  04C0  00A6               	movwf	(??_display_blade_lights^(0+128)+1)
  7235  04C1  3078               	movlw	120
  7236  04C2  00A5               	movwf	??_display_blade_lights^(0+128)
  7237  04C3                     u5547:	
  7238  04C3  0BA5               	decfsz	??_display_blade_lights^(0+128),f
  7239  04C4  2CC3               	goto	u5547
  7240  04C5  0BA6               	decfsz	(??_display_blade_lights^(0+128)+1),f
  7241  04C6  2CC3               	goto	u5547
  7242  04C7  0BA7               	decfsz	(??_display_blade_lights^(0+128)+2),f
  7243  04C8  2CC3               	goto	u5547
  7244                           
  7245                           ;lighting.c: 524: led6_command(0xFF, 0xFF, 0, 0);
  7246  04C9  30FF               	movlw	255
  7247  04CA  0021               	movlb	1	; select bank1
  7248  04CB  00A5               	movwf	??_display_blade_lights^(0+128)
  7249  04CC  0825               	movf	??_display_blade_lights^(0+128),w
  7250  04CD  0020               	movlb	0	; select bank0
  7251  04CE  00C3               	movwf	led6_command@red
  7252  04CF  01C4               	clrf	led6_command@green
  7253  04D0  01C5               	clrf	led6_command@blue
  7254  04D1  30FF               	movlw	255
  7255  04D2  318A  22F3  3181   	fcall	_led6_command
  7256                           
  7257                           ;lighting.c: 525: _delay((unsigned long)((50)*(32000000/4000.0)));
  7258  04D5  3003               	movlw	3
  7259  04D6  0021               	movlb	1	; select bank1
  7260  04D7  00A7               	movwf	(??_display_blade_lights^(0+128)+2)
  7261  04D8  3008               	movlw	8
  7262  04D9  00A6               	movwf	(??_display_blade_lights^(0+128)+1)
  7263  04DA  3078               	movlw	120
  7264  04DB  00A5               	movwf	??_display_blade_lights^(0+128)
  7265  04DC                     u5557:	
  7266  04DC  0BA5               	decfsz	??_display_blade_lights^(0+128),f
  7267  04DD  2CDC               	goto	u5557
  7268  04DE  0BA6               	decfsz	(??_display_blade_lights^(0+128)+1),f
  7269  04DF  2CDC               	goto	u5557
  7270  04E0  0BA7               	decfsz	(??_display_blade_lights^(0+128)+2),f
  7271  04E1  2CDC               	goto	u5557
  7272                           
  7273                           ;lighting.c: 527: led7_command(0xFF, 0xFF, 0, 0);
  7274  04E2  30FF               	movlw	255
  7275  04E3  0021               	movlb	1	; select bank1
  7276  04E4  00A5               	movwf	??_display_blade_lights^(0+128)
  7277  04E5  0825               	movf	??_display_blade_lights^(0+128),w
  7278  04E6  0020               	movlb	0	; select bank0
  7279  04E7  00C3               	movwf	led7_command@red
  7280  04E8  01C4               	clrf	led7_command@green
  7281  04E9  01C5               	clrf	led7_command@blue
  7282  04EA  30FF               	movlw	255
  7283  04EB  318B  23BF  3181   	fcall	_led7_command
  7284                           
  7285                           ;lighting.c: 528: _delay((unsigned long)((50)*(32000000/4000.0)));
  7286  04EE  3003               	movlw	3
  7287  04EF  0021               	movlb	1	; select bank1
  7288  04F0  00A7               	movwf	(??_display_blade_lights^(0+128)+2)
  7289  04F1  3008               	movlw	8
  7290  04F2  00A6               	movwf	(??_display_blade_lights^(0+128)+1)
  7291  04F3  3078               	movlw	120
  7292  04F4  00A5               	movwf	??_display_blade_lights^(0+128)
  7293  04F5                     u5567:	
  7294  04F5  0BA5               	decfsz	??_display_blade_lights^(0+128),f
  7295  04F6  2CF5               	goto	u5567
  7296  04F7  0BA6               	decfsz	(??_display_blade_lights^(0+128)+1),f
  7297  04F8  2CF5               	goto	u5567
  7298  04F9  0BA7               	decfsz	(??_display_blade_lights^(0+128)+2),f
  7299  04FA  2CF5               	goto	u5567
  7300                           
  7301                           ;lighting.c: 530: for(unsigned char i = 0; i < 4; ++i)
  7302  04FB  0021               	movlb	1	; select bank1
  7303  04FC  01B1               	clrf	display_blade_lights@i_643^(0+128)
  7304  04FD  3004               	movlw	4
  7305  04FE  0231               	subwf	display_blade_lights@i_643^(0+128),w
  7306  04FF  1803               	btfsc	3,0
  7307  0500  2D39               	goto	l5639
  7308  0501                     l5629:	
  7309                           
  7310                           ;lighting.c: 531: {
  7311                           ;lighting.c: 533: led7_command(0xFF, 0xFF, 0, 0);
  7312  0501  30FF               	movlw	255
  7313  0502  00A5               	movwf	??_display_blade_lights^(0+128)
  7314  0503  0825               	movf	??_display_blade_lights^(0+128),w
  7315  0504  0020               	movlb	0	; select bank0
  7316  0505  00C3               	movwf	led7_command@red
  7317  0506  01C4               	clrf	led7_command@green
  7318  0507  01C5               	clrf	led7_command@blue
  7319  0508  30FF               	movlw	255
  7320  0509  318B  23BF  3181   	fcall	_led7_command
  7321                           
  7322                           ;lighting.c: 534: _delay((unsigned long)((25)*(32000000/4000.0)));
  7323  050C  3002               	movlw	2
  7324  050D  0021               	movlb	1	; select bank1
  7325  050E  00A7               	movwf	(??_display_blade_lights^(0+128)+2)
  7326  050F  3004               	movlw	4
  7327  0510  00A6               	movwf	(??_display_blade_lights^(0+128)+1)
  7328  0511  30BA               	movlw	186
  7329  0512  00A5               	movwf	??_display_blade_lights^(0+128)
  7330  0513                     u5577:	
  7331  0513  0BA5               	decfsz	??_display_blade_lights^(0+128),f
  7332  0514  2D13               	goto	u5577
  7333  0515  0BA6               	decfsz	(??_display_blade_lights^(0+128)+1),f
  7334  0516  2D13               	goto	u5577
  7335  0517  0BA7               	decfsz	(??_display_blade_lights^(0+128)+2),f
  7336  0518  2D13               	goto	u5577
  7337  0519  0000               	nop
  7338                           
  7339                           ;lighting.c: 536: led7_command(0xFF, 0, 0, 0);
  7340  051A  0020               	movlb	0	; select bank0
  7341  051B  01C3               	clrf	led7_command@red
  7342  051C  01C4               	clrf	led7_command@green
  7343  051D  01C5               	clrf	led7_command@blue
  7344  051E  30FF               	movlw	255
  7345  051F  318B  23BF  3181   	fcall	_led7_command
  7346                           
  7347                           ;lighting.c: 537: _delay((unsigned long)((25)*(32000000/4000.0)));
  7348  0522  3002               	movlw	2
  7349  0523  0021               	movlb	1	; select bank1
  7350  0524  00A7               	movwf	(??_display_blade_lights^(0+128)+2)
  7351  0525  3004               	movlw	4
  7352  0526  00A6               	movwf	(??_display_blade_lights^(0+128)+1)
  7353  0527  30BA               	movlw	186
  7354  0528  00A5               	movwf	??_display_blade_lights^(0+128)
  7355  0529                     u5587:	
  7356  0529  0BA5               	decfsz	??_display_blade_lights^(0+128),f
  7357  052A  2D29               	goto	u5587
  7358  052B  0BA6               	decfsz	(??_display_blade_lights^(0+128)+1),f
  7359  052C  2D29               	goto	u5587
  7360  052D  0BA7               	decfsz	(??_display_blade_lights^(0+128)+2),f
  7361  052E  2D29               	goto	u5587
  7362  052F  0000               	nop
  7363  0530  3001               	movlw	1
  7364  0531  0021               	movlb	1	; select bank1
  7365  0532  00A5               	movwf	??_display_blade_lights^(0+128)
  7366  0533  0825               	movf	??_display_blade_lights^(0+128),w
  7367  0534  07B1               	addwf	display_blade_lights@i_643^(0+128),f
  7368  0535  3004               	movlw	4
  7369  0536  0231               	subwf	display_blade_lights@i_643^(0+128),w
  7370  0537  1C03               	skipc
  7371  0538  2D01               	goto	l5629
  7372  0539                     l5639:	
  7373                           
  7374                           ;lighting.c: 538: }
  7375                           ;lighting.c: 539: }
  7376                           ;lighting.c: 540: leds_off();
  7377  0539  3195  25A1         	fcall	_leds_off
  7378  053B  0008               	return
  7379  053C                     __end_of_display_blade_lights:	
  7380                           
  7381                           	psect	text10
  7382  15A1                     __ptext10:	
  7383 ;; *************** function _leds_off *****************
  7384 ;; Defined at:
  7385 ;;		line 959 in file "../../source/lighting.c"
  7386 ;; Parameters:    Size  Location     Type
  7387 ;;		None
  7388 ;; Auto vars:     Size  Location     Type
  7389 ;;  i               2    2[BANK1 ] int 
  7390 ;;  i               2    0[BANK1 ] int 
  7391 ;; Return value:  Size  Location     Type
  7392 ;;		None               void
  7393 ;; Registers used:
  7394 ;;		wreg, status,2, status,0, pclath, cstack
  7395 ;; Tracked objects:
  7396 ;;		On entry : 0/0
  7397 ;;		On exit  : 0/0
  7398 ;;		Unchanged: 0/0
  7399 ;; Data sizes:     COMMON   BANK0   BANK1   BANK2   BANK3   BANK4   BANK5   BANK6   BANK7   BANK8   BANK9  BANK10  BANK1
      +1  BANK12  BANK13  BANK14  BANK15  BANK16  BANK17  BANK18  BANK19  BANK20  BANK21  BANK22  BANK23  BANK24  BANK25
  7400 ;;      Params:         0       0       0       0       0       0       0       0       0       0       0       0       
      +0       0       0       0       0       0       0       0       0       0       0       0       0       0       0
  7401 ;;      Locals:         0       0       4       0       0       0       0       0       0       0       0       0       
      +0       0       0       0       0       0       0       0       0       0       0       0       0       0       0
  7402 ;;      Temps:          0       2       0       0       0       0       0       0       0       0       0       0       
      +0       0       0       0       0       0       0       0       0       0       0       0       0       0       0
  7403 ;;      Totals:         0       2       4       0       0       0       0       0       0       0       0       0       
      +0       0       0       0       0       0       0       0       0       0       0       0       0       0       0
  7404 ;;Total ram usage:        6 bytes
  7405 ;; Hardware stack levels used:    1
  7406 ;; Hardware stack levels required when called:    5
  7407 ;; This function calls:
  7408 ;;		_writespi
  7409 ;; This function is called by:
  7410 ;;		_init_leds
  7411 ;;		_display_blade_lights
  7412 ;; This function uses a non-reentrant model
  7413 ;;
  7414                           
  7415                           
  7416                           ;psect for function _leds_off
  7417  15A1                     _leds_off:	
  7418                           
  7419                           ;lighting.c: 962: for(int i = 0;i < 4; i++)
  7420                           
  7421                           ;incstack = 0
  7422                           ; Regs used in _leds_off: [wreg+status,2+status,0+pclath+cstack]
  7423  15A1  0021               	movlb	1	; select bank1
  7424  15A2  01A0               	clrf	leds_off@i^(0+128)
  7425  15A3  01A1               	clrf	(leds_off@i+1)^(0+128)
  7426  15A4  0821               	movf	(leds_off@i+1)^(0+128),w
  7427  15A5  3A80               	xorlw	128
  7428  15A6  0020               	movlb	0	; select bank0
  7429  15A7  00C3               	movwf	??_leds_off
  7430  15A8  3080               	movlw	128
  7431  15A9  0243               	subwf	??_leds_off,w
  7432  15AA  1D03               	skipz
  7433  15AB  2DAF               	goto	u4425
  7434  15AC  3004               	movlw	4
  7435  15AD  0021               	movlb	1	; select bank1
  7436  15AE  0220               	subwf	leds_off@i^(0+128),w
  7437  15AF                     u4425:	
  7438  15AF  1803               	btfsc	3,0
  7439  15B0  2DC7               	goto	l5077
  7440  15B1                     l5071:	
  7441                           
  7442                           ;lighting.c: 963: {
  7443                           ;lighting.c: 964: writespi(0x00);
  7444  15B1  3000               	movlw	0
  7445  15B2  319B  2320  3195   	fcall	_writespi
  7446  15B5  3001               	movlw	1
  7447  15B6  0021               	movlb	1	; select bank1
  7448  15B7  07A0               	addwf	leds_off@i^(0+128),f
  7449  15B8  3000               	movlw	0
  7450  15B9  3DA1               	addwfc	(leds_off@i+1)^(0+128),f
  7451  15BA  0821               	movf	(leds_off@i+1)^(0+128),w
  7452  15BB  3A80               	xorlw	128
  7453  15BC  0020               	movlb	0	; select bank0
  7454  15BD  00C3               	movwf	??_leds_off
  7455  15BE  3080               	movlw	128
  7456  15BF  0243               	subwf	??_leds_off,w
  7457  15C0  1D03               	skipz
  7458  15C1  2DC5               	goto	u4435
  7459  15C2  3004               	movlw	4
  7460  15C3  0021               	movlb	1	; select bank1
  7461  15C4  0220               	subwf	leds_off@i^(0+128),w
  7462  15C5                     u4435:	
  7463  15C5  1C03               	skipc
  7464  15C6  2DB1               	goto	l5071
  7465  15C7                     l5077:	
  7466                           
  7467                           ;lighting.c: 965: }
  7468                           ;lighting.c: 967: writespi(0xFF);
  7469  15C7  30FF               	movlw	255
  7470  15C8  319B  2320  3195   	fcall	_writespi
  7471                           
  7472                           ;lighting.c: 968: writespi(0);
  7473  15CB  3000               	movlw	0
  7474  15CC  319B  2320  3195   	fcall	_writespi
  7475                           
  7476                           ;lighting.c: 969: writespi(0);
  7477  15CF  3000               	movlw	0
  7478  15D0  319B  2320  3195   	fcall	_writespi
  7479                           
  7480                           ;lighting.c: 970: writespi(0);
  7481  15D3  3000               	movlw	0
  7482  15D4  319B  2320  3195   	fcall	_writespi
  7483                           
  7484                           ;lighting.c: 972: writespi(0xFF);
  7485  15D7  30FF               	movlw	255
  7486  15D8  319B  2320  3195   	fcall	_writespi
  7487                           
  7488                           ;lighting.c: 973: writespi(0);
  7489  15DB  3000               	movlw	0
  7490  15DC  319B  2320  3195   	fcall	_writespi
  7491                           
  7492                           ;lighting.c: 974: writespi(0);
  7493  15DF  3000               	movlw	0
  7494  15E0  319B  2320  3195   	fcall	_writespi
  7495                           
  7496                           ;lighting.c: 975: writespi(0);
  7497  15E3  3000               	movlw	0
  7498  15E4  319B  2320  3195   	fcall	_writespi
  7499                           
  7500                           ;lighting.c: 977: writespi(0xFF);
  7501  15E7  30FF               	movlw	255
  7502  15E8  319B  2320  3195   	fcall	_writespi
  7503                           
  7504                           ;lighting.c: 978: writespi(0);
  7505  15EB  3000               	movlw	0
  7506  15EC  319B  2320  3195   	fcall	_writespi
  7507                           
  7508                           ;lighting.c: 979: writespi(0);
  7509  15EF  3000               	movlw	0
  7510  15F0  319B  2320  3195   	fcall	_writespi
  7511                           
  7512                           ;lighting.c: 980: writespi(0);
  7513  15F3  3000               	movlw	0
  7514  15F4  319B  2320  3195   	fcall	_writespi
  7515                           
  7516                           ;lighting.c: 982: writespi(0xFF);
  7517  15F7  30FF               	movlw	255
  7518  15F8  319B  2320  3195   	fcall	_writespi
  7519                           
  7520                           ;lighting.c: 983: writespi(0);
  7521  15FB  3000               	movlw	0
  7522  15FC  319B  2320  3195   	fcall	_writespi
  7523                           
  7524                           ;lighting.c: 984: writespi(0);
  7525  15FF  3000               	movlw	0
  7526  1600  319B  2320  3195   	fcall	_writespi
  7527                           
  7528                           ;lighting.c: 985: writespi(0);
  7529  1603  3000               	movlw	0
  7530  1604  319B  2320  3195   	fcall	_writespi
  7531                           
  7532                           ;lighting.c: 987: writespi(0xFF);
  7533  1607  30FF               	movlw	255
  7534  1608  319B  2320  3195   	fcall	_writespi
  7535                           
  7536                           ;lighting.c: 988: writespi(0);
  7537  160B  3000               	movlw	0
  7538  160C  319B  2320  3195   	fcall	_writespi
  7539                           
  7540                           ;lighting.c: 989: writespi(0);
  7541  160F  3000               	movlw	0
  7542  1610  319B  2320  3195   	fcall	_writespi
  7543                           
  7544                           ;lighting.c: 990: writespi(0);
  7545  1613  3000               	movlw	0
  7546  1614  319B  2320  3195   	fcall	_writespi
  7547                           
  7548                           ;lighting.c: 992: writespi(0xFF);
  7549  1617  30FF               	movlw	255
  7550  1618  319B  2320  3195   	fcall	_writespi
  7551                           
  7552                           ;lighting.c: 993: writespi(0);
  7553  161B  3000               	movlw	0
  7554  161C  319B  2320  3195   	fcall	_writespi
  7555                           
  7556                           ;lighting.c: 994: writespi(0);
  7557  161F  3000               	movlw	0
  7558  1620  319B  2320  3195   	fcall	_writespi
  7559                           
  7560                           ;lighting.c: 995: writespi(0);
  7561  1623  3000               	movlw	0
  7562  1624  319B  2320  3195   	fcall	_writespi
  7563                           
  7564                           ;lighting.c: 997: writespi(0xFF);
  7565  1627  30FF               	movlw	255
  7566  1628  319B  2320  3195   	fcall	_writespi
  7567                           
  7568                           ;lighting.c: 998: writespi(0);
  7569  162B  3000               	movlw	0
  7570  162C  319B  2320  3195   	fcall	_writespi
  7571                           
  7572                           ;lighting.c: 999: writespi(0);
  7573  162F  3000               	movlw	0
  7574  1630  319B  2320  3195   	fcall	_writespi
  7575                           
  7576                           ;lighting.c: 1000: writespi(0);
  7577  1633  3000               	movlw	0
  7578  1634  319B  2320  3195   	fcall	_writespi
  7579                           
  7580                           ;lighting.c: 1002: for(int i = 0;i < 4; i++)
  7581  1637  0021               	movlb	1	; select bank1
  7582  1638  01A2               	clrf	leds_off@i_720^(0+128)
  7583  1639  01A3               	clrf	(leds_off@i_720+1)^(0+128)
  7584  163A  0823               	movf	(leds_off@i_720+1)^(0+128),w
  7585  163B  3A80               	xorlw	128
  7586  163C  0020               	movlb	0	; select bank0
  7587  163D  00C3               	movwf	??_leds_off
  7588  163E  3080               	movlw	128
  7589  163F  0243               	subwf	??_leds_off,w
  7590  1640  1D03               	skipz
  7591  1641  2E45               	goto	u4445
  7592  1642  3004               	movlw	4
  7593  1643  0021               	movlb	1	; select bank1
  7594  1644  0222               	subwf	leds_off@i_720^(0+128),w
  7595  1645                     u4445:	
  7596  1645  1803               	btfsc	3,0
  7597  1646  2E5D               	goto	l5091
  7598  1647                     l5085:	
  7599                           
  7600                           ;lighting.c: 1003: {
  7601                           ;lighting.c: 1004: writespi(0xFF);
  7602  1647  30FF               	movlw	255
  7603  1648  319B  2320  3195   	fcall	_writespi
  7604  164B  3001               	movlw	1
  7605  164C  0021               	movlb	1	; select bank1
  7606  164D  07A2               	addwf	leds_off@i_720^(0+128),f
  7607  164E  3000               	movlw	0
  7608  164F  3DA3               	addwfc	(leds_off@i_720+1)^(0+128),f
  7609  1650  0823               	movf	(leds_off@i_720+1)^(0+128),w
  7610  1651  3A80               	xorlw	128
  7611  1652  0020               	movlb	0	; select bank0
  7612  1653  00C3               	movwf	??_leds_off
  7613  1654  3080               	movlw	128
  7614  1655  0243               	subwf	??_leds_off,w
  7615  1656  1D03               	skipz
  7616  1657  2E5B               	goto	u4455
  7617  1658  3004               	movlw	4
  7618  1659  0021               	movlb	1	; select bank1
  7619  165A  0222               	subwf	leds_off@i_720^(0+128),w
  7620  165B                     u4455:	
  7621  165B  1C03               	skipc
  7622  165C  2E47               	goto	l5085
  7623  165D                     l5091:	
  7624                           
  7625                           ;lighting.c: 1005: }
  7626                           ;lighting.c: 1006: _delay((unsigned long)((20)*(32000000/4000.0)));
  7627  165D  30D0               	movlw	208
  7628  165E  0020               	movlb	0	; select bank0
  7629  165F  00C4               	movwf	??_leds_off+1
  7630  1660  30C9               	movlw	201
  7631  1661  00C3               	movwf	??_leds_off
  7632  1662                     u5597:	
  7633  1662  0BC3               	decfsz	??_leds_off,f
  7634  1663  2E62               	goto	u5597
  7635  1664  0BC4               	decfsz	??_leds_off+1,f
  7636  1665  2E62               	goto	u5597
  7637  1666  3200               	nop2
  7638  1667  0008               	return
  7639  1668                     __end_of_leds_off:	
  7640                           
  7641                           	psect	text11
  7642  0BBF                     __ptext11:	
  7643 ;; *************** function _led7_command *****************
  7644 ;; Defined at:
  7645 ;;		line 906 in file "../../source/lighting.c"
  7646 ;; Parameters:    Size  Location     Type
  7647 ;;  brightness      1    wreg     unsigned char 
  7648 ;;  red             1   35[BANK0 ] unsigned char 
  7649 ;;  green           1   36[BANK0 ] unsigned char 
  7650 ;;  blue            1   37[BANK0 ] unsigned char 
  7651 ;; Auto vars:     Size  Location     Type
  7652 ;;  brightness      1    0[BANK1 ] unsigned char 
  7653 ;;  i               2    3[BANK1 ] int 
  7654 ;;  i               2    1[BANK1 ] int 
  7655 ;; Return value:  Size  Location     Type
  7656 ;;		None               void
  7657 ;; Registers used:
  7658 ;;		wreg, status,2, status,0, pclath, cstack
  7659 ;; Tracked objects:
  7660 ;;		On entry : 0/0
  7661 ;;		On exit  : 0/0
  7662 ;;		Unchanged: 0/0
  7663 ;; Data sizes:     COMMON   BANK0   BANK1   BANK2   BANK3   BANK4   BANK5   BANK6   BANK7   BANK8   BANK9  BANK10  BANK1
      +1  BANK12  BANK13  BANK14  BANK15  BANK16  BANK17  BANK18  BANK19  BANK20  BANK21  BANK22  BANK23  BANK24  BANK25
  7664 ;;      Params:         0       3       0       0       0       0       0       0       0       0       0       0       
      +0       0       0       0       0       0       0       0       0       0       0       0       0       0       0
  7665 ;;      Locals:         0       0       5       0       0       0       0       0       0       0       0       0       
      +0       0       0       0       0       0       0       0       0       0       0       0       0       0       0
  7666 ;;      Temps:          0       2       0       0       0       0       0       0       0       0       0       0       
      +0       0       0       0       0       0       0       0       0       0       0       0       0       0       0
  7667 ;;      Totals:         0       5       5       0       0       0       0       0       0       0       0       0       
      +0       0       0       0       0       0       0       0       0       0       0       0       0       0       0
  7668 ;;Total ram usage:       10 bytes
  7669 ;; Hardware stack levels used:    1
  7670 ;; Hardware stack levels required when called:    5
  7671 ;; This function calls:
  7672 ;;		_writespi
  7673 ;; This function is called by:
  7674 ;;		_display_blade_lights
  7675 ;; This function uses a non-reentrant model
  7676 ;;
  7677                           
  7678                           
  7679                           ;psect for function _led7_command
  7680  0BBF                     _led7_command:	
  7681                           
  7682                           ;incstack = 0
  7683                           ; Regs used in _led7_command: [wreg+status,2+status,0+pclath+cstack]
  7684                           ;led7_command@brightness stored from wreg
  7685  0BBF  0021               	movlb	1	; select bank1
  7686  0BC0  00A0               	movwf	led7_command@brightness^(0+128)
  7687                           
  7688                           ;lighting.c: 912: for(int i = 0;i < 4; i++)
  7689  0BC1  01A1               	clrf	led7_command@i^(0+128)
  7690  0BC2  01A2               	clrf	(led7_command@i+1)^(0+128)
  7691  0BC3  0822               	movf	(led7_command@i+1)^(0+128),w
  7692  0BC4  3A80               	xorlw	128
  7693  0BC5  0020               	movlb	0	; select bank0
  7694  0BC6  00C6               	movwf	??_led7_command
  7695  0BC7  3080               	movlw	128
  7696  0BC8  0246               	subwf	??_led7_command,w
  7697  0BC9  1D03               	skipz
  7698  0BCA  2BCE               	goto	u4465
  7699  0BCB  3004               	movlw	4
  7700  0BCC  0021               	movlb	1	; select bank1
  7701  0BCD  0221               	subwf	led7_command@i^(0+128),w
  7702  0BCE                     u4465:	
  7703  0BCE  1803               	btfsc	3,0
  7704  0BCF  2BE6               	goto	l5105
  7705  0BD0                     l5099:	
  7706                           
  7707                           ;lighting.c: 913: {
  7708                           ;lighting.c: 914: writespi(0x00);
  7709  0BD0  3000               	movlw	0
  7710  0BD1  319B  2320  318B   	fcall	_writespi
  7711  0BD4  3001               	movlw	1
  7712  0BD5  0021               	movlb	1	; select bank1
  7713  0BD6  07A1               	addwf	led7_command@i^(0+128),f
  7714  0BD7  3000               	movlw	0
  7715  0BD8  3DA2               	addwfc	(led7_command@i+1)^(0+128),f
  7716  0BD9  0822               	movf	(led7_command@i+1)^(0+128),w
  7717  0BDA  3A80               	xorlw	128
  7718  0BDB  0020               	movlb	0	; select bank0
  7719  0BDC  00C6               	movwf	??_led7_command
  7720  0BDD  3080               	movlw	128
  7721  0BDE  0246               	subwf	??_led7_command,w
  7722  0BDF  1D03               	skipz
  7723  0BE0  2BE4               	goto	u4475
  7724  0BE1  3004               	movlw	4
  7725  0BE2  0021               	movlb	1	; select bank1
  7726  0BE3  0221               	subwf	led7_command@i^(0+128),w
  7727  0BE4                     u4475:	
  7728  0BE4  1C03               	skipc
  7729  0BE5  2BD0               	goto	l5099
  7730  0BE6                     l5105:	
  7731                           
  7732                           ;lighting.c: 915: }
  7733                           ;lighting.c: 917: writespi(0xFF);
  7734  0BE6  30FF               	movlw	255
  7735  0BE7  319B  2320  318B   	fcall	_writespi
  7736                           
  7737                           ;lighting.c: 918: writespi(0);
  7738  0BEA  3000               	movlw	0
  7739  0BEB  319B  2320  318B   	fcall	_writespi
  7740                           
  7741                           ;lighting.c: 919: writespi(0);
  7742  0BEE  3000               	movlw	0
  7743  0BEF  319B  2320  318B   	fcall	_writespi
  7744                           
  7745                           ;lighting.c: 920: writespi(0);
  7746  0BF2  3000               	movlw	0
  7747  0BF3  319B  2320  318B   	fcall	_writespi
  7748                           
  7749                           ;lighting.c: 922: writespi(0xFF);
  7750  0BF6  30FF               	movlw	255
  7751  0BF7  319B  2320  318B   	fcall	_writespi
  7752                           
  7753                           ;lighting.c: 923: writespi(0);
  7754  0BFA  3000               	movlw	0
  7755  0BFB  319B  2320  318B   	fcall	_writespi
  7756                           
  7757                           ;lighting.c: 924: writespi(0);
  7758  0BFE  3000               	movlw	0
  7759  0BFF  319B  2320  318B   	fcall	_writespi
  7760                           
  7761                           ;lighting.c: 925: writespi(0);
  7762  0C02  3000               	movlw	0
  7763  0C03  319B  2320  318B   	fcall	_writespi
  7764                           
  7765                           ;lighting.c: 927: writespi(0xFF);
  7766  0C06  30FF               	movlw	255
  7767  0C07  319B  2320  318B   	fcall	_writespi
  7768                           
  7769                           ;lighting.c: 928: writespi(0);
  7770  0C0A  3000               	movlw	0
  7771  0C0B  319B  2320  318B   	fcall	_writespi
  7772                           
  7773                           ;lighting.c: 929: writespi(0);
  7774  0C0E  3000               	movlw	0
  7775  0C0F  319B  2320  318B   	fcall	_writespi
  7776                           
  7777                           ;lighting.c: 930: writespi(0);
  7778  0C12  3000               	movlw	0
  7779  0C13  319B  2320  318B   	fcall	_writespi
  7780                           
  7781                           ;lighting.c: 932: writespi(0xFF);
  7782  0C16  30FF               	movlw	255
  7783  0C17  319B  2320  318B   	fcall	_writespi
  7784                           
  7785                           ;lighting.c: 933: writespi(0);
  7786  0C1A  3000               	movlw	0
  7787  0C1B  319B  2320  318B   	fcall	_writespi
  7788                           
  7789                           ;lighting.c: 934: writespi(0);
  7790  0C1E  3000               	movlw	0
  7791  0C1F  319B  2320  318B   	fcall	_writespi
  7792                           
  7793                           ;lighting.c: 935: writespi(0);
  7794  0C22  3000               	movlw	0
  7795  0C23  319B  2320  318B   	fcall	_writespi
  7796                           
  7797                           ;lighting.c: 937: writespi(0xFF);
  7798  0C26  30FF               	movlw	255
  7799  0C27  319B  2320  318B   	fcall	_writespi
  7800                           
  7801                           ;lighting.c: 938: writespi(0);
  7802  0C2A  3000               	movlw	0
  7803  0C2B  319B  2320  318B   	fcall	_writespi
  7804                           
  7805                           ;lighting.c: 939: writespi(0);
  7806  0C2E  3000               	movlw	0
  7807  0C2F  319B  2320  318B   	fcall	_writespi
  7808                           
  7809                           ;lighting.c: 940: writespi(0);
  7810  0C32  3000               	movlw	0
  7811  0C33  319B  2320  318B   	fcall	_writespi
  7812                           
  7813                           ;lighting.c: 942: writespi(0xFF);
  7814  0C36  30FF               	movlw	255
  7815  0C37  319B  2320  318B   	fcall	_writespi
  7816                           
  7817                           ;lighting.c: 943: writespi(0);
  7818  0C3A  3000               	movlw	0
  7819  0C3B  319B  2320  318B   	fcall	_writespi
  7820                           
  7821                           ;lighting.c: 944: writespi(0);
  7822  0C3E  3000               	movlw	0
  7823  0C3F  319B  2320  318B   	fcall	_writespi
  7824                           
  7825                           ;lighting.c: 945: writespi(0);
  7826  0C42  3000               	movlw	0
  7827  0C43  319B  2320  318B   	fcall	_writespi
  7828                           
  7829                           ;lighting.c: 947: writespi(brightness);
  7830  0C46  0021               	movlb	1	; select bank1
  7831  0C47  0820               	movf	led7_command@brightness^(0+128),w
  7832  0C48  319B  2320  318B   	fcall	_writespi
  7833                           
  7834                           ;lighting.c: 948: writespi(blue);
  7835  0C4B  0020               	movlb	0	; select bank0
  7836  0C4C  0845               	movf	led7_command@blue,w
  7837  0C4D  319B  2320  318B   	fcall	_writespi
  7838                           
  7839                           ;lighting.c: 949: writespi(green);
  7840  0C50  0020               	movlb	0	; select bank0
  7841  0C51  0844               	movf	led7_command@green,w
  7842  0C52  319B  2320  318B   	fcall	_writespi
  7843                           
  7844                           ;lighting.c: 950: writespi(red);
  7845  0C55  0020               	movlb	0	; select bank0
  7846  0C56  0843               	movf	led7_command@red,w
  7847  0C57  319B  2320  318B   	fcall	_writespi
  7848                           
  7849                           ;lighting.c: 952: for(int i = 0;i < 4; i++)
  7850  0C5A  0021               	movlb	1	; select bank1
  7851  0C5B  01A3               	clrf	led7_command@i_717^(0+128)
  7852  0C5C  01A4               	clrf	(led7_command@i_717+1)^(0+128)
  7853  0C5D  0824               	movf	(led7_command@i_717+1)^(0+128),w
  7854  0C5E  3A80               	xorlw	128
  7855  0C5F  0020               	movlb	0	; select bank0
  7856  0C60  00C6               	movwf	??_led7_command
  7857  0C61  3080               	movlw	128
  7858  0C62  0246               	subwf	??_led7_command,w
  7859  0C63  1D03               	skipz
  7860  0C64  2C68               	goto	u4485
  7861  0C65  3004               	movlw	4
  7862  0C66  0021               	movlb	1	; select bank1
  7863  0C67  0223               	subwf	led7_command@i_717^(0+128),w
  7864  0C68                     u4485:	
  7865  0C68  1803               	btfsc	3,0
  7866  0C69  2C80               	goto	l5119
  7867  0C6A                     l5113:	
  7868                           
  7869                           ;lighting.c: 953: {
  7870                           ;lighting.c: 954: writespi(0xFF);
  7871  0C6A  30FF               	movlw	255
  7872  0C6B  319B  2320  318B   	fcall	_writespi
  7873  0C6E  3001               	movlw	1
  7874  0C6F  0021               	movlb	1	; select bank1
  7875  0C70  07A3               	addwf	led7_command@i_717^(0+128),f
  7876  0C71  3000               	movlw	0
  7877  0C72  3DA4               	addwfc	(led7_command@i_717+1)^(0+128),f
  7878  0C73  0824               	movf	(led7_command@i_717+1)^(0+128),w
  7879  0C74  3A80               	xorlw	128
  7880  0C75  0020               	movlb	0	; select bank0
  7881  0C76  00C6               	movwf	??_led7_command
  7882  0C77  3080               	movlw	128
  7883  0C78  0246               	subwf	??_led7_command,w
  7884  0C79  1D03               	skipz
  7885  0C7A  2C7E               	goto	u4495
  7886  0C7B  3004               	movlw	4
  7887  0C7C  0021               	movlb	1	; select bank1
  7888  0C7D  0223               	subwf	led7_command@i_717^(0+128),w
  7889  0C7E                     u4495:	
  7890  0C7E  1C03               	skipc
  7891  0C7F  2C6A               	goto	l5113
  7892  0C80                     l5119:	
  7893                           
  7894                           ;lighting.c: 955: }
  7895                           ;lighting.c: 956: _delay((unsigned long)((20)*(32000000/4000.0)));
  7896  0C80  30D0               	movlw	208
  7897  0C81  0020               	movlb	0	; select bank0
  7898  0C82  00C7               	movwf	??_led7_command+1
  7899  0C83  30C9               	movlw	201
  7900  0C84  00C6               	movwf	??_led7_command
  7901  0C85                     u5607:	
  7902  0C85  0BC6               	decfsz	??_led7_command,f
  7903  0C86  2C85               	goto	u5607
  7904  0C87  0BC7               	decfsz	??_led7_command+1,f
  7905  0C88  2C85               	goto	u5607
  7906  0C89  3200               	nop2
  7907  0C8A  0008               	return
  7908  0C8B                     __end_of_led7_command:	
  7909                           
  7910                           	psect	text12
  7911  0AF3                     __ptext12:	
  7912 ;; *************** function _led6_command *****************
  7913 ;; Defined at:
  7914 ;;		line 853 in file "../../source/lighting.c"
  7915 ;; Parameters:    Size  Location     Type
  7916 ;;  brightness      1    wreg     unsigned char 
  7917 ;;  red             1   35[BANK0 ] unsigned char 
  7918 ;;  green           1   36[BANK0 ] unsigned char 
  7919 ;;  blue            1   37[BANK0 ] unsigned char 
  7920 ;; Auto vars:     Size  Location     Type
  7921 ;;  brightness      1    0[BANK1 ] unsigned char 
  7922 ;;  i               2    3[BANK1 ] int 
  7923 ;;  i               2    1[BANK1 ] int 
  7924 ;; Return value:  Size  Location     Type
  7925 ;;		None               void
  7926 ;; Registers used:
  7927 ;;		wreg, status,2, status,0, pclath, cstack
  7928 ;; Tracked objects:
  7929 ;;		On entry : 0/0
  7930 ;;		On exit  : 0/0
  7931 ;;		Unchanged: 0/0
  7932 ;; Data sizes:     COMMON   BANK0   BANK1   BANK2   BANK3   BANK4   BANK5   BANK6   BANK7   BANK8   BANK9  BANK10  BANK1
      +1  BANK12  BANK13  BANK14  BANK15  BANK16  BANK17  BANK18  BANK19  BANK20  BANK21  BANK22  BANK23  BANK24  BANK25
  7933 ;;      Params:         0       3       0       0       0       0       0       0       0       0       0       0       
      +0       0       0       0       0       0       0       0       0       0       0       0       0       0       0
  7934 ;;      Locals:         0       0       5       0       0       0       0       0       0       0       0       0       
      +0       0       0       0       0       0       0       0       0       0       0       0       0       0       0
  7935 ;;      Temps:          0       2       0       0       0       0       0       0       0       0       0       0       
      +0       0       0       0       0       0       0       0       0       0       0       0       0       0       0
  7936 ;;      Totals:         0       5       5       0       0       0       0       0       0       0       0       0       
      +0       0       0       0       0       0       0       0       0       0       0       0       0       0       0
  7937 ;;Total ram usage:       10 bytes
  7938 ;; Hardware stack levels used:    1
  7939 ;; Hardware stack levels required when called:    5
  7940 ;; This function calls:
  7941 ;;		_writespi
  7942 ;; This function is called by:
  7943 ;;		_display_blade_lights
  7944 ;; This function uses a non-reentrant model
  7945 ;;
  7946                           
  7947                           
  7948                           ;psect for function _led6_command
  7949  0AF3                     _led6_command:	
  7950                           
  7951                           ;incstack = 0
  7952                           ; Regs used in _led6_command: [wreg+status,2+status,0+pclath+cstack]
  7953                           ;led6_command@brightness stored from wreg
  7954  0AF3  0021               	movlb	1	; select bank1
  7955  0AF4  00A0               	movwf	led6_command@brightness^(0+128)
  7956                           
  7957                           ;lighting.c: 859: for(int i = 0;i < 4; i++)
  7958  0AF5  01A1               	clrf	led6_command@i^(0+128)
  7959  0AF6  01A2               	clrf	(led6_command@i+1)^(0+128)
  7960  0AF7  0822               	movf	(led6_command@i+1)^(0+128),w
  7961  0AF8  3A80               	xorlw	128
  7962  0AF9  0020               	movlb	0	; select bank0
  7963  0AFA  00C6               	movwf	??_led6_command
  7964  0AFB  3080               	movlw	128
  7965  0AFC  0246               	subwf	??_led6_command,w
  7966  0AFD  1D03               	skipz
  7967  0AFE  2B02               	goto	u4505
  7968  0AFF  3004               	movlw	4
  7969  0B00  0021               	movlb	1	; select bank1
  7970  0B01  0221               	subwf	led6_command@i^(0+128),w
  7971  0B02                     u4505:	
  7972  0B02  1803               	btfsc	3,0
  7973  0B03  2B1A               	goto	l5133
  7974  0B04                     l5127:	
  7975                           
  7976                           ;lighting.c: 860: {
  7977                           ;lighting.c: 861: writespi(0x00);
  7978  0B04  3000               	movlw	0
  7979  0B05  319B  2320  318A   	fcall	_writespi
  7980  0B08  3001               	movlw	1
  7981  0B09  0021               	movlb	1	; select bank1
  7982  0B0A  07A1               	addwf	led6_command@i^(0+128),f
  7983  0B0B  3000               	movlw	0
  7984  0B0C  3DA2               	addwfc	(led6_command@i+1)^(0+128),f
  7985  0B0D  0822               	movf	(led6_command@i+1)^(0+128),w
  7986  0B0E  3A80               	xorlw	128
  7987  0B0F  0020               	movlb	0	; select bank0
  7988  0B10  00C6               	movwf	??_led6_command
  7989  0B11  3080               	movlw	128
  7990  0B12  0246               	subwf	??_led6_command,w
  7991  0B13  1D03               	skipz
  7992  0B14  2B18               	goto	u4515
  7993  0B15  3004               	movlw	4
  7994  0B16  0021               	movlb	1	; select bank1
  7995  0B17  0221               	subwf	led6_command@i^(0+128),w
  7996  0B18                     u4515:	
  7997  0B18  1C03               	skipc
  7998  0B19  2B04               	goto	l5127
  7999  0B1A                     l5133:	
  8000                           
  8001                           ;lighting.c: 862: }
  8002                           ;lighting.c: 864: writespi(0xFF);
  8003  0B1A  30FF               	movlw	255
  8004  0B1B  319B  2320  318A   	fcall	_writespi
  8005                           
  8006                           ;lighting.c: 865: writespi(0);
  8007  0B1E  3000               	movlw	0
  8008  0B1F  319B  2320  318A   	fcall	_writespi
  8009                           
  8010                           ;lighting.c: 866: writespi(0);
  8011  0B22  3000               	movlw	0
  8012  0B23  319B  2320  318A   	fcall	_writespi
  8013                           
  8014                           ;lighting.c: 867: writespi(0);
  8015  0B26  3000               	movlw	0
  8016  0B27  319B  2320  318A   	fcall	_writespi
  8017                           
  8018                           ;lighting.c: 869: writespi(0xFF);
  8019  0B2A  30FF               	movlw	255
  8020  0B2B  319B  2320  318A   	fcall	_writespi
  8021                           
  8022                           ;lighting.c: 870: writespi(0);
  8023  0B2E  3000               	movlw	0
  8024  0B2F  319B  2320  318A   	fcall	_writespi
  8025                           
  8026                           ;lighting.c: 871: writespi(0);
  8027  0B32  3000               	movlw	0
  8028  0B33  319B  2320  318A   	fcall	_writespi
  8029                           
  8030                           ;lighting.c: 872: writespi(0);
  8031  0B36  3000               	movlw	0
  8032  0B37  319B  2320  318A   	fcall	_writespi
  8033                           
  8034                           ;lighting.c: 874: writespi(0xFF);
  8035  0B3A  30FF               	movlw	255
  8036  0B3B  319B  2320  318A   	fcall	_writespi
  8037                           
  8038                           ;lighting.c: 875: writespi(0);
  8039  0B3E  3000               	movlw	0
  8040  0B3F  319B  2320  318A   	fcall	_writespi
  8041                           
  8042                           ;lighting.c: 876: writespi(0);
  8043  0B42  3000               	movlw	0
  8044  0B43  319B  2320  318A   	fcall	_writespi
  8045                           
  8046                           ;lighting.c: 877: writespi(0);
  8047  0B46  3000               	movlw	0
  8048  0B47  319B  2320  318A   	fcall	_writespi
  8049                           
  8050                           ;lighting.c: 879: writespi(0xFF);
  8051  0B4A  30FF               	movlw	255
  8052  0B4B  319B  2320  318A   	fcall	_writespi
  8053                           
  8054                           ;lighting.c: 880: writespi(0);
  8055  0B4E  3000               	movlw	0
  8056  0B4F  319B  2320  318A   	fcall	_writespi
  8057                           
  8058                           ;lighting.c: 881: writespi(0);
  8059  0B52  3000               	movlw	0
  8060  0B53  319B  2320  318A   	fcall	_writespi
  8061                           
  8062                           ;lighting.c: 882: writespi(0);
  8063  0B56  3000               	movlw	0
  8064  0B57  319B  2320  318A   	fcall	_writespi
  8065                           
  8066                           ;lighting.c: 884: writespi(0xFF);
  8067  0B5A  30FF               	movlw	255
  8068  0B5B  319B  2320  318A   	fcall	_writespi
  8069                           
  8070                           ;lighting.c: 885: writespi(0);
  8071  0B5E  3000               	movlw	0
  8072  0B5F  319B  2320  318A   	fcall	_writespi
  8073                           
  8074                           ;lighting.c: 886: writespi(0);
  8075  0B62  3000               	movlw	0
  8076  0B63  319B  2320  318A   	fcall	_writespi
  8077                           
  8078                           ;lighting.c: 887: writespi(0);
  8079  0B66  3000               	movlw	0
  8080  0B67  319B  2320  318A   	fcall	_writespi
  8081                           
  8082                           ;lighting.c: 889: writespi(brightness);
  8083  0B6A  0021               	movlb	1	; select bank1
  8084  0B6B  0820               	movf	led6_command@brightness^(0+128),w
  8085  0B6C  319B  2320  318A   	fcall	_writespi
  8086                           
  8087                           ;lighting.c: 890: writespi(blue);
  8088  0B6F  0020               	movlb	0	; select bank0
  8089  0B70  0845               	movf	led6_command@blue,w
  8090  0B71  319B  2320  318A   	fcall	_writespi
  8091                           
  8092                           ;lighting.c: 891: writespi(green);
  8093  0B74  0020               	movlb	0	; select bank0
  8094  0B75  0844               	movf	led6_command@green,w
  8095  0B76  319B  2320  318A   	fcall	_writespi
  8096                           
  8097                           ;lighting.c: 892: writespi(red);
  8098  0B79  0020               	movlb	0	; select bank0
  8099  0B7A  0843               	movf	led6_command@red,w
  8100  0B7B  319B  2320  318A   	fcall	_writespi
  8101                           
  8102                           ;lighting.c: 895: writespi(0xFF);
  8103  0B7E  30FF               	movlw	255
  8104  0B7F  319B  2320  318A   	fcall	_writespi
  8105                           
  8106                           ;lighting.c: 896: writespi(0);
  8107  0B82  3000               	movlw	0
  8108  0B83  319B  2320  318A   	fcall	_writespi
  8109                           
  8110                           ;lighting.c: 897: writespi(0);
  8111  0B86  3000               	movlw	0
  8112  0B87  319B  2320  318A   	fcall	_writespi
  8113                           
  8114                           ;lighting.c: 898: writespi(0);
  8115  0B8A  3000               	movlw	0
  8116  0B8B  319B  2320  318A   	fcall	_writespi
  8117                           
  8118                           ;lighting.c: 899: for(int i = 0;i < 4; i++)
  8119  0B8E  0021               	movlb	1	; select bank1
  8120  0B8F  01A3               	clrf	led6_command@i_710^(0+128)
  8121  0B90  01A4               	clrf	(led6_command@i_710+1)^(0+128)
  8122  0B91  0824               	movf	(led6_command@i_710+1)^(0+128),w
  8123  0B92  3A80               	xorlw	128
  8124  0B93  0020               	movlb	0	; select bank0
  8125  0B94  00C6               	movwf	??_led6_command
  8126  0B95  3080               	movlw	128
  8127  0B96  0246               	subwf	??_led6_command,w
  8128  0B97  1D03               	skipz
  8129  0B98  2B9C               	goto	u4525
  8130  0B99  3004               	movlw	4
  8131  0B9A  0021               	movlb	1	; select bank1
  8132  0B9B  0223               	subwf	led6_command@i_710^(0+128),w
  8133  0B9C                     u4525:	
  8134  0B9C  1803               	btfsc	3,0
  8135  0B9D  2BB4               	goto	l5147
  8136  0B9E                     l5141:	
  8137                           
  8138                           ;lighting.c: 900: {
  8139                           ;lighting.c: 901: writespi(0xFF);
  8140  0B9E  30FF               	movlw	255
  8141  0B9F  319B  2320  318A   	fcall	_writespi
  8142  0BA2  3001               	movlw	1
  8143  0BA3  0021               	movlb	1	; select bank1
  8144  0BA4  07A3               	addwf	led6_command@i_710^(0+128),f
  8145  0BA5  3000               	movlw	0
  8146  0BA6  3DA4               	addwfc	(led6_command@i_710+1)^(0+128),f
  8147  0BA7  0824               	movf	(led6_command@i_710+1)^(0+128),w
  8148  0BA8  3A80               	xorlw	128
  8149  0BA9  0020               	movlb	0	; select bank0
  8150  0BAA  00C6               	movwf	??_led6_command
  8151  0BAB  3080               	movlw	128
  8152  0BAC  0246               	subwf	??_led6_command,w
  8153  0BAD  1D03               	skipz
  8154  0BAE  2BB2               	goto	u4535
  8155  0BAF  3004               	movlw	4
  8156  0BB0  0021               	movlb	1	; select bank1
  8157  0BB1  0223               	subwf	led6_command@i_710^(0+128),w
  8158  0BB2                     u4535:	
  8159  0BB2  1C03               	skipc
  8160  0BB3  2B9E               	goto	l5141
  8161  0BB4                     l5147:	
  8162                           
  8163                           ;lighting.c: 902: }
  8164                           ;lighting.c: 903: _delay((unsigned long)((20)*(32000000/4000.0)));
  8165  0BB4  30D0               	movlw	208
  8166  0BB5  0020               	movlb	0	; select bank0
  8167  0BB6  00C7               	movwf	??_led6_command+1
  8168  0BB7  30C9               	movlw	201
  8169  0BB8  00C6               	movwf	??_led6_command
  8170  0BB9                     u5617:	
  8171  0BB9  0BC6               	decfsz	??_led6_command,f
  8172  0BBA  2BB9               	goto	u5617
  8173  0BBB  0BC7               	decfsz	??_led6_command+1,f
  8174  0BBC  2BB9               	goto	u5617
  8175  0BBD  3200               	nop2
  8176  0BBE  0008               	return
  8177  0BBF                     __end_of_led6_command:	
  8178                           
  8179                           	psect	text13
  8180  0A27                     __ptext13:	
  8181 ;; *************** function _led5_command *****************
  8182 ;; Defined at:
  8183 ;;		line 800 in file "../../source/lighting.c"
  8184 ;; Parameters:    Size  Location     Type
  8185 ;;  brightness      1    wreg     unsigned char 
  8186 ;;  red             1   35[BANK0 ] unsigned char 
  8187 ;;  green           1   36[BANK0 ] unsigned char 
  8188 ;;  blue            1   37[BANK0 ] unsigned char 
  8189 ;; Auto vars:     Size  Location     Type
  8190 ;;  brightness      1    0[BANK1 ] unsigned char 
  8191 ;;  i               2    3[BANK1 ] int 
  8192 ;;  i               2    1[BANK1 ] int 
  8193 ;; Return value:  Size  Location     Type
  8194 ;;		None               void
  8195 ;; Registers used:
  8196 ;;		wreg, status,2, status,0, pclath, cstack
  8197 ;; Tracked objects:
  8198 ;;		On entry : 0/0
  8199 ;;		On exit  : 0/0
  8200 ;;		Unchanged: 0/0
  8201 ;; Data sizes:     COMMON   BANK0   BANK1   BANK2   BANK3   BANK4   BANK5   BANK6   BANK7   BANK8   BANK9  BANK10  BANK1
      +1  BANK12  BANK13  BANK14  BANK15  BANK16  BANK17  BANK18  BANK19  BANK20  BANK21  BANK22  BANK23  BANK24  BANK25
  8202 ;;      Params:         0       3       0       0       0       0       0       0       0       0       0       0       
      +0       0       0       0       0       0       0       0       0       0       0       0       0       0       0
  8203 ;;      Locals:         0       0       5       0       0       0       0       0       0       0       0       0       
      +0       0       0       0       0       0       0       0       0       0       0       0       0       0       0
  8204 ;;      Temps:          0       2       0       0       0       0       0       0       0       0       0       0       
      +0       0       0       0       0       0       0       0       0       0       0       0       0       0       0
  8205 ;;      Totals:         0       5       5       0       0       0       0       0       0       0       0       0       
      +0       0       0       0       0       0       0       0       0       0       0       0       0       0       0
  8206 ;;Total ram usage:       10 bytes
  8207 ;; Hardware stack levels used:    1
  8208 ;; Hardware stack levels required when called:    5
  8209 ;; This function calls:
  8210 ;;		_writespi
  8211 ;; This function is called by:
  8212 ;;		_display_blade_lights
  8213 ;; This function uses a non-reentrant model
  8214 ;;
  8215                           
  8216                           
  8217                           ;psect for function _led5_command
  8218  0A27                     _led5_command:	
  8219                           
  8220                           ;incstack = 0
  8221                           ; Regs used in _led5_command: [wreg+status,2+status,0+pclath+cstack]
  8222                           ;led5_command@brightness stored from wreg
  8223  0A27  0021               	movlb	1	; select bank1
  8224  0A28  00A0               	movwf	led5_command@brightness^(0+128)
  8225                           
  8226                           ;lighting.c: 806: for(int i = 0;i < 4; i++)
  8227  0A29  01A1               	clrf	led5_command@i^(0+128)
  8228  0A2A  01A2               	clrf	(led5_command@i+1)^(0+128)
  8229  0A2B  0822               	movf	(led5_command@i+1)^(0+128),w
  8230  0A2C  3A80               	xorlw	128
  8231  0A2D  0020               	movlb	0	; select bank0
  8232  0A2E  00C6               	movwf	??_led5_command
  8233  0A2F  3080               	movlw	128
  8234  0A30  0246               	subwf	??_led5_command,w
  8235  0A31  1D03               	skipz
  8236  0A32  2A36               	goto	u4545
  8237  0A33  3004               	movlw	4
  8238  0A34  0021               	movlb	1	; select bank1
  8239  0A35  0221               	subwf	led5_command@i^(0+128),w
  8240  0A36                     u4545:	
  8241  0A36  1803               	btfsc	3,0
  8242  0A37  2A4E               	goto	l5161
  8243  0A38                     l5155:	
  8244                           
  8245                           ;lighting.c: 807: {
  8246                           ;lighting.c: 808: writespi(0x00);
  8247  0A38  3000               	movlw	0
  8248  0A39  319B  2320  318A   	fcall	_writespi
  8249  0A3C  3001               	movlw	1
  8250  0A3D  0021               	movlb	1	; select bank1
  8251  0A3E  07A1               	addwf	led5_command@i^(0+128),f
  8252  0A3F  3000               	movlw	0
  8253  0A40  3DA2               	addwfc	(led5_command@i+1)^(0+128),f
  8254  0A41  0822               	movf	(led5_command@i+1)^(0+128),w
  8255  0A42  3A80               	xorlw	128
  8256  0A43  0020               	movlb	0	; select bank0
  8257  0A44  00C6               	movwf	??_led5_command
  8258  0A45  3080               	movlw	128
  8259  0A46  0246               	subwf	??_led5_command,w
  8260  0A47  1D03               	skipz
  8261  0A48  2A4C               	goto	u4555
  8262  0A49  3004               	movlw	4
  8263  0A4A  0021               	movlb	1	; select bank1
  8264  0A4B  0221               	subwf	led5_command@i^(0+128),w
  8265  0A4C                     u4555:	
  8266  0A4C  1C03               	skipc
  8267  0A4D  2A38               	goto	l5155
  8268  0A4E                     l5161:	
  8269                           
  8270                           ;lighting.c: 809: }
  8271                           ;lighting.c: 811: writespi(0xFF);
  8272  0A4E  30FF               	movlw	255
  8273  0A4F  319B  2320  318A   	fcall	_writespi
  8274                           
  8275                           ;lighting.c: 812: writespi(0);
  8276  0A52  3000               	movlw	0
  8277  0A53  319B  2320  318A   	fcall	_writespi
  8278                           
  8279                           ;lighting.c: 813: writespi(0);
  8280  0A56  3000               	movlw	0
  8281  0A57  319B  2320  318A   	fcall	_writespi
  8282                           
  8283                           ;lighting.c: 814: writespi(0);
  8284  0A5A  3000               	movlw	0
  8285  0A5B  319B  2320  318A   	fcall	_writespi
  8286                           
  8287                           ;lighting.c: 816: writespi(0xFF);
  8288  0A5E  30FF               	movlw	255
  8289  0A5F  319B  2320  318A   	fcall	_writespi
  8290                           
  8291                           ;lighting.c: 817: writespi(0);
  8292  0A62  3000               	movlw	0
  8293  0A63  319B  2320  318A   	fcall	_writespi
  8294                           
  8295                           ;lighting.c: 818: writespi(0);
  8296  0A66  3000               	movlw	0
  8297  0A67  319B  2320  318A   	fcall	_writespi
  8298                           
  8299                           ;lighting.c: 819: writespi(0);
  8300  0A6A  3000               	movlw	0
  8301  0A6B  319B  2320  318A   	fcall	_writespi
  8302                           
  8303                           ;lighting.c: 821: writespi(0xFF);
  8304  0A6E  30FF               	movlw	255
  8305  0A6F  319B  2320  318A   	fcall	_writespi
  8306                           
  8307                           ;lighting.c: 822: writespi(0);
  8308  0A72  3000               	movlw	0
  8309  0A73  319B  2320  318A   	fcall	_writespi
  8310                           
  8311                           ;lighting.c: 823: writespi(0);
  8312  0A76  3000               	movlw	0
  8313  0A77  319B  2320  318A   	fcall	_writespi
  8314                           
  8315                           ;lighting.c: 824: writespi(0);
  8316  0A7A  3000               	movlw	0
  8317  0A7B  319B  2320  318A   	fcall	_writespi
  8318                           
  8319                           ;lighting.c: 826: writespi(0xFF);
  8320  0A7E  30FF               	movlw	255
  8321  0A7F  319B  2320  318A   	fcall	_writespi
  8322                           
  8323                           ;lighting.c: 827: writespi(0);
  8324  0A82  3000               	movlw	0
  8325  0A83  319B  2320  318A   	fcall	_writespi
  8326                           
  8327                           ;lighting.c: 828: writespi(0);
  8328  0A86  3000               	movlw	0
  8329  0A87  319B  2320  318A   	fcall	_writespi
  8330                           
  8331                           ;lighting.c: 829: writespi(0);
  8332  0A8A  3000               	movlw	0
  8333  0A8B  319B  2320  318A   	fcall	_writespi
  8334                           
  8335                           ;lighting.c: 831: writespi(brightness);
  8336  0A8E  0021               	movlb	1	; select bank1
  8337  0A8F  0820               	movf	led5_command@brightness^(0+128),w
  8338  0A90  319B  2320  318A   	fcall	_writespi
  8339                           
  8340                           ;lighting.c: 832: writespi(blue);
  8341  0A93  0020               	movlb	0	; select bank0
  8342  0A94  0845               	movf	led5_command@blue,w
  8343  0A95  319B  2320  318A   	fcall	_writespi
  8344                           
  8345                           ;lighting.c: 833: writespi(green);
  8346  0A98  0020               	movlb	0	; select bank0
  8347  0A99  0844               	movf	led5_command@green,w
  8348  0A9A  319B  2320  318A   	fcall	_writespi
  8349                           
  8350                           ;lighting.c: 834: writespi(red);
  8351  0A9D  0020               	movlb	0	; select bank0
  8352  0A9E  0843               	movf	led5_command@red,w
  8353  0A9F  319B  2320  318A   	fcall	_writespi
  8354                           
  8355                           ;lighting.c: 836: writespi(0xFF);
  8356  0AA2  30FF               	movlw	255
  8357  0AA3  319B  2320  318A   	fcall	_writespi
  8358                           
  8359                           ;lighting.c: 837: writespi(0);
  8360  0AA6  3000               	movlw	0
  8361  0AA7  319B  2320  318A   	fcall	_writespi
  8362                           
  8363                           ;lighting.c: 838: writespi(0);
  8364  0AAA  3000               	movlw	0
  8365  0AAB  319B  2320  318A   	fcall	_writespi
  8366                           
  8367                           ;lighting.c: 839: writespi(0);
  8368  0AAE  3000               	movlw	0
  8369  0AAF  319B  2320  318A   	fcall	_writespi
  8370                           
  8371                           ;lighting.c: 841: writespi(0xFF);
  8372  0AB2  30FF               	movlw	255
  8373  0AB3  319B  2320  318A   	fcall	_writespi
  8374                           
  8375                           ;lighting.c: 842: writespi(0);
  8376  0AB6  3000               	movlw	0
  8377  0AB7  319B  2320  318A   	fcall	_writespi
  8378                           
  8379                           ;lighting.c: 843: writespi(0);
  8380  0ABA  3000               	movlw	0
  8381  0ABB  319B  2320  318A   	fcall	_writespi
  8382                           
  8383                           ;lighting.c: 844: writespi(0);
  8384  0ABE  3000               	movlw	0
  8385  0ABF  319B  2320  318A   	fcall	_writespi
  8386                           
  8387                           ;lighting.c: 846: for(int i = 0;i < 4; i++)
  8388  0AC2  0021               	movlb	1	; select bank1
  8389  0AC3  01A3               	clrf	led5_command@i_703^(0+128)
  8390  0AC4  01A4               	clrf	(led5_command@i_703+1)^(0+128)
  8391  0AC5  0824               	movf	(led5_command@i_703+1)^(0+128),w
  8392  0AC6  3A80               	xorlw	128
  8393  0AC7  0020               	movlb	0	; select bank0
  8394  0AC8  00C6               	movwf	??_led5_command
  8395  0AC9  3080               	movlw	128
  8396  0ACA  0246               	subwf	??_led5_command,w
  8397  0ACB  1D03               	skipz
  8398  0ACC  2AD0               	goto	u4565
  8399  0ACD  3004               	movlw	4
  8400  0ACE  0021               	movlb	1	; select bank1
  8401  0ACF  0223               	subwf	led5_command@i_703^(0+128),w
  8402  0AD0                     u4565:	
  8403  0AD0  1803               	btfsc	3,0
  8404  0AD1  2AE8               	goto	l5175
  8405  0AD2                     l5169:	
  8406                           
  8407                           ;lighting.c: 847: {
  8408                           ;lighting.c: 848: writespi(0xFF);
  8409  0AD2  30FF               	movlw	255
  8410  0AD3  319B  2320  318A   	fcall	_writespi
  8411  0AD6  3001               	movlw	1
  8412  0AD7  0021               	movlb	1	; select bank1
  8413  0AD8  07A3               	addwf	led5_command@i_703^(0+128),f
  8414  0AD9  3000               	movlw	0
  8415  0ADA  3DA4               	addwfc	(led5_command@i_703+1)^(0+128),f
  8416  0ADB  0824               	movf	(led5_command@i_703+1)^(0+128),w
  8417  0ADC  3A80               	xorlw	128
  8418  0ADD  0020               	movlb	0	; select bank0
  8419  0ADE  00C6               	movwf	??_led5_command
  8420  0ADF  3080               	movlw	128
  8421  0AE0  0246               	subwf	??_led5_command,w
  8422  0AE1  1D03               	skipz
  8423  0AE2  2AE6               	goto	u4575
  8424  0AE3  3004               	movlw	4
  8425  0AE4  0021               	movlb	1	; select bank1
  8426  0AE5  0223               	subwf	led5_command@i_703^(0+128),w
  8427  0AE6                     u4575:	
  8428  0AE6  1C03               	skipc
  8429  0AE7  2AD2               	goto	l5169
  8430  0AE8                     l5175:	
  8431                           
  8432                           ;lighting.c: 849: }
  8433                           ;lighting.c: 850: _delay((unsigned long)((20)*(32000000/4000.0)));
  8434  0AE8  30D0               	movlw	208
  8435  0AE9  0020               	movlb	0	; select bank0
  8436  0AEA  00C7               	movwf	??_led5_command+1
  8437  0AEB  30C9               	movlw	201
  8438  0AEC  00C6               	movwf	??_led5_command
  8439  0AED                     u5627:	
  8440  0AED  0BC6               	decfsz	??_led5_command,f
  8441  0AEE  2AED               	goto	u5627
  8442  0AEF  0BC7               	decfsz	??_led5_command+1,f
  8443  0AF0  2AED               	goto	u5627
  8444  0AF1  3200               	nop2
  8445  0AF2  0008               	return
  8446  0AF3                     __end_of_led5_command:	
  8447                           
  8448                           	psect	text14
  8449  095B                     __ptext14:	
  8450 ;; *************** function _led4_command *****************
  8451 ;; Defined at:
  8452 ;;		line 747 in file "../../source/lighting.c"
  8453 ;; Parameters:    Size  Location     Type
  8454 ;;  brightness      1    wreg     unsigned char 
  8455 ;;  red             1   35[BANK0 ] unsigned char 
  8456 ;;  green           1   36[BANK0 ] unsigned char 
  8457 ;;  blue            1   37[BANK0 ] unsigned char 
  8458 ;; Auto vars:     Size  Location     Type
  8459 ;;  brightness      1    0[BANK1 ] unsigned char 
  8460 ;;  i               2    3[BANK1 ] int 
  8461 ;;  i               2    1[BANK1 ] int 
  8462 ;; Return value:  Size  Location     Type
  8463 ;;		None               void
  8464 ;; Registers used:
  8465 ;;		wreg, status,2, status,0, pclath, cstack
  8466 ;; Tracked objects:
  8467 ;;		On entry : 0/0
  8468 ;;		On exit  : 0/0
  8469 ;;		Unchanged: 0/0
  8470 ;; Data sizes:     COMMON   BANK0   BANK1   BANK2   BANK3   BANK4   BANK5   BANK6   BANK7   BANK8   BANK9  BANK10  BANK1
      +1  BANK12  BANK13  BANK14  BANK15  BANK16  BANK17  BANK18  BANK19  BANK20  BANK21  BANK22  BANK23  BANK24  BANK25
  8471 ;;      Params:         0       3       0       0       0       0       0       0       0       0       0       0       
      +0       0       0       0       0       0       0       0       0       0       0       0       0       0       0
  8472 ;;      Locals:         0       0       5       0       0       0       0       0       0       0       0       0       
      +0       0       0       0       0       0       0       0       0       0       0       0       0       0       0
  8473 ;;      Temps:          0       2       0       0       0       0       0       0       0       0       0       0       
      +0       0       0       0       0       0       0       0       0       0       0       0       0       0       0
  8474 ;;      Totals:         0       5       5       0       0       0       0       0       0       0       0       0       
      +0       0       0       0       0       0       0       0       0       0       0       0       0       0       0
  8475 ;;Total ram usage:       10 bytes
  8476 ;; Hardware stack levels used:    1
  8477 ;; Hardware stack levels required when called:    5
  8478 ;; This function calls:
  8479 ;;		_writespi
  8480 ;; This function is called by:
  8481 ;;		_display_blade_lights
  8482 ;; This function uses a non-reentrant model
  8483 ;;
  8484                           
  8485                           
  8486                           ;psect for function _led4_command
  8487  095B                     _led4_command:	
  8488                           
  8489                           ;incstack = 0
  8490                           ; Regs used in _led4_command: [wreg+status,2+status,0+pclath+cstack]
  8491                           ;led4_command@brightness stored from wreg
  8492  095B  0021               	movlb	1	; select bank1
  8493  095C  00A0               	movwf	led4_command@brightness^(0+128)
  8494                           
  8495                           ;lighting.c: 753: for(int i = 0;i < 4; i++)
  8496  095D  01A1               	clrf	led4_command@i^(0+128)
  8497  095E  01A2               	clrf	(led4_command@i+1)^(0+128)
  8498  095F  0822               	movf	(led4_command@i+1)^(0+128),w
  8499  0960  3A80               	xorlw	128
  8500  0961  0020               	movlb	0	; select bank0
  8501  0962  00C6               	movwf	??_led4_command
  8502  0963  3080               	movlw	128
  8503  0964  0246               	subwf	??_led4_command,w
  8504  0965  1D03               	skipz
  8505  0966  296A               	goto	u4585
  8506  0967  3004               	movlw	4
  8507  0968  0021               	movlb	1	; select bank1
  8508  0969  0221               	subwf	led4_command@i^(0+128),w
  8509  096A                     u4585:	
  8510  096A  1803               	btfsc	3,0
  8511  096B  2982               	goto	l5189
  8512  096C                     l5183:	
  8513                           
  8514                           ;lighting.c: 754: {
  8515                           ;lighting.c: 755: writespi(0x00);
  8516  096C  3000               	movlw	0
  8517  096D  319B  2320  3189   	fcall	_writespi
  8518  0970  3001               	movlw	1
  8519  0971  0021               	movlb	1	; select bank1
  8520  0972  07A1               	addwf	led4_command@i^(0+128),f
  8521  0973  3000               	movlw	0
  8522  0974  3DA2               	addwfc	(led4_command@i+1)^(0+128),f
  8523  0975  0822               	movf	(led4_command@i+1)^(0+128),w
  8524  0976  3A80               	xorlw	128
  8525  0977  0020               	movlb	0	; select bank0
  8526  0978  00C6               	movwf	??_led4_command
  8527  0979  3080               	movlw	128
  8528  097A  0246               	subwf	??_led4_command,w
  8529  097B  1D03               	skipz
  8530  097C  2980               	goto	u4595
  8531  097D  3004               	movlw	4
  8532  097E  0021               	movlb	1	; select bank1
  8533  097F  0221               	subwf	led4_command@i^(0+128),w
  8534  0980                     u4595:	
  8535  0980  1C03               	skipc
  8536  0981  296C               	goto	l5183
  8537  0982                     l5189:	
  8538                           
  8539                           ;lighting.c: 756: }
  8540                           ;lighting.c: 758: writespi(0xFF);
  8541  0982  30FF               	movlw	255
  8542  0983  319B  2320  3189   	fcall	_writespi
  8543                           
  8544                           ;lighting.c: 759: writespi(0);
  8545  0986  3000               	movlw	0
  8546  0987  319B  2320  3189   	fcall	_writespi
  8547                           
  8548                           ;lighting.c: 760: writespi(0);
  8549  098A  3000               	movlw	0
  8550  098B  319B  2320  3189   	fcall	_writespi
  8551                           
  8552                           ;lighting.c: 761: writespi(0);
  8553  098E  3000               	movlw	0
  8554  098F  319B  2320  3189   	fcall	_writespi
  8555                           
  8556                           ;lighting.c: 763: writespi(0xFF);
  8557  0992  30FF               	movlw	255
  8558  0993  319B  2320  3189   	fcall	_writespi
  8559                           
  8560                           ;lighting.c: 764: writespi(0);
  8561  0996  3000               	movlw	0
  8562  0997  319B  2320  3189   	fcall	_writespi
  8563                           
  8564                           ;lighting.c: 765: writespi(0);
  8565  099A  3000               	movlw	0
  8566  099B  319B  2320  3189   	fcall	_writespi
  8567                           
  8568                           ;lighting.c: 766: writespi(0);
  8569  099E  3000               	movlw	0
  8570  099F  319B  2320  3189   	fcall	_writespi
  8571                           
  8572                           ;lighting.c: 768: writespi(0xFF);
  8573  09A2  30FF               	movlw	255
  8574  09A3  319B  2320  3189   	fcall	_writespi
  8575                           
  8576                           ;lighting.c: 769: writespi(0);
  8577  09A6  3000               	movlw	0
  8578  09A7  319B  2320  3189   	fcall	_writespi
  8579                           
  8580                           ;lighting.c: 770: writespi(0);
  8581  09AA  3000               	movlw	0
  8582  09AB  319B  2320  3189   	fcall	_writespi
  8583                           
  8584                           ;lighting.c: 771: writespi(0);
  8585  09AE  3000               	movlw	0
  8586  09AF  319B  2320  3189   	fcall	_writespi
  8587                           
  8588                           ;lighting.c: 773: writespi(brightness);
  8589  09B2  0021               	movlb	1	; select bank1
  8590  09B3  0820               	movf	led4_command@brightness^(0+128),w
  8591  09B4  319B  2320  3189   	fcall	_writespi
  8592                           
  8593                           ;lighting.c: 774: writespi(blue);
  8594  09B7  0020               	movlb	0	; select bank0
  8595  09B8  0845               	movf	led4_command@blue,w
  8596  09B9  319B  2320  3189   	fcall	_writespi
  8597                           
  8598                           ;lighting.c: 775: writespi(green);
  8599  09BC  0020               	movlb	0	; select bank0
  8600  09BD  0844               	movf	led4_command@green,w
  8601  09BE  319B  2320  3189   	fcall	_writespi
  8602                           
  8603                           ;lighting.c: 776: writespi(red);
  8604  09C1  0020               	movlb	0	; select bank0
  8605  09C2  0843               	movf	led4_command@red,w
  8606  09C3  319B  2320  3189   	fcall	_writespi
  8607                           
  8608                           ;lighting.c: 778: writespi(0xFF);
  8609  09C6  30FF               	movlw	255
  8610  09C7  319B  2320  3189   	fcall	_writespi
  8611                           
  8612                           ;lighting.c: 779: writespi(0);
  8613  09CA  3000               	movlw	0
  8614  09CB  319B  2320  3189   	fcall	_writespi
  8615                           
  8616                           ;lighting.c: 780: writespi(0);
  8617  09CE  3000               	movlw	0
  8618  09CF  319B  2320  3189   	fcall	_writespi
  8619                           
  8620                           ;lighting.c: 781: writespi(0);
  8621  09D2  3000               	movlw	0
  8622  09D3  319B  2320  3189   	fcall	_writespi
  8623                           
  8624                           ;lighting.c: 783: writespi(0xFF);
  8625  09D6  30FF               	movlw	255
  8626  09D7  319B  2320  3189   	fcall	_writespi
  8627                           
  8628                           ;lighting.c: 784: writespi(0);
  8629  09DA  3000               	movlw	0
  8630  09DB  319B  2320  3189   	fcall	_writespi
  8631                           
  8632                           ;lighting.c: 785: writespi(0);
  8633  09DE  3000               	movlw	0
  8634  09DF  319B  2320  3189   	fcall	_writespi
  8635                           
  8636                           ;lighting.c: 786: writespi(0);
  8637  09E2  3000               	movlw	0
  8638  09E3  319B  2320  3189   	fcall	_writespi
  8639                           
  8640                           ;lighting.c: 788: writespi(0xFF);
  8641  09E6  30FF               	movlw	255
  8642  09E7  319B  2320  3189   	fcall	_writespi
  8643                           
  8644                           ;lighting.c: 789: writespi(0);
  8645  09EA  3000               	movlw	0
  8646  09EB  319B  2320  3189   	fcall	_writespi
  8647                           
  8648                           ;lighting.c: 790: writespi(0);
  8649  09EE  3000               	movlw	0
  8650  09EF  319B  2320  3189   	fcall	_writespi
  8651                           
  8652                           ;lighting.c: 791: writespi(0);
  8653  09F2  3000               	movlw	0
  8654  09F3  319B  2320  3189   	fcall	_writespi
  8655                           
  8656                           ;lighting.c: 793: for(int i = 0;i < 4; i++)
  8657  09F6  0021               	movlb	1	; select bank1
  8658  09F7  01A3               	clrf	led4_command@i_696^(0+128)
  8659  09F8  01A4               	clrf	(led4_command@i_696+1)^(0+128)
  8660  09F9  0824               	movf	(led4_command@i_696+1)^(0+128),w
  8661  09FA  3A80               	xorlw	128
  8662  09FB  0020               	movlb	0	; select bank0
  8663  09FC  00C6               	movwf	??_led4_command
  8664  09FD  3080               	movlw	128
  8665  09FE  0246               	subwf	??_led4_command,w
  8666  09FF  1D03               	skipz
  8667  0A00  2A04               	goto	u4605
  8668  0A01  3004               	movlw	4
  8669  0A02  0021               	movlb	1	; select bank1
  8670  0A03  0223               	subwf	led4_command@i_696^(0+128),w
  8671  0A04                     u4605:	
  8672  0A04  1803               	btfsc	3,0
  8673  0A05  2A1C               	goto	l5203
  8674  0A06                     l5197:	
  8675                           
  8676                           ;lighting.c: 794: {
  8677                           ;lighting.c: 795: writespi(0xFF);
  8678  0A06  30FF               	movlw	255
  8679  0A07  319B  2320  3189   	fcall	_writespi
  8680  0A0A  3001               	movlw	1
  8681  0A0B  0021               	movlb	1	; select bank1
  8682  0A0C  07A3               	addwf	led4_command@i_696^(0+128),f
  8683  0A0D  3000               	movlw	0
  8684  0A0E  3DA4               	addwfc	(led4_command@i_696+1)^(0+128),f
  8685  0A0F  0824               	movf	(led4_command@i_696+1)^(0+128),w
  8686  0A10  3A80               	xorlw	128
  8687  0A11  0020               	movlb	0	; select bank0
  8688  0A12  00C6               	movwf	??_led4_command
  8689  0A13  3080               	movlw	128
  8690  0A14  0246               	subwf	??_led4_command,w
  8691  0A15  1D03               	skipz
  8692  0A16  2A1A               	goto	u4615
  8693  0A17  3004               	movlw	4
  8694  0A18  0021               	movlb	1	; select bank1
  8695  0A19  0223               	subwf	led4_command@i_696^(0+128),w
  8696  0A1A                     u4615:	
  8697  0A1A  1C03               	skipc
  8698  0A1B  2A06               	goto	l5197
  8699  0A1C                     l5203:	
  8700                           
  8701                           ;lighting.c: 796: }
  8702                           ;lighting.c: 797: _delay((unsigned long)((20)*(32000000/4000.0)));
  8703  0A1C  30D0               	movlw	208
  8704  0A1D  0020               	movlb	0	; select bank0
  8705  0A1E  00C7               	movwf	??_led4_command+1
  8706  0A1F  30C9               	movlw	201
  8707  0A20  00C6               	movwf	??_led4_command
  8708  0A21                     u5637:	
  8709  0A21  0BC6               	decfsz	??_led4_command,f
  8710  0A22  2A21               	goto	u5637
  8711  0A23  0BC7               	decfsz	??_led4_command+1,f
  8712  0A24  2A21               	goto	u5637
  8713  0A25  3200               	nop2
  8714  0A26  0008               	return
  8715  0A27                     __end_of_led4_command:	
  8716                           
  8717                           	psect	text15
  8718  088F                     __ptext15:	
  8719 ;; *************** function _led3_command *****************
  8720 ;; Defined at:
  8721 ;;		line 694 in file "../../source/lighting.c"
  8722 ;; Parameters:    Size  Location     Type
  8723 ;;  brightness      1    wreg     unsigned char 
  8724 ;;  red             1   35[BANK0 ] unsigned char 
  8725 ;;  green           1   36[BANK0 ] unsigned char 
  8726 ;;  blue            1   37[BANK0 ] unsigned char 
  8727 ;; Auto vars:     Size  Location     Type
  8728 ;;  brightness      1    0[BANK1 ] unsigned char 
  8729 ;;  i               2    3[BANK1 ] int 
  8730 ;;  i               2    1[BANK1 ] int 
  8731 ;; Return value:  Size  Location     Type
  8732 ;;		None               void
  8733 ;; Registers used:
  8734 ;;		wreg, status,2, status,0, pclath, cstack
  8735 ;; Tracked objects:
  8736 ;;		On entry : 0/0
  8737 ;;		On exit  : 0/0
  8738 ;;		Unchanged: 0/0
  8739 ;; Data sizes:     COMMON   BANK0   BANK1   BANK2   BANK3   BANK4   BANK5   BANK6   BANK7   BANK8   BANK9  BANK10  BANK1
      +1  BANK12  BANK13  BANK14  BANK15  BANK16  BANK17  BANK18  BANK19  BANK20  BANK21  BANK22  BANK23  BANK24  BANK25
  8740 ;;      Params:         0       3       0       0       0       0       0       0       0       0       0       0       
      +0       0       0       0       0       0       0       0       0       0       0       0       0       0       0
  8741 ;;      Locals:         0       0       5       0       0       0       0       0       0       0       0       0       
      +0       0       0       0       0       0       0       0       0       0       0       0       0       0       0
  8742 ;;      Temps:          0       2       0       0       0       0       0       0       0       0       0       0       
      +0       0       0       0       0       0       0       0       0       0       0       0       0       0       0
  8743 ;;      Totals:         0       5       5       0       0       0       0       0       0       0       0       0       
      +0       0       0       0       0       0       0       0       0       0       0       0       0       0       0
  8744 ;;Total ram usage:       10 bytes
  8745 ;; Hardware stack levels used:    1
  8746 ;; Hardware stack levels required when called:    5
  8747 ;; This function calls:
  8748 ;;		_writespi
  8749 ;; This function is called by:
  8750 ;;		_display_blade_lights
  8751 ;; This function uses a non-reentrant model
  8752 ;;
  8753                           
  8754                           
  8755                           ;psect for function _led3_command
  8756  088F                     _led3_command:	
  8757                           
  8758                           ;incstack = 0
  8759                           ; Regs used in _led3_command: [wreg+status,2+status,0+pclath+cstack]
  8760                           ;led3_command@brightness stored from wreg
  8761  088F  0021               	movlb	1	; select bank1
  8762  0890  00A0               	movwf	led3_command@brightness^(0+128)
  8763                           
  8764                           ;lighting.c: 700: for(int i = 0;i < 4; i++)
  8765  0891  01A1               	clrf	led3_command@i^(0+128)
  8766  0892  01A2               	clrf	(led3_command@i+1)^(0+128)
  8767  0893  0822               	movf	(led3_command@i+1)^(0+128),w
  8768  0894  3A80               	xorlw	128
  8769  0895  0020               	movlb	0	; select bank0
  8770  0896  00C6               	movwf	??_led3_command
  8771  0897  3080               	movlw	128
  8772  0898  0246               	subwf	??_led3_command,w
  8773  0899  1D03               	skipz
  8774  089A  289E               	goto	u4625
  8775  089B  3004               	movlw	4
  8776  089C  0021               	movlb	1	; select bank1
  8777  089D  0221               	subwf	led3_command@i^(0+128),w
  8778  089E                     u4625:	
  8779  089E  1803               	btfsc	3,0
  8780  089F  28B6               	goto	l5217
  8781  08A0                     l5211:	
  8782                           
  8783                           ;lighting.c: 701: {
  8784                           ;lighting.c: 702: writespi(0x00);
  8785  08A0  3000               	movlw	0
  8786  08A1  319B  2320  3188   	fcall	_writespi
  8787  08A4  3001               	movlw	1
  8788  08A5  0021               	movlb	1	; select bank1
  8789  08A6  07A1               	addwf	led3_command@i^(0+128),f
  8790  08A7  3000               	movlw	0
  8791  08A8  3DA2               	addwfc	(led3_command@i+1)^(0+128),f
  8792  08A9  0822               	movf	(led3_command@i+1)^(0+128),w
  8793  08AA  3A80               	xorlw	128
  8794  08AB  0020               	movlb	0	; select bank0
  8795  08AC  00C6               	movwf	??_led3_command
  8796  08AD  3080               	movlw	128
  8797  08AE  0246               	subwf	??_led3_command,w
  8798  08AF  1D03               	skipz
  8799  08B0  28B4               	goto	u4635
  8800  08B1  3004               	movlw	4
  8801  08B2  0021               	movlb	1	; select bank1
  8802  08B3  0221               	subwf	led3_command@i^(0+128),w
  8803  08B4                     u4635:	
  8804  08B4  1C03               	skipc
  8805  08B5  28A0               	goto	l5211
  8806  08B6                     l5217:	
  8807                           
  8808                           ;lighting.c: 703: }
  8809                           ;lighting.c: 705: writespi(0xFF);
  8810  08B6  30FF               	movlw	255
  8811  08B7  319B  2320  3188   	fcall	_writespi
  8812                           
  8813                           ;lighting.c: 706: writespi(0);
  8814  08BA  3000               	movlw	0
  8815  08BB  319B  2320  3188   	fcall	_writespi
  8816                           
  8817                           ;lighting.c: 707: writespi(0);
  8818  08BE  3000               	movlw	0
  8819  08BF  319B  2320  3188   	fcall	_writespi
  8820                           
  8821                           ;lighting.c: 708: writespi(0);
  8822  08C2  3000               	movlw	0
  8823  08C3  319B  2320  3188   	fcall	_writespi
  8824                           
  8825                           ;lighting.c: 710: writespi(0xFF);
  8826  08C6  30FF               	movlw	255
  8827  08C7  319B  2320  3188   	fcall	_writespi
  8828                           
  8829                           ;lighting.c: 711: writespi(0);
  8830  08CA  3000               	movlw	0
  8831  08CB  319B  2320  3188   	fcall	_writespi
  8832                           
  8833                           ;lighting.c: 712: writespi(0);
  8834  08CE  3000               	movlw	0
  8835  08CF  319B  2320  3188   	fcall	_writespi
  8836                           
  8837                           ;lighting.c: 713: writespi(0);
  8838  08D2  3000               	movlw	0
  8839  08D3  319B  2320  3188   	fcall	_writespi
  8840                           
  8841                           ;lighting.c: 715: writespi(brightness);
  8842  08D6  0021               	movlb	1	; select bank1
  8843  08D7  0820               	movf	led3_command@brightness^(0+128),w
  8844  08D8  319B  2320  3188   	fcall	_writespi
  8845                           
  8846                           ;lighting.c: 716: writespi(blue);
  8847  08DB  0020               	movlb	0	; select bank0
  8848  08DC  0845               	movf	led3_command@blue,w
  8849  08DD  319B  2320  3188   	fcall	_writespi
  8850                           
  8851                           ;lighting.c: 717: writespi(green);
  8852  08E0  0020               	movlb	0	; select bank0
  8853  08E1  0844               	movf	led3_command@green,w
  8854  08E2  319B  2320  3188   	fcall	_writespi
  8855                           
  8856                           ;lighting.c: 718: writespi(red);
  8857  08E5  0020               	movlb	0	; select bank0
  8858  08E6  0843               	movf	led3_command@red,w
  8859  08E7  319B  2320  3188   	fcall	_writespi
  8860                           
  8861                           ;lighting.c: 720: writespi(0xFF);
  8862  08EA  30FF               	movlw	255
  8863  08EB  319B  2320  3188   	fcall	_writespi
  8864                           
  8865                           ;lighting.c: 721: writespi(0);
  8866  08EE  3000               	movlw	0
  8867  08EF  319B  2320  3188   	fcall	_writespi
  8868                           
  8869                           ;lighting.c: 722: writespi(0);
  8870  08F2  3000               	movlw	0
  8871  08F3  319B  2320  3188   	fcall	_writespi
  8872                           
  8873                           ;lighting.c: 723: writespi(0);
  8874  08F6  3000               	movlw	0
  8875  08F7  319B  2320  3188   	fcall	_writespi
  8876                           
  8877                           ;lighting.c: 725: writespi(0xFF);
  8878  08FA  30FF               	movlw	255
  8879  08FB  319B  2320  3188   	fcall	_writespi
  8880                           
  8881                           ;lighting.c: 726: writespi(0);
  8882  08FE  3000               	movlw	0
  8883  08FF  319B  2320  3188   	fcall	_writespi
  8884                           
  8885                           ;lighting.c: 727: writespi(0);
  8886  0902  3000               	movlw	0
  8887  0903  319B  2320  3188   	fcall	_writespi
  8888                           
  8889                           ;lighting.c: 728: writespi(0);
  8890  0906  3000               	movlw	0
  8891  0907  319B  2320  3188   	fcall	_writespi
  8892                           
  8893                           ;lighting.c: 730: writespi(0xFF);
  8894  090A  30FF               	movlw	255
  8895  090B  319B  2320  3188   	fcall	_writespi
  8896                           
  8897                           ;lighting.c: 731: writespi(0);
  8898  090E  3000               	movlw	0
  8899  090F  319B  2320  3188   	fcall	_writespi
  8900                           
  8901                           ;lighting.c: 732: writespi(0);
  8902  0912  3000               	movlw	0
  8903  0913  319B  2320  3188   	fcall	_writespi
  8904                           
  8905                           ;lighting.c: 733: writespi(0);
  8906  0916  3000               	movlw	0
  8907  0917  319B  2320  3188   	fcall	_writespi
  8908                           
  8909                           ;lighting.c: 735: writespi(0xFF);
  8910  091A  30FF               	movlw	255
  8911  091B  319B  2320  3188   	fcall	_writespi
  8912                           
  8913                           ;lighting.c: 736: writespi(0);
  8914  091E  3000               	movlw	0
  8915  091F  319B  2320  3188   	fcall	_writespi
  8916                           
  8917                           ;lighting.c: 737: writespi(0);
  8918  0922  3000               	movlw	0
  8919  0923  319B  2320  3188   	fcall	_writespi
  8920                           
  8921                           ;lighting.c: 738: writespi(0);
  8922  0926  3000               	movlw	0
  8923  0927  319B  2320  3188   	fcall	_writespi
  8924                           
  8925                           ;lighting.c: 740: for(int i = 0;i < 4; i++)
  8926  092A  0021               	movlb	1	; select bank1
  8927  092B  01A3               	clrf	led3_command@i_689^(0+128)
  8928  092C  01A4               	clrf	(led3_command@i_689+1)^(0+128)
  8929  092D  0824               	movf	(led3_command@i_689+1)^(0+128),w
  8930  092E  3A80               	xorlw	128
  8931  092F  0020               	movlb	0	; select bank0
  8932  0930  00C6               	movwf	??_led3_command
  8933  0931  3080               	movlw	128
  8934  0932  0246               	subwf	??_led3_command,w
  8935  0933  1D03               	skipz
  8936  0934  2938               	goto	u4645
  8937  0935  3004               	movlw	4
  8938  0936  0021               	movlb	1	; select bank1
  8939  0937  0223               	subwf	led3_command@i_689^(0+128),w
  8940  0938                     u4645:	
  8941  0938  1803               	btfsc	3,0
  8942  0939  2950               	goto	l5231
  8943  093A                     l5225:	
  8944                           
  8945                           ;lighting.c: 741: {
  8946                           ;lighting.c: 742: writespi(0xFF);
  8947  093A  30FF               	movlw	255
  8948  093B  319B  2320  3188   	fcall	_writespi
  8949  093E  3001               	movlw	1
  8950  093F  0021               	movlb	1	; select bank1
  8951  0940  07A3               	addwf	led3_command@i_689^(0+128),f
  8952  0941  3000               	movlw	0
  8953  0942  3DA4               	addwfc	(led3_command@i_689+1)^(0+128),f
  8954  0943  0824               	movf	(led3_command@i_689+1)^(0+128),w
  8955  0944  3A80               	xorlw	128
  8956  0945  0020               	movlb	0	; select bank0
  8957  0946  00C6               	movwf	??_led3_command
  8958  0947  3080               	movlw	128
  8959  0948  0246               	subwf	??_led3_command,w
  8960  0949  1D03               	skipz
  8961  094A  294E               	goto	u4655
  8962  094B  3004               	movlw	4
  8963  094C  0021               	movlb	1	; select bank1
  8964  094D  0223               	subwf	led3_command@i_689^(0+128),w
  8965  094E                     u4655:	
  8966  094E  1C03               	skipc
  8967  094F  293A               	goto	l5225
  8968  0950                     l5231:	
  8969                           
  8970                           ;lighting.c: 743: }
  8971                           ;lighting.c: 744: _delay((unsigned long)((20)*(32000000/4000.0)));
  8972  0950  30D0               	movlw	208
  8973  0951  0020               	movlb	0	; select bank0
  8974  0952  00C7               	movwf	??_led3_command+1
  8975  0953  30C9               	movlw	201
  8976  0954  00C6               	movwf	??_led3_command
  8977  0955                     u5647:	
  8978  0955  0BC6               	decfsz	??_led3_command,f
  8979  0956  2955               	goto	u5647
  8980  0957  0BC7               	decfsz	??_led3_command+1,f
  8981  0958  2955               	goto	u5647
  8982  0959  3200               	nop2
  8983  095A  0008               	return
  8984  095B                     __end_of_led3_command:	
  8985                           
  8986                           	psect	text16
  8987  1734                     __ptext16:	
  8988 ;; *************** function _led2_command *****************
  8989 ;; Defined at:
  8990 ;;		line 641 in file "../../source/lighting.c"
  8991 ;; Parameters:    Size  Location     Type
  8992 ;;  brightness      1    wreg     unsigned char 
  8993 ;;  red             1   35[BANK0 ] unsigned char 
  8994 ;;  green           1   36[BANK0 ] unsigned char 
  8995 ;;  blue            1   37[BANK0 ] unsigned char 
  8996 ;; Auto vars:     Size  Location     Type
  8997 ;;  brightness      1    0[BANK1 ] unsigned char 
  8998 ;;  i               2    3[BANK1 ] int 
  8999 ;;  i               2    1[BANK1 ] int 
  9000 ;; Return value:  Size  Location     Type
  9001 ;;		None               void
  9002 ;; Registers used:
  9003 ;;		wreg, status,2, status,0, pclath, cstack
  9004 ;; Tracked objects:
  9005 ;;		On entry : 0/0
  9006 ;;		On exit  : 0/0
  9007 ;;		Unchanged: 0/0
  9008 ;; Data sizes:     COMMON   BANK0   BANK1   BANK2   BANK3   BANK4   BANK5   BANK6   BANK7   BANK8   BANK9  BANK10  BANK1
      +1  BANK12  BANK13  BANK14  BANK15  BANK16  BANK17  BANK18  BANK19  BANK20  BANK21  BANK22  BANK23  BANK24  BANK25
  9009 ;;      Params:         0       3       0       0       0       0       0       0       0       0       0       0       
      +0       0       0       0       0       0       0       0       0       0       0       0       0       0       0
  9010 ;;      Locals:         0       0       5       0       0       0       0       0       0       0       0       0       
      +0       0       0       0       0       0       0       0       0       0       0       0       0       0       0
  9011 ;;      Temps:          0       2       0       0       0       0       0       0       0       0       0       0       
      +0       0       0       0       0       0       0       0       0       0       0       0       0       0       0
  9012 ;;      Totals:         0       5       5       0       0       0       0       0       0       0       0       0       
      +0       0       0       0       0       0       0       0       0       0       0       0       0       0       0
  9013 ;;Total ram usage:       10 bytes
  9014 ;; Hardware stack levels used:    1
  9015 ;; Hardware stack levels required when called:    5
  9016 ;; This function calls:
  9017 ;;		_writespi
  9018 ;; This function is called by:
  9019 ;;		_display_blade_lights
  9020 ;; This function uses a non-reentrant model
  9021 ;;
  9022                           
  9023                           
  9024                           ;psect for function _led2_command
  9025  1734                     _led2_command:	
  9026                           
  9027                           ;incstack = 0
  9028                           ; Regs used in _led2_command: [wreg+status,2+status,0+pclath+cstack]
  9029                           ;led2_command@brightness stored from wreg
  9030  1734  0021               	movlb	1	; select bank1
  9031  1735  00A0               	movwf	led2_command@brightness^(0+128)
  9032                           
  9033                           ;lighting.c: 647: for(int i = 0;i < 4; i++)
  9034  1736  01A1               	clrf	led2_command@i^(0+128)
  9035  1737  01A2               	clrf	(led2_command@i+1)^(0+128)
  9036  1738  0822               	movf	(led2_command@i+1)^(0+128),w
  9037  1739  3A80               	xorlw	128
  9038  173A  0020               	movlb	0	; select bank0
  9039  173B  00C6               	movwf	??_led2_command
  9040  173C  3080               	movlw	128
  9041  173D  0246               	subwf	??_led2_command,w
  9042  173E  1D03               	skipz
  9043  173F  2F43               	goto	u4665
  9044  1740  3004               	movlw	4
  9045  1741  0021               	movlb	1	; select bank1
  9046  1742  0221               	subwf	led2_command@i^(0+128),w
  9047  1743                     u4665:	
  9048  1743  1803               	btfsc	3,0
  9049  1744  2F5B               	goto	l5245
  9050  1745                     l5239:	
  9051                           
  9052                           ;lighting.c: 648: {
  9053                           ;lighting.c: 649: writespi(0x00);
  9054  1745  3000               	movlw	0
  9055  1746  319B  2320  3197   	fcall	_writespi
  9056  1749  3001               	movlw	1
  9057  174A  0021               	movlb	1	; select bank1
  9058  174B  07A1               	addwf	led2_command@i^(0+128),f
  9059  174C  3000               	movlw	0
  9060  174D  3DA2               	addwfc	(led2_command@i+1)^(0+128),f
  9061  174E  0822               	movf	(led2_command@i+1)^(0+128),w
  9062  174F  3A80               	xorlw	128
  9063  1750  0020               	movlb	0	; select bank0
  9064  1751  00C6               	movwf	??_led2_command
  9065  1752  3080               	movlw	128
  9066  1753  0246               	subwf	??_led2_command,w
  9067  1754  1D03               	skipz
  9068  1755  2F59               	goto	u4675
  9069  1756  3004               	movlw	4
  9070  1757  0021               	movlb	1	; select bank1
  9071  1758  0221               	subwf	led2_command@i^(0+128),w
  9072  1759                     u4675:	
  9073  1759  1C03               	skipc
  9074  175A  2F45               	goto	l5239
  9075  175B                     l5245:	
  9076                           
  9077                           ;lighting.c: 650: }
  9078                           ;lighting.c: 652: writespi(0xFF);
  9079  175B  30FF               	movlw	255
  9080  175C  319B  2320  3197   	fcall	_writespi
  9081                           
  9082                           ;lighting.c: 653: writespi(0);
  9083  175F  3000               	movlw	0
  9084  1760  319B  2320  3197   	fcall	_writespi
  9085                           
  9086                           ;lighting.c: 654: writespi(0);
  9087  1763  3000               	movlw	0
  9088  1764  319B  2320  3197   	fcall	_writespi
  9089                           
  9090                           ;lighting.c: 655: writespi(0);
  9091  1767  3000               	movlw	0
  9092  1768  319B  2320  3197   	fcall	_writespi
  9093                           
  9094                           ;lighting.c: 657: writespi(brightness);
  9095  176B  0021               	movlb	1	; select bank1
  9096  176C  0820               	movf	led2_command@brightness^(0+128),w
  9097  176D  319B  2320  3197   	fcall	_writespi
  9098                           
  9099                           ;lighting.c: 658: writespi(blue);
  9100  1770  0020               	movlb	0	; select bank0
  9101  1771  0845               	movf	led2_command@blue,w
  9102  1772  319B  2320  3197   	fcall	_writespi
  9103                           
  9104                           ;lighting.c: 659: writespi(green);
  9105  1775  0020               	movlb	0	; select bank0
  9106  1776  0844               	movf	led2_command@green,w
  9107  1777  319B  2320  3197   	fcall	_writespi
  9108                           
  9109                           ;lighting.c: 660: writespi(red);
  9110  177A  0020               	movlb	0	; select bank0
  9111  177B  0843               	movf	led2_command@red,w
  9112  177C  319B  2320  3197   	fcall	_writespi
  9113                           
  9114                           ;lighting.c: 662: writespi(0xFF);
  9115  177F  30FF               	movlw	255
  9116  1780  319B  2320  3197   	fcall	_writespi
  9117                           
  9118                           ;lighting.c: 663: writespi(0);
  9119  1783  3000               	movlw	0
  9120  1784  319B  2320  3197   	fcall	_writespi
  9121                           
  9122                           ;lighting.c: 664: writespi(0);
  9123  1787  3000               	movlw	0
  9124  1788  319B  2320  3197   	fcall	_writespi
  9125                           
  9126                           ;lighting.c: 665: writespi(0);
  9127  178B  3000               	movlw	0
  9128  178C  319B  2320  3197   	fcall	_writespi
  9129                           
  9130                           ;lighting.c: 667: writespi(0xFF);
  9131  178F  30FF               	movlw	255
  9132  1790  319B  2320  3197   	fcall	_writespi
  9133                           
  9134                           ;lighting.c: 668: writespi(0);
  9135  1793  3000               	movlw	0
  9136  1794  319B  2320  3197   	fcall	_writespi
  9137                           
  9138                           ;lighting.c: 669: writespi(0);
  9139  1797  3000               	movlw	0
  9140  1798  319B  2320  3197   	fcall	_writespi
  9141                           
  9142                           ;lighting.c: 670: writespi(0);
  9143  179B  3000               	movlw	0
  9144  179C  319B  2320  3197   	fcall	_writespi
  9145                           
  9146                           ;lighting.c: 672: writespi(0xFF);
  9147  179F  30FF               	movlw	255
  9148  17A0  319B  2320  3197   	fcall	_writespi
  9149                           
  9150                           ;lighting.c: 673: writespi(0);
  9151  17A3  3000               	movlw	0
  9152  17A4  319B  2320  3197   	fcall	_writespi
  9153                           
  9154                           ;lighting.c: 674: writespi(0);
  9155  17A7  3000               	movlw	0
  9156  17A8  319B  2320  3197   	fcall	_writespi
  9157                           
  9158                           ;lighting.c: 675: writespi(0);
  9159  17AB  3000               	movlw	0
  9160  17AC  319B  2320  3197   	fcall	_writespi
  9161                           
  9162                           ;lighting.c: 677: writespi(0xFF);
  9163  17AF  30FF               	movlw	255
  9164  17B0  319B  2320  3197   	fcall	_writespi
  9165                           
  9166                           ;lighting.c: 678: writespi(0);
  9167  17B3  3000               	movlw	0
  9168  17B4  319B  2320  3197   	fcall	_writespi
  9169                           
  9170                           ;lighting.c: 679: writespi(0);
  9171  17B7  3000               	movlw	0
  9172  17B8  319B  2320  3197   	fcall	_writespi
  9173                           
  9174                           ;lighting.c: 680: writespi(0);
  9175  17BB  3000               	movlw	0
  9176  17BC  319B  2320  3197   	fcall	_writespi
  9177                           
  9178                           ;lighting.c: 682: writespi(0xFF);
  9179  17BF  30FF               	movlw	255
  9180  17C0  319B  2320  3197   	fcall	_writespi
  9181                           
  9182                           ;lighting.c: 683: writespi(0);
  9183  17C3  3000               	movlw	0
  9184  17C4  319B  2320  3197   	fcall	_writespi
  9185                           
  9186                           ;lighting.c: 684: writespi(0);
  9187  17C7  3000               	movlw	0
  9188  17C8  319B  2320  3197   	fcall	_writespi
  9189                           
  9190                           ;lighting.c: 685: writespi(0);
  9191  17CB  3000               	movlw	0
  9192  17CC  319B  2320  3197   	fcall	_writespi
  9193                           
  9194                           ;lighting.c: 687: for(int i = 0;i < 4; i++)
  9195  17CF  0021               	movlb	1	; select bank1
  9196  17D0  01A3               	clrf	led2_command@i_682^(0+128)
  9197  17D1  01A4               	clrf	(led2_command@i_682+1)^(0+128)
  9198  17D2  0824               	movf	(led2_command@i_682+1)^(0+128),w
  9199  17D3  3A80               	xorlw	128
  9200  17D4  0020               	movlb	0	; select bank0
  9201  17D5  00C6               	movwf	??_led2_command
  9202  17D6  3080               	movlw	128
  9203  17D7  0246               	subwf	??_led2_command,w
  9204  17D8  1D03               	skipz
  9205  17D9  2FDD               	goto	u4685
  9206  17DA  3004               	movlw	4
  9207  17DB  0021               	movlb	1	; select bank1
  9208  17DC  0223               	subwf	led2_command@i_682^(0+128),w
  9209  17DD                     u4685:	
  9210  17DD  1803               	btfsc	3,0
  9211  17DE  2FF5               	goto	l5259
  9212  17DF                     l5253:	
  9213                           
  9214                           ;lighting.c: 688: {
  9215                           ;lighting.c: 689: writespi(0xFF);
  9216  17DF  30FF               	movlw	255
  9217  17E0  319B  2320  3197   	fcall	_writespi
  9218  17E3  3001               	movlw	1
  9219  17E4  0021               	movlb	1	; select bank1
  9220  17E5  07A3               	addwf	led2_command@i_682^(0+128),f
  9221  17E6  3000               	movlw	0
  9222  17E7  3DA4               	addwfc	(led2_command@i_682+1)^(0+128),f
  9223  17E8  0824               	movf	(led2_command@i_682+1)^(0+128),w
  9224  17E9  3A80               	xorlw	128
  9225  17EA  0020               	movlb	0	; select bank0
  9226  17EB  00C6               	movwf	??_led2_command
  9227  17EC  3080               	movlw	128
  9228  17ED  0246               	subwf	??_led2_command,w
  9229  17EE  1D03               	skipz
  9230  17EF  2FF3               	goto	u4695
  9231  17F0  3004               	movlw	4
  9232  17F1  0021               	movlb	1	; select bank1
  9233  17F2  0223               	subwf	led2_command@i_682^(0+128),w
  9234  17F3                     u4695:	
  9235  17F3  1C03               	skipc
  9236  17F4  2FDF               	goto	l5253
  9237  17F5                     l5259:	
  9238                           
  9239                           ;lighting.c: 690: }
  9240                           ;lighting.c: 691: _delay((unsigned long)((20)*(32000000/4000.0)));
  9241  17F5  30D0               	movlw	208
  9242  17F6  0020               	movlb	0	; select bank0
  9243  17F7  00C7               	movwf	??_led2_command+1
  9244  17F8  30C9               	movlw	201
  9245  17F9  00C6               	movwf	??_led2_command
  9246  17FA                     u5657:	
  9247  17FA  0BC6               	decfsz	??_led2_command,f
  9248  17FB  2FFA               	goto	u5657
  9249  17FC  0BC7               	decfsz	??_led2_command+1,f
  9250  17FD  2FFA               	goto	u5657
  9251  17FE  3200               	nop2
  9252  17FF  0008               	return
  9253  1800                     __end_of_led2_command:	
  9254                           
  9255                           	psect	text17
  9256  1668                     __ptext17:	
  9257 ;; *************** function _led1_command *****************
  9258 ;; Defined at:
  9259 ;;		line 588 in file "../../source/lighting.c"
  9260 ;; Parameters:    Size  Location     Type
  9261 ;;  brightness      1    wreg     unsigned char 
  9262 ;;  red             1   35[BANK0 ] unsigned char 
  9263 ;;  green           1   36[BANK0 ] unsigned char 
  9264 ;;  blue            1   37[BANK0 ] unsigned char 
  9265 ;; Auto vars:     Size  Location     Type
  9266 ;;  brightness      1    0[BANK1 ] unsigned char 
  9267 ;;  i               2    3[BANK1 ] int 
  9268 ;;  i               2    1[BANK1 ] int 
  9269 ;; Return value:  Size  Location     Type
  9270 ;;		None               void
  9271 ;; Registers used:
  9272 ;;		wreg, status,2, status,0, pclath, cstack
  9273 ;; Tracked objects:
  9274 ;;		On entry : 0/0
  9275 ;;		On exit  : 0/0
  9276 ;;		Unchanged: 0/0
  9277 ;; Data sizes:     COMMON   BANK0   BANK1   BANK2   BANK3   BANK4   BANK5   BANK6   BANK7   BANK8   BANK9  BANK10  BANK1
      +1  BANK12  BANK13  BANK14  BANK15  BANK16  BANK17  BANK18  BANK19  BANK20  BANK21  BANK22  BANK23  BANK24  BANK25
  9278 ;;      Params:         0       3       0       0       0       0       0       0       0       0       0       0       
      +0       0       0       0       0       0       0       0       0       0       0       0       0       0       0
  9279 ;;      Locals:         0       0       5       0       0       0       0       0       0       0       0       0       
      +0       0       0       0       0       0       0       0       0       0       0       0       0       0       0
  9280 ;;      Temps:          0       2       0       0       0       0       0       0       0       0       0       0       
      +0       0       0       0       0       0       0       0       0       0       0       0       0       0       0
  9281 ;;      Totals:         0       5       5       0       0       0       0       0       0       0       0       0       
      +0       0       0       0       0       0       0       0       0       0       0       0       0       0       0
  9282 ;;Total ram usage:       10 bytes
  9283 ;; Hardware stack levels used:    1
  9284 ;; Hardware stack levels required when called:    5
  9285 ;; This function calls:
  9286 ;;		_writespi
  9287 ;; This function is called by:
  9288 ;;		_display_blade_lights
  9289 ;; This function uses a non-reentrant model
  9290 ;;
  9291                           
  9292                           
  9293                           ;psect for function _led1_command
  9294  1668                     _led1_command:	
  9295                           
  9296                           ;incstack = 0
  9297                           ; Regs used in _led1_command: [wreg+status,2+status,0+pclath+cstack]
  9298                           ;led1_command@brightness stored from wreg
  9299  1668  0021               	movlb	1	; select bank1
  9300  1669  00A0               	movwf	led1_command@brightness^(0+128)
  9301                           
  9302                           ;lighting.c: 594: for(int i = 0;i < 4; i++)
  9303  166A  01A1               	clrf	led1_command@i^(0+128)
  9304  166B  01A2               	clrf	(led1_command@i+1)^(0+128)
  9305  166C  0822               	movf	(led1_command@i+1)^(0+128),w
  9306  166D  3A80               	xorlw	128
  9307  166E  0020               	movlb	0	; select bank0
  9308  166F  00C6               	movwf	??_led1_command
  9309  1670  3080               	movlw	128
  9310  1671  0246               	subwf	??_led1_command,w
  9311  1672  1D03               	skipz
  9312  1673  2E77               	goto	u4705
  9313  1674  3004               	movlw	4
  9314  1675  0021               	movlb	1	; select bank1
  9315  1676  0221               	subwf	led1_command@i^(0+128),w
  9316  1677                     u4705:	
  9317  1677  1803               	btfsc	3,0
  9318  1678  2E8F               	goto	l5273
  9319  1679                     l5267:	
  9320                           
  9321                           ;lighting.c: 595: {
  9322                           ;lighting.c: 596: writespi(0x00);
  9323  1679  3000               	movlw	0
  9324  167A  319B  2320  3196   	fcall	_writespi
  9325  167D  3001               	movlw	1
  9326  167E  0021               	movlb	1	; select bank1
  9327  167F  07A1               	addwf	led1_command@i^(0+128),f
  9328  1680  3000               	movlw	0
  9329  1681  3DA2               	addwfc	(led1_command@i+1)^(0+128),f
  9330  1682  0822               	movf	(led1_command@i+1)^(0+128),w
  9331  1683  3A80               	xorlw	128
  9332  1684  0020               	movlb	0	; select bank0
  9333  1685  00C6               	movwf	??_led1_command
  9334  1686  3080               	movlw	128
  9335  1687  0246               	subwf	??_led1_command,w
  9336  1688  1D03               	skipz
  9337  1689  2E8D               	goto	u4715
  9338  168A  3004               	movlw	4
  9339  168B  0021               	movlb	1	; select bank1
  9340  168C  0221               	subwf	led1_command@i^(0+128),w
  9341  168D                     u4715:	
  9342  168D  1C03               	skipc
  9343  168E  2E79               	goto	l5267
  9344  168F                     l5273:	
  9345                           
  9346                           ;lighting.c: 597: }
  9347                           ;lighting.c: 599: writespi(brightness);
  9348  168F  0021               	movlb	1	; select bank1
  9349  1690  0820               	movf	led1_command@brightness^(0+128),w
  9350  1691  319B  2320  3196   	fcall	_writespi
  9351                           
  9352                           ;lighting.c: 600: writespi(blue);
  9353  1694  0020               	movlb	0	; select bank0
  9354  1695  0845               	movf	led1_command@blue,w
  9355  1696  319B  2320  3196   	fcall	_writespi
  9356                           
  9357                           ;lighting.c: 601: writespi(green);
  9358  1699  0020               	movlb	0	; select bank0
  9359  169A  0844               	movf	led1_command@green,w
  9360  169B  319B  2320  3196   	fcall	_writespi
  9361                           
  9362                           ;lighting.c: 602: writespi(red);
  9363  169E  0020               	movlb	0	; select bank0
  9364  169F  0843               	movf	led1_command@red,w
  9365  16A0  319B  2320  3196   	fcall	_writespi
  9366                           
  9367                           ;lighting.c: 604: writespi(0xFF);
  9368  16A3  30FF               	movlw	255
  9369  16A4  319B  2320  3196   	fcall	_writespi
  9370                           
  9371                           ;lighting.c: 605: writespi(0);
  9372  16A7  3000               	movlw	0
  9373  16A8  319B  2320  3196   	fcall	_writespi
  9374                           
  9375                           ;lighting.c: 606: writespi(0);
  9376  16AB  3000               	movlw	0
  9377  16AC  319B  2320  3196   	fcall	_writespi
  9378                           
  9379                           ;lighting.c: 607: writespi(0);
  9380  16AF  3000               	movlw	0
  9381  16B0  319B  2320  3196   	fcall	_writespi
  9382                           
  9383                           ;lighting.c: 609: writespi(0xFF);
  9384  16B3  30FF               	movlw	255
  9385  16B4  319B  2320  3196   	fcall	_writespi
  9386                           
  9387                           ;lighting.c: 610: writespi(0);
  9388  16B7  3000               	movlw	0
  9389  16B8  319B  2320  3196   	fcall	_writespi
  9390                           
  9391                           ;lighting.c: 611: writespi(0);
  9392  16BB  3000               	movlw	0
  9393  16BC  319B  2320  3196   	fcall	_writespi
  9394                           
  9395                           ;lighting.c: 612: writespi(0);
  9396  16BF  3000               	movlw	0
  9397  16C0  319B  2320  3196   	fcall	_writespi
  9398                           
  9399                           ;lighting.c: 614: writespi(0xFF);
  9400  16C3  30FF               	movlw	255
  9401  16C4  319B  2320  3196   	fcall	_writespi
  9402                           
  9403                           ;lighting.c: 615: writespi(0);
  9404  16C7  3000               	movlw	0
  9405  16C8  319B  2320  3196   	fcall	_writespi
  9406                           
  9407                           ;lighting.c: 616: writespi(0);
  9408  16CB  3000               	movlw	0
  9409  16CC  319B  2320  3196   	fcall	_writespi
  9410                           
  9411                           ;lighting.c: 617: writespi(0);
  9412  16CF  3000               	movlw	0
  9413  16D0  319B  2320  3196   	fcall	_writespi
  9414                           
  9415                           ;lighting.c: 619: writespi(0xFF);
  9416  16D3  30FF               	movlw	255
  9417  16D4  319B  2320  3196   	fcall	_writespi
  9418                           
  9419                           ;lighting.c: 620: writespi(0);
  9420  16D7  3000               	movlw	0
  9421  16D8  319B  2320  3196   	fcall	_writespi
  9422                           
  9423                           ;lighting.c: 621: writespi(0);
  9424  16DB  3000               	movlw	0
  9425  16DC  319B  2320  3196   	fcall	_writespi
  9426                           
  9427                           ;lighting.c: 622: writespi(0);
  9428  16DF  3000               	movlw	0
  9429  16E0  319B  2320  3196   	fcall	_writespi
  9430                           
  9431                           ;lighting.c: 624: writespi(0xFF);
  9432  16E3  30FF               	movlw	255
  9433  16E4  319B  2320  3196   	fcall	_writespi
  9434                           
  9435                           ;lighting.c: 625: writespi(0);
  9436  16E7  3000               	movlw	0
  9437  16E8  319B  2320  3196   	fcall	_writespi
  9438                           
  9439                           ;lighting.c: 626: writespi(0);
  9440  16EB  3000               	movlw	0
  9441  16EC  319B  2320  3196   	fcall	_writespi
  9442                           
  9443                           ;lighting.c: 627: writespi(0);
  9444  16EF  3000               	movlw	0
  9445  16F0  319B  2320  3196   	fcall	_writespi
  9446                           
  9447                           ;lighting.c: 629: writespi(0xFF);
  9448  16F3  30FF               	movlw	255
  9449  16F4  319B  2320  3196   	fcall	_writespi
  9450                           
  9451                           ;lighting.c: 630: writespi(0);
  9452  16F7  3000               	movlw	0
  9453  16F8  319B  2320  3196   	fcall	_writespi
  9454                           
  9455                           ;lighting.c: 631: writespi(0);
  9456  16FB  3000               	movlw	0
  9457  16FC  319B  2320  3196   	fcall	_writespi
  9458                           
  9459                           ;lighting.c: 632: writespi(0);
  9460  16FF  3000               	movlw	0
  9461  1700  319B  2320  3196   	fcall	_writespi
  9462                           
  9463                           ;lighting.c: 634: for(int i = 0;i < 4; i++)
  9464  1703  0021               	movlb	1	; select bank1
  9465  1704  01A3               	clrf	led1_command@i_675^(0+128)
  9466  1705  01A4               	clrf	(led1_command@i_675+1)^(0+128)
  9467  1706  0824               	movf	(led1_command@i_675+1)^(0+128),w
  9468  1707  3A80               	xorlw	128
  9469  1708  0020               	movlb	0	; select bank0
  9470  1709  00C6               	movwf	??_led1_command
  9471  170A  3080               	movlw	128
  9472  170B  0246               	subwf	??_led1_command,w
  9473  170C  1D03               	skipz
  9474  170D  2F11               	goto	u4725
  9475  170E  3004               	movlw	4
  9476  170F  0021               	movlb	1	; select bank1
  9477  1710  0223               	subwf	led1_command@i_675^(0+128),w
  9478  1711                     u4725:	
  9479  1711  1803               	btfsc	3,0
  9480  1712  2F29               	goto	l5287
  9481  1713                     l5281:	
  9482                           
  9483                           ;lighting.c: 635: {
  9484                           ;lighting.c: 636: writespi(0xFF);
  9485  1713  30FF               	movlw	255
  9486  1714  319B  2320  3196   	fcall	_writespi
  9487  1717  3001               	movlw	1
  9488  1718  0021               	movlb	1	; select bank1
  9489  1719  07A3               	addwf	led1_command@i_675^(0+128),f
  9490  171A  3000               	movlw	0
  9491  171B  3DA4               	addwfc	(led1_command@i_675+1)^(0+128),f
  9492  171C  0824               	movf	(led1_command@i_675+1)^(0+128),w
  9493  171D  3A80               	xorlw	128
  9494  171E  0020               	movlb	0	; select bank0
  9495  171F  00C6               	movwf	??_led1_command
  9496  1720  3080               	movlw	128
  9497  1721  0246               	subwf	??_led1_command,w
  9498  1722  1D03               	skipz
  9499  1723  2F27               	goto	u4735
  9500  1724  3004               	movlw	4
  9501  1725  0021               	movlb	1	; select bank1
  9502  1726  0223               	subwf	led1_command@i_675^(0+128),w
  9503  1727                     u4735:	
  9504  1727  1C03               	skipc
  9505  1728  2F13               	goto	l5281
  9506  1729                     l5287:	
  9507                           
  9508                           ;lighting.c: 637: }
  9509                           ;lighting.c: 638: _delay((unsigned long)((20)*(32000000/4000.0)));
  9510  1729  30D0               	movlw	208
  9511  172A  0020               	movlb	0	; select bank0
  9512  172B  00C7               	movwf	??_led1_command+1
  9513  172C  30C9               	movlw	201
  9514  172D  00C6               	movwf	??_led1_command
  9515  172E                     u5667:	
  9516  172E  0BC6               	decfsz	??_led1_command,f
  9517  172F  2F2E               	goto	u5667
  9518  1730  0BC7               	decfsz	??_led1_command+1,f
  9519  1731  2F2E               	goto	u5667
  9520  1732  3200               	nop2
  9521  1733  0008               	return
  9522  1734                     __end_of_led1_command:	
  9523                           
  9524                           	psect	text18
  9525  1B20                     __ptext18:	
  9526 ;; *************** function _writespi *****************
  9527 ;; Defined at:
  9528 ;;		line 543 in file "../../source/lighting.c"
  9529 ;; Parameters:    Size  Location     Type
  9530 ;;  data_out        1    wreg     unsigned char 
  9531 ;; Auto vars:     Size  Location     Type
  9532 ;;  data_out        1   34[BANK0 ] unsigned char 
  9533 ;;  TempVar         1   33[BANK0 ] unsigned char 
  9534 ;; Return value:  Size  Location     Type
  9535 ;;		None               void
  9536 ;; Registers used:
  9537 ;;		wreg
  9538 ;; Tracked objects:
  9539 ;;		On entry : 0/0
  9540 ;;		On exit  : 0/0
  9541 ;;		Unchanged: 0/0
  9542 ;; Data sizes:     COMMON   BANK0   BANK1   BANK2   BANK3   BANK4   BANK5   BANK6   BANK7   BANK8   BANK9  BANK10  BANK1
      +1  BANK12  BANK13  BANK14  BANK15  BANK16  BANK17  BANK18  BANK19  BANK20  BANK21  BANK22  BANK23  BANK24  BANK25
  9543 ;;      Params:         0       0       0       0       0       0       0       0       0       0       0       0       
      +0       0       0       0       0       0       0       0       0       0       0       0       0       0       0
  9544 ;;      Locals:         0       2       0       0       0       0       0       0       0       0       0       0       
      +0       0       0       0       0       0       0       0       0       0       0       0       0       0       0
  9545 ;;      Temps:          0       1       0       0       0       0       0       0       0       0       0       0       
      +0       0       0       0       0       0       0       0       0       0       0       0       0       0       0
  9546 ;;      Totals:         0       3       0       0       0       0       0       0       0       0       0       0       
      +0       0       0       0       0       0       0       0       0       0       0       0       0       0       0
  9547 ;;Total ram usage:        3 bytes
  9548 ;; Hardware stack levels used:    1
  9549 ;; Hardware stack levels required when called:    4
  9550 ;; This function calls:
  9551 ;;		Nothing
  9552 ;; This function is called by:
  9553 ;;		_display_blade_lights
  9554 ;;		_led1_command
  9555 ;;		_led2_command
  9556 ;;		_led3_command
  9557 ;;		_led4_command
  9558 ;;		_led5_command
  9559 ;;		_led6_command
  9560 ;;		_led7_command
  9561 ;;		_leds_off
  9562 ;;		_led_start
  9563 ;;		_led_end
  9564 ;;		_led_command
  9565 ;; This function uses a non-reentrant model
  9566 ;;
  9567                           
  9568                           
  9569                           ;psect for function _writespi
  9570  1B20                     _writespi:	
  9571                           
  9572                           ;incstack = 0
  9573                           ; Regs used in _writespi: [wreg]
  9574                           ;writespi@data_out stored from wreg
  9575  1B20  0020               	movlb	0	; select bank0
  9576  1B21  00C2               	movwf	writespi@data_out
  9577                           
  9578                           ;lighting.c: 545: unsigned char TempVar;
  9579                           ;lighting.c: 546: TempVar = SSPBUF;
  9580  1B22  0024               	movlb	4	; select bank4
  9581  1B23  0811               	movf	17,w	;volatile
  9582  1B24  0020               	movlb	0	; select bank0
  9583  1B25  00C0               	movwf	??_writespi
  9584  1B26  0840               	movf	??_writespi,w
  9585  1B27  00C1               	movwf	writespi@TempVar
  9586                           
  9587                           ;lighting.c: 547: PIR1bits.SSP1IF = 0;
  9588  1B28  1191               	bcf	17,3	;volatile
  9589                           
  9590                           ;lighting.c: 548: SSPCON1bits.WCOL = 0;
  9591  1B29  0024               	movlb	4	; select bank4
  9592  1B2A  1395               	bcf	21,7	;volatile
  9593                           
  9594                           ;lighting.c: 549: SSPBUF = data_out;
  9595  1B2B  0020               	movlb	0	; select bank0
  9596  1B2C  0842               	movf	writespi@data_out,w
  9597  1B2D  0024               	movlb	4	; select bank4
  9598  1B2E  0091               	movwf	17	;volatile
  9599  1B2F                     l667:	
  9600                           ;lighting.c: 554: while( !PIR1bits.SSP1IF );
  9601                           
  9602  1B2F  0020               	movlb	0	; select bank0
  9603  1B30  1991               	btfsc	17,3	;volatile
  9604  1B31  0008               	return
  9605  1B32  2B2F               	goto	l667
  9606  1B33                     __end_of_writespi:	
  9607                           
  9608                           	psect	text19
  9609  0681                     __ptext19:	
  9610 ;; *************** function _determine_sword_was_swung *****************
  9611 ;; Defined at:
  9612 ;;		line 153 in file "../../source/accelerometer.c"
  9613 ;; Parameters:    Size  Location     Type
  9614 ;;		None
  9615 ;; Auto vars:     Size  Location     Type
  9616 ;;  z               2   22[BANK1 ] int 
  9617 ;;  y               2   20[BANK1 ] int 
  9618 ;;  x               2   18[BANK1 ] int 
  9619 ;;  z_neg_thresh    2   16[BANK1 ] int 
  9620 ;;  z_pos_thresh    2   14[BANK1 ] int 
  9621 ;;  y_neg_thresh    2   12[BANK1 ] int 
  9622 ;;  y_pos_thresh    2   10[BANK1 ] int 
  9623 ;;  x_neg_thresh    2    8[BANK1 ] int 
  9624 ;;  x_pos_thresh    2    6[BANK1 ] int 
  9625 ;;  zl              1    5[BANK1 ] unsigned char 
  9626 ;;  yl              1    4[BANK1 ] unsigned char 
  9627 ;;  xl              1    3[BANK1 ] unsigned char 
  9628 ;;  zh              1    2[BANK1 ] unsigned char 
  9629 ;;  yh              1    1[BANK1 ] unsigned char 
  9630 ;;  xh              1    0[BANK1 ] unsigned char 
  9631 ;; Return value:  Size  Location     Type
  9632 ;;                  1    wreg      unsigned char 
  9633 ;; Registers used:
  9634 ;;		wreg, fsr0l, fsr0h, status,2, status,0, pclath
  9635 ;; Tracked objects:
  9636 ;;		On entry : 0/0
  9637 ;;		On exit  : 0/0
  9638 ;;		Unchanged: 0/0
  9639 ;; Data sizes:     COMMON   BANK0   BANK1   BANK2   BANK3   BANK4   BANK5   BANK6   BANK7   BANK8   BANK9  BANK10  BANK1
      +1  BANK12  BANK13  BANK14  BANK15  BANK16  BANK17  BANK18  BANK19  BANK20  BANK21  BANK22  BANK23  BANK24  BANK25
  9640 ;;      Params:         0       0       0       0       0       0       0       0       0       0       0       0       
      +0       0       0       0       0       0       0       0       0       0       0       0       0       0       0
  9641 ;;      Locals:         0       0      24       0       0       0       0       0       0       0       0       0       
      +0       0       0       0       0       0       0       0       0       0       0       0       0       0       0
  9642 ;;      Temps:          0       2       0       0       0       0       0       0       0       0       0       0       
      +0       0       0       0       0       0       0       0       0       0       0       0       0       0       0
  9643 ;;      Totals:         0       2      24       0       0       0       0       0       0       0       0       0       
      +0       0       0       0       0       0       0       0       0       0       0       0       0       0       0
  9644 ;;Total ram usage:       26 bytes
  9645 ;; Hardware stack levels used:    1
  9646 ;; Hardware stack levels required when called:    4
  9647 ;; This function calls:
  9648 ;;		Nothing
  9649 ;; This function is called by:
  9650 ;;		_main
  9651 ;; This function uses a non-reentrant model
  9652 ;;
  9653                           
  9654                           
  9655                           ;psect for function _determine_sword_was_swung
  9656  0681                     _determine_sword_was_swung:	
  9657                           
  9658                           ;accelerometer.c: 156: if(RC7 == 1)
  9659                           
  9660                           ;incstack = 0
  9661                           ; Regs used in _determine_sword_was_swung: [wreg-fsr0h+status,2+status,0+pclath]
  9662  0681  0020               	movlb	0	; select bank0
  9663  0682  1F8E               	btfss	14,7	;volatile
  9664  0683  2E86               	goto	l4265
  9665                           
  9666                           ;accelerometer.c: 157: {
  9667                           ;accelerometer.c: 158: return 1;
  9668  0684  3001               	movlw	1
  9669  0685  0008               	return
  9670  0686                     l4265:	
  9671                           
  9672                           ;accelerometer.c: 159: }
  9673                           ;accelerometer.c: 161: unsigned char xh = 0;
  9674  0686  0021               	movlb	1	; select bank1
  9675  0687  01A0               	clrf	determine_sword_was_swung@xh^(0+128)
  9676                           
  9677                           ;accelerometer.c: 162: unsigned char yh = 0;
  9678  0688  01A1               	clrf	determine_sword_was_swung@yh^(0+128)
  9679                           
  9680                           ;accelerometer.c: 163: unsigned char zh = 0;
  9681  0689  01A2               	clrf	determine_sword_was_swung@zh^(0+128)
  9682                           
  9683                           ;accelerometer.c: 164: unsigned char xl = 0;
  9684  068A  01A3               	clrf	determine_sword_was_swung@xl^(0+128)
  9685                           
  9686                           ;accelerometer.c: 165: unsigned char yl = 0;
  9687  068B  01A4               	clrf	determine_sword_was_swung@yl^(0+128)
  9688                           
  9689                           ;accelerometer.c: 166: unsigned char zl = 0;
  9690  068C  01A5               	clrf	determine_sword_was_swung@zl^(0+128)
  9691                           
  9692                           ;accelerometer.c: 167: int16_t x = 0;
  9693  068D  01B2               	clrf	determine_sword_was_swung@x^(0+128)
  9694  068E  01B3               	clrf	(determine_sword_was_swung@x+1)^(0+128)
  9695                           
  9696                           ;accelerometer.c: 168: int16_t y = 0;
  9697  068F  01B4               	clrf	determine_sword_was_swung@y^(0+128)
  9698  0690  01B5               	clrf	(determine_sword_was_swung@y+1)^(0+128)
  9699                           
  9700                           ;accelerometer.c: 169: int16_t z = 0;
  9701  0691  01B6               	clrf	determine_sword_was_swung@z^(0+128)
  9702  0692  01B7               	clrf	(determine_sword_was_swung@z+1)^(0+128)
  9703                           
  9704                           ;accelerometer.c: 170: int x_pos_thresh = 0;
  9705  0693  01A6               	clrf	determine_sword_was_swung@x_pos_thresh^(0+128)
  9706  0694  01A7               	clrf	(determine_sword_was_swung@x_pos_thresh+1)^(0+128)
  9707                           
  9708                           ;accelerometer.c: 171: int x_neg_thresh = 0;
  9709  0695  01A8               	clrf	determine_sword_was_swung@x_neg_thresh^(0+128)
  9710  0696  01A9               	clrf	(determine_sword_was_swung@x_neg_thresh+1)^(0+128)
  9711                           
  9712                           ;accelerometer.c: 172: int y_pos_thresh = 0;
  9713  0697  01AA               	clrf	determine_sword_was_swung@y_pos_thresh^(0+128)
  9714  0698  01AB               	clrf	(determine_sword_was_swung@y_pos_thresh+1)^(0+128)
  9715                           
  9716                           ;accelerometer.c: 173: int y_neg_thresh = 0;
  9717  0699  01AC               	clrf	determine_sword_was_swung@y_neg_thresh^(0+128)
  9718  069A  01AD               	clrf	(determine_sword_was_swung@y_neg_thresh+1)^(0+128)
  9719                           
  9720                           ;accelerometer.c: 174: int z_pos_thresh = 0;
  9721  069B  01AE               	clrf	determine_sword_was_swung@z_pos_thresh^(0+128)
  9722  069C  01AF               	clrf	(determine_sword_was_swung@z_pos_thresh+1)^(0+128)
  9723                           
  9724                           ;accelerometer.c: 175: int z_neg_thresh = 0;
  9725  069D  01B0               	clrf	determine_sword_was_swung@z_neg_thresh^(0+128)
  9726  069E  01B1               	clrf	(determine_sword_was_swung@z_neg_thresh+1)^(0+128)
  9727                           
  9728                           ;accelerometer.c: 176: const int midpoint = 4096;
  9729                           ;accelerometer.c: 177: const int pos_shock_thresh = midpoint + 1000;
  9730                           ;accelerometer.c: 178: const int neg_shock_thresh = midpoint - 1000;
  9731                           ;accelerometer.c: 181: x_pos_thresh = midpoint + 2900;
  9732  069F  3000               	movlw	low (determine_sword_was_swung@midpoint| (0+32768))
  9733  06A0  0084               	movwf	4
  9734  06A1  30A0               	movlw	high (determine_sword_was_swung@midpoint| (0+32768))
  9735  06A2  0085               	movwf	5
  9736  06A3  3F00               	moviw [0]fsr0
  9737  06A4  0020               	movlb	0	; select bank0
  9738  06A5  00C0               	movwf	??_determine_sword_was_swung
  9739  06A6  3F01               	moviw [1]fsr0
  9740  06A7  00C1               	movwf	??_determine_sword_was_swung+1
  9741  06A8  0840               	movf	??_determine_sword_was_swung,w
  9742  06A9  3E54               	addlw	84
  9743  06AA  0021               	movlb	1	; select bank1
  9744  06AB  00A6               	movwf	determine_sword_was_swung@x_pos_thresh^(0+128)
  9745  06AC  300B               	movlw	11
  9746  06AD  0020               	movlb	0	; select bank0
  9747  06AE  3D41               	addwfc	??_determine_sword_was_swung+1,w
  9748  06AF  0021               	movlb	1	; select bank1
  9749  06B0  00A7               	movwf	(determine_sword_was_swung@x_pos_thresh+1)^(0+128)
  9750                           
  9751                           ;accelerometer.c: 182: x_neg_thresh = midpoint - 2900;
  9752  06B1  3000               	movlw	low (determine_sword_was_swung@midpoint| (0+32768))
  9753  06B2  0084               	movwf	4
  9754  06B3  30A0               	movlw	high (determine_sword_was_swung@midpoint| (0+32768))
  9755  06B4  0085               	movwf	5
  9756  06B5  3F00               	moviw [0]fsr0
  9757  06B6  0020               	movlb	0	; select bank0
  9758  06B7  00C0               	movwf	??_determine_sword_was_swung
  9759  06B8  3F01               	moviw [1]fsr0
  9760  06B9  00C1               	movwf	??_determine_sword_was_swung+1
  9761  06BA  0840               	movf	??_determine_sword_was_swung,w
  9762  06BB  3EAC               	addlw	172
  9763  06BC  0021               	movlb	1	; select bank1
  9764  06BD  00A8               	movwf	determine_sword_was_swung@x_neg_thresh^(0+128)
  9765  06BE  30F4               	movlw	244
  9766  06BF  0020               	movlb	0	; select bank0
  9767  06C0  3D41               	addwfc	??_determine_sword_was_swung+1,w
  9768  06C1  0021               	movlb	1	; select bank1
  9769  06C2  00A9               	movwf	(determine_sword_was_swung@x_neg_thresh+1)^(0+128)
  9770                           
  9771                           ;accelerometer.c: 183: y_pos_thresh = midpoint + 2900;
  9772  06C3  3000               	movlw	low (determine_sword_was_swung@midpoint| (0+32768))
  9773  06C4  0084               	movwf	4
  9774  06C5  30A0               	movlw	high (determine_sword_was_swung@midpoint| (0+32768))
  9775  06C6  0085               	movwf	5
  9776  06C7  3F00               	moviw [0]fsr0
  9777  06C8  0020               	movlb	0	; select bank0
  9778  06C9  00C0               	movwf	??_determine_sword_was_swung
  9779  06CA  3F01               	moviw [1]fsr0
  9780  06CB  00C1               	movwf	??_determine_sword_was_swung+1
  9781  06CC  0840               	movf	??_determine_sword_was_swung,w
  9782  06CD  3E54               	addlw	84
  9783  06CE  0021               	movlb	1	; select bank1
  9784  06CF  00AA               	movwf	determine_sword_was_swung@y_pos_thresh^(0+128)
  9785  06D0  300B               	movlw	11
  9786  06D1  0020               	movlb	0	; select bank0
  9787  06D2  3D41               	addwfc	??_determine_sword_was_swung+1,w
  9788  06D3  0021               	movlb	1	; select bank1
  9789  06D4  00AB               	movwf	(determine_sword_was_swung@y_pos_thresh+1)^(0+128)
  9790                           
  9791                           ;accelerometer.c: 184: y_neg_thresh = midpoint - 2900;
  9792  06D5  3000               	movlw	low (determine_sword_was_swung@midpoint| (0+32768))
  9793  06D6  0084               	movwf	4
  9794  06D7  30A0               	movlw	high (determine_sword_was_swung@midpoint| (0+32768))
  9795  06D8  0085               	movwf	5
  9796  06D9  3F00               	moviw [0]fsr0
  9797  06DA  0020               	movlb	0	; select bank0
  9798  06DB  00C0               	movwf	??_determine_sword_was_swung
  9799  06DC  3F01               	moviw [1]fsr0
  9800  06DD  00C1               	movwf	??_determine_sword_was_swung+1
  9801  06DE  0840               	movf	??_determine_sword_was_swung,w
  9802  06DF  3EAC               	addlw	172
  9803  06E0  0021               	movlb	1	; select bank1
  9804  06E1  00AC               	movwf	determine_sword_was_swung@y_neg_thresh^(0+128)
  9805  06E2  30F4               	movlw	244
  9806  06E3  0020               	movlb	0	; select bank0
  9807  06E4  3D41               	addwfc	??_determine_sword_was_swung+1,w
  9808  06E5  0021               	movlb	1	; select bank1
  9809  06E6  00AD               	movwf	(determine_sword_was_swung@y_neg_thresh+1)^(0+128)
  9810                           
  9811                           ;accelerometer.c: 185: z_pos_thresh = midpoint + 2900;
  9812  06E7  3000               	movlw	low (determine_sword_was_swung@midpoint| (0+32768))
  9813  06E8  0084               	movwf	4
  9814  06E9  30A0               	movlw	high (determine_sword_was_swung@midpoint| (0+32768))
  9815  06EA  0085               	movwf	5
  9816  06EB  3F00               	moviw [0]fsr0
  9817  06EC  0020               	movlb	0	; select bank0
  9818  06ED  00C0               	movwf	??_determine_sword_was_swung
  9819  06EE  3F01               	moviw [1]fsr0
  9820  06EF  00C1               	movwf	??_determine_sword_was_swung+1
  9821  06F0  0840               	movf	??_determine_sword_was_swung,w
  9822  06F1  3E54               	addlw	84
  9823  06F2  0021               	movlb	1	; select bank1
  9824  06F3  00AE               	movwf	determine_sword_was_swung@z_pos_thresh^(0+128)
  9825  06F4  300B               	movlw	11
  9826  06F5  0020               	movlb	0	; select bank0
  9827  06F6  3D41               	addwfc	??_determine_sword_was_swung+1,w
  9828  06F7  0021               	movlb	1	; select bank1
  9829  06F8  00AF               	movwf	(determine_sword_was_swung@z_pos_thresh+1)^(0+128)
  9830                           
  9831                           ;accelerometer.c: 186: z_neg_thresh = midpoint - 2900;
  9832  06F9  3000               	movlw	low (determine_sword_was_swung@midpoint| (0+32768))
  9833  06FA  0084               	movwf	4
  9834  06FB  30A0               	movlw	high (determine_sword_was_swung@midpoint| (0+32768))
  9835  06FC  0085               	movwf	5
  9836  06FD  3F00               	moviw [0]fsr0
  9837  06FE  0020               	movlb	0	; select bank0
  9838  06FF  00C0               	movwf	??_determine_sword_was_swung
  9839  0700  3F01               	moviw [1]fsr0
  9840  0701  00C1               	movwf	??_determine_sword_was_swung+1
  9841  0702  0840               	movf	??_determine_sword_was_swung,w
  9842  0703  3EAC               	addlw	172
  9843  0704  0021               	movlb	1	; select bank1
  9844  0705  00B0               	movwf	determine_sword_was_swung@z_neg_thresh^(0+128)
  9845  0706  30F4               	movlw	244
  9846  0707  0020               	movlb	0	; select bank0
  9847  0708  3D41               	addwfc	??_determine_sword_was_swung+1,w
  9848  0709  0021               	movlb	1	; select bank1
  9849  070A  00B1               	movwf	(determine_sword_was_swung@z_neg_thresh+1)^(0+128)
  9850                           
  9851                           ;accelerometer.c: 211: ADCON0 = 0b00001001;
  9852  070B  3009               	movlw	9
  9853  070C  009D               	movwf	29	;volatile
  9854                           
  9855                           ;accelerometer.c: 212: _delay((unsigned long)((100)*(32000000/4000000.0)));
  9856  070D  30C7               	movlw	199
  9857  070E  0020               	movlb	0	; select bank0
  9858  070F  00C0               	movwf	??_determine_sword_was_swung
  9859  0710                     u5677:	
  9860  0710  0000               	nop
  9861  0711  0BC0               	decfsz	??_determine_sword_was_swung,f
  9862  0712  2F10               	goto	u5677
  9863  0713  3200               	nop2	;nop
  9864  0714  0000               	nop
  9865                           
  9866                           ;accelerometer.c: 213: ADGO = 1;
  9867  0715  0021               	movlb	1	; select bank1
  9868  0716  149D               	bsf	29,1	;volatile
  9869  0717                     l362:	
  9870                           ;accelerometer.c: 215: {
  9871                           ;accelerometer.c: 216: continue;
  9872                           
  9873                           ;accelerometer.c: 214: while(ADGO)
  9874                           
  9875  0717  189D               	btfsc	29,1	;volatile
  9876  0718  2F17               	goto	l362
  9877                           
  9878                           ;accelerometer.c: 217: }
  9879                           ;accelerometer.c: 218: x = ADRES;
  9880  0719  081C               	movf	28,w	;volatile
  9881  071A  00B3               	movwf	(determine_sword_was_swung@x+1)^(0+128)
  9882  071B  081B               	movf	27,w	;volatile
  9883  071C  00B2               	movwf	determine_sword_was_swung@x^(0+128)
  9884                           
  9885                           ;accelerometer.c: 222: ADCON0 = 0b00001101;
  9886  071D  300D               	movlw	13
  9887  071E  009D               	movwf	29	;volatile
  9888                           
  9889                           ;accelerometer.c: 223: _delay((unsigned long)((100)*(32000000/4000000.0)));
  9890  071F  30C7               	movlw	199
  9891  0720  0020               	movlb	0	; select bank0
  9892  0721  00C0               	movwf	??_determine_sword_was_swung
  9893  0722                     u5687:	
  9894  0722  0000               	nop
  9895  0723  0BC0               	decfsz	??_determine_sword_was_swung,f
  9896  0724  2F22               	goto	u5687
  9897  0725  3200               	nop2	;nop
  9898  0726  0000               	nop
  9899                           
  9900                           ;accelerometer.c: 224: ADGO = 1;
  9901  0727  0021               	movlb	1	; select bank1
  9902  0728  149D               	bsf	29,1	;volatile
  9903  0729                     l365:	
  9904                           ;accelerometer.c: 226: {
  9905                           ;accelerometer.c: 227: continue;
  9906                           
  9907                           ;accelerometer.c: 225: while(ADGO)
  9908                           
  9909  0729  189D               	btfsc	29,1	;volatile
  9910  072A  2F29               	goto	l365
  9911                           
  9912                           ;accelerometer.c: 228: }
  9913                           ;accelerometer.c: 229: y = ADRES;
  9914  072B  081C               	movf	28,w	;volatile
  9915  072C  00B5               	movwf	(determine_sword_was_swung@y+1)^(0+128)
  9916  072D  081B               	movf	27,w	;volatile
  9917  072E  00B4               	movwf	determine_sword_was_swung@y^(0+128)
  9918                           
  9919                           ;accelerometer.c: 232: ADCON0 = 0b00010101;
  9920  072F  3015               	movlw	21
  9921  0730  009D               	movwf	29	;volatile
  9922                           
  9923                           ;accelerometer.c: 233: _delay((unsigned long)((100)*(32000000/4000000.0)));
  9924  0731  30C7               	movlw	199
  9925  0732  0020               	movlb	0	; select bank0
  9926  0733  00C0               	movwf	??_determine_sword_was_swung
  9927  0734                     u5697:	
  9928  0734  0000               	nop
  9929  0735  0BC0               	decfsz	??_determine_sword_was_swung,f
  9930  0736  2F34               	goto	u5697
  9931  0737  3200               	nop2	;nop
  9932  0738  0000               	nop
  9933                           
  9934                           ;accelerometer.c: 234: ADGO = 1;
  9935  0739  0021               	movlb	1	; select bank1
  9936  073A  149D               	bsf	29,1	;volatile
  9937  073B                     l368:	
  9938                           ;accelerometer.c: 236: {
  9939                           ;accelerometer.c: 237: continue;
  9940                           
  9941                           ;accelerometer.c: 235: while(ADGO)
  9942                           
  9943  073B  189D               	btfsc	29,1	;volatile
  9944  073C  2F3B               	goto	l368
  9945                           
  9946                           ;accelerometer.c: 238: }
  9947                           ;accelerometer.c: 239: z = ADRES;
  9948  073D  081C               	movf	28,w	;volatile
  9949  073E  00B7               	movwf	(determine_sword_was_swung@z+1)^(0+128)
  9950  073F  081B               	movf	27,w	;volatile
  9951  0740  00B6               	movwf	determine_sword_was_swung@z^(0+128)
  9952                           
  9953                           ;accelerometer.c: 242: if( (( x > x_pos_thresh ) || ( x < x_neg_thresh )
  9954                           ;accelerometer.c: 243: || ( y > y_pos_thresh ) || ( y < y_neg_thresh )
  9955                           ;accelerometer.c: 244: || ( z > z_pos_thresh ) || ( z < z_neg_thresh ))
  9956                           ;accelerometer.c: 250: )
  9957  0741  0827               	movf	(determine_sword_was_swung@x_pos_thresh+1)^(0+128),w
  9958  0742  3A80               	xorlw	128
  9959  0743  0020               	movlb	0	; select bank0
  9960  0744  00C0               	movwf	??_determine_sword_was_swung
  9961  0745  0021               	movlb	1	; select bank1
  9962  0746  0833               	movf	(determine_sword_was_swung@x+1)^(0+128),w
  9963  0747  3A80               	xorlw	128
  9964  0748  0020               	movlb	0	; select bank0
  9965  0749  0240               	subwf	??_determine_sword_was_swung,w
  9966  074A  1D03               	skipz
  9967  074B  2F4F               	goto	u3325
  9968  074C  0021               	movlb	1	; select bank1
  9969  074D  0832               	movf	determine_sword_was_swung@x^(0+128),w
  9970  074E  0226               	subwf	determine_sword_was_swung@x_pos_thresh^(0+128),w
  9971  074F                     u3325:	
  9972  074F  1C03               	skipc
  9973  0750  2FA6               	goto	l4305
  9974  0751  0021               	movlb	1	; select bank1
  9975  0752  0833               	movf	(determine_sword_was_swung@x+1)^(0+128),w
  9976  0753  3A80               	xorlw	128
  9977  0754  0020               	movlb	0	; select bank0
  9978  0755  00C0               	movwf	??_determine_sword_was_swung
  9979  0756  0021               	movlb	1	; select bank1
  9980  0757  0829               	movf	(determine_sword_was_swung@x_neg_thresh+1)^(0+128),w
  9981  0758  3A80               	xorlw	128
  9982  0759  0020               	movlb	0	; select bank0
  9983  075A  0240               	subwf	??_determine_sword_was_swung,w
  9984  075B  1D03               	skipz
  9985  075C  2F60               	goto	u3335
  9986  075D  0021               	movlb	1	; select bank1
  9987  075E  0828               	movf	determine_sword_was_swung@x_neg_thresh^(0+128),w
  9988  075F  0232               	subwf	determine_sword_was_swung@x^(0+128),w
  9989  0760                     u3335:	
  9990  0760  1C03               	skipc
  9991  0761  2FA6               	goto	l4305
  9992  0762  0021               	movlb	1	; select bank1
  9993  0763  082B               	movf	(determine_sword_was_swung@y_pos_thresh+1)^(0+128),w
  9994  0764  3A80               	xorlw	128
  9995  0765  0020               	movlb	0	; select bank0
  9996  0766  00C0               	movwf	??_determine_sword_was_swung
  9997  0767  0021               	movlb	1	; select bank1
  9998  0768  0835               	movf	(determine_sword_was_swung@y+1)^(0+128),w
  9999  0769  3A80               	xorlw	128
 10000  076A  0020               	movlb	0	; select bank0
 10001  076B  0240               	subwf	??_determine_sword_was_swung,w
 10002  076C  1D03               	skipz
 10003  076D  2F71               	goto	u3345
 10004  076E  0021               	movlb	1	; select bank1
 10005  076F  0834               	movf	determine_sword_was_swung@y^(0+128),w
 10006  0770  022A               	subwf	determine_sword_was_swung@y_pos_thresh^(0+128),w
 10007  0771                     u3345:	
 10008  0771  1C03               	skipc
 10009  0772  2FA6               	goto	l4305
 10010  0773  0021               	movlb	1	; select bank1
 10011  0774  0835               	movf	(determine_sword_was_swung@y+1)^(0+128),w
 10012  0775  3A80               	xorlw	128
 10013  0776  0020               	movlb	0	; select bank0
 10014  0777  00C0               	movwf	??_determine_sword_was_swung
 10015  0778  0021               	movlb	1	; select bank1
 10016  0779  082D               	movf	(determine_sword_was_swung@y_neg_thresh+1)^(0+128),w
 10017  077A  3A80               	xorlw	128
 10018  077B  0020               	movlb	0	; select bank0
 10019  077C  0240               	subwf	??_determine_sword_was_swung,w
 10020  077D  1D03               	skipz
 10021  077E  2F82               	goto	u3355
 10022  077F  0021               	movlb	1	; select bank1
 10023  0780  082C               	movf	determine_sword_was_swung@y_neg_thresh^(0+128),w
 10024  0781  0234               	subwf	determine_sword_was_swung@y^(0+128),w
 10025  0782                     u3355:	
 10026  0782  1C03               	skipc
 10027  0783  2FA6               	goto	l4305
 10028  0784  0021               	movlb	1	; select bank1
 10029  0785  082F               	movf	(determine_sword_was_swung@z_pos_thresh+1)^(0+128),w
 10030  0786  3A80               	xorlw	128
 10031  0787  0020               	movlb	0	; select bank0
 10032  0788  00C0               	movwf	??_determine_sword_was_swung
 10033  0789  0021               	movlb	1	; select bank1
 10034  078A  0837               	movf	(determine_sword_was_swung@z+1)^(0+128),w
 10035  078B  3A80               	xorlw	128
 10036  078C  0020               	movlb	0	; select bank0
 10037  078D  0240               	subwf	??_determine_sword_was_swung,w
 10038  078E  1D03               	skipz
 10039  078F  2F93               	goto	u3365
 10040  0790  0021               	movlb	1	; select bank1
 10041  0791  0836               	movf	determine_sword_was_swung@z^(0+128),w
 10042  0792  022E               	subwf	determine_sword_was_swung@z_pos_thresh^(0+128),w
 10043  0793                     u3365:	
 10044  0793  1C03               	skipc
 10045  0794  2FA6               	goto	l4305
 10046  0795  0021               	movlb	1	; select bank1
 10047  0796  0837               	movf	(determine_sword_was_swung@z+1)^(0+128),w
 10048  0797  3A80               	xorlw	128
 10049  0798  0020               	movlb	0	; select bank0
 10050  0799  00C0               	movwf	??_determine_sword_was_swung
 10051  079A  0021               	movlb	1	; select bank1
 10052  079B  0831               	movf	(determine_sword_was_swung@z_neg_thresh+1)^(0+128),w
 10053  079C  3A80               	xorlw	128
 10054  079D  0020               	movlb	0	; select bank0
 10055  079E  0240               	subwf	??_determine_sword_was_swung,w
 10056  079F  1D03               	skipz
 10057  07A0  2FA4               	goto	u3375
 10058  07A1  0021               	movlb	1	; select bank1
 10059  07A2  0830               	movf	determine_sword_was_swung@z_neg_thresh^(0+128),w
 10060  07A3  0236               	subwf	determine_sword_was_swung@z^(0+128),w
 10061  07A4                     u3375:	
 10062  07A4  1803               	skipnc
 10063  07A5  2FA8               	goto	l4311
 10064  07A6                     l4305:	
 10065                           
 10066                           ;accelerometer.c: 251: {
 10067                           ;accelerometer.c: 252: return 1;
 10068  07A6  3001               	movlw	1
 10069                           
 10070                           ;accelerometer.c: 253: }
 10071  07A7  0008               	return
 10072  07A8                     l4311:	
 10073                           
 10074                           ;accelerometer.c: 254: else
 10075                           ;accelerometer.c: 255: {
 10076                           ;accelerometer.c: 256: return 0;
 10077  07A8  3000               	movlw	0
 10078  07A9  0008               	return
 10079  07AA                     __end_of_determine_sword_was_swung:	
 10080                           
 10081                           	psect	text20
 10082  1B53                     __ptext20:	
 10083 ;; *************** function _determine_packets_to_send *****************
 10084 ;; Defined at:
 10085 ;;		line 14 in file "../../source/blade_connection.c"
 10086 ;; Parameters:    Size  Location     Type
 10087 ;;  packets         1    wreg     PTR unsigned char 
 10088 ;;		 -> main@pkt_arr(3), 
 10089 ;; Auto vars:     Size  Location     Type
 10090 ;;  packets         1   33[BANK0 ] PTR unsigned char 
 10091 ;;		 -> main@pkt_arr(3), 
 10092 ;; Return value:  Size  Location     Type
 10093 ;;		None               void
 10094 ;; Registers used:
 10095 ;;		wreg, fsr1l, fsr1h, status,2, status,0, pclath, cstack
 10096 ;; Tracked objects:
 10097 ;;		On entry : 0/0
 10098 ;;		On exit  : 0/0
 10099 ;;		Unchanged: 0/0
 10100 ;; Data sizes:     COMMON   BANK0   BANK1   BANK2   BANK3   BANK4   BANK5   BANK6   BANK7   BANK8   BANK9  BANK10  BANK1
      +1  BANK12  BANK13  BANK14  BANK15  BANK16  BANK17  BANK18  BANK19  BANK20  BANK21  BANK22  BANK23  BANK24  BANK25
 10101 ;;      Params:         0       0       0       0       0       0       0       0       0       0       0       0       
      +0       0       0       0       0       0       0       0       0       0       0       0       0       0       0
 10102 ;;      Locals:         0       1       0       0       0       0       0       0       0       0       0       0       
      +0       0       0       0       0       0       0       0       0       0       0       0       0       0       0
 10103 ;;      Temps:          0       1       0       0       0       0       0       0       0       0       0       0       
      +0       0       0       0       0       0       0       0       0       0       0       0       0       0       0
 10104 ;;      Totals:         0       2       0       0       0       0       0       0       0       0       0       0       
      +0       0       0       0       0       0       0       0       0       0       0       0       0       0       0
 10105 ;;Total ram usage:        2 bytes
 10106 ;; Hardware stack levels used:    1
 10107 ;; Hardware stack levels required when called:    5
 10108 ;; This function calls:
 10109 ;;		_determine_omega_mode_active
 10110 ;; This function is called by:
 10111 ;;		_main
 10112 ;; This function uses a non-reentrant model
 10113 ;;
 10114                           
 10115                           
 10116                           ;psect for function _determine_packets_to_send
 10117  1B53                     _determine_packets_to_send:	
 10118                           
 10119                           ;incstack = 0
 10120                           ; Regs used in _determine_packets_to_send: [wreg+fsr1l+fsr1h+status,2+status,0+pclath+cs
      +                          tack]
 10121                           ;determine_packets_to_send@packets stored from wreg
 10122  1B53  0020               	movlb	0	; select bank0
 10123  1B54  00C1               	movwf	determine_packets_to_send@packets
 10124                           
 10125                           ;blade_connection.c: 16: if(determine_omega_mode_active())
 10126  1B55  3187  27FB  319B   	fcall	_determine_omega_mode_active
 10127  1B58  3A00               	xorlw	0
 10128  1B59  1903               	skipnz
 10129  1B5A  2B6A               	goto	l4321
 10130                           
 10131                           ;blade_connection.c: 17: {
 10132                           ;blade_connection.c: 20: packets[0] = 0;
 10133  1B5B  0020               	movlb	0	; select bank0
 10134  1B5C  0841               	movf	determine_packets_to_send@packets,w
 10135  1B5D  0086               	movwf	6
 10136  1B5E  0187               	clrf	7
 10137  1B5F  0181               	clrf	1
 10138                           
 10139                           ;blade_connection.c: 21: packets[1] = 0;
 10140  1B60  0A41               	incf	determine_packets_to_send@packets,w
 10141  1B61  0086               	movwf	6
 10142  1B62  0187               	clrf	7
 10143  1B63  0181               	clrf	1
 10144                           
 10145                           ;blade_connection.c: 22: packets[2] = 0;
 10146  1B64  0841               	movf	determine_packets_to_send@packets,w
 10147  1B65  3E02               	addlw	2
 10148  1B66  0086               	movwf	6
 10149  1B67  0187               	clrf	7
 10150  1B68  0181               	clrf	1
 10151                           
 10152                           ;blade_connection.c: 37: }
 10153  1B69  0008               	return
 10154  1B6A                     l4321:	
 10155                           
 10156                           ;blade_connection.c: 38: else
 10157                           ;blade_connection.c: 39: {
 10158                           ;blade_connection.c: 42: packets[0] = 2;
 10159  1B6A  3002               	movlw	2
 10160  1B6B  0020               	movlb	0	; select bank0
 10161  1B6C  00C0               	movwf	??_determine_packets_to_send
 10162  1B6D  0841               	movf	determine_packets_to_send@packets,w
 10163  1B6E  0086               	movwf	6
 10164  1B6F  0187               	clrf	7
 10165  1B70  0840               	movf	??_determine_packets_to_send,w
 10166  1B71  0081               	movwf	1
 10167                           
 10168                           ;blade_connection.c: 43: packets[1] = 0;
 10169  1B72  0A41               	incf	determine_packets_to_send@packets,w
 10170  1B73  0086               	movwf	6
 10171  1B74  0187               	clrf	7
 10172  1B75  0181               	clrf	1
 10173                           
 10174                           ;blade_connection.c: 44: packets[2] = 0;
 10175  1B76  0841               	movf	determine_packets_to_send@packets,w
 10176  1B77  3E02               	addlw	2
 10177  1B78  0086               	movwf	6
 10178  1B79  0187               	clrf	7
 10179  1B7A  0181               	clrf	1
 10180  1B7B  0008               	return
 10181  1B7C                     __end_of_determine_packets_to_send:	
 10182                           ;blade_connection.c: 59: }
 10183                           ;blade_connection.c: 61: return;
 10184                           
 10185                           
 10186                           	psect	text21
 10187  07FB                     __ptext21:	
 10188 ;; *************** function _determine_omega_mode_active *****************
 10189 ;; Defined at:
 10190 ;;		line 9 in file "../../source/blade_connection.c"
 10191 ;; Parameters:    Size  Location     Type
 10192 ;;		None
 10193 ;; Auto vars:     Size  Location     Type
 10194 ;;		None
 10195 ;; Return value:  Size  Location     Type
 10196 ;;                  1    wreg      unsigned char 
 10197 ;; Registers used:
 10198 ;;		wreg
 10199 ;; Tracked objects:
 10200 ;;		On entry : 0/0
 10201 ;;		On exit  : 0/0
 10202 ;;		Unchanged: 0/0
 10203 ;; Data sizes:     COMMON   BANK0   BANK1   BANK2   BANK3   BANK4   BANK5   BANK6   BANK7   BANK8   BANK9  BANK10  BANK1
      +1  BANK12  BANK13  BANK14  BANK15  BANK16  BANK17  BANK18  BANK19  BANK20  BANK21  BANK22  BANK23  BANK24  BANK25
 10204 ;;      Params:         0       0       0       0       0       0       0       0       0       0       0       0       
      +0       0       0       0       0       0       0       0       0       0       0       0       0       0       0
 10205 ;;      Locals:         0       0       0       0       0       0       0       0       0       0       0       0       
      +0       0       0       0       0       0       0       0       0       0       0       0       0       0       0
 10206 ;;      Temps:          0       0       0       0       0       0       0       0       0       0       0       0       
      +0       0       0       0       0       0       0       0       0       0       0       0       0       0       0
 10207 ;;      Totals:         0       0       0       0       0       0       0       0       0       0       0       0       
      +0       0       0       0       0       0       0       0       0       0       0       0       0       0       0
 10208 ;;Total ram usage:        0 bytes
 10209 ;; Hardware stack levels used:    1
 10210 ;; Hardware stack levels required when called:    4
 10211 ;; This function calls:
 10212 ;;		Nothing
 10213 ;; This function is called by:
 10214 ;;		_main
 10215 ;;		_determine_packets_to_send
 10216 ;; This function uses a non-reentrant model
 10217 ;;
 10218                           
 10219                           
 10220                           ;psect for function _determine_omega_mode_active
 10221  07FB                     _determine_omega_mode_active:	
 10222                           
 10223                           ;blade_connection.c: 11: return RA1;
 10224                           
 10225                           ;incstack = 0
 10226                           ; Regs used in _determine_omega_mode_active: [wreg]
 10227  07FB  3000               	movlw	0
 10228  07FC  0020               	movlb	0	; select bank0
 10229  07FD  188C               	btfsc	12,1	;volatile
 10230  07FE  3001               	movlw	1
 10231  07FF  0008               	return
 10232  0800                     __end_of_determine_omega_mode_active:	
 10233                           
 10234                           	psect	intentry
 10235  0004                     __pintentry:	
 10236 ;; *************** function _isr *****************
 10237 ;; Defined at:
 10238 ;;		line 37 in file "../../source/interrupt.c"
 10239 ;; Parameters:    Size  Location     Type
 10240 ;;		None
 10241 ;; Auto vars:     Size  Location     Type
 10242 ;;		None
 10243 ;; Return value:  Size  Location     Type
 10244 ;;		None               void
 10245 ;; Registers used:
 10246 ;;		wreg, status,2, status,0, pclath, cstack
 10247 ;; Tracked objects:
 10248 ;;		On entry : 0/0
 10249 ;;		On exit  : 0/0
 10250 ;;		Unchanged: 0/0
 10251 ;; Data sizes:     COMMON   BANK0   BANK1   BANK2   BANK3   BANK4   BANK5   BANK6   BANK7   BANK8   BANK9  BANK10  BANK1
      +1  BANK12  BANK13  BANK14  BANK15  BANK16  BANK17  BANK18  BANK19  BANK20  BANK21  BANK22  BANK23  BANK24  BANK25
 10252 ;;      Params:         0       0       0       0       0       0       0       0       0       0       0       0       
      +0       0       0       0       0       0       0       0       0       0       0       0       0       0       0
 10253 ;;      Locals:         0       0       0       0       0       0       0       0       0       0       0       0       
      +0       0       0       0       0       0       0       0       0       0       0       0       0       0       0
 10254 ;;      Temps:          0       2       0       0       0       0       0       0       0       0       0       0       
      +0       0       0       0       0       0       0       0       0       0       0       0       0       0       0
 10255 ;;      Totals:         0       2       0       0       0       0       0       0       0       0       0       0       
      +0       0       0       0       0       0       0       0       0       0       0       0       0       0       0
 10256 ;;Total ram usage:        2 bytes
 10257 ;; Hardware stack levels used:    1
 10258 ;; Hardware stack levels required when called:    3
 10259 ;; This function calls:
 10260 ;;		___awdiv
 10261 ;;		___awtoft
 10262 ;;		___ftge
 10263 ;;		___ftmul
 10264 ;;		___fttol
 10265 ;;		i1_determine_omega_mode_active
 10266 ;;		i1_display_blade_lights
 10267 ;;		i1_display_health
 10268 ;; This function is called by:
 10269 ;;		Interrupt level 1
 10270 ;; This function uses a non-reentrant model
 10271 ;;
 10272                           
 10273  0004                     _isr:	
 10274                           
 10275                           ;incstack = 0
 10276                           ; Regs used in _isr: [wreg+status,2+status,0+pclath+cstack]
 10277  0004  147E               	bsf	126,0	;set compiler interrupt flag (level 1)
 10278  0005  3180               	pagesel	$
 10279  0006  0020               	movlb	0	; select bank0
 10280  0007  087F               	movf	127,w
 10281  0008  00BF               	movwf	??_isr+1
 10282                           
 10283                           ;interrupt.c: 39: TMR1 = 0;
 10284  0009  0196               	clrf	22	;volatile
 10285  000A  0197               	clrf	23	;volatile
 10286                           
 10287                           ;interrupt.c: 42: if (IOCAF1)
 10288  000B  0027               	movlb	7	; select bank7
 10289  000C  1C93               	btfss	19,1	;volatile
 10290  000D  281D               	goto	i1l210
 10291                           
 10292                           ;interrupt.c: 43: {
 10293                           ;interrupt.c: 45: IOCAF1 = 0;
 10294  000E  1093               	bcf	19,1	;volatile
 10295                           
 10296                           ;interrupt.c: 47: health = 50;
 10297  000F  3032               	movlw	50
 10298  0010  0020               	movlb	0	; select bank0
 10299  0011  00BE               	movwf	??_isr
 10300  0012  083E               	movf	??_isr,w
 10301  0013  0021               	movlb	1	; select bank1
 10302  0014  00C5               	movwf	_health^(0+128)
 10303                           
 10304                           ;interrupt.c: 48: display_health();
 10305  0015  319C  24A5  3180   	fcall	i1_display_health
 10306                           
 10307                           ;interrupt.c: 49: display_blade_lights(2);
 10308  0018  3002               	movlw	2
 10309  0019  318C  248B  3180   	fcall	i1_display_blade_lights
 10310                           
 10311                           ;interrupt.c: 50: }
 10312  001C  296F               	goto	i1l211
 10313  001D                     i1l210:	
 10314                           
 10315                           ;interrupt.c: 52: else if (IOCAFbits.IOCAF4)
 10316  001D  1E13               	btfss	19,4	;volatile
 10317  001E  296F               	goto	i1l211
 10318                           
 10319                           ;interrupt.c: 53: {
 10320                           ;interrupt.c: 54: IOCAF &= 0b11101111;
 10321  001F  30EF               	movlw	239
 10322  0020  0020               	movlb	0	; select bank0
 10323  0021  00BE               	movwf	??_isr
 10324  0022  083E               	movf	??_isr,w
 10325  0023  0027               	movlb	7	; select bank7
 10326  0024  0593               	andwf	19,f	;volatile
 10327  0025                     i1l213:	
 10328                           ;interrupt.c: 56: while(PORTAbits.RA4)
 10329                           
 10330  0025  0020               	movlb	0	; select bank0
 10331  0026  1E0C               	btfss	12,4	;volatile
 10332  0027  2831               	goto	i1l4961
 10333                           
 10334                           ;interrupt.c: 57: {
 10335                           ;interrupt.c: 58: if(TMR1 >= 2678)
 10336  0028  300A               	movlw	10
 10337  0029  0020               	movlb	0	; select bank0
 10338  002A  0217               	subwf	23,w	;volatile
 10339  002B  3076               	movlw	118
 10340  002C  1903               	skipnz
 10341  002D  0216               	subwf	22,w	;volatile
 10342  002E  1803               	btfsc	3,0
 10343  002F  2971               	goto	i1l216
 10344  0030  2825               	goto	i1l213
 10345  0031                     i1l4961:	
 10346                           ;interrupt.c: 59: {
 10347                           ;interrupt.c: 60: return;
 10348                           
 10349                           
 10350                           ;interrupt.c: 61: }
 10351                           ;interrupt.c: 62: }
 10352                           ;interrupt.c: 63: TMR1 = 0;
 10353  0031  0196               	clrf	22	;volatile
 10354  0032  0197               	clrf	23	;volatile
 10355  0033                     i1l218:	
 10356                           ;interrupt.c: 64: while(!PORTAbits.RA4)
 10357                           
 10358  0033  1A0C               	btfsc	12,4	;volatile
 10359  0034  283D               	goto	i1l4967
 10360                           
 10361                           ;interrupt.c: 65: {
 10362                           ;interrupt.c: 66: if(TMR1 >= 2678)
 10363  0035  300A               	movlw	10
 10364  0036  0217               	subwf	23,w	;volatile
 10365  0037  3076               	movlw	118
 10366  0038  1903               	skipnz
 10367  0039  0216               	subwf	22,w	;volatile
 10368  003A  1803               	btfsc	3,0
 10369  003B  2971               	goto	i1l216
 10370  003C  2833               	goto	i1l218
 10371  003D                     i1l4967:	
 10372                           ;interrupt.c: 67: {
 10373                           ;interrupt.c: 68: return;
 10374                           
 10375                           
 10376                           ;interrupt.c: 69: }
 10377                           ;interrupt.c: 70: }
 10378                           ;interrupt.c: 71: TMR1 = 0;
 10379  003D  0196               	clrf	22	;volatile
 10380  003E  0197               	clrf	23	;volatile
 10381  003F                     i1l222:	
 10382                           ;interrupt.c: 72: while(PORTAbits.RA4)
 10383                           
 10384  003F  1E0C               	btfss	12,4	;volatile
 10385  0040  2849               	goto	i1l4973
 10386                           
 10387                           ;interrupt.c: 73: {
 10388                           ;interrupt.c: 74: if(TMR1 >= 2678)
 10389  0041  300A               	movlw	10
 10390  0042  0217               	subwf	23,w	;volatile
 10391  0043  3076               	movlw	118
 10392  0044  1903               	skipnz
 10393  0045  0216               	subwf	22,w	;volatile
 10394  0046  1803               	btfsc	3,0
 10395  0047  2971               	goto	i1l216
 10396  0048  283F               	goto	i1l222
 10397  0049                     i1l4973:	
 10398                           ;interrupt.c: 75: {
 10399                           ;interrupt.c: 76: return;
 10400                           
 10401                           
 10402                           ;interrupt.c: 77: }
 10403                           ;interrupt.c: 78: }
 10404                           ;interrupt.c: 79: D1cycles = TMR1;
 10405  0049  0817               	movf	23,w	;volatile
 10406  004A  00C9               	movwf	_D1cycles+1	;volatile
 10407  004B  0816               	movf	22,w	;volatile
 10408  004C  00C8               	movwf	_D1cycles	;volatile
 10409                           
 10410                           ;interrupt.c: 80: TMR1 = 0;
 10411  004D  0196               	clrf	22	;volatile
 10412  004E  0197               	clrf	23	;volatile
 10413  004F                     i1l226:	
 10414                           ;interrupt.c: 81: while(!PORTAbits.RA4)
 10415                           
 10416  004F  1A0C               	btfsc	12,4	;volatile
 10417  0050  2859               	goto	i1l4981
 10418                           
 10419                           ;interrupt.c: 82: {
 10420                           ;interrupt.c: 83: if(TMR1 >= 2678)
 10421  0051  300A               	movlw	10
 10422  0052  0217               	subwf	23,w	;volatile
 10423  0053  3076               	movlw	118
 10424  0054  1903               	skipnz
 10425  0055  0216               	subwf	22,w	;volatile
 10426  0056  1803               	btfsc	3,0
 10427  0057  2971               	goto	i1l216
 10428  0058  284F               	goto	i1l226
 10429  0059                     i1l4981:	
 10430                           ;interrupt.c: 84: {
 10431                           ;interrupt.c: 85: return;
 10432                           
 10433                           
 10434                           ;interrupt.c: 86: }
 10435                           ;interrupt.c: 87: }
 10436                           ;interrupt.c: 88: TMR1 = 0;
 10437  0059  0196               	clrf	22	;volatile
 10438  005A  0197               	clrf	23	;volatile
 10439  005B                     i1l230:	
 10440                           ;interrupt.c: 89: while(PORTAbits.RA4)
 10441                           
 10442  005B  1E0C               	btfss	12,4	;volatile
 10443  005C  2865               	goto	i1l4987
 10444                           
 10445                           ;interrupt.c: 90: {
 10446                           ;interrupt.c: 91: if(TMR1 >= 2678)
 10447  005D  300A               	movlw	10
 10448  005E  0217               	subwf	23,w	;volatile
 10449  005F  3076               	movlw	118
 10450  0060  1903               	skipnz
 10451  0061  0216               	subwf	22,w	;volatile
 10452  0062  1803               	btfsc	3,0
 10453  0063  2971               	goto	i1l216
 10454  0064  285B               	goto	i1l230
 10455  0065                     i1l4987:	
 10456                           ;interrupt.c: 92: {
 10457                           ;interrupt.c: 93: return;
 10458                           
 10459                           
 10460                           ;interrupt.c: 94: }
 10461                           ;interrupt.c: 95: }
 10462                           ;interrupt.c: 97: D2cycles = TMR1;
 10463  0065  0817               	movf	23,w	;volatile
 10464  0066  00CB               	movwf	_D2cycles+1	;volatile
 10465  0067  0816               	movf	22,w	;volatile
 10466  0068  00CA               	movwf	_D2cycles	;volatile
 10467                           
 10468                           ;interrupt.c: 101: if((D1cycles > (D2cycles * 1.1)) || (D2cycles > (D1cycles * 1.1)))
 10469  0069  30CD               	movlw	205
 10470  006A  00A0               	movwf	___ftmul@f1
 10471  006B  308C               	movlw	140
 10472  006C  00A1               	movwf	___ftmul@f1+1
 10473  006D  303F               	movlw	63
 10474  006E  00A2               	movwf	___ftmul@f1+2
 10475  006F  084B               	movf	_D2cycles+1,w	;volatile
 10476  0070  00F9               	movwf	___awtoft@c+1
 10477  0071  084A               	movf	_D2cycles,w	;volatile
 10478  0072  00F8               	movwf	___awtoft@c
 10479  0073  319B  2333  3180   	fcall	___awtoft
 10480  0076  0878               	movf	?___awtoft,w
 10481  0077  0020               	movlb	0	; select bank0
 10482  0078  00A3               	movwf	___ftmul@f2
 10483  0079  0879               	movf	?___awtoft+1,w
 10484  007A  00A4               	movwf	___ftmul@f2+1
 10485  007B  087A               	movf	?___awtoft+2,w
 10486  007C  00A5               	movwf	___ftmul@f2+2
 10487  007D  319D  25D7  3180   	fcall	___ftmul
 10488  0080  0020               	movlb	0	; select bank0
 10489  0081  0820               	movf	?___ftmul,w
 10490  0082  00B0               	movwf	___ftge@ff1
 10491  0083  0821               	movf	?___ftmul+1,w
 10492  0084  00B1               	movwf	___ftge@ff1+1
 10493  0085  0822               	movf	?___ftmul+2,w
 10494  0086  00B2               	movwf	___ftge@ff1+2
 10495  0087  0849               	movf	_D1cycles+1,w	;volatile
 10496  0088  00F9               	movwf	___awtoft@c+1
 10497  0089  0848               	movf	_D1cycles,w	;volatile
 10498  008A  00F8               	movwf	___awtoft@c
 10499  008B  319B  2333  3180   	fcall	___awtoft
 10500  008E  0878               	movf	?___awtoft,w
 10501  008F  0020               	movlb	0	; select bank0
 10502  0090  00B3               	movwf	___ftge@ff2
 10503  0091  0879               	movf	?___awtoft+1,w
 10504  0092  00B4               	movwf	___ftge@ff2+1
 10505  0093  087A               	movf	?___awtoft+2,w
 10506  0094  00B5               	movwf	___ftge@ff2+2
 10507  0095  319B  23E2  3180   	fcall	___ftge
 10508  0098  1C03               	btfss	3,0
 10509  0099  2971               	goto	i1l216
 10510  009A  30CD               	movlw	205
 10511  009B  0020               	movlb	0	; select bank0
 10512  009C  00A0               	movwf	___ftmul@f1
 10513  009D  308C               	movlw	140
 10514  009E  00A1               	movwf	___ftmul@f1+1
 10515  009F  303F               	movlw	63
 10516  00A0  00A2               	movwf	___ftmul@f1+2
 10517  00A1  0849               	movf	_D1cycles+1,w	;volatile
 10518  00A2  00F9               	movwf	___awtoft@c+1
 10519  00A3  0848               	movf	_D1cycles,w	;volatile
 10520  00A4  00F8               	movwf	___awtoft@c
 10521  00A5  319B  2333  3180   	fcall	___awtoft
 10522  00A8  0878               	movf	?___awtoft,w
 10523  00A9  0020               	movlb	0	; select bank0
 10524  00AA  00A3               	movwf	___ftmul@f2
 10525  00AB  0879               	movf	?___awtoft+1,w
 10526  00AC  00A4               	movwf	___ftmul@f2+1
 10527  00AD  087A               	movf	?___awtoft+2,w
 10528  00AE  00A5               	movwf	___ftmul@f2+2
 10529  00AF  319D  25D7  3180   	fcall	___ftmul
 10530  00B2  0020               	movlb	0	; select bank0
 10531  00B3  0820               	movf	?___ftmul,w
 10532  00B4  00B0               	movwf	___ftge@ff1
 10533  00B5  0821               	movf	?___ftmul+1,w
 10534  00B6  00B1               	movwf	___ftge@ff1+1
 10535  00B7  0822               	movf	?___ftmul+2,w
 10536  00B8  00B2               	movwf	___ftge@ff1+2
 10537  00B9  084B               	movf	_D2cycles+1,w	;volatile
 10538  00BA  00F9               	movwf	___awtoft@c+1
 10539  00BB  084A               	movf	_D2cycles,w	;volatile
 10540  00BC  00F8               	movwf	___awtoft@c
 10541  00BD  319B  2333  3180   	fcall	___awtoft
 10542  00C0  0878               	movf	?___awtoft,w
 10543  00C1  0020               	movlb	0	; select bank0
 10544  00C2  00B3               	movwf	___ftge@ff2
 10545  00C3  0879               	movf	?___awtoft+1,w
 10546  00C4  00B4               	movwf	___ftge@ff2+1
 10547  00C5  087A               	movf	?___awtoft+2,w
 10548  00C6  00B5               	movwf	___ftge@ff2+2
 10549  00C7  319B  23E2  3180   	fcall	___ftge
 10550  00CA  1C03               	btfss	3,0
 10551  00CB  2971               	goto	i1l216
 10552                           
 10553                           ;interrupt.c: 104: }
 10554                           ;interrupt.c: 106: Davgcycles = (D1cycles + D2cycles) / 2;
 10555                           
 10556                           ;interrupt.c: 102: {
 10557                           ;interrupt.c: 103: return;
 10558  00CC  3002               	movlw	2
 10559  00CD  00F0               	movwf	___awdiv@divisor
 10560  00CE  3000               	movlw	0
 10561  00CF  00F1               	movwf	___awdiv@divisor+1
 10562  00D0  0020               	movlb	0	; select bank0
 10563  00D1  084A               	movf	_D2cycles,w	;volatile
 10564  00D2  0748               	addwf	_D1cycles,w	;volatile
 10565  00D3  00F2               	movwf	___awdiv@dividend
 10566  00D4  084B               	movf	_D2cycles+1,w	;volatile
 10567  00D5  3D49               	addwfc	_D1cycles+1,w	;volatile
 10568  00D6  00F3               	movwf	___awdiv@dividend+1
 10569  00D7  3187  27AA  3180   	fcall	___awdiv
 10570  00DA  0871               	movf	?___awdiv+1,w
 10571  00DB  0020               	movlb	0	; select bank0
 10572  00DC  00CD               	movwf	_Davgcycles+1	;volatile
 10573  00DD  0870               	movf	?___awdiv,w
 10574  00DE  00CC               	movwf	_Davgcycles	;volatile
 10575                           
 10576                           ;interrupt.c: 107: numPackets = Davgcycles * 17.85;
 10577  00DF  084D               	movf	_Davgcycles+1,w	;volatile
 10578  00E0  00F9               	movwf	___awtoft@c+1
 10579  00E1  084C               	movf	_Davgcycles,w	;volatile
 10580  00E2  00F8               	movwf	___awtoft@c
 10581  00E3  319B  2333  3180   	fcall	___awtoft
 10582  00E6  0878               	movf	?___awtoft,w
 10583  00E7  0020               	movlb	0	; select bank0
 10584  00E8  00A3               	movwf	___ftmul@f2
 10585  00E9  0879               	movf	?___awtoft+1,w
 10586  00EA  00A4               	movwf	___ftmul@f2+1
 10587  00EB  087A               	movf	?___awtoft+2,w
 10588  00EC  00A5               	movwf	___ftmul@f2+2
 10589  00ED  30CD               	movlw	205
 10590  00EE  00A0               	movwf	___ftmul@f1
 10591  00EF  308E               	movlw	142
 10592  00F0  00A1               	movwf	___ftmul@f1+1
 10593  00F1  3041               	movlw	65
 10594  00F2  00A2               	movwf	___ftmul@f1+2
 10595  00F3  319D  25D7  3180   	fcall	___ftmul
 10596  00F6  0020               	movlb	0	; select bank0
 10597  00F7  0820               	movf	?___ftmul,w
 10598  00F8  00B0               	movwf	___fttol@f1
 10599  00F9  0821               	movf	?___ftmul+1,w
 10600  00FA  00B1               	movwf	___fttol@f1+1
 10601  00FB  0822               	movf	?___ftmul+2,w
 10602  00FC  00B2               	movwf	___fttol@f1+2
 10603  00FD  319C  241E  3180   	fcall	___fttol
 10604  0100  0020               	movlb	0	; select bank0
 10605  0101  0831               	movf	?___fttol+1,w
 10606  0102  00CF               	movwf	_numPackets+1	;volatile
 10607  0103  0830               	movf	?___fttol,w
 10608  0104  00CE               	movwf	_numPackets	;volatile
 10609                           
 10610                           ;interrupt.c: 109: if(numPackets >= 6000 && numPackets <7500)
 10611  0105  084F               	movf	_numPackets+1,w	;volatile
 10612  0106  3A80               	xorlw	128
 10613  0107  00BE               	movwf	??_isr
 10614  0108  3097               	movlw	151
 10615  0109  023E               	subwf	??_isr,w
 10616  010A  1D03               	skipz
 10617  010B  290E               	goto	u428_25
 10618  010C  3070               	movlw	112
 10619  010D  024E               	subwf	_numPackets,w	;volatile
 10620  010E                     u428_25:	
 10621  010E  1C03               	skipc
 10622  010F  292C               	goto	i1l5011
 10623  0110  0020               	movlb	0	; select bank0
 10624  0111  084F               	movf	_numPackets+1,w	;volatile
 10625  0112  3A80               	xorlw	128
 10626  0113  00BE               	movwf	??_isr
 10627  0114  309D               	movlw	157
 10628  0115  023E               	subwf	??_isr,w
 10629  0116  1D03               	skipz
 10630  0117  291A               	goto	u429_25
 10631  0118  304C               	movlw	76
 10632  0119  024E               	subwf	_numPackets,w	;volatile
 10633  011A                     u429_25:	
 10634  011A  1803               	skipnc
 10635  011B  292C               	goto	i1l5011
 10636                           
 10637                           ;interrupt.c: 110: {
 10638                           ;interrupt.c: 111: if( (health > 0) && (!determine_omega_mode_active()) )
 10639  011C  0021               	movlb	1	; select bank1
 10640  011D  0845               	movf	_health^(0+128),w
 10641  011E  1903               	btfsc	3,2
 10642  011F  2971               	goto	i1l216
 10643  0120  3188  2000  3180   	fcall	i1_determine_omega_mode_active
 10644  0123  3A00               	xorlw	0
 10645  0124  1D03               	skipz
 10646  0125  2971               	goto	i1l216
 10647                           
 10648                           ;interrupt.c: 112: {
 10649                           ;interrupt.c: 113: health--;
 10650  0126  3001               	movlw	1
 10651  0127  0021               	movlb	1	; select bank1
 10652  0128  02C5               	subwf	_health^(0+128),f
 10653                           
 10654                           ;interrupt.c: 114: damage_received = 1;
 10655  0129  01C3               	clrf	_damage_received^(0+128)
 10656  012A  0AC3               	incf	_damage_received^(0+128),f
 10657                           
 10658                           ;interrupt.c: 117: }
 10659                           
 10660                           ;interrupt.c: 115: }
 10661                           ;interrupt.c: 116: return;
 10662  012B  2971               	goto	i1l216
 10663  012C                     i1l5011:	
 10664                           
 10665                           ;interrupt.c: 118: else if(numPackets >= 10000 && numPackets < 12000)
 10666  012C  0020               	movlb	0	; select bank0
 10667  012D  084F               	movf	_numPackets+1,w	;volatile
 10668  012E  3A80               	xorlw	128
 10669  012F  00BE               	movwf	??_isr
 10670  0130  30A7               	movlw	167
 10671  0131  023E               	subwf	??_isr,w
 10672  0132  1D03               	skipz
 10673  0133  2936               	goto	u432_25
 10674  0134  3010               	movlw	16
 10675  0135  024E               	subwf	_numPackets,w	;volatile
 10676  0136                     u432_25:	
 10677  0136  1C03               	skipc
 10678  0137  2950               	goto	i1l5023
 10679  0138  0020               	movlb	0	; select bank0
 10680  0139  084F               	movf	_numPackets+1,w	;volatile
 10681  013A  3A80               	xorlw	128
 10682  013B  00BE               	movwf	??_isr
 10683  013C  30AE               	movlw	174
 10684  013D  023E               	subwf	??_isr,w
 10685  013E  1D03               	skipz
 10686  013F  2942               	goto	u433_25
 10687  0140  30E0               	movlw	224
 10688  0141  024E               	subwf	_numPackets,w	;volatile
 10689  0142                     u433_25:	
 10690  0142  1803               	skipnc
 10691  0143  2950               	goto	i1l5023
 10692                           
 10693                           ;interrupt.c: 119: {
 10694                           ;interrupt.c: 120: if(health < 50)
 10695  0144  3032               	movlw	50
 10696  0145  0021               	movlb	1	; select bank1
 10697  0146  0245               	subwf	_health^(0+128),w
 10698  0147  1803               	skipnc
 10699  0148  2971               	goto	i1l216
 10700                           
 10701                           ;interrupt.c: 121: {
 10702                           ;interrupt.c: 122: health++;
 10703  0149  3001               	movlw	1
 10704  014A  0020               	movlb	0	; select bank0
 10705  014B  00BE               	movwf	??_isr
 10706  014C  083E               	movf	??_isr,w
 10707  014D  0021               	movlb	1	; select bank1
 10708  014E  07C5               	addwf	_health^(0+128),f
 10709                           
 10710                           ;interrupt.c: 125: }
 10711                           
 10712                           ;interrupt.c: 123: }
 10713                           ;interrupt.c: 124: return;
 10714  014F  2971               	goto	i1l216
 10715  0150                     i1l5023:	
 10716                           
 10717                           ;interrupt.c: 126: else if(numPackets >= 13000 && numPackets < 15000)
 10718  0150  0020               	movlb	0	; select bank0
 10719  0151  084F               	movf	_numPackets+1,w	;volatile
 10720  0152  3A80               	xorlw	128
 10721  0153  00BE               	movwf	??_isr
 10722  0154  30B2               	movlw	178
 10723  0155  023E               	subwf	??_isr,w
 10724  0156  1D03               	skipz
 10725  0157  295A               	goto	u435_25
 10726  0158  30C8               	movlw	200
 10727  0159  024E               	subwf	_numPackets,w	;volatile
 10728  015A                     u435_25:	
 10729  015A  1C03               	skipc
 10730  015B  2971               	goto	i1l216
 10731  015C  0020               	movlb	0	; select bank0
 10732  015D  084F               	movf	_numPackets+1,w	;volatile
 10733  015E  3A80               	xorlw	128
 10734  015F  00BE               	movwf	??_isr
 10735  0160  30BA               	movlw	186
 10736  0161  023E               	subwf	??_isr,w
 10737  0162  1D03               	skipz
 10738  0163  2966               	goto	u436_25
 10739  0164  3098               	movlw	152
 10740  0165  024E               	subwf	_numPackets,w	;volatile
 10741  0166                     u436_25:	
 10742  0166  1803               	skipnc
 10743  0167  2971               	goto	i1l216
 10744                           
 10745                           ;interrupt.c: 127: {
 10746                           ;interrupt.c: 128: stun_counter++;
 10747  0168  3001               	movlw	1
 10748  0169  0020               	movlb	0	; select bank0
 10749  016A  00BE               	movwf	??_isr
 10750  016B  083E               	movf	??_isr,w
 10751  016C  0021               	movlb	1	; select bank1
 10752  016D  07C4               	addwf	_stun_counter^(0+128),f
 10753                           
 10754                           ;interrupt.c: 130: }
 10755                           ;interrupt.c: 131: return;
 10756                           
 10757                           ;interrupt.c: 129: return;
 10758  016E  2971               	goto	i1l216
 10759  016F                     i1l211:	
 10760                           
 10761                           ;interrupt.c: 133: }
 10762                           ;interrupt.c: 135: IOCAF1 = 0;
 10763  016F  0027               	movlb	7	; select bank7
 10764  0170  1093               	bcf	19,1	;volatile
 10765  0171                     i1l216:	
 10766  0171  0020               	movlb	0	; select bank0
 10767  0172  083F               	movf	??_isr+1,w
 10768  0173  00FF               	movwf	127
 10769  0174  107E               	bcf	126,0	;clear compiler interrupt flag (level 1)
 10770  0175  0009               	retfie
 10771  0176                     __end_of_isr:	
 10772                           
 10773                           	psect	text23
 10774  1CA5                     __ptext23:	
 10775 ;; *************** function i1_display_health *****************
 10776 ;; Defined at:
 10777 ;;		line 166 in file "../../source/lighting.c"
 10778 ;; Parameters:    Size  Location     Type
 10779 ;;		None
 10780 ;; Auto vars:     Size  Location     Type
 10781 ;;		None
 10782 ;; Return value:  Size  Location     Type
 10783 ;;		None               void
 10784 ;; Registers used:
 10785 ;;		wreg, status,2, status,0
 10786 ;; Tracked objects:
 10787 ;;		On entry : 0/0
 10788 ;;		On exit  : 0/0
 10789 ;;		Unchanged: 0/0
 10790 ;; Data sizes:     COMMON   BANK0   BANK1   BANK2   BANK3   BANK4   BANK5   BANK6   BANK7   BANK8   BANK9  BANK10  BANK1
      +1  BANK12  BANK13  BANK14  BANK15  BANK16  BANK17  BANK18  BANK19  BANK20  BANK21  BANK22  BANK23  BANK24  BANK25
 10791 ;;      Params:         0       0       0       0       0       0       0       0       0       0       0       0       
      +0       0       0       0       0       0       0       0       0       0       0       0       0       0       0
 10792 ;;      Locals:         0       0       0       0       0       0       0       0       0       0       0       0       
      +0       0       0       0       0       0       0       0       0       0       0       0       0       0       0
 10793 ;;      Temps:          3       0       0       0       0       0       0       0       0       0       0       0       
      +0       0       0       0       0       0       0       0       0       0       0       0       0       0       0
 10794 ;;      Totals:         3       0       0       0       0       0       0       0       0       0       0       0       
      +0       0       0       0       0       0       0       0       0       0       0       0       0       0       0
 10795 ;;Total ram usage:        3 bytes
 10796 ;; Hardware stack levels used:    1
 10797 ;; This function calls:
 10798 ;;		Nothing
 10799 ;; This function is called by:
 10800 ;;		_isr
 10801 ;; This function uses a non-reentrant model
 10802 ;;
 10803                           
 10804                           
 10805                           ;psect for function i1_display_health
 10806  1CA5                     i1_display_health:	
 10807  1CA5                     i1l4607:	
 10808                           ;lighting.c: 168: while(health == 0)
 10809                           
 10810                           ;incstack = 0
 10811                           ; Regs used in i1_display_health: [wreg+status,2+status,0]
 10812                           
 10813  1CA5  0021               	movlb	1	; select bank1
 10814  1CA6  0845               	movf	_health^(0+128),w
 10815  1CA7  1D03               	btfss	3,2
 10816  1CA8  2CE6               	goto	i1l4609
 10817                           
 10818                           ;lighting.c: 169: {
 10819                           ;lighting.c: 172: PSMC2DCH = 0x00;
 10820  1CA9  003D               	movlb	29	; select bank29
 10821  1CAA  01C4               	clrf	68	;volatile
 10822                           
 10823                           ;lighting.c: 173: PSMC2DCL = 0x00;
 10824  1CAB  01C3               	clrf	67	;volatile
 10825                           
 10826                           ;lighting.c: 174: PSMC2LD = 1;
 10827  1CAC  1731               	bsf	49,6	;volatile
 10828                           
 10829                           ;lighting.c: 176: PSMC3DCH = 0x00;
 10830  1CAD  01E4               	clrf	100	;volatile
 10831                           
 10832                           ;lighting.c: 177: PSMC3DCL = 0x00;
 10833  1CAE  01E3               	clrf	99	;volatile
 10834                           
 10835                           ;lighting.c: 178: PSMC3LD = 1;
 10836  1CAF  1751               	bsf	81,6	;volatile
 10837                           
 10838                           ;lighting.c: 180: PSMC4DCH = 0xFF;
 10839  1CB0  30FF               	movlw	255
 10840  1CB1  003E               	movlb	30	; select bank30
 10841  1CB2  00A4               	movwf	36	;volatile
 10842                           
 10843                           ;lighting.c: 181: PSMC4DCL = 0xFF;
 10844  1CB3  30FF               	movlw	255
 10845  1CB4  00A3               	movwf	35	;volatile
 10846                           
 10847                           ;lighting.c: 182: PSMC4LD = 1;
 10848  1CB5  1711               	bsf	17,6	;volatile
 10849                           
 10850                           ;lighting.c: 184: PSMC2LD = 1;
 10851  1CB6  003D               	movlb	29	; select bank29
 10852  1CB7  1731               	bsf	49,6	;volatile
 10853                           
 10854                           ;lighting.c: 185: PSMC3LD = 1;
 10855  1CB8  1751               	bsf	81,6	;volatile
 10856                           
 10857                           ;lighting.c: 186: PSMC4LD = 1;
 10858  1CB9  003E               	movlb	30	; select bank30
 10859  1CBA  1711               	bsf	17,6	;volatile
 10860                           
 10861                           ;lighting.c: 188: _delay((unsigned long)((500)*(32000000/4000.0)));
 10862  1CBB  3015               	movlw	21
 10863  1CBC  00F2               	movwf	??i1_display_health+2
 10864  1CBD  304B               	movlw	75
 10865  1CBE  00F1               	movwf	??i1_display_health+1
 10866  1CBF  30D1               	movlw	209
 10867  1CC0  00F0               	movwf	??i1_display_health
 10868  1CC1                     u570_27:	
 10869  1CC1  0BF0               	decfsz	??i1_display_health,f
 10870  1CC2  2CC1               	goto	u570_27
 10871  1CC3  0BF1               	decfsz	??i1_display_health+1,f
 10872  1CC4  2CC1               	goto	u570_27
 10873  1CC5  0BF2               	decfsz	??i1_display_health+2,f
 10874  1CC6  2CC1               	goto	u570_27
 10875  1CC7  0000               	nop
 10876                           
 10877                           ;lighting.c: 192: PSMC2DCH = 0x00;
 10878  1CC8  003D               	movlb	29	; select bank29
 10879  1CC9  01C4               	clrf	68	;volatile
 10880                           
 10881                           ;lighting.c: 193: PSMC2DCL = 0x00;
 10882  1CCA  01C3               	clrf	67	;volatile
 10883                           
 10884                           ;lighting.c: 194: PSMC2LD = 1;
 10885  1CCB  1731               	bsf	49,6	;volatile
 10886                           
 10887                           ;lighting.c: 196: PSMC3DCH = 0x00;
 10888  1CCC  01E4               	clrf	100	;volatile
 10889                           
 10890                           ;lighting.c: 197: PSMC3DCL = 0x00;
 10891  1CCD  01E3               	clrf	99	;volatile
 10892                           
 10893                           ;lighting.c: 198: PSMC3LD = 1;
 10894  1CCE  1751               	bsf	81,6	;volatile
 10895                           
 10896                           ;lighting.c: 200: PSMC4DCH = 0x00;
 10897  1CCF  003E               	movlb	30	; select bank30
 10898  1CD0  01A4               	clrf	36	;volatile
 10899                           
 10900                           ;lighting.c: 201: PSMC4DCL = 0x00;
 10901  1CD1  01A3               	clrf	35	;volatile
 10902                           
 10903                           ;lighting.c: 202: PSMC4LD = 1;
 10904  1CD2  1711               	bsf	17,6	;volatile
 10905                           
 10906                           ;lighting.c: 204: PSMC2LD = 1;
 10907  1CD3  003D               	movlb	29	; select bank29
 10908  1CD4  1731               	bsf	49,6	;volatile
 10909                           
 10910                           ;lighting.c: 205: PSMC3LD = 1;
 10911  1CD5  1751               	bsf	81,6	;volatile
 10912                           
 10913                           ;lighting.c: 206: PSMC4LD = 1;
 10914  1CD6  003E               	movlb	30	; select bank30
 10915  1CD7  1711               	bsf	17,6	;volatile
 10916                           
 10917                           ;lighting.c: 208: _delay((unsigned long)((500)*(32000000/4000.0)));
 10918  1CD8  3015               	movlw	21
 10919  1CD9  00F2               	movwf	??i1_display_health+2
 10920  1CDA  304B               	movlw	75
 10921  1CDB  00F1               	movwf	??i1_display_health+1
 10922  1CDC  30D1               	movlw	209
 10923  1CDD  00F0               	movwf	??i1_display_health
 10924  1CDE                     u571_27:	
 10925  1CDE  0BF0               	decfsz	??i1_display_health,f
 10926  1CDF  2CDE               	goto	u571_27
 10927  1CE0  0BF1               	decfsz	??i1_display_health+1,f
 10928  1CE1  2CDE               	goto	u571_27
 10929  1CE2  0BF2               	decfsz	??i1_display_health+2,f
 10930  1CE3  2CDE               	goto	u571_27
 10931  1CE4  0000               	nop
 10932  1CE5  2CA5               	goto	i1l4607
 10933  1CE6                     i1l4609:	
 10934                           
 10935                           ;lighting.c: 209: }
 10936                           ;lighting.c: 211: if(health <= 10)
 10937  1CE6  300B               	movlw	11
 10938  1CE7  0245               	subwf	_health^(0+128),w
 10939  1CE8  1803               	skipnc
 10940  1CE9  2CFD               	goto	i1l4629
 10941                           
 10942                           ;lighting.c: 212: {
 10943                           ;lighting.c: 215: PSMC2DCH = 0x00;
 10944  1CEA  003D               	movlb	29	; select bank29
 10945  1CEB  01C4               	clrf	68	;volatile
 10946                           
 10947                           ;lighting.c: 216: PSMC2DCL = 0x00;
 10948  1CEC  01C3               	clrf	67	;volatile
 10949                           
 10950                           ;lighting.c: 217: PSMC2LD = 1;
 10951  1CED  1731               	bsf	49,6	;volatile
 10952                           
 10953                           ;lighting.c: 219: PSMC3DCH = 0x00;
 10954  1CEE  01E4               	clrf	100	;volatile
 10955                           
 10956                           ;lighting.c: 220: PSMC3DCL = 0x00;
 10957  1CEF  01E3               	clrf	99	;volatile
 10958                           
 10959                           ;lighting.c: 221: PSMC3LD = 1;
 10960  1CF0  1751               	bsf	81,6	;volatile
 10961                           
 10962                           ;lighting.c: 223: PSMC4DCH = 0xFF;
 10963  1CF1  30FF               	movlw	255
 10964  1CF2  003E               	movlb	30	; select bank30
 10965  1CF3  00A4               	movwf	36	;volatile
 10966                           
 10967                           ;lighting.c: 224: PSMC4DCL = 0xFF;
 10968  1CF4  30FF               	movlw	255
 10969  1CF5  00A3               	movwf	35	;volatile
 10970                           
 10971                           ;lighting.c: 225: PSMC4LD = 1;
 10972  1CF6  1711               	bsf	17,6	;volatile
 10973                           
 10974                           ;lighting.c: 227: PSMC2LD = 1;
 10975  1CF7  003D               	movlb	29	; select bank29
 10976  1CF8  1731               	bsf	49,6	;volatile
 10977                           
 10978                           ;lighting.c: 228: PSMC3LD = 1;
 10979  1CF9  1751               	bsf	81,6	;volatile
 10980                           
 10981                           ;lighting.c: 229: PSMC4LD = 1;
 10982  1CFA  003E               	movlb	30	; select bank30
 10983  1CFB  1711               	bsf	17,6	;volatile
 10984                           
 10985                           ;lighting.c: 230: }
 10986  1CFC  0008               	return
 10987  1CFD                     i1l4629:	
 10988                           
 10989                           ;lighting.c: 231: else if(10 < health && health < 35)
 10990  1CFD  300B               	movlw	11
 10991  1CFE  0021               	movlb	1	; select bank1
 10992  1CFF  0245               	subwf	_health^(0+128),w
 10993  1D00  1C03               	skipc
 10994  1D01  2D1A               	goto	i1l4653
 10995  1D02  3023               	movlw	35
 10996  1D03  0245               	subwf	_health^(0+128),w
 10997  1D04  1803               	skipnc
 10998  1D05  2D1A               	goto	i1l4653
 10999                           
 11000                           ;lighting.c: 232: {
 11001                           ;lighting.c: 235: PSMC2DCH = 0xFF;
 11002  1D06  30FF               	movlw	255
 11003  1D07  003D               	movlb	29	; select bank29
 11004  1D08  00C4               	movwf	68	;volatile
 11005                           
 11006                           ;lighting.c: 236: PSMC2DCL = 0xFF;
 11007  1D09  30FF               	movlw	255
 11008  1D0A  00C3               	movwf	67	;volatile
 11009                           
 11010                           ;lighting.c: 237: PSMC2LD = 1;
 11011  1D0B  1731               	bsf	49,6	;volatile
 11012                           
 11013                           ;lighting.c: 239: PSMC3DCH = 0x00;
 11014  1D0C  01E4               	clrf	100	;volatile
 11015                           
 11016                           ;lighting.c: 240: PSMC3DCL = 0x00;
 11017  1D0D  01E3               	clrf	99	;volatile
 11018                           
 11019                           ;lighting.c: 241: PSMC3LD = 1;
 11020  1D0E  1751               	bsf	81,6	;volatile
 11021                           
 11022                           ;lighting.c: 243: PSMC4DCH = 0xFF;
 11023  1D0F  30FF               	movlw	255
 11024  1D10  003E               	movlb	30	; select bank30
 11025  1D11  00A4               	movwf	36	;volatile
 11026                           
 11027                           ;lighting.c: 244: PSMC4DCL = 0x00;
 11028  1D12  01A3               	clrf	35	;volatile
 11029                           
 11030                           ;lighting.c: 245: PSMC4LD = 1;
 11031  1D13  1711               	bsf	17,6	;volatile
 11032                           
 11033                           ;lighting.c: 247: PSMC2LD = 1;
 11034  1D14  003D               	movlb	29	; select bank29
 11035  1D15  1731               	bsf	49,6	;volatile
 11036                           
 11037                           ;lighting.c: 248: PSMC3LD = 1;
 11038  1D16  1751               	bsf	81,6	;volatile
 11039                           
 11040                           ;lighting.c: 249: PSMC4LD = 1;
 11041  1D17  003E               	movlb	30	; select bank30
 11042  1D18  1711               	bsf	17,6	;volatile
 11043                           
 11044                           ;lighting.c: 250: }
 11045  1D19  0008               	return
 11046  1D1A                     i1l4653:	
 11047                           
 11048                           ;lighting.c: 251: else
 11049                           ;lighting.c: 252: {
 11050                           ;lighting.c: 255: PSMC2DCH = 0xFF;
 11051  1D1A  30FF               	movlw	255
 11052  1D1B  003D               	movlb	29	; select bank29
 11053  1D1C  00C4               	movwf	68	;volatile
 11054                           
 11055                           ;lighting.c: 256: PSMC2DCL = 0xFF;
 11056  1D1D  30FF               	movlw	255
 11057  1D1E  00C3               	movwf	67	;volatile
 11058                           
 11059                           ;lighting.c: 257: PSMC2LD = 1;
 11060  1D1F  1731               	bsf	49,6	;volatile
 11061                           
 11062                           ;lighting.c: 259: PSMC3DCH = 0x00;
 11063  1D20  01E4               	clrf	100	;volatile
 11064                           
 11065                           ;lighting.c: 260: PSMC3DCL = 0x00;
 11066  1D21  01E3               	clrf	99	;volatile
 11067                           
 11068                           ;lighting.c: 261: PSMC3LD = 1;
 11069  1D22  1751               	bsf	81,6	;volatile
 11070                           
 11071                           ;lighting.c: 263: PSMC4DCH = 0x00;
 11072  1D23  003E               	movlb	30	; select bank30
 11073  1D24  01A4               	clrf	36	;volatile
 11074                           
 11075                           ;lighting.c: 264: PSMC4DCL = 0x00;
 11076  1D25  01A3               	clrf	35	;volatile
 11077                           
 11078                           ;lighting.c: 265: PSMC4LD = 1;
 11079  1D26  1711               	bsf	17,6	;volatile
 11080                           
 11081                           ;lighting.c: 267: PSMC2LD = 1;
 11082  1D27  003D               	movlb	29	; select bank29
 11083  1D28  1731               	bsf	49,6	;volatile
 11084                           
 11085                           ;lighting.c: 268: PSMC3LD = 1;
 11086  1D29  1751               	bsf	81,6	;volatile
 11087                           
 11088                           ;lighting.c: 269: PSMC4LD = 1;
 11089  1D2A  003E               	movlb	30	; select bank30
 11090  1D2B  1711               	bsf	17,6	;volatile
 11091  1D2C  0008               	return
 11092  1D2D                     __end_ofi1_display_health:	
 11093                           
 11094                           	psect	text24
 11095  0C8B                     __ptext24:	
 11096 ;; *************** function i1_display_blade_lights *****************
 11097 ;; Defined at:
 11098 ;;		line 273 in file "../../source/lighting.c"
 11099 ;; Parameters:    Size  Location     Type
 11100 ;;  mode            1    wreg     unsigned char 
 11101 ;; Auto vars:     Size  Location     Type
 11102 ;;  mode            1    3[BANK0 ] unsigned char 
 11103 ;;  display_blad    2   10[BANK0 ] int 
 11104 ;;  display_blad    2    8[BANK0 ] int 
 11105 ;;  display_blad    2    6[BANK0 ] int 
 11106 ;;  display_blad    2    4[BANK0 ] int 
 11107 ;;  display_blad    1   19[BANK0 ] unsigned char 
 11108 ;;  display_blad    1   18[BANK0 ] unsigned char 
 11109 ;;  display_blad    1   17[BANK0 ] unsigned char 
 11110 ;;  display_blad    1   16[BANK0 ] unsigned char 
 11111 ;;  display_blad    1   15[BANK0 ] unsigned char 
 11112 ;;  display_blad    1   14[BANK0 ] unsigned char 
 11113 ;;  display_blad    1   13[BANK0 ] unsigned char 
 11114 ;;  display_blad    1   12[BANK0 ] unsigned char 
 11115 ;; Return value:  Size  Location     Type
 11116 ;;		None               void
 11117 ;; Registers used:
 11118 ;;		wreg, status,2, status,0, pclath, cstack
 11119 ;; Tracked objects:
 11120 ;;		On entry : 0/0
 11121 ;;		On exit  : 0/0
 11122 ;;		Unchanged: 0/0
 11123 ;; Data sizes:     COMMON   BANK0   BANK1   BANK2   BANK3   BANK4   BANK5   BANK6   BANK7   BANK8   BANK9  BANK10  BANK1
      +1  BANK12  BANK13  BANK14  BANK15  BANK16  BANK17  BANK18  BANK19  BANK20  BANK21  BANK22  BANK23  BANK24  BANK25
 11124 ;;      Params:         0       0       0       0       0       0       0       0       0       0       0       0       
      +0       0       0       0       0       0       0       0       0       0       0       0       0       0       0
 11125 ;;      Locals:         0      17       0       0       0       0       0       0       0       0       0       0       
      +0       0       0       0       0       0       0       0       0       0       0       0       0       0       0
 11126 ;;      Temps:          0       3       0       0       0       0       0       0       0       0       0       0       
      +0       0       0       0       0       0       0       0       0       0       0       0       0       0       0
 11127 ;;      Totals:         0      20       0       0       0       0       0       0       0       0       0       0       
      +0       0       0       0       0       0       0       0       0       0       0       0       0       0       0
 11128 ;;Total ram usage:       20 bytes
 11129 ;; Hardware stack levels used:    1
 11130 ;; Hardware stack levels required when called:    2
 11131 ;; This function calls:
 11132 ;;		i1_led1_command
 11133 ;;		i1_led2_command
 11134 ;;		i1_led3_command
 11135 ;;		i1_led4_command
 11136 ;;		i1_led5_command
 11137 ;;		i1_led6_command
 11138 ;;		i1_led7_command
 11139 ;;		i1_leds_off
 11140 ;;		i1_writespi
 11141 ;; This function is called by:
 11142 ;;		_isr
 11143 ;; This function uses a non-reentrant model
 11144 ;;
 11145                           
 11146                           
 11147                           ;psect for function i1_display_blade_lights
 11148  0C8B                     i1_display_blade_lights:	
 11149                           
 11150                           ;incstack = 0
 11151                           ; Regs used in i1_display_blade_lights: [wreg+status,2+status,0+pclath+cstack]
 11152                           ;i1display_blade_lights@mode stored from wreg
 11153  0C8B  0020               	movlb	0	; select bank0
 11154  0C8C  00A3               	movwf	i1display_blade_lights@mode
 11155                           
 11156                           ;lighting.c: 275: unsigned char red = 0;
 11157  0C8D  01B1               	clrf	i1display_blade_lights@red
 11158                           
 11159                           ;lighting.c: 276: unsigned char green = 0;
 11160  0C8E  01B2               	clrf	i1display_blade_lights@green
 11161                           
 11162                           ;lighting.c: 277: unsigned char blue = 0;
 11163  0C8F  01B3               	clrf	i1display_blade_lights@blue
 11164                           
 11165                           ;lighting.c: 278: unsigned char brightness = 0xFF;
 11166  0C90  30FF               	movlw	255
 11167  0C91  00A0               	movwf	??i1_display_blade_lights
 11168  0C92  0820               	movf	??i1_display_blade_lights,w
 11169  0C93  00B0               	movwf	i1display_blade_lights@brightness
 11170                           
 11171                           ;lighting.c: 281: red = 0x00;
 11172  0C94  01B1               	clrf	i1display_blade_lights@red
 11173                           
 11174                           ;lighting.c: 282: green = 0xFF;
 11175  0C95  30FF               	movlw	255
 11176  0C96  00A0               	movwf	??i1_display_blade_lights
 11177  0C97  0820               	movf	??i1_display_blade_lights,w
 11178  0C98  00B2               	movwf	i1display_blade_lights@green
 11179                           
 11180                           ;lighting.c: 283: blue = 0x00;
 11181  0C99  01B3               	clrf	i1display_blade_lights@blue
 11182                           
 11183                           ;lighting.c: 298: if( (mode == 0)
 11184                           ;lighting.c: 299: || (mode == 1) )
 11185  0C9A  0823               	movf	i1display_blade_lights@mode,w
 11186  0C9B  1D03               	btfss	3,2
 11187  0C9C  0323               	decf	i1display_blade_lights@mode,w
 11188  0C9D  1D03               	btfss	3,2
 11189  0C9E  2DAF               	goto	i1l4723
 11190                           
 11191                           ;lighting.c: 300: {
 11192                           ;lighting.c: 302: led7_command(brightness, red, green, blue);
 11193  0C9F  0831               	movf	i1display_blade_lights@red,w
 11194  0CA0  00A0               	movwf	??i1_display_blade_lights
 11195  0CA1  0820               	movf	??i1_display_blade_lights,w
 11196  0CA2  00F3               	movwf	i1led7_command@red
 11197  0CA3  0832               	movf	i1display_blade_lights@green,w
 11198  0CA4  00A1               	movwf	??i1_display_blade_lights+1
 11199  0CA5  0821               	movf	??i1_display_blade_lights+1,w
 11200  0CA6  00F4               	movwf	i1led7_command@green
 11201  0CA7  0833               	movf	i1display_blade_lights@blue,w
 11202  0CA8  00A2               	movwf	??i1_display_blade_lights+2
 11203  0CA9  0822               	movf	??i1_display_blade_lights+2,w
 11204  0CAA  00F5               	movwf	i1led7_command@blue
 11205  0CAB  0830               	movf	i1display_blade_lights@brightness,w
 11206  0CAC  3194  2427  318C   	fcall	i1_led7_command
 11207                           
 11208                           ;lighting.c: 303: _delay((unsigned long)((50)*(32000000/4000.0)));
 11209  0CAF  3003               	movlw	3
 11210  0CB0  0020               	movlb	0	; select bank0
 11211  0CB1  00A2               	movwf	??i1_display_blade_lights+2
 11212  0CB2  3008               	movlw	8
 11213  0CB3  00A1               	movwf	??i1_display_blade_lights+1
 11214  0CB4  3078               	movlw	120
 11215  0CB5  00A0               	movwf	??i1_display_blade_lights
 11216  0CB6                     u572_27:	
 11217  0CB6  0BA0               	decfsz	??i1_display_blade_lights,f
 11218  0CB7  2CB6               	goto	u572_27
 11219  0CB8  0BA1               	decfsz	??i1_display_blade_lights+1,f
 11220  0CB9  2CB6               	goto	u572_27
 11221  0CBA  0BA2               	decfsz	??i1_display_blade_lights+2,f
 11222  0CBB  2CB6               	goto	u572_27
 11223                           
 11224                           ;lighting.c: 305: led6_command(brightness, red, green, blue);
 11225  0CBC  0020               	movlb	0	; select bank0
 11226  0CBD  0831               	movf	i1display_blade_lights@red,w
 11227  0CBE  00A0               	movwf	??i1_display_blade_lights
 11228  0CBF  0820               	movf	??i1_display_blade_lights,w
 11229  0CC0  00F3               	movwf	i1led6_command@red
 11230  0CC1  0832               	movf	i1display_blade_lights@green,w
 11231  0CC2  00A1               	movwf	??i1_display_blade_lights+1
 11232  0CC3  0821               	movf	??i1_display_blade_lights+1,w
 11233  0CC4  00F4               	movwf	i1led6_command@green
 11234  0CC5  0833               	movf	i1display_blade_lights@blue,w
 11235  0CC6  00A2               	movwf	??i1_display_blade_lights+2
 11236  0CC7  0822               	movf	??i1_display_blade_lights+2,w
 11237  0CC8  00F5               	movwf	i1led6_command@blue
 11238  0CC9  0830               	movf	i1display_blade_lights@brightness,w
 11239  0CCA  3193  236C  318C   	fcall	i1_led6_command
 11240                           
 11241                           ;lighting.c: 306: _delay((unsigned long)((50)*(32000000/4000.0)));
 11242  0CCD  3003               	movlw	3
 11243  0CCE  0020               	movlb	0	; select bank0
 11244  0CCF  00A2               	movwf	??i1_display_blade_lights+2
 11245  0CD0  3008               	movlw	8
 11246  0CD1  00A1               	movwf	??i1_display_blade_lights+1
 11247  0CD2  3078               	movlw	120
 11248  0CD3  00A0               	movwf	??i1_display_blade_lights
 11249  0CD4                     u573_27:	
 11250  0CD4  0BA0               	decfsz	??i1_display_blade_lights,f
 11251  0CD5  2CD4               	goto	u573_27
 11252  0CD6  0BA1               	decfsz	??i1_display_blade_lights+1,f
 11253  0CD7  2CD4               	goto	u573_27
 11254  0CD8  0BA2               	decfsz	??i1_display_blade_lights+2,f
 11255  0CD9  2CD4               	goto	u573_27
 11256                           
 11257                           ;lighting.c: 308: led5_command(brightness, red, green, blue);
 11258  0CDA  0020               	movlb	0	; select bank0
 11259  0CDB  0831               	movf	i1display_blade_lights@red,w
 11260  0CDC  00A0               	movwf	??i1_display_blade_lights
 11261  0CDD  0820               	movf	??i1_display_blade_lights,w
 11262  0CDE  00F3               	movwf	i1led5_command@red
 11263  0CDF  0832               	movf	i1display_blade_lights@green,w
 11264  0CE0  00A1               	movwf	??i1_display_blade_lights+1
 11265  0CE1  0821               	movf	??i1_display_blade_lights+1,w
 11266  0CE2  00F4               	movwf	i1led5_command@green
 11267  0CE3  0833               	movf	i1display_blade_lights@blue,w
 11268  0CE4  00A2               	movwf	??i1_display_blade_lights+2
 11269  0CE5  0822               	movf	??i1_display_blade_lights+2,w
 11270  0CE6  00F5               	movwf	i1led5_command@blue
 11271  0CE7  0830               	movf	i1display_blade_lights@brightness,w
 11272  0CE8  3192  22B1  318C   	fcall	i1_led5_command
 11273                           
 11274                           ;lighting.c: 309: _delay((unsigned long)((50)*(32000000/4000.0)));
 11275  0CEB  3003               	movlw	3
 11276  0CEC  0020               	movlb	0	; select bank0
 11277  0CED  00A2               	movwf	??i1_display_blade_lights+2
 11278  0CEE  3008               	movlw	8
 11279  0CEF  00A1               	movwf	??i1_display_blade_lights+1
 11280  0CF0  3078               	movlw	120
 11281  0CF1  00A0               	movwf	??i1_display_blade_lights
 11282  0CF2                     u574_27:	
 11283  0CF2  0BA0               	decfsz	??i1_display_blade_lights,f
 11284  0CF3  2CF2               	goto	u574_27
 11285  0CF4  0BA1               	decfsz	??i1_display_blade_lights+1,f
 11286  0CF5  2CF2               	goto	u574_27
 11287  0CF6  0BA2               	decfsz	??i1_display_blade_lights+2,f
 11288  0CF7  2CF2               	goto	u574_27
 11289                           
 11290                           ;lighting.c: 311: led4_command(brightness, red, green, blue);
 11291  0CF8  0020               	movlb	0	; select bank0
 11292  0CF9  0831               	movf	i1display_blade_lights@red,w
 11293  0CFA  00A0               	movwf	??i1_display_blade_lights
 11294  0CFB  0820               	movf	??i1_display_blade_lights,w
 11295  0CFC  00F3               	movwf	i1led4_command@red
 11296  0CFD  0832               	movf	i1display_blade_lights@green,w
 11297  0CFE  00A1               	movwf	??i1_display_blade_lights+1
 11298  0CFF  0821               	movf	??i1_display_blade_lights+1,w
 11299  0D00  00F4               	movwf	i1led4_command@green
 11300  0D01  0833               	movf	i1display_blade_lights@blue,w
 11301  0D02  00A2               	movwf	??i1_display_blade_lights+2
 11302  0D03  0822               	movf	??i1_display_blade_lights+2,w
 11303  0D04  00F5               	movwf	i1led4_command@blue
 11304  0D05  0830               	movf	i1display_blade_lights@brightness,w
 11305  0D06  3191  21F6  318C   	fcall	i1_led4_command
 11306                           
 11307                           ;lighting.c: 312: _delay((unsigned long)((50)*(32000000/4000.0)));
 11308  0D09  3003               	movlw	3
 11309  0D0A  0020               	movlb	0	; select bank0
 11310  0D0B  00A2               	movwf	??i1_display_blade_lights+2
 11311  0D0C  3008               	movlw	8
 11312  0D0D  00A1               	movwf	??i1_display_blade_lights+1
 11313  0D0E  3078               	movlw	120
 11314  0D0F  00A0               	movwf	??i1_display_blade_lights
 11315  0D10                     u575_27:	
 11316  0D10  0BA0               	decfsz	??i1_display_blade_lights,f
 11317  0D11  2D10               	goto	u575_27
 11318  0D12  0BA1               	decfsz	??i1_display_blade_lights+1,f
 11319  0D13  2D10               	goto	u575_27
 11320  0D14  0BA2               	decfsz	??i1_display_blade_lights+2,f
 11321  0D15  2D10               	goto	u575_27
 11322                           
 11323                           ;lighting.c: 314: led3_command(brightness, red, green, blue);
 11324  0D16  0020               	movlb	0	; select bank0
 11325  0D17  0831               	movf	i1display_blade_lights@red,w
 11326  0D18  00A0               	movwf	??i1_display_blade_lights
 11327  0D19  0820               	movf	??i1_display_blade_lights,w
 11328  0D1A  00F3               	movwf	i1led3_command@red
 11329  0D1B  0832               	movf	i1display_blade_lights@green,w
 11330  0D1C  00A1               	movwf	??i1_display_blade_lights+1
 11331  0D1D  0821               	movf	??i1_display_blade_lights+1,w
 11332  0D1E  00F4               	movwf	i1led3_command@green
 11333  0D1F  0833               	movf	i1display_blade_lights@blue,w
 11334  0D20  00A2               	movwf	??i1_display_blade_lights+2
 11335  0D21  0822               	movf	??i1_display_blade_lights+2,w
 11336  0D22  00F5               	movwf	i1led3_command@blue
 11337  0D23  0830               	movf	i1display_blade_lights@brightness,w
 11338  0D24  3191  213B  318C   	fcall	i1_led3_command
 11339                           
 11340                           ;lighting.c: 315: _delay((unsigned long)((50)*(32000000/4000.0)));
 11341  0D27  3003               	movlw	3
 11342  0D28  0020               	movlb	0	; select bank0
 11343  0D29  00A2               	movwf	??i1_display_blade_lights+2
 11344  0D2A  3008               	movlw	8
 11345  0D2B  00A1               	movwf	??i1_display_blade_lights+1
 11346  0D2C  3078               	movlw	120
 11347  0D2D  00A0               	movwf	??i1_display_blade_lights
 11348  0D2E                     u576_27:	
 11349  0D2E  0BA0               	decfsz	??i1_display_blade_lights,f
 11350  0D2F  2D2E               	goto	u576_27
 11351  0D30  0BA1               	decfsz	??i1_display_blade_lights+1,f
 11352  0D31  2D2E               	goto	u576_27
 11353  0D32  0BA2               	decfsz	??i1_display_blade_lights+2,f
 11354  0D33  2D2E               	goto	u576_27
 11355                           
 11356                           ;lighting.c: 317: led2_command(brightness, red, green, blue);
 11357  0D34  0020               	movlb	0	; select bank0
 11358  0D35  0831               	movf	i1display_blade_lights@red,w
 11359  0D36  00A0               	movwf	??i1_display_blade_lights
 11360  0D37  0820               	movf	??i1_display_blade_lights,w
 11361  0D38  00F3               	movwf	i1led2_command@red
 11362  0D39  0832               	movf	i1display_blade_lights@green,w
 11363  0D3A  00A1               	movwf	??i1_display_blade_lights+1
 11364  0D3B  0821               	movf	??i1_display_blade_lights+1,w
 11365  0D3C  00F4               	movwf	i1led2_command@green
 11366  0D3D  0833               	movf	i1display_blade_lights@blue,w
 11367  0D3E  00A2               	movwf	??i1_display_blade_lights+2
 11368  0D3F  0822               	movf	??i1_display_blade_lights+2,w
 11369  0D40  00F5               	movwf	i1led2_command@blue
 11370  0D41  0830               	movf	i1display_blade_lights@brightness,w
 11371  0D42  3190  2080  318C   	fcall	i1_led2_command
 11372                           
 11373                           ;lighting.c: 318: _delay((unsigned long)((50)*(32000000/4000.0)));
 11374  0D45  3003               	movlw	3
 11375  0D46  0020               	movlb	0	; select bank0
 11376  0D47  00A2               	movwf	??i1_display_blade_lights+2
 11377  0D48  3008               	movlw	8
 11378  0D49  00A1               	movwf	??i1_display_blade_lights+1
 11379  0D4A  3078               	movlw	120
 11380  0D4B  00A0               	movwf	??i1_display_blade_lights
 11381  0D4C                     u577_27:	
 11382  0D4C  0BA0               	decfsz	??i1_display_blade_lights,f
 11383  0D4D  2D4C               	goto	u577_27
 11384  0D4E  0BA1               	decfsz	??i1_display_blade_lights+1,f
 11385  0D4F  2D4C               	goto	u577_27
 11386  0D50  0BA2               	decfsz	??i1_display_blade_lights+2,f
 11387  0D51  2D4C               	goto	u577_27
 11388                           
 11389                           ;lighting.c: 320: led1_command(brightness, red, green, blue);
 11390  0D52  0020               	movlb	0	; select bank0
 11391  0D53  0831               	movf	i1display_blade_lights@red,w
 11392  0D54  00A0               	movwf	??i1_display_blade_lights
 11393  0D55  0820               	movf	??i1_display_blade_lights,w
 11394  0D56  00F3               	movwf	i1led1_command@red
 11395  0D57  0832               	movf	i1display_blade_lights@green,w
 11396  0D58  00A1               	movwf	??i1_display_blade_lights+1
 11397  0D59  0821               	movf	??i1_display_blade_lights+1,w
 11398  0D5A  00F4               	movwf	i1led1_command@green
 11399  0D5B  0833               	movf	i1display_blade_lights@blue,w
 11400  0D5C  00A2               	movwf	??i1_display_blade_lights+2
 11401  0D5D  0822               	movf	??i1_display_blade_lights+2,w
 11402  0D5E  00F5               	movwf	i1led1_command@blue
 11403  0D5F  0830               	movf	i1display_blade_lights@brightness,w
 11404  0D60  319F  2745  318C   	fcall	i1_led1_command
 11405                           
 11406                           ;lighting.c: 321: _delay((unsigned long)((50)*(32000000/4000.0)));
 11407  0D63  3003               	movlw	3
 11408  0D64  0020               	movlb	0	; select bank0
 11409  0D65  00A2               	movwf	??i1_display_blade_lights+2
 11410  0D66  3008               	movlw	8
 11411  0D67  00A1               	movwf	??i1_display_blade_lights+1
 11412  0D68  3078               	movlw	120
 11413  0D69  00A0               	movwf	??i1_display_blade_lights
 11414  0D6A                     u578_27:	
 11415  0D6A  0BA0               	decfsz	??i1_display_blade_lights,f
 11416  0D6B  2D6A               	goto	u578_27
 11417  0D6C  0BA1               	decfsz	??i1_display_blade_lights+1,f
 11418  0D6D  2D6A               	goto	u578_27
 11419  0D6E  0BA2               	decfsz	??i1_display_blade_lights+2,f
 11420  0D6F  2D6A               	goto	u578_27
 11421                           
 11422                           ;lighting.c: 323: for(unsigned char i = 0; i < 4; ++i)
 11423  0D70  0020               	movlb	0	; select bank0
 11424  0D71  01AC               	clrf	i1display_blade_lights@i
 11425  0D72                     L4:	
 11426  0D72  3004               	movlw	4
 11427  0D73  022C               	subwf	i1display_blade_lights@i,w
 11428  0D74  1803               	btfsc	3,0
 11429  0D75  2FFD               	goto	i1l4839
 11430                           
 11431                           ;lighting.c: 324: {
 11432                           ;lighting.c: 326: led1_command(brightness, red, green, blue);
 11433  0D76  0831               	movf	i1display_blade_lights@red,w
 11434  0D77  00A0               	movwf	??i1_display_blade_lights
 11435  0D78  0820               	movf	??i1_display_blade_lights,w
 11436  0D79  00F3               	movwf	i1led1_command@red
 11437  0D7A  0832               	movf	i1display_blade_lights@green,w
 11438  0D7B  00A1               	movwf	??i1_display_blade_lights+1
 11439  0D7C  0821               	movf	??i1_display_blade_lights+1,w
 11440  0D7D  00F4               	movwf	i1led1_command@green
 11441  0D7E  0833               	movf	i1display_blade_lights@blue,w
 11442  0D7F  00A2               	movwf	??i1_display_blade_lights+2
 11443  0D80  0822               	movf	??i1_display_blade_lights+2,w
 11444  0D81  00F5               	movwf	i1led1_command@blue
 11445  0D82  0830               	movf	i1display_blade_lights@brightness,w
 11446  0D83  319F  2745  318C   	fcall	i1_led1_command
 11447                           
 11448                           ;lighting.c: 327: _delay((unsigned long)((25)*(32000000/4000.0)));
 11449  0D86  3002               	movlw	2
 11450  0D87  0020               	movlb	0	; select bank0
 11451  0D88  00A2               	movwf	??i1_display_blade_lights+2
 11452  0D89  3004               	movlw	4
 11453  0D8A  00A1               	movwf	??i1_display_blade_lights+1
 11454  0D8B  30BA               	movlw	186
 11455  0D8C  00A0               	movwf	??i1_display_blade_lights
 11456  0D8D                     u579_27:	
 11457  0D8D  0BA0               	decfsz	??i1_display_blade_lights,f
 11458  0D8E  2D8D               	goto	u579_27
 11459  0D8F  0BA1               	decfsz	??i1_display_blade_lights+1,f
 11460  0D90  2D8D               	goto	u579_27
 11461  0D91  0BA2               	decfsz	??i1_display_blade_lights+2,f
 11462  0D92  2D8D               	goto	u579_27
 11463  0D93  0000               	nop
 11464                           
 11465                           ;lighting.c: 329: led1_command(0xFF, 0, 0, 0);
 11466  0D94  01F3               	clrf	i1led1_command@red
 11467  0D95  01F4               	clrf	i1led1_command@green
 11468  0D96  01F5               	clrf	i1led1_command@blue
 11469  0D97  30FF               	movlw	255
 11470  0D98  319F  2745  318C   	fcall	i1_led1_command
 11471                           
 11472                           ;lighting.c: 330: _delay((unsigned long)((25)*(32000000/4000.0)));
 11473  0D9B  3002               	movlw	2
 11474  0D9C  0020               	movlb	0	; select bank0
 11475  0D9D  00A2               	movwf	??i1_display_blade_lights+2
 11476  0D9E  3004               	movlw	4
 11477  0D9F  00A1               	movwf	??i1_display_blade_lights+1
 11478  0DA0  30BA               	movlw	186
 11479  0DA1  00A0               	movwf	??i1_display_blade_lights
 11480  0DA2                     u580_27:	
 11481  0DA2  0BA0               	decfsz	??i1_display_blade_lights,f
 11482  0DA3  2DA2               	goto	u580_27
 11483  0DA4  0BA1               	decfsz	??i1_display_blade_lights+1,f
 11484  0DA5  2DA2               	goto	u580_27
 11485  0DA6  0BA2               	decfsz	??i1_display_blade_lights+2,f
 11486  0DA7  2DA2               	goto	u580_27
 11487  0DA8  0000               	nop
 11488  0DA9  3001               	movlw	1
 11489  0DAA  0020               	movlb	0	; select bank0
 11490  0DAB  00A0               	movwf	??i1_display_blade_lights
 11491  0DAC  0820               	movf	??i1_display_blade_lights,w
 11492  0DAD  07AC               	addwf	i1display_blade_lights@i,f
 11493  0DAE  2D72               	goto	L4
 11494  0DAF                     i1l4723:	
 11495                           ;lighting.c: 331: }
 11496                           ;lighting.c: 332: }
 11497                           
 11498                           
 11499                           ;lighting.c: 333: else if( mode == 2 )
 11500  0DAF  3002               	movlw	2
 11501  0DB0  0623               	xorwf	i1display_blade_lights@mode,w
 11502  0DB1  1D03               	btfss	3,2
 11503  0DB2  2F16               	goto	i1l4801
 11504                           
 11505                           ;lighting.c: 334: {
 11506                           ;lighting.c: 428: for(unsigned char r = 0;r < 255; r+=5)
 11507  0DB3  01AE               	clrf	i1display_blade_lights@r
 11508  0DB4  0A2E               	incf	i1display_blade_lights@r,w
 11509  0DB5  1903               	btfsc	3,2
 11510  0DB6  2E65               	goto	i1l4763
 11511  0DB7                     i1l4731:	
 11512                           
 11513                           ;lighting.c: 429: {
 11514                           ;lighting.c: 431: for(int i = 0;i < 4; i++){
 11515  0DB7  01A4               	clrf	i1display_blade_lights@i_638
 11516  0DB8  01A5               	clrf	i1display_blade_lights@i_638+1
 11517  0DB9  0825               	movf	i1display_blade_lights@i_638+1,w
 11518  0DBA  3A80               	xorlw	128
 11519  0DBB  00A0               	movwf	??i1_display_blade_lights
 11520  0DBC  3080               	movlw	128
 11521  0DBD  0220               	subwf	??i1_display_blade_lights,w
 11522  0DBE  1D03               	skipz
 11523  0DBF  2DC2               	goto	u390_25
 11524  0DC0  3004               	movlw	4
 11525  0DC1  0224               	subwf	i1display_blade_lights@i_638,w
 11526  0DC2                     u390_25:	
 11527  0DC2  1803               	btfsc	3,0
 11528  0DC3  2DD8               	goto	i1l4743
 11529  0DC4                     i1l4737:	
 11530                           
 11531                           ;lighting.c: 432: writespi(0x00);
 11532  0DC4  3000               	movlw	0
 11533  0DC5  319B  2310  318C   	fcall	i1_writespi
 11534  0DC8  3001               	movlw	1
 11535  0DC9  0020               	movlb	0	; select bank0
 11536  0DCA  07A4               	addwf	i1display_blade_lights@i_638,f
 11537  0DCB  3000               	movlw	0
 11538  0DCC  3DA5               	addwfc	i1display_blade_lights@i_638+1,f
 11539  0DCD  0825               	movf	i1display_blade_lights@i_638+1,w
 11540  0DCE  3A80               	xorlw	128
 11541  0DCF  00A0               	movwf	??i1_display_blade_lights
 11542  0DD0  3080               	movlw	128
 11543  0DD1  0220               	subwf	??i1_display_blade_lights,w
 11544  0DD2  1D03               	skipz
 11545  0DD3  2DD6               	goto	u391_25
 11546  0DD4  3004               	movlw	4
 11547  0DD5  0224               	subwf	i1display_blade_lights@i_638,w
 11548  0DD6                     u391_25:	
 11549  0DD6  1C03               	skipc
 11550  0DD7  2DC4               	goto	i1l4737
 11551  0DD8                     i1l4743:	
 11552                           
 11553                           ;lighting.c: 433: }
 11554                           ;lighting.c: 435: writespi(0xFF);
 11555  0DD8  30FF               	movlw	255
 11556  0DD9  319B  2310  318C   	fcall	i1_writespi
 11557                           
 11558                           ;lighting.c: 436: writespi(0x00);
 11559  0DDC  3000               	movlw	0
 11560  0DDD  319B  2310  318C   	fcall	i1_writespi
 11561                           
 11562                           ;lighting.c: 437: writespi(0x00);
 11563  0DE0  3000               	movlw	0
 11564  0DE1  319B  2310  318C   	fcall	i1_writespi
 11565                           
 11566                           ;lighting.c: 438: writespi(r);
 11567  0DE4  0020               	movlb	0	; select bank0
 11568  0DE5  082E               	movf	i1display_blade_lights@r,w
 11569  0DE6  319B  2310  318C   	fcall	i1_writespi
 11570                           
 11571                           ;lighting.c: 440: writespi(0xFF);
 11572  0DE9  30FF               	movlw	255
 11573  0DEA  319B  2310  318C   	fcall	i1_writespi
 11574                           
 11575                           ;lighting.c: 441: writespi(0x00);
 11576  0DED  3000               	movlw	0
 11577  0DEE  319B  2310  318C   	fcall	i1_writespi
 11578                           
 11579                           ;lighting.c: 442: writespi(0x00);
 11580  0DF1  3000               	movlw	0
 11581  0DF2  319B  2310  318C   	fcall	i1_writespi
 11582                           
 11583                           ;lighting.c: 443: writespi(255 - r);
 11584  0DF5  0020               	movlb	0	; select bank0
 11585  0DF6  032E               	decf	i1display_blade_lights@r,w
 11586  0DF7  3AFF               	xorlw	255
 11587  0DF8  3EFF               	addlw	255
 11588  0DF9  319B  2310  318C   	fcall	i1_writespi
 11589                           
 11590                           ;lighting.c: 445: writespi(0xFF);
 11591  0DFC  30FF               	movlw	255
 11592  0DFD  319B  2310  318C   	fcall	i1_writespi
 11593                           
 11594                           ;lighting.c: 446: writespi(0x00);
 11595  0E00  3000               	movlw	0
 11596  0E01  319B  2310  318C   	fcall	i1_writespi
 11597                           
 11598                           ;lighting.c: 447: writespi(0x00);
 11599  0E04  3000               	movlw	0
 11600  0E05  319B  2310  318C   	fcall	i1_writespi
 11601                           
 11602                           ;lighting.c: 448: writespi(r);
 11603  0E08  0020               	movlb	0	; select bank0
 11604  0E09  082E               	movf	i1display_blade_lights@r,w
 11605  0E0A  319B  2310  318C   	fcall	i1_writespi
 11606                           
 11607                           ;lighting.c: 450: writespi(0xFF);
 11608  0E0D  30FF               	movlw	255
 11609  0E0E  319B  2310  318C   	fcall	i1_writespi
 11610                           
 11611                           ;lighting.c: 451: writespi(0x00);
 11612  0E11  3000               	movlw	0
 11613  0E12  319B  2310  318C   	fcall	i1_writespi
 11614                           
 11615                           ;lighting.c: 452: writespi(0x00);
 11616  0E15  3000               	movlw	0
 11617  0E16  319B  2310  318C   	fcall	i1_writespi
 11618                           
 11619                           ;lighting.c: 453: writespi(255-r);
 11620  0E19  0020               	movlb	0	; select bank0
 11621  0E1A  032E               	decf	i1display_blade_lights@r,w
 11622  0E1B  3AFF               	xorlw	255
 11623  0E1C  3EFF               	addlw	255
 11624  0E1D  319B  2310  318C   	fcall	i1_writespi
 11625                           
 11626                           ;lighting.c: 455: writespi(0xFF);
 11627  0E20  30FF               	movlw	255
 11628  0E21  319B  2310  318C   	fcall	i1_writespi
 11629                           
 11630                           ;lighting.c: 456: writespi(0x00);
 11631  0E24  3000               	movlw	0
 11632  0E25  319B  2310  318C   	fcall	i1_writespi
 11633                           
 11634                           ;lighting.c: 457: writespi(0x00);
 11635  0E28  3000               	movlw	0
 11636  0E29  319B  2310  318C   	fcall	i1_writespi
 11637                           
 11638                           ;lighting.c: 458: writespi(r);
 11639  0E2C  0020               	movlb	0	; select bank0
 11640  0E2D  082E               	movf	i1display_blade_lights@r,w
 11641  0E2E  319B  2310  318C   	fcall	i1_writespi
 11642                           
 11643                           ;lighting.c: 460: for(int i = 0;i < 4; i++){
 11644  0E31  0020               	movlb	0	; select bank0
 11645  0E32  01A6               	clrf	i1display_blade_lights@i_639
 11646  0E33  01A7               	clrf	i1display_blade_lights@i_639+1
 11647  0E34  0827               	movf	i1display_blade_lights@i_639+1,w
 11648  0E35  3A80               	xorlw	128
 11649  0E36  00A0               	movwf	??i1_display_blade_lights
 11650  0E37  3080               	movlw	128
 11651  0E38  0220               	subwf	??i1_display_blade_lights,w
 11652  0E39  1D03               	skipz
 11653  0E3A  2E3D               	goto	u392_25
 11654  0E3B  3004               	movlw	4
 11655  0E3C  0226               	subwf	i1display_blade_lights@i_639,w
 11656  0E3D                     u392_25:	
 11657  0E3D  1803               	btfsc	3,0
 11658  0E3E  2E53               	goto	i1l4757
 11659  0E3F                     i1l4751:	
 11660                           
 11661                           ;lighting.c: 461: writespi(0xFF);
 11662  0E3F  30FF               	movlw	255
 11663  0E40  319B  2310  318C   	fcall	i1_writespi
 11664  0E43  3001               	movlw	1
 11665  0E44  0020               	movlb	0	; select bank0
 11666  0E45  07A6               	addwf	i1display_blade_lights@i_639,f
 11667  0E46  3000               	movlw	0
 11668  0E47  3DA7               	addwfc	i1display_blade_lights@i_639+1,f
 11669  0E48  0827               	movf	i1display_blade_lights@i_639+1,w
 11670  0E49  3A80               	xorlw	128
 11671  0E4A  00A0               	movwf	??i1_display_blade_lights
 11672  0E4B  3080               	movlw	128
 11673  0E4C  0220               	subwf	??i1_display_blade_lights,w
 11674  0E4D  1D03               	skipz
 11675  0E4E  2E51               	goto	u393_25
 11676  0E4F  3004               	movlw	4
 11677  0E50  0226               	subwf	i1display_blade_lights@i_639,w
 11678  0E51                     u393_25:	
 11679  0E51  1C03               	skipc
 11680  0E52  2E3F               	goto	i1l4751
 11681  0E53                     i1l4757:	
 11682                           
 11683                           ;lighting.c: 462: }
 11684                           ;lighting.c: 463: _delay((unsigned long)((20)*(32000000/4000.0)));
 11685  0E53  30D0               	movlw	208
 11686  0E54  0020               	movlb	0	; select bank0
 11687  0E55  00A1               	movwf	??i1_display_blade_lights+1
 11688  0E56  30C9               	movlw	201
 11689  0E57  00A0               	movwf	??i1_display_blade_lights
 11690  0E58                     u581_27:	
 11691  0E58  0BA0               	decfsz	??i1_display_blade_lights,f
 11692  0E59  2E58               	goto	u581_27
 11693  0E5A  0BA1               	decfsz	??i1_display_blade_lights+1,f
 11694  0E5B  2E58               	goto	u581_27
 11695  0E5C  3200               	nop2
 11696  0E5D  3005               	movlw	5
 11697  0E5E  0020               	movlb	0	; select bank0
 11698  0E5F  00A0               	movwf	??i1_display_blade_lights
 11699  0E60  0820               	movf	??i1_display_blade_lights,w
 11700  0E61  07AE               	addwf	i1display_blade_lights@r,f
 11701  0E62  0A2E               	incf	i1display_blade_lights@r,w
 11702  0E63  1D03               	btfss	3,2
 11703  0E64  2DB7               	goto	i1l4731
 11704  0E65                     i1l4763:	
 11705                           
 11706                           ;lighting.c: 464: }
 11707                           ;lighting.c: 467: for(unsigned char r = 255;r > 0; r-=5)
 11708  0E65  30FF               	movlw	255
 11709  0E66  00A0               	movwf	??i1_display_blade_lights
 11710  0E67  0820               	movf	??i1_display_blade_lights,w
 11711  0E68  00AF               	movwf	i1display_blade_lights@r_640
 11712  0E69                     L5:	
 11713  0E69  082F               	movf	i1display_blade_lights@r_640,w
 11714  0E6A  1903               	btfsc	3,2
 11715  0E6B  2FFD               	goto	i1l4839
 11716                           
 11717                           ;lighting.c: 468: {
 11718                           ;lighting.c: 470: for(int i = 0;i < 4; i++){
 11719  0E6C  01A8               	clrf	i1display_blade_lights@i_641
 11720  0E6D  01A9               	clrf	i1display_blade_lights@i_641+1
 11721  0E6E  0829               	movf	i1display_blade_lights@i_641+1,w
 11722  0E6F  3A80               	xorlw	128
 11723  0E70  00A0               	movwf	??i1_display_blade_lights
 11724  0E71  3080               	movlw	128
 11725  0E72  0220               	subwf	??i1_display_blade_lights,w
 11726  0E73  1D03               	skipz
 11727  0E74  2E77               	goto	u396_25
 11728  0E75  3004               	movlw	4
 11729  0E76  0228               	subwf	i1display_blade_lights@i_641,w
 11730  0E77                     u396_25:	
 11731  0E77  1803               	btfsc	3,0
 11732  0E78  2E8D               	goto	i1l4781
 11733  0E79                     i1l4775:	
 11734                           
 11735                           ;lighting.c: 471: writespi(0x00);
 11736  0E79  3000               	movlw	0
 11737  0E7A  319B  2310  318C   	fcall	i1_writespi
 11738  0E7D  3001               	movlw	1
 11739  0E7E  0020               	movlb	0	; select bank0
 11740  0E7F  07A8               	addwf	i1display_blade_lights@i_641,f
 11741  0E80  3000               	movlw	0
 11742  0E81  3DA9               	addwfc	i1display_blade_lights@i_641+1,f
 11743  0E82  0829               	movf	i1display_blade_lights@i_641+1,w
 11744  0E83  3A80               	xorlw	128
 11745  0E84  00A0               	movwf	??i1_display_blade_lights
 11746  0E85  3080               	movlw	128
 11747  0E86  0220               	subwf	??i1_display_blade_lights,w
 11748  0E87  1D03               	skipz
 11749  0E88  2E8B               	goto	u397_25
 11750  0E89  3004               	movlw	4
 11751  0E8A  0228               	subwf	i1display_blade_lights@i_641,w
 11752  0E8B                     u397_25:	
 11753  0E8B  1C03               	skipc
 11754  0E8C  2E79               	goto	i1l4775
 11755  0E8D                     i1l4781:	
 11756                           
 11757                           ;lighting.c: 472: }
 11758                           ;lighting.c: 474: writespi(0xFF);
 11759  0E8D  30FF               	movlw	255
 11760  0E8E  319B  2310  318C   	fcall	i1_writespi
 11761                           
 11762                           ;lighting.c: 475: writespi(0x00);
 11763  0E91  3000               	movlw	0
 11764  0E92  319B  2310  318C   	fcall	i1_writespi
 11765                           
 11766                           ;lighting.c: 476: writespi(0x00);
 11767  0E95  3000               	movlw	0
 11768  0E96  319B  2310  318C   	fcall	i1_writespi
 11769                           
 11770                           ;lighting.c: 477: writespi(r);
 11771  0E99  0020               	movlb	0	; select bank0
 11772  0E9A  082F               	movf	i1display_blade_lights@r_640,w
 11773  0E9B  319B  2310  318C   	fcall	i1_writespi
 11774                           
 11775                           ;lighting.c: 479: writespi(0xFF);
 11776  0E9E  30FF               	movlw	255
 11777  0E9F  319B  2310  318C   	fcall	i1_writespi
 11778                           
 11779                           ;lighting.c: 480: writespi(0x00);
 11780  0EA2  3000               	movlw	0
 11781  0EA3  319B  2310  318C   	fcall	i1_writespi
 11782                           
 11783                           ;lighting.c: 481: writespi(0x00);
 11784  0EA6  3000               	movlw	0
 11785  0EA7  319B  2310  318C   	fcall	i1_writespi
 11786                           
 11787                           ;lighting.c: 482: writespi(255 - r);
 11788  0EAA  0020               	movlb	0	; select bank0
 11789  0EAB  032F               	decf	i1display_blade_lights@r_640,w
 11790  0EAC  3AFF               	xorlw	255
 11791  0EAD  3EFF               	addlw	255
 11792  0EAE  319B  2310  318C   	fcall	i1_writespi
 11793                           
 11794                           ;lighting.c: 484: writespi(0xFF);
 11795  0EB1  30FF               	movlw	255
 11796  0EB2  319B  2310  318C   	fcall	i1_writespi
 11797                           
 11798                           ;lighting.c: 485: writespi(0x00);
 11799  0EB5  3000               	movlw	0
 11800  0EB6  319B  2310  318C   	fcall	i1_writespi
 11801                           
 11802                           ;lighting.c: 486: writespi(0x00);
 11803  0EB9  3000               	movlw	0
 11804  0EBA  319B  2310  318C   	fcall	i1_writespi
 11805                           
 11806                           ;lighting.c: 487: writespi(r);
 11807  0EBD  0020               	movlb	0	; select bank0
 11808  0EBE  082F               	movf	i1display_blade_lights@r_640,w
 11809  0EBF  319B  2310  318C   	fcall	i1_writespi
 11810                           
 11811                           ;lighting.c: 489: writespi(0xFF);
 11812  0EC2  30FF               	movlw	255
 11813  0EC3  319B  2310  318C   	fcall	i1_writespi
 11814                           
 11815                           ;lighting.c: 490: writespi(0x00);
 11816  0EC6  3000               	movlw	0
 11817  0EC7  319B  2310  318C   	fcall	i1_writespi
 11818                           
 11819                           ;lighting.c: 491: writespi(0x00);
 11820  0ECA  3000               	movlw	0
 11821  0ECB  319B  2310  318C   	fcall	i1_writespi
 11822                           
 11823                           ;lighting.c: 492: writespi(255-r);
 11824  0ECE  0020               	movlb	0	; select bank0
 11825  0ECF  032F               	decf	i1display_blade_lights@r_640,w
 11826  0ED0  3AFF               	xorlw	255
 11827  0ED1  3EFF               	addlw	255
 11828  0ED2  319B  2310  318C   	fcall	i1_writespi
 11829                           
 11830                           ;lighting.c: 494: writespi(0xFF);
 11831  0ED5  30FF               	movlw	255
 11832  0ED6  319B  2310  318C   	fcall	i1_writespi
 11833                           
 11834                           ;lighting.c: 495: writespi(0x00);
 11835  0ED9  3000               	movlw	0
 11836  0EDA  319B  2310  318C   	fcall	i1_writespi
 11837                           
 11838                           ;lighting.c: 496: writespi(0x00);
 11839  0EDD  3000               	movlw	0
 11840  0EDE  319B  2310  318C   	fcall	i1_writespi
 11841                           
 11842                           ;lighting.c: 497: writespi(r);
 11843  0EE1  0020               	movlb	0	; select bank0
 11844  0EE2  082F               	movf	i1display_blade_lights@r_640,w
 11845  0EE3  319B  2310  318C   	fcall	i1_writespi
 11846                           
 11847                           ;lighting.c: 499: for(int i = 0;i < 4; i++){
 11848  0EE6  0020               	movlb	0	; select bank0
 11849  0EE7  01AA               	clrf	i1display_blade_lights@i_642
 11850  0EE8  01AB               	clrf	i1display_blade_lights@i_642+1
 11851  0EE9  082B               	movf	i1display_blade_lights@i_642+1,w
 11852  0EEA  3A80               	xorlw	128
 11853  0EEB  00A0               	movwf	??i1_display_blade_lights
 11854  0EEC  3080               	movlw	128
 11855  0EED  0220               	subwf	??i1_display_blade_lights,w
 11856  0EEE  1D03               	skipz
 11857  0EEF  2EF2               	goto	u398_25
 11858  0EF0  3004               	movlw	4
 11859  0EF1  022A               	subwf	i1display_blade_lights@i_642,w
 11860  0EF2                     u398_25:	
 11861  0EF2  1803               	btfsc	3,0
 11862  0EF3  2F08               	goto	i1l4795
 11863  0EF4                     i1l4789:	
 11864                           
 11865                           ;lighting.c: 500: writespi(0xFF);
 11866  0EF4  30FF               	movlw	255
 11867  0EF5  319B  2310  318C   	fcall	i1_writespi
 11868  0EF8  3001               	movlw	1
 11869  0EF9  0020               	movlb	0	; select bank0
 11870  0EFA  07AA               	addwf	i1display_blade_lights@i_642,f
 11871  0EFB  3000               	movlw	0
 11872  0EFC  3DAB               	addwfc	i1display_blade_lights@i_642+1,f
 11873  0EFD  082B               	movf	i1display_blade_lights@i_642+1,w
 11874  0EFE  3A80               	xorlw	128
 11875  0EFF  00A0               	movwf	??i1_display_blade_lights
 11876  0F00  3080               	movlw	128
 11877  0F01  0220               	subwf	??i1_display_blade_lights,w
 11878  0F02  1D03               	skipz
 11879  0F03  2F06               	goto	u399_25
 11880  0F04  3004               	movlw	4
 11881  0F05  022A               	subwf	i1display_blade_lights@i_642,w
 11882  0F06                     u399_25:	
 11883  0F06  1C03               	skipc
 11884  0F07  2EF4               	goto	i1l4789
 11885  0F08                     i1l4795:	
 11886                           
 11887                           ;lighting.c: 501: }
 11888                           ;lighting.c: 502: _delay((unsigned long)((20)*(32000000/4000.0)));
 11889  0F08  30D0               	movlw	208
 11890  0F09  0020               	movlb	0	; select bank0
 11891  0F0A  00A1               	movwf	??i1_display_blade_lights+1
 11892  0F0B  30C9               	movlw	201
 11893  0F0C  00A0               	movwf	??i1_display_blade_lights
 11894  0F0D                     u582_27:	
 11895  0F0D  0BA0               	decfsz	??i1_display_blade_lights,f
 11896  0F0E  2F0D               	goto	u582_27
 11897  0F0F  0BA1               	decfsz	??i1_display_blade_lights+1,f
 11898  0F10  2F0D               	goto	u582_27
 11899  0F11  3200               	nop2
 11900  0F12  3005               	movlw	5
 11901  0F13  0020               	movlb	0	; select bank0
 11902  0F14  02AF               	subwf	i1display_blade_lights@r_640,f
 11903  0F15  2E69               	goto	L5
 11904  0F16                     i1l4801:	
 11905                           ;lighting.c: 503: }
 11906                           ;lighting.c: 505: }
 11907                           
 11908                           
 11909                           ;lighting.c: 506: else if( mode == 3 )
 11910  0F16  3003               	movlw	3
 11911  0F17  0623               	xorwf	i1display_blade_lights@mode,w
 11912  0F18  1D03               	btfss	3,2
 11913  0F19  2FFD               	goto	i1l4839
 11914                           
 11915                           ;lighting.c: 507: {
 11916                           ;lighting.c: 509: led1_command(0xFF, 0xFF, 0, 0);
 11917  0F1A  30FF               	movlw	255
 11918  0F1B  00A0               	movwf	??i1_display_blade_lights
 11919  0F1C  0820               	movf	??i1_display_blade_lights,w
 11920  0F1D  00F3               	movwf	i1led1_command@red
 11921  0F1E  01F4               	clrf	i1led1_command@green
 11922  0F1F  01F5               	clrf	i1led1_command@blue
 11923  0F20  30FF               	movlw	255
 11924  0F21  319F  2745  318C   	fcall	i1_led1_command
 11925                           
 11926                           ;lighting.c: 510: _delay((unsigned long)((50)*(32000000/4000.0)));
 11927  0F24  3003               	movlw	3
 11928  0F25  0020               	movlb	0	; select bank0
 11929  0F26  00A2               	movwf	??i1_display_blade_lights+2
 11930  0F27  3008               	movlw	8
 11931  0F28  00A1               	movwf	??i1_display_blade_lights+1
 11932  0F29  3078               	movlw	120
 11933  0F2A  00A0               	movwf	??i1_display_blade_lights
 11934  0F2B                     u583_27:	
 11935  0F2B  0BA0               	decfsz	??i1_display_blade_lights,f
 11936  0F2C  2F2B               	goto	u583_27
 11937  0F2D  0BA1               	decfsz	??i1_display_blade_lights+1,f
 11938  0F2E  2F2B               	goto	u583_27
 11939  0F2F  0BA2               	decfsz	??i1_display_blade_lights+2,f
 11940  0F30  2F2B               	goto	u583_27
 11941                           
 11942                           ;lighting.c: 512: led2_command(0xFF, 0xFF, 0, 0);
 11943  0F31  30FF               	movlw	255
 11944  0F32  0020               	movlb	0	; select bank0
 11945  0F33  00A0               	movwf	??i1_display_blade_lights
 11946  0F34  0820               	movf	??i1_display_blade_lights,w
 11947  0F35  00F3               	movwf	i1led2_command@red
 11948  0F36  01F4               	clrf	i1led2_command@green
 11949  0F37  01F5               	clrf	i1led2_command@blue
 11950  0F38  30FF               	movlw	255
 11951  0F39  3190  2080  318C   	fcall	i1_led2_command
 11952                           
 11953                           ;lighting.c: 513: _delay((unsigned long)((50)*(32000000/4000.0)));
 11954  0F3C  3003               	movlw	3
 11955  0F3D  0020               	movlb	0	; select bank0
 11956  0F3E  00A2               	movwf	??i1_display_blade_lights+2
 11957  0F3F  3008               	movlw	8
 11958  0F40  00A1               	movwf	??i1_display_blade_lights+1
 11959  0F41  3078               	movlw	120
 11960  0F42  00A0               	movwf	??i1_display_blade_lights
 11961  0F43                     u584_27:	
 11962  0F43  0BA0               	decfsz	??i1_display_blade_lights,f
 11963  0F44  2F43               	goto	u584_27
 11964  0F45  0BA1               	decfsz	??i1_display_blade_lights+1,f
 11965  0F46  2F43               	goto	u584_27
 11966  0F47  0BA2               	decfsz	??i1_display_blade_lights+2,f
 11967  0F48  2F43               	goto	u584_27
 11968                           
 11969                           ;lighting.c: 515: led3_command(0xFF, 0xFF, 0, 0);
 11970  0F49  30FF               	movlw	255
 11971  0F4A  0020               	movlb	0	; select bank0
 11972  0F4B  00A0               	movwf	??i1_display_blade_lights
 11973  0F4C  0820               	movf	??i1_display_blade_lights,w
 11974  0F4D  00F3               	movwf	i1led3_command@red
 11975  0F4E  01F4               	clrf	i1led3_command@green
 11976  0F4F  01F5               	clrf	i1led3_command@blue
 11977  0F50  30FF               	movlw	255
 11978  0F51  3191  213B  318C   	fcall	i1_led3_command
 11979                           
 11980                           ;lighting.c: 516: _delay((unsigned long)((50)*(32000000/4000.0)));
 11981  0F54  3003               	movlw	3
 11982  0F55  0020               	movlb	0	; select bank0
 11983  0F56  00A2               	movwf	??i1_display_blade_lights+2
 11984  0F57  3008               	movlw	8
 11985  0F58  00A1               	movwf	??i1_display_blade_lights+1
 11986  0F59  3078               	movlw	120
 11987  0F5A  00A0               	movwf	??i1_display_blade_lights
 11988  0F5B                     u585_27:	
 11989  0F5B  0BA0               	decfsz	??i1_display_blade_lights,f
 11990  0F5C  2F5B               	goto	u585_27
 11991  0F5D  0BA1               	decfsz	??i1_display_blade_lights+1,f
 11992  0F5E  2F5B               	goto	u585_27
 11993  0F5F  0BA2               	decfsz	??i1_display_blade_lights+2,f
 11994  0F60  2F5B               	goto	u585_27
 11995                           
 11996                           ;lighting.c: 518: led4_command(0xFF, 0xFF, 0, 0);
 11997  0F61  30FF               	movlw	255
 11998  0F62  0020               	movlb	0	; select bank0
 11999  0F63  00A0               	movwf	??i1_display_blade_lights
 12000  0F64  0820               	movf	??i1_display_blade_lights,w
 12001  0F65  00F3               	movwf	i1led4_command@red
 12002  0F66  01F4               	clrf	i1led4_command@green
 12003  0F67  01F5               	clrf	i1led4_command@blue
 12004  0F68  30FF               	movlw	255
 12005  0F69  3191  21F6  318C   	fcall	i1_led4_command
 12006                           
 12007                           ;lighting.c: 519: _delay((unsigned long)((50)*(32000000/4000.0)));
 12008  0F6C  3003               	movlw	3
 12009  0F6D  0020               	movlb	0	; select bank0
 12010  0F6E  00A2               	movwf	??i1_display_blade_lights+2
 12011  0F6F  3008               	movlw	8
 12012  0F70  00A1               	movwf	??i1_display_blade_lights+1
 12013  0F71  3078               	movlw	120
 12014  0F72  00A0               	movwf	??i1_display_blade_lights
 12015  0F73                     u586_27:	
 12016  0F73  0BA0               	decfsz	??i1_display_blade_lights,f
 12017  0F74  2F73               	goto	u586_27
 12018  0F75  0BA1               	decfsz	??i1_display_blade_lights+1,f
 12019  0F76  2F73               	goto	u586_27
 12020  0F77  0BA2               	decfsz	??i1_display_blade_lights+2,f
 12021  0F78  2F73               	goto	u586_27
 12022                           
 12023                           ;lighting.c: 521: led5_command(0xFF, 0xFF, 0, 0);
 12024  0F79  30FF               	movlw	255
 12025  0F7A  0020               	movlb	0	; select bank0
 12026  0F7B  00A0               	movwf	??i1_display_blade_lights
 12027  0F7C  0820               	movf	??i1_display_blade_lights,w
 12028  0F7D  00F3               	movwf	i1led5_command@red
 12029  0F7E  01F4               	clrf	i1led5_command@green
 12030  0F7F  01F5               	clrf	i1led5_command@blue
 12031  0F80  30FF               	movlw	255
 12032  0F81  3192  22B1  318C   	fcall	i1_led5_command
 12033                           
 12034                           ;lighting.c: 522: _delay((unsigned long)((50)*(32000000/4000.0)));
 12035  0F84  3003               	movlw	3
 12036  0F85  0020               	movlb	0	; select bank0
 12037  0F86  00A2               	movwf	??i1_display_blade_lights+2
 12038  0F87  3008               	movlw	8
 12039  0F88  00A1               	movwf	??i1_display_blade_lights+1
 12040  0F89  3078               	movlw	120
 12041  0F8A  00A0               	movwf	??i1_display_blade_lights
 12042  0F8B                     u587_27:	
 12043  0F8B  0BA0               	decfsz	??i1_display_blade_lights,f
 12044  0F8C  2F8B               	goto	u587_27
 12045  0F8D  0BA1               	decfsz	??i1_display_blade_lights+1,f
 12046  0F8E  2F8B               	goto	u587_27
 12047  0F8F  0BA2               	decfsz	??i1_display_blade_lights+2,f
 12048  0F90  2F8B               	goto	u587_27
 12049                           
 12050                           ;lighting.c: 524: led6_command(0xFF, 0xFF, 0, 0);
 12051  0F91  30FF               	movlw	255
 12052  0F92  0020               	movlb	0	; select bank0
 12053  0F93  00A0               	movwf	??i1_display_blade_lights
 12054  0F94  0820               	movf	??i1_display_blade_lights,w
 12055  0F95  00F3               	movwf	i1led6_command@red
 12056  0F96  01F4               	clrf	i1led6_command@green
 12057  0F97  01F5               	clrf	i1led6_command@blue
 12058  0F98  30FF               	movlw	255
 12059  0F99  3193  236C  318C   	fcall	i1_led6_command
 12060                           
 12061                           ;lighting.c: 525: _delay((unsigned long)((50)*(32000000/4000.0)));
 12062  0F9C  3003               	movlw	3
 12063  0F9D  0020               	movlb	0	; select bank0
 12064  0F9E  00A2               	movwf	??i1_display_blade_lights+2
 12065  0F9F  3008               	movlw	8
 12066  0FA0  00A1               	movwf	??i1_display_blade_lights+1
 12067  0FA1  3078               	movlw	120
 12068  0FA2  00A0               	movwf	??i1_display_blade_lights
 12069  0FA3                     u588_27:	
 12070  0FA3  0BA0               	decfsz	??i1_display_blade_lights,f
 12071  0FA4  2FA3               	goto	u588_27
 12072  0FA5  0BA1               	decfsz	??i1_display_blade_lights+1,f
 12073  0FA6  2FA3               	goto	u588_27
 12074  0FA7  0BA2               	decfsz	??i1_display_blade_lights+2,f
 12075  0FA8  2FA3               	goto	u588_27
 12076                           
 12077                           ;lighting.c: 527: led7_command(0xFF, 0xFF, 0, 0);
 12078  0FA9  30FF               	movlw	255
 12079  0FAA  0020               	movlb	0	; select bank0
 12080  0FAB  00A0               	movwf	??i1_display_blade_lights
 12081  0FAC  0820               	movf	??i1_display_blade_lights,w
 12082  0FAD  00F3               	movwf	i1led7_command@red
 12083  0FAE  01F4               	clrf	i1led7_command@green
 12084  0FAF  01F5               	clrf	i1led7_command@blue
 12085  0FB0  30FF               	movlw	255
 12086  0FB1  3194  2427  318C   	fcall	i1_led7_command
 12087                           
 12088                           ;lighting.c: 528: _delay((unsigned long)((50)*(32000000/4000.0)));
 12089  0FB4  3003               	movlw	3
 12090  0FB5  0020               	movlb	0	; select bank0
 12091  0FB6  00A2               	movwf	??i1_display_blade_lights+2
 12092  0FB7  3008               	movlw	8
 12093  0FB8  00A1               	movwf	??i1_display_blade_lights+1
 12094  0FB9  3078               	movlw	120
 12095  0FBA  00A0               	movwf	??i1_display_blade_lights
 12096  0FBB                     u589_27:	
 12097  0FBB  0BA0               	decfsz	??i1_display_blade_lights,f
 12098  0FBC  2FBB               	goto	u589_27
 12099  0FBD  0BA1               	decfsz	??i1_display_blade_lights+1,f
 12100  0FBE  2FBB               	goto	u589_27
 12101  0FBF  0BA2               	decfsz	??i1_display_blade_lights+2,f
 12102  0FC0  2FBB               	goto	u589_27
 12103                           
 12104                           ;lighting.c: 530: for(unsigned char i = 0; i < 4; ++i)
 12105  0FC1  0020               	movlb	0	; select bank0
 12106  0FC2  01AD               	clrf	i1display_blade_lights@i_643
 12107  0FC3  3004               	movlw	4
 12108  0FC4  022D               	subwf	i1display_blade_lights@i_643,w
 12109  0FC5  1803               	btfsc	3,0
 12110  0FC6  2FFD               	goto	i1l4839
 12111  0FC7                     i1l4829:	
 12112                           
 12113                           ;lighting.c: 531: {
 12114                           ;lighting.c: 533: led7_command(0xFF, 0xFF, 0, 0);
 12115  0FC7  30FF               	movlw	255
 12116  0FC8  00A0               	movwf	??i1_display_blade_lights
 12117  0FC9  0820               	movf	??i1_display_blade_lights,w
 12118  0FCA  00F3               	movwf	i1led7_command@red
 12119  0FCB  01F4               	clrf	i1led7_command@green
 12120  0FCC  01F5               	clrf	i1led7_command@blue
 12121  0FCD  30FF               	movlw	255
 12122  0FCE  3194  2427  318C   	fcall	i1_led7_command
 12123                           
 12124                           ;lighting.c: 534: _delay((unsigned long)((25)*(32000000/4000.0)));
 12125  0FD1  3002               	movlw	2
 12126  0FD2  0020               	movlb	0	; select bank0
 12127  0FD3  00A2               	movwf	??i1_display_blade_lights+2
 12128  0FD4  3004               	movlw	4
 12129  0FD5  00A1               	movwf	??i1_display_blade_lights+1
 12130  0FD6  30BA               	movlw	186
 12131  0FD7  00A0               	movwf	??i1_display_blade_lights
 12132  0FD8                     u590_27:	
 12133  0FD8  0BA0               	decfsz	??i1_display_blade_lights,f
 12134  0FD9  2FD8               	goto	u590_27
 12135  0FDA  0BA1               	decfsz	??i1_display_blade_lights+1,f
 12136  0FDB  2FD8               	goto	u590_27
 12137  0FDC  0BA2               	decfsz	??i1_display_blade_lights+2,f
 12138  0FDD  2FD8               	goto	u590_27
 12139  0FDE  0000               	nop
 12140                           
 12141                           ;lighting.c: 536: led7_command(0xFF, 0, 0, 0);
 12142  0FDF  01F3               	clrf	i1led7_command@red
 12143  0FE0  01F4               	clrf	i1led7_command@green
 12144  0FE1  01F5               	clrf	i1led7_command@blue
 12145  0FE2  30FF               	movlw	255
 12146  0FE3  3194  2427  318C   	fcall	i1_led7_command
 12147                           
 12148                           ;lighting.c: 537: _delay((unsigned long)((25)*(32000000/4000.0)));
 12149  0FE6  3002               	movlw	2
 12150  0FE7  0020               	movlb	0	; select bank0
 12151  0FE8  00A2               	movwf	??i1_display_blade_lights+2
 12152  0FE9  3004               	movlw	4
 12153  0FEA  00A1               	movwf	??i1_display_blade_lights+1
 12154  0FEB  30BA               	movlw	186
 12155  0FEC  00A0               	movwf	??i1_display_blade_lights
 12156  0FED                     u591_27:	
 12157  0FED  0BA0               	decfsz	??i1_display_blade_lights,f
 12158  0FEE  2FED               	goto	u591_27
 12159  0FEF  0BA1               	decfsz	??i1_display_blade_lights+1,f
 12160  0FF0  2FED               	goto	u591_27
 12161  0FF1  0BA2               	decfsz	??i1_display_blade_lights+2,f
 12162  0FF2  2FED               	goto	u591_27
 12163  0FF3  0000               	nop
 12164  0FF4  3001               	movlw	1
 12165  0FF5  0020               	movlb	0	; select bank0
 12166  0FF6  00A0               	movwf	??i1_display_blade_lights
 12167  0FF7  0820               	movf	??i1_display_blade_lights,w
 12168  0FF8  07AD               	addwf	i1display_blade_lights@i_643,f
 12169  0FF9  3004               	movlw	4
 12170  0FFA  022D               	subwf	i1display_blade_lights@i_643,w
 12171  0FFB  1C03               	skipc
 12172  0FFC  2FC7               	goto	i1l4829
 12173  0FFD                     i1l4839:	
 12174                           
 12175                           ;lighting.c: 538: }
 12176                           ;lighting.c: 539: }
 12177                           ;lighting.c: 540: leds_off();
 12178  0FFD  319E  268B         	fcall	i1_leds_off
 12179  0FFF  0008               	return
 12180  1000                     __end_ofi1_display_blade_lights:	
 12181                           
 12182                           	psect	text25
 12183  1E8B                     __ptext25:	
 12184 ;; *************** function i1_leds_off *****************
 12185 ;; Defined at:
 12186 ;;		line 959 in file "../../source/lighting.c"
 12187 ;; Parameters:    Size  Location     Type
 12188 ;;		None
 12189 ;; Auto vars:     Size  Location     Type
 12190 ;;  leds_off        2    7[COMMON] int 
 12191 ;;  leds_off        2    5[COMMON] int 
 12192 ;; Return value:  Size  Location     Type
 12193 ;;		None               void
 12194 ;; Registers used:
 12195 ;;		wreg, status,2, status,0, pclath, cstack
 12196 ;; Tracked objects:
 12197 ;;		On entry : 0/0
 12198 ;;		On exit  : 0/0
 12199 ;;		Unchanged: 0/0
 12200 ;; Data sizes:     COMMON   BANK0   BANK1   BANK2   BANK3   BANK4   BANK5   BANK6   BANK7   BANK8   BANK9  BANK10  BANK1
      +1  BANK12  BANK13  BANK14  BANK15  BANK16  BANK17  BANK18  BANK19  BANK20  BANK21  BANK22  BANK23  BANK24  BANK25
 12201 ;;      Params:         0       0       0       0       0       0       0       0       0       0       0       0       
      +0       0       0       0       0       0       0       0       0       0       0       0       0       0       0
 12202 ;;      Locals:         4       0       0       0       0       0       0       0       0       0       0       0       
      +0       0       0       0       0       0       0       0       0       0       0       0       0       0       0
 12203 ;;      Temps:          2       0       0       0       0       0       0       0       0       0       0       0       
      +0       0       0       0       0       0       0       0       0       0       0       0       0       0       0
 12204 ;;      Totals:         6       0       0       0       0       0       0       0       0       0       0       0       
      +0       0       0       0       0       0       0       0       0       0       0       0       0       0       0
 12205 ;;Total ram usage:        6 bytes
 12206 ;; Hardware stack levels used:    1
 12207 ;; Hardware stack levels required when called:    1
 12208 ;; This function calls:
 12209 ;;		i1_writespi
 12210 ;; This function is called by:
 12211 ;;		i1_display_blade_lights
 12212 ;; This function uses a non-reentrant model
 12213 ;;
 12214                           
 12215                           
 12216                           ;psect for function i1_leds_off
 12217  1E8B                     i1_leds_off:	
 12218                           
 12219                           ;lighting.c: 962: for(int i = 0;i < 4; i++)
 12220                           
 12221                           ;incstack = 0
 12222                           ; Regs used in i1_leds_off: [wreg+status,2+status,0+pclath+cstack]
 12223  1E8B  01F5               	clrf	i1leds_off@i
 12224  1E8C  01F6               	clrf	i1leds_off@i+1
 12225  1E8D  0876               	movf	i1leds_off@i+1,w
 12226  1E8E  3A80               	xorlw	128
 12227  1E8F  00F3               	movwf	??i1_leds_off
 12228  1E90  3080               	movlw	128
 12229  1E91  0273               	subwf	??i1_leds_off,w
 12230  1E92  1D03               	skipz
 12231  1E93  2E96               	goto	u298_25
 12232  1E94  3004               	movlw	4
 12233  1E95  0275               	subwf	i1leds_off@i,w
 12234  1E96                     u298_25:	
 12235  1E96  1803               	btfsc	3,0
 12236  1E97  2EAB               	goto	i1l3661
 12237  1E98                     i1l3655:	
 12238                           
 12239                           ;lighting.c: 963: {
 12240                           ;lighting.c: 964: writespi(0x00);
 12241  1E98  3000               	movlw	0
 12242  1E99  319B  2310  319E   	fcall	i1_writespi
 12243  1E9C  3001               	movlw	1
 12244  1E9D  07F5               	addwf	i1leds_off@i,f
 12245  1E9E  3000               	movlw	0
 12246  1E9F  3DF6               	addwfc	i1leds_off@i+1,f
 12247  1EA0  0876               	movf	i1leds_off@i+1,w
 12248  1EA1  3A80               	xorlw	128
 12249  1EA2  00F3               	movwf	??i1_leds_off
 12250  1EA3  3080               	movlw	128
 12251  1EA4  0273               	subwf	??i1_leds_off,w
 12252  1EA5  1D03               	skipz
 12253  1EA6  2EA9               	goto	u299_25
 12254  1EA7  3004               	movlw	4
 12255  1EA8  0275               	subwf	i1leds_off@i,w
 12256  1EA9                     u299_25:	
 12257  1EA9  1C03               	skipc
 12258  1EAA  2E98               	goto	i1l3655
 12259  1EAB                     i1l3661:	
 12260                           
 12261                           ;lighting.c: 965: }
 12262                           ;lighting.c: 967: writespi(0xFF);
 12263  1EAB  30FF               	movlw	255
 12264  1EAC  319B  2310  319E   	fcall	i1_writespi
 12265                           
 12266                           ;lighting.c: 968: writespi(0);
 12267  1EAF  3000               	movlw	0
 12268  1EB0  319B  2310  319E   	fcall	i1_writespi
 12269                           
 12270                           ;lighting.c: 969: writespi(0);
 12271  1EB3  3000               	movlw	0
 12272  1EB4  319B  2310  319E   	fcall	i1_writespi
 12273                           
 12274                           ;lighting.c: 970: writespi(0);
 12275  1EB7  3000               	movlw	0
 12276  1EB8  319B  2310  319E   	fcall	i1_writespi
 12277                           
 12278                           ;lighting.c: 972: writespi(0xFF);
 12279  1EBB  30FF               	movlw	255
 12280  1EBC  319B  2310  319E   	fcall	i1_writespi
 12281                           
 12282                           ;lighting.c: 973: writespi(0);
 12283  1EBF  3000               	movlw	0
 12284  1EC0  319B  2310  319E   	fcall	i1_writespi
 12285                           
 12286                           ;lighting.c: 974: writespi(0);
 12287  1EC3  3000               	movlw	0
 12288  1EC4  319B  2310  319E   	fcall	i1_writespi
 12289                           
 12290                           ;lighting.c: 975: writespi(0);
 12291  1EC7  3000               	movlw	0
 12292  1EC8  319B  2310  319E   	fcall	i1_writespi
 12293                           
 12294                           ;lighting.c: 977: writespi(0xFF);
 12295  1ECB  30FF               	movlw	255
 12296  1ECC  319B  2310  319E   	fcall	i1_writespi
 12297                           
 12298                           ;lighting.c: 978: writespi(0);
 12299  1ECF  3000               	movlw	0
 12300  1ED0  319B  2310  319E   	fcall	i1_writespi
 12301                           
 12302                           ;lighting.c: 979: writespi(0);
 12303  1ED3  3000               	movlw	0
 12304  1ED4  319B  2310  319E   	fcall	i1_writespi
 12305                           
 12306                           ;lighting.c: 980: writespi(0);
 12307  1ED7  3000               	movlw	0
 12308  1ED8  319B  2310  319E   	fcall	i1_writespi
 12309                           
 12310                           ;lighting.c: 982: writespi(0xFF);
 12311  1EDB  30FF               	movlw	255
 12312  1EDC  319B  2310  319E   	fcall	i1_writespi
 12313                           
 12314                           ;lighting.c: 983: writespi(0);
 12315  1EDF  3000               	movlw	0
 12316  1EE0  319B  2310  319E   	fcall	i1_writespi
 12317                           
 12318                           ;lighting.c: 984: writespi(0);
 12319  1EE3  3000               	movlw	0
 12320  1EE4  319B  2310  319E   	fcall	i1_writespi
 12321                           
 12322                           ;lighting.c: 985: writespi(0);
 12323  1EE7  3000               	movlw	0
 12324  1EE8  319B  2310  319E   	fcall	i1_writespi
 12325                           
 12326                           ;lighting.c: 987: writespi(0xFF);
 12327  1EEB  30FF               	movlw	255
 12328  1EEC  319B  2310  319E   	fcall	i1_writespi
 12329                           
 12330                           ;lighting.c: 988: writespi(0);
 12331  1EEF  3000               	movlw	0
 12332  1EF0  319B  2310  319E   	fcall	i1_writespi
 12333                           
 12334                           ;lighting.c: 989: writespi(0);
 12335  1EF3  3000               	movlw	0
 12336  1EF4  319B  2310  319E   	fcall	i1_writespi
 12337                           
 12338                           ;lighting.c: 990: writespi(0);
 12339  1EF7  3000               	movlw	0
 12340  1EF8  319B  2310  319E   	fcall	i1_writespi
 12341                           
 12342                           ;lighting.c: 992: writespi(0xFF);
 12343  1EFB  30FF               	movlw	255
 12344  1EFC  319B  2310  319E   	fcall	i1_writespi
 12345                           
 12346                           ;lighting.c: 993: writespi(0);
 12347  1EFF  3000               	movlw	0
 12348  1F00  319B  2310  319E   	fcall	i1_writespi
 12349                           
 12350                           ;lighting.c: 994: writespi(0);
 12351  1F03  3000               	movlw	0
 12352  1F04  319B  2310  319E   	fcall	i1_writespi
 12353                           
 12354                           ;lighting.c: 995: writespi(0);
 12355  1F07  3000               	movlw	0
 12356  1F08  319B  2310  319E   	fcall	i1_writespi
 12357                           
 12358                           ;lighting.c: 997: writespi(0xFF);
 12359  1F0B  30FF               	movlw	255
 12360  1F0C  319B  2310  319E   	fcall	i1_writespi
 12361                           
 12362                           ;lighting.c: 998: writespi(0);
 12363  1F0F  3000               	movlw	0
 12364  1F10  319B  2310  319E   	fcall	i1_writespi
 12365                           
 12366                           ;lighting.c: 999: writespi(0);
 12367  1F13  3000               	movlw	0
 12368  1F14  319B  2310  319E   	fcall	i1_writespi
 12369                           
 12370                           ;lighting.c: 1000: writespi(0);
 12371  1F17  3000               	movlw	0
 12372  1F18  319B  2310  319E   	fcall	i1_writespi
 12373                           
 12374                           ;lighting.c: 1002: for(int i = 0;i < 4; i++)
 12375  1F1B  01F7               	clrf	i1leds_off@i_720
 12376  1F1C  01F8               	clrf	i1leds_off@i_720+1
 12377  1F1D  0878               	movf	i1leds_off@i_720+1,w
 12378  1F1E  3A80               	xorlw	128
 12379  1F1F  00F3               	movwf	??i1_leds_off
 12380  1F20  3080               	movlw	128
 12381  1F21  0273               	subwf	??i1_leds_off,w
 12382  1F22  1D03               	skipz
 12383  1F23  2F26               	goto	u300_25
 12384  1F24  3004               	movlw	4
 12385  1F25  0277               	subwf	i1leds_off@i_720,w
 12386  1F26                     u300_25:	
 12387  1F26  1803               	btfsc	3,0
 12388  1F27  2F3B               	goto	i1l3675
 12389  1F28                     i1l3669:	
 12390                           
 12391                           ;lighting.c: 1003: {
 12392                           ;lighting.c: 1004: writespi(0xFF);
 12393  1F28  30FF               	movlw	255
 12394  1F29  319B  2310  319E   	fcall	i1_writespi
 12395  1F2C  3001               	movlw	1
 12396  1F2D  07F7               	addwf	i1leds_off@i_720,f
 12397  1F2E  3000               	movlw	0
 12398  1F2F  3DF8               	addwfc	i1leds_off@i_720+1,f
 12399  1F30  0878               	movf	i1leds_off@i_720+1,w
 12400  1F31  3A80               	xorlw	128
 12401  1F32  00F3               	movwf	??i1_leds_off
 12402  1F33  3080               	movlw	128
 12403  1F34  0273               	subwf	??i1_leds_off,w
 12404  1F35  1D03               	skipz
 12405  1F36  2F39               	goto	u301_25
 12406  1F37  3004               	movlw	4
 12407  1F38  0277               	subwf	i1leds_off@i_720,w
 12408  1F39                     u301_25:	
 12409  1F39  1C03               	skipc
 12410  1F3A  2F28               	goto	i1l3669
 12411  1F3B                     i1l3675:	
 12412                           
 12413                           ;lighting.c: 1005: }
 12414                           ;lighting.c: 1006: _delay((unsigned long)((20)*(32000000/4000.0)));
 12415  1F3B  30D0               	movlw	208
 12416  1F3C  00F4               	movwf	??i1_leds_off+1
 12417  1F3D  30C9               	movlw	201
 12418  1F3E  00F3               	movwf	??i1_leds_off
 12419  1F3F                     u592_27:	
 12420  1F3F  0BF3               	decfsz	??i1_leds_off,f
 12421  1F40  2F3F               	goto	u592_27
 12422  1F41  0BF4               	decfsz	??i1_leds_off+1,f
 12423  1F42  2F3F               	goto	u592_27
 12424  1F43  3200               	nop2
 12425  1F44  0008               	return
 12426  1F45                     __end_ofi1_leds_off:	
 12427                           
 12428                           	psect	text26
 12429  1427                     __ptext26:	
 12430 ;; *************** function i1_led7_command *****************
 12431 ;; Defined at:
 12432 ;;		line 906 in file "../../source/lighting.c"
 12433 ;; Parameters:    Size  Location     Type
 12434 ;;  brightness      1    wreg     unsigned char 
 12435 ;;  red             1    3[COMMON] unsigned char 
 12436 ;;  green           1    4[COMMON] unsigned char 
 12437 ;;  blue            1    5[COMMON] unsigned char 
 12438 ;; Auto vars:     Size  Location     Type
 12439 ;;  brightness      1    8[COMMON] unsigned char 
 12440 ;;  led7_command    2   11[COMMON] int 
 12441 ;;  led7_command    2    9[COMMON] int 
 12442 ;; Return value:  Size  Location     Type
 12443 ;;		None               void
 12444 ;; Registers used:
 12445 ;;		wreg, status,2, status,0, pclath, cstack
 12446 ;; Tracked objects:
 12447 ;;		On entry : 0/0
 12448 ;;		On exit  : 0/0
 12449 ;;		Unchanged: 0/0
 12450 ;; Data sizes:     COMMON   BANK0   BANK1   BANK2   BANK3   BANK4   BANK5   BANK6   BANK7   BANK8   BANK9  BANK10  BANK1
      +1  BANK12  BANK13  BANK14  BANK15  BANK16  BANK17  BANK18  BANK19  BANK20  BANK21  BANK22  BANK23  BANK24  BANK25
 12451 ;;      Params:         3       0       0       0       0       0       0       0       0       0       0       0       
      +0       0       0       0       0       0       0       0       0       0       0       0       0       0       0
 12452 ;;      Locals:         5       0       0       0       0       0       0       0       0       0       0       0       
      +0       0       0       0       0       0       0       0       0       0       0       0       0       0       0
 12453 ;;      Temps:          2       0       0       0       0       0       0       0       0       0       0       0       
      +0       0       0       0       0       0       0       0       0       0       0       0       0       0       0
 12454 ;;      Totals:        10       0       0       0       0       0       0       0       0       0       0       0       
      +0       0       0       0       0       0       0       0       0       0       0       0       0       0       0
 12455 ;;Total ram usage:       10 bytes
 12456 ;; Hardware stack levels used:    1
 12457 ;; Hardware stack levels required when called:    1
 12458 ;; This function calls:
 12459 ;;		i1_writespi
 12460 ;; This function is called by:
 12461 ;;		i1_display_blade_lights
 12462 ;; This function uses a non-reentrant model
 12463 ;;
 12464                           
 12465                           
 12466                           ;psect for function i1_led7_command
 12467  1427                     i1_led7_command:	
 12468                           
 12469                           ;incstack = 0
 12470                           ; Regs used in i1_led7_command: [wreg+status,2+status,0+pclath+cstack]
 12471                           ;i1led7_command@brightness stored from wreg
 12472  1427  00F8               	movwf	i1led7_command@brightness
 12473                           
 12474                           ;lighting.c: 912: for(int i = 0;i < 4; i++)
 12475  1428  01F9               	clrf	i1led7_command@i
 12476  1429  01FA               	clrf	i1led7_command@i+1
 12477  142A  087A               	movf	i1led7_command@i+1,w
 12478  142B  3A80               	xorlw	128
 12479  142C  00F6               	movwf	??i1_led7_command
 12480  142D  3080               	movlw	128
 12481  142E  0276               	subwf	??i1_led7_command,w
 12482  142F  1D03               	skipz
 12483  1430  2C33               	goto	u294_25
 12484  1431  3004               	movlw	4
 12485  1432  0279               	subwf	i1led7_command@i,w
 12486  1433                     u294_25:	
 12487  1433  1803               	btfsc	3,0
 12488  1434  2C48               	goto	i1l3633
 12489  1435                     i1l3627:	
 12490                           
 12491                           ;lighting.c: 913: {
 12492                           ;lighting.c: 914: writespi(0x00);
 12493  1435  3000               	movlw	0
 12494  1436  319B  2310  3194   	fcall	i1_writespi
 12495  1439  3001               	movlw	1
 12496  143A  07F9               	addwf	i1led7_command@i,f
 12497  143B  3000               	movlw	0
 12498  143C  3DFA               	addwfc	i1led7_command@i+1,f
 12499  143D  087A               	movf	i1led7_command@i+1,w
 12500  143E  3A80               	xorlw	128
 12501  143F  00F6               	movwf	??i1_led7_command
 12502  1440  3080               	movlw	128
 12503  1441  0276               	subwf	??i1_led7_command,w
 12504  1442  1D03               	skipz
 12505  1443  2C46               	goto	u295_25
 12506  1444  3004               	movlw	4
 12507  1445  0279               	subwf	i1led7_command@i,w
 12508  1446                     u295_25:	
 12509  1446  1C03               	skipc
 12510  1447  2C35               	goto	i1l3627
 12511  1448                     i1l3633:	
 12512                           
 12513                           ;lighting.c: 915: }
 12514                           ;lighting.c: 917: writespi(0xFF);
 12515  1448  30FF               	movlw	255
 12516  1449  319B  2310  3194   	fcall	i1_writespi
 12517                           
 12518                           ;lighting.c: 918: writespi(0);
 12519  144C  3000               	movlw	0
 12520  144D  319B  2310  3194   	fcall	i1_writespi
 12521                           
 12522                           ;lighting.c: 919: writespi(0);
 12523  1450  3000               	movlw	0
 12524  1451  319B  2310  3194   	fcall	i1_writespi
 12525                           
 12526                           ;lighting.c: 920: writespi(0);
 12527  1454  3000               	movlw	0
 12528  1455  319B  2310  3194   	fcall	i1_writespi
 12529                           
 12530                           ;lighting.c: 922: writespi(0xFF);
 12531  1458  30FF               	movlw	255
 12532  1459  319B  2310  3194   	fcall	i1_writespi
 12533                           
 12534                           ;lighting.c: 923: writespi(0);
 12535  145C  3000               	movlw	0
 12536  145D  319B  2310  3194   	fcall	i1_writespi
 12537                           
 12538                           ;lighting.c: 924: writespi(0);
 12539  1460  3000               	movlw	0
 12540  1461  319B  2310  3194   	fcall	i1_writespi
 12541                           
 12542                           ;lighting.c: 925: writespi(0);
 12543  1464  3000               	movlw	0
 12544  1465  319B  2310  3194   	fcall	i1_writespi
 12545                           
 12546                           ;lighting.c: 927: writespi(0xFF);
 12547  1468  30FF               	movlw	255
 12548  1469  319B  2310  3194   	fcall	i1_writespi
 12549                           
 12550                           ;lighting.c: 928: writespi(0);
 12551  146C  3000               	movlw	0
 12552  146D  319B  2310  3194   	fcall	i1_writespi
 12553                           
 12554                           ;lighting.c: 929: writespi(0);
 12555  1470  3000               	movlw	0
 12556  1471  319B  2310  3194   	fcall	i1_writespi
 12557                           
 12558                           ;lighting.c: 930: writespi(0);
 12559  1474  3000               	movlw	0
 12560  1475  319B  2310  3194   	fcall	i1_writespi
 12561                           
 12562                           ;lighting.c: 932: writespi(0xFF);
 12563  1478  30FF               	movlw	255
 12564  1479  319B  2310  3194   	fcall	i1_writespi
 12565                           
 12566                           ;lighting.c: 933: writespi(0);
 12567  147C  3000               	movlw	0
 12568  147D  319B  2310  3194   	fcall	i1_writespi
 12569                           
 12570                           ;lighting.c: 934: writespi(0);
 12571  1480  3000               	movlw	0
 12572  1481  319B  2310  3194   	fcall	i1_writespi
 12573                           
 12574                           ;lighting.c: 935: writespi(0);
 12575  1484  3000               	movlw	0
 12576  1485  319B  2310  3194   	fcall	i1_writespi
 12577                           
 12578                           ;lighting.c: 937: writespi(0xFF);
 12579  1488  30FF               	movlw	255
 12580  1489  319B  2310  3194   	fcall	i1_writespi
 12581                           
 12582                           ;lighting.c: 938: writespi(0);
 12583  148C  3000               	movlw	0
 12584  148D  319B  2310  3194   	fcall	i1_writespi
 12585                           
 12586                           ;lighting.c: 939: writespi(0);
 12587  1490  3000               	movlw	0
 12588  1491  319B  2310  3194   	fcall	i1_writespi
 12589                           
 12590                           ;lighting.c: 940: writespi(0);
 12591  1494  3000               	movlw	0
 12592  1495  319B  2310  3194   	fcall	i1_writespi
 12593                           
 12594                           ;lighting.c: 942: writespi(0xFF);
 12595  1498  30FF               	movlw	255
 12596  1499  319B  2310  3194   	fcall	i1_writespi
 12597                           
 12598                           ;lighting.c: 943: writespi(0);
 12599  149C  3000               	movlw	0
 12600  149D  319B  2310  3194   	fcall	i1_writespi
 12601                           
 12602                           ;lighting.c: 944: writespi(0);
 12603  14A0  3000               	movlw	0
 12604  14A1  319B  2310  3194   	fcall	i1_writespi
 12605                           
 12606                           ;lighting.c: 945: writespi(0);
 12607  14A4  3000               	movlw	0
 12608  14A5  319B  2310  3194   	fcall	i1_writespi
 12609                           
 12610                           ;lighting.c: 947: writespi(brightness);
 12611  14A8  0878               	movf	i1led7_command@brightness,w
 12612  14A9  319B  2310  3194   	fcall	i1_writespi
 12613                           
 12614                           ;lighting.c: 948: writespi(blue);
 12615  14AC  0875               	movf	i1led7_command@blue,w
 12616  14AD  319B  2310  3194   	fcall	i1_writespi
 12617                           
 12618                           ;lighting.c: 949: writespi(green);
 12619  14B0  0874               	movf	i1led7_command@green,w
 12620  14B1  319B  2310  3194   	fcall	i1_writespi
 12621                           
 12622                           ;lighting.c: 950: writespi(red);
 12623  14B4  0873               	movf	i1led7_command@red,w
 12624  14B5  319B  2310  3194   	fcall	i1_writespi
 12625                           
 12626                           ;lighting.c: 952: for(int i = 0;i < 4; i++)
 12627  14B8  01FB               	clrf	i1led7_command@i_717
 12628  14B9  01FC               	clrf	i1led7_command@i_717+1
 12629  14BA  087C               	movf	i1led7_command@i_717+1,w
 12630  14BB  3A80               	xorlw	128
 12631  14BC  00F6               	movwf	??i1_led7_command
 12632  14BD  3080               	movlw	128
 12633  14BE  0276               	subwf	??i1_led7_command,w
 12634  14BF  1D03               	skipz
 12635  14C0  2CC3               	goto	u296_25
 12636  14C1  3004               	movlw	4
 12637  14C2  027B               	subwf	i1led7_command@i_717,w
 12638  14C3                     u296_25:	
 12639  14C3  1803               	btfsc	3,0
 12640  14C4  2CD8               	goto	i1l3647
 12641  14C5                     i1l3641:	
 12642                           
 12643                           ;lighting.c: 953: {
 12644                           ;lighting.c: 954: writespi(0xFF);
 12645  14C5  30FF               	movlw	255
 12646  14C6  319B  2310  3194   	fcall	i1_writespi
 12647  14C9  3001               	movlw	1
 12648  14CA  07FB               	addwf	i1led7_command@i_717,f
 12649  14CB  3000               	movlw	0
 12650  14CC  3DFC               	addwfc	i1led7_command@i_717+1,f
 12651  14CD  087C               	movf	i1led7_command@i_717+1,w
 12652  14CE  3A80               	xorlw	128
 12653  14CF  00F6               	movwf	??i1_led7_command
 12654  14D0  3080               	movlw	128
 12655  14D1  0276               	subwf	??i1_led7_command,w
 12656  14D2  1D03               	skipz
 12657  14D3  2CD6               	goto	u297_25
 12658  14D4  3004               	movlw	4
 12659  14D5  027B               	subwf	i1led7_command@i_717,w
 12660  14D6                     u297_25:	
 12661  14D6  1C03               	skipc
 12662  14D7  2CC5               	goto	i1l3641
 12663  14D8                     i1l3647:	
 12664                           
 12665                           ;lighting.c: 955: }
 12666                           ;lighting.c: 956: _delay((unsigned long)((20)*(32000000/4000.0)));
 12667  14D8  30D0               	movlw	208
 12668  14D9  00F7               	movwf	??i1_led7_command+1
 12669  14DA  30C9               	movlw	201
 12670  14DB  00F6               	movwf	??i1_led7_command
 12671  14DC                     u593_27:	
 12672  14DC  0BF6               	decfsz	??i1_led7_command,f
 12673  14DD  2CDC               	goto	u593_27
 12674  14DE  0BF7               	decfsz	??i1_led7_command+1,f
 12675  14DF  2CDC               	goto	u593_27
 12676  14E0  3200               	nop2
 12677  14E1  0008               	return
 12678  14E2                     __end_ofi1_led7_command:	
 12679                           
 12680                           	psect	text27
 12681  136C                     __ptext27:	
 12682 ;; *************** function i1_led6_command *****************
 12683 ;; Defined at:
 12684 ;;		line 853 in file "../../source/lighting.c"
 12685 ;; Parameters:    Size  Location     Type
 12686 ;;  brightness      1    wreg     unsigned char 
 12687 ;;  red             1    3[COMMON] unsigned char 
 12688 ;;  green           1    4[COMMON] unsigned char 
 12689 ;;  blue            1    5[COMMON] unsigned char 
 12690 ;; Auto vars:     Size  Location     Type
 12691 ;;  brightness      1    8[COMMON] unsigned char 
 12692 ;;  led6_command    2   11[COMMON] int 
 12693 ;;  led6_command    2    9[COMMON] int 
 12694 ;; Return value:  Size  Location     Type
 12695 ;;		None               void
 12696 ;; Registers used:
 12697 ;;		wreg, status,2, status,0, pclath, cstack
 12698 ;; Tracked objects:
 12699 ;;		On entry : 0/0
 12700 ;;		On exit  : 0/0
 12701 ;;		Unchanged: 0/0
 12702 ;; Data sizes:     COMMON   BANK0   BANK1   BANK2   BANK3   BANK4   BANK5   BANK6   BANK7   BANK8   BANK9  BANK10  BANK1
      +1  BANK12  BANK13  BANK14  BANK15  BANK16  BANK17  BANK18  BANK19  BANK20  BANK21  BANK22  BANK23  BANK24  BANK25
 12703 ;;      Params:         3       0       0       0       0       0       0       0       0       0       0       0       
      +0       0       0       0       0       0       0       0       0       0       0       0       0       0       0
 12704 ;;      Locals:         5       0       0       0       0       0       0       0       0       0       0       0       
      +0       0       0       0       0       0       0       0       0       0       0       0       0       0       0
 12705 ;;      Temps:          2       0       0       0       0       0       0       0       0       0       0       0       
      +0       0       0       0       0       0       0       0       0       0       0       0       0       0       0
 12706 ;;      Totals:        10       0       0       0       0       0       0       0       0       0       0       0       
      +0       0       0       0       0       0       0       0       0       0       0       0       0       0       0
 12707 ;;Total ram usage:       10 bytes
 12708 ;; Hardware stack levels used:    1
 12709 ;; Hardware stack levels required when called:    1
 12710 ;; This function calls:
 12711 ;;		i1_writespi
 12712 ;; This function is called by:
 12713 ;;		i1_display_blade_lights
 12714 ;; This function uses a non-reentrant model
 12715 ;;
 12716                           
 12717                           
 12718                           ;psect for function i1_led6_command
 12719  136C                     i1_led6_command:	
 12720                           
 12721                           ;incstack = 0
 12722                           ; Regs used in i1_led6_command: [wreg+status,2+status,0+pclath+cstack]
 12723                           ;i1led6_command@brightness stored from wreg
 12724  136C  00F8               	movwf	i1led6_command@brightness
 12725                           
 12726                           ;lighting.c: 859: for(int i = 0;i < 4; i++)
 12727  136D  01F9               	clrf	i1led6_command@i
 12728  136E  01FA               	clrf	i1led6_command@i+1
 12729  136F  087A               	movf	i1led6_command@i+1,w
 12730  1370  3A80               	xorlw	128
 12731  1371  00F6               	movwf	??i1_led6_command
 12732  1372  3080               	movlw	128
 12733  1373  0276               	subwf	??i1_led6_command,w
 12734  1374  1D03               	skipz
 12735  1375  2B78               	goto	u290_25
 12736  1376  3004               	movlw	4
 12737  1377  0279               	subwf	i1led6_command@i,w
 12738  1378                     u290_25:	
 12739  1378  1803               	btfsc	3,0
 12740  1379  2B8D               	goto	i1l3605
 12741  137A                     i1l3599:	
 12742                           
 12743                           ;lighting.c: 860: {
 12744                           ;lighting.c: 861: writespi(0x00);
 12745  137A  3000               	movlw	0
 12746  137B  319B  2310  3193   	fcall	i1_writespi
 12747  137E  3001               	movlw	1
 12748  137F  07F9               	addwf	i1led6_command@i,f
 12749  1380  3000               	movlw	0
 12750  1381  3DFA               	addwfc	i1led6_command@i+1,f
 12751  1382  087A               	movf	i1led6_command@i+1,w
 12752  1383  3A80               	xorlw	128
 12753  1384  00F6               	movwf	??i1_led6_command
 12754  1385  3080               	movlw	128
 12755  1386  0276               	subwf	??i1_led6_command,w
 12756  1387  1D03               	skipz
 12757  1388  2B8B               	goto	u291_25
 12758  1389  3004               	movlw	4
 12759  138A  0279               	subwf	i1led6_command@i,w
 12760  138B                     u291_25:	
 12761  138B  1C03               	skipc
 12762  138C  2B7A               	goto	i1l3599
 12763  138D                     i1l3605:	
 12764                           
 12765                           ;lighting.c: 862: }
 12766                           ;lighting.c: 864: writespi(0xFF);
 12767  138D  30FF               	movlw	255
 12768  138E  319B  2310  3193   	fcall	i1_writespi
 12769                           
 12770                           ;lighting.c: 865: writespi(0);
 12771  1391  3000               	movlw	0
 12772  1392  319B  2310  3193   	fcall	i1_writespi
 12773                           
 12774                           ;lighting.c: 866: writespi(0);
 12775  1395  3000               	movlw	0
 12776  1396  319B  2310  3193   	fcall	i1_writespi
 12777                           
 12778                           ;lighting.c: 867: writespi(0);
 12779  1399  3000               	movlw	0
 12780  139A  319B  2310  3193   	fcall	i1_writespi
 12781                           
 12782                           ;lighting.c: 869: writespi(0xFF);
 12783  139D  30FF               	movlw	255
 12784  139E  319B  2310  3193   	fcall	i1_writespi
 12785                           
 12786                           ;lighting.c: 870: writespi(0);
 12787  13A1  3000               	movlw	0
 12788  13A2  319B  2310  3193   	fcall	i1_writespi
 12789                           
 12790                           ;lighting.c: 871: writespi(0);
 12791  13A5  3000               	movlw	0
 12792  13A6  319B  2310  3193   	fcall	i1_writespi
 12793                           
 12794                           ;lighting.c: 872: writespi(0);
 12795  13A9  3000               	movlw	0
 12796  13AA  319B  2310  3193   	fcall	i1_writespi
 12797                           
 12798                           ;lighting.c: 874: writespi(0xFF);
 12799  13AD  30FF               	movlw	255
 12800  13AE  319B  2310  3193   	fcall	i1_writespi
 12801                           
 12802                           ;lighting.c: 875: writespi(0);
 12803  13B1  3000               	movlw	0
 12804  13B2  319B  2310  3193   	fcall	i1_writespi
 12805                           
 12806                           ;lighting.c: 876: writespi(0);
 12807  13B5  3000               	movlw	0
 12808  13B6  319B  2310  3193   	fcall	i1_writespi
 12809                           
 12810                           ;lighting.c: 877: writespi(0);
 12811  13B9  3000               	movlw	0
 12812  13BA  319B  2310  3193   	fcall	i1_writespi
 12813                           
 12814                           ;lighting.c: 879: writespi(0xFF);
 12815  13BD  30FF               	movlw	255
 12816  13BE  319B  2310  3193   	fcall	i1_writespi
 12817                           
 12818                           ;lighting.c: 880: writespi(0);
 12819  13C1  3000               	movlw	0
 12820  13C2  319B  2310  3193   	fcall	i1_writespi
 12821                           
 12822                           ;lighting.c: 881: writespi(0);
 12823  13C5  3000               	movlw	0
 12824  13C6  319B  2310  3193   	fcall	i1_writespi
 12825                           
 12826                           ;lighting.c: 882: writespi(0);
 12827  13C9  3000               	movlw	0
 12828  13CA  319B  2310  3193   	fcall	i1_writespi
 12829                           
 12830                           ;lighting.c: 884: writespi(0xFF);
 12831  13CD  30FF               	movlw	255
 12832  13CE  319B  2310  3193   	fcall	i1_writespi
 12833                           
 12834                           ;lighting.c: 885: writespi(0);
 12835  13D1  3000               	movlw	0
 12836  13D2  319B  2310  3193   	fcall	i1_writespi
 12837                           
 12838                           ;lighting.c: 886: writespi(0);
 12839  13D5  3000               	movlw	0
 12840  13D6  319B  2310  3193   	fcall	i1_writespi
 12841                           
 12842                           ;lighting.c: 887: writespi(0);
 12843  13D9  3000               	movlw	0
 12844  13DA  319B  2310  3193   	fcall	i1_writespi
 12845                           
 12846                           ;lighting.c: 889: writespi(brightness);
 12847  13DD  0878               	movf	i1led6_command@brightness,w
 12848  13DE  319B  2310  3193   	fcall	i1_writespi
 12849                           
 12850                           ;lighting.c: 890: writespi(blue);
 12851  13E1  0875               	movf	i1led6_command@blue,w
 12852  13E2  319B  2310  3193   	fcall	i1_writespi
 12853                           
 12854                           ;lighting.c: 891: writespi(green);
 12855  13E5  0874               	movf	i1led6_command@green,w
 12856  13E6  319B  2310  3193   	fcall	i1_writespi
 12857                           
 12858                           ;lighting.c: 892: writespi(red);
 12859  13E9  0873               	movf	i1led6_command@red,w
 12860  13EA  319B  2310  3193   	fcall	i1_writespi
 12861                           
 12862                           ;lighting.c: 895: writespi(0xFF);
 12863  13ED  30FF               	movlw	255
 12864  13EE  319B  2310  3193   	fcall	i1_writespi
 12865                           
 12866                           ;lighting.c: 896: writespi(0);
 12867  13F1  3000               	movlw	0
 12868  13F2  319B  2310  3193   	fcall	i1_writespi
 12869                           
 12870                           ;lighting.c: 897: writespi(0);
 12871  13F5  3000               	movlw	0
 12872  13F6  319B  2310  3193   	fcall	i1_writespi
 12873                           
 12874                           ;lighting.c: 898: writespi(0);
 12875  13F9  3000               	movlw	0
 12876  13FA  319B  2310  3193   	fcall	i1_writespi
 12877                           
 12878                           ;lighting.c: 899: for(int i = 0;i < 4; i++)
 12879  13FD  01FB               	clrf	i1led6_command@i_710
 12880  13FE  01FC               	clrf	i1led6_command@i_710+1
 12881  13FF  087C               	movf	i1led6_command@i_710+1,w
 12882  1400  3A80               	xorlw	128
 12883  1401  00F6               	movwf	??i1_led6_command
 12884  1402  3080               	movlw	128
 12885  1403  0276               	subwf	??i1_led6_command,w
 12886  1404  1D03               	skipz
 12887  1405  2C08               	goto	u292_25
 12888  1406  3004               	movlw	4
 12889  1407  027B               	subwf	i1led6_command@i_710,w
 12890  1408                     u292_25:	
 12891  1408  1803               	btfsc	3,0
 12892  1409  2C1D               	goto	i1l3619
 12893  140A                     i1l3613:	
 12894                           
 12895                           ;lighting.c: 900: {
 12896                           ;lighting.c: 901: writespi(0xFF);
 12897  140A  30FF               	movlw	255
 12898  140B  319B  2310  3193   	fcall	i1_writespi
 12899  140E  3001               	movlw	1
 12900  140F  07FB               	addwf	i1led6_command@i_710,f
 12901  1410  3000               	movlw	0
 12902  1411  3DFC               	addwfc	i1led6_command@i_710+1,f
 12903  1412  087C               	movf	i1led6_command@i_710+1,w
 12904  1413  3A80               	xorlw	128
 12905  1414  00F6               	movwf	??i1_led6_command
 12906  1415  3080               	movlw	128
 12907  1416  0276               	subwf	??i1_led6_command,w
 12908  1417  1D03               	skipz
 12909  1418  2C1B               	goto	u293_25
 12910  1419  3004               	movlw	4
 12911  141A  027B               	subwf	i1led6_command@i_710,w
 12912  141B                     u293_25:	
 12913  141B  1C03               	skipc
 12914  141C  2C0A               	goto	i1l3613
 12915  141D                     i1l3619:	
 12916                           
 12917                           ;lighting.c: 902: }
 12918                           ;lighting.c: 903: _delay((unsigned long)((20)*(32000000/4000.0)));
 12919  141D  30D0               	movlw	208
 12920  141E  00F7               	movwf	??i1_led6_command+1
 12921  141F  30C9               	movlw	201
 12922  1420  00F6               	movwf	??i1_led6_command
 12923  1421                     u594_27:	
 12924  1421  0BF6               	decfsz	??i1_led6_command,f
 12925  1422  2C21               	goto	u594_27
 12926  1423  0BF7               	decfsz	??i1_led6_command+1,f
 12927  1424  2C21               	goto	u594_27
 12928  1425  3200               	nop2
 12929  1426  0008               	return
 12930  1427                     __end_ofi1_led6_command:	
 12931                           
 12932                           	psect	text28
 12933  12B1                     __ptext28:	
 12934 ;; *************** function i1_led5_command *****************
 12935 ;; Defined at:
 12936 ;;		line 800 in file "../../source/lighting.c"
 12937 ;; Parameters:    Size  Location     Type
 12938 ;;  brightness      1    wreg     unsigned char 
 12939 ;;  red             1    3[COMMON] unsigned char 
 12940 ;;  green           1    4[COMMON] unsigned char 
 12941 ;;  blue            1    5[COMMON] unsigned char 
 12942 ;; Auto vars:     Size  Location     Type
 12943 ;;  brightness      1    8[COMMON] unsigned char 
 12944 ;;  led5_command    2   11[COMMON] int 
 12945 ;;  led5_command    2    9[COMMON] int 
 12946 ;; Return value:  Size  Location     Type
 12947 ;;		None               void
 12948 ;; Registers used:
 12949 ;;		wreg, status,2, status,0, pclath, cstack
 12950 ;; Tracked objects:
 12951 ;;		On entry : 0/0
 12952 ;;		On exit  : 0/0
 12953 ;;		Unchanged: 0/0
 12954 ;; Data sizes:     COMMON   BANK0   BANK1   BANK2   BANK3   BANK4   BANK5   BANK6   BANK7   BANK8   BANK9  BANK10  BANK1
      +1  BANK12  BANK13  BANK14  BANK15  BANK16  BANK17  BANK18  BANK19  BANK20  BANK21  BANK22  BANK23  BANK24  BANK25
 12955 ;;      Params:         3       0       0       0       0       0       0       0       0       0       0       0       
      +0       0       0       0       0       0       0       0       0       0       0       0       0       0       0
 12956 ;;      Locals:         5       0       0       0       0       0       0       0       0       0       0       0       
      +0       0       0       0       0       0       0       0       0       0       0       0       0       0       0
 12957 ;;      Temps:          2       0       0       0       0       0       0       0       0       0       0       0       
      +0       0       0       0       0       0       0       0       0       0       0       0       0       0       0
 12958 ;;      Totals:        10       0       0       0       0       0       0       0       0       0       0       0       
      +0       0       0       0       0       0       0       0       0       0       0       0       0       0       0
 12959 ;;Total ram usage:       10 bytes
 12960 ;; Hardware stack levels used:    1
 12961 ;; Hardware stack levels required when called:    1
 12962 ;; This function calls:
 12963 ;;		i1_writespi
 12964 ;; This function is called by:
 12965 ;;		i1_display_blade_lights
 12966 ;; This function uses a non-reentrant model
 12967 ;;
 12968                           
 12969                           
 12970                           ;psect for function i1_led5_command
 12971  12B1                     i1_led5_command:	
 12972                           
 12973                           ;incstack = 0
 12974                           ; Regs used in i1_led5_command: [wreg+status,2+status,0+pclath+cstack]
 12975                           ;i1led5_command@brightness stored from wreg
 12976  12B1  00F8               	movwf	i1led5_command@brightness
 12977                           
 12978                           ;lighting.c: 806: for(int i = 0;i < 4; i++)
 12979  12B2  01F9               	clrf	i1led5_command@i
 12980  12B3  01FA               	clrf	i1led5_command@i+1
 12981  12B4  087A               	movf	i1led5_command@i+1,w
 12982  12B5  3A80               	xorlw	128
 12983  12B6  00F6               	movwf	??i1_led5_command
 12984  12B7  3080               	movlw	128
 12985  12B8  0276               	subwf	??i1_led5_command,w
 12986  12B9  1D03               	skipz
 12987  12BA  2ABD               	goto	u286_25
 12988  12BB  3004               	movlw	4
 12989  12BC  0279               	subwf	i1led5_command@i,w
 12990  12BD                     u286_25:	
 12991  12BD  1803               	btfsc	3,0
 12992  12BE  2AD2               	goto	i1l3577
 12993  12BF                     i1l3571:	
 12994                           
 12995                           ;lighting.c: 807: {
 12996                           ;lighting.c: 808: writespi(0x00);
 12997  12BF  3000               	movlw	0
 12998  12C0  319B  2310  3192   	fcall	i1_writespi
 12999  12C3  3001               	movlw	1
 13000  12C4  07F9               	addwf	i1led5_command@i,f
 13001  12C5  3000               	movlw	0
 13002  12C6  3DFA               	addwfc	i1led5_command@i+1,f
 13003  12C7  087A               	movf	i1led5_command@i+1,w
 13004  12C8  3A80               	xorlw	128
 13005  12C9  00F6               	movwf	??i1_led5_command
 13006  12CA  3080               	movlw	128
 13007  12CB  0276               	subwf	??i1_led5_command,w
 13008  12CC  1D03               	skipz
 13009  12CD  2AD0               	goto	u287_25
 13010  12CE  3004               	movlw	4
 13011  12CF  0279               	subwf	i1led5_command@i,w
 13012  12D0                     u287_25:	
 13013  12D0  1C03               	skipc
 13014  12D1  2ABF               	goto	i1l3571
 13015  12D2                     i1l3577:	
 13016                           
 13017                           ;lighting.c: 809: }
 13018                           ;lighting.c: 811: writespi(0xFF);
 13019  12D2  30FF               	movlw	255
 13020  12D3  319B  2310  3192   	fcall	i1_writespi
 13021                           
 13022                           ;lighting.c: 812: writespi(0);
 13023  12D6  3000               	movlw	0
 13024  12D7  319B  2310  3192   	fcall	i1_writespi
 13025                           
 13026                           ;lighting.c: 813: writespi(0);
 13027  12DA  3000               	movlw	0
 13028  12DB  319B  2310  3192   	fcall	i1_writespi
 13029                           
 13030                           ;lighting.c: 814: writespi(0);
 13031  12DE  3000               	movlw	0
 13032  12DF  319B  2310  3192   	fcall	i1_writespi
 13033                           
 13034                           ;lighting.c: 816: writespi(0xFF);
 13035  12E2  30FF               	movlw	255
 13036  12E3  319B  2310  3192   	fcall	i1_writespi
 13037                           
 13038                           ;lighting.c: 817: writespi(0);
 13039  12E6  3000               	movlw	0
 13040  12E7  319B  2310  3192   	fcall	i1_writespi
 13041                           
 13042                           ;lighting.c: 818: writespi(0);
 13043  12EA  3000               	movlw	0
 13044  12EB  319B  2310  3192   	fcall	i1_writespi
 13045                           
 13046                           ;lighting.c: 819: writespi(0);
 13047  12EE  3000               	movlw	0
 13048  12EF  319B  2310  3192   	fcall	i1_writespi
 13049                           
 13050                           ;lighting.c: 821: writespi(0xFF);
 13051  12F2  30FF               	movlw	255
 13052  12F3  319B  2310  3192   	fcall	i1_writespi
 13053                           
 13054                           ;lighting.c: 822: writespi(0);
 13055  12F6  3000               	movlw	0
 13056  12F7  319B  2310  3192   	fcall	i1_writespi
 13057                           
 13058                           ;lighting.c: 823: writespi(0);
 13059  12FA  3000               	movlw	0
 13060  12FB  319B  2310  3192   	fcall	i1_writespi
 13061                           
 13062                           ;lighting.c: 824: writespi(0);
 13063  12FE  3000               	movlw	0
 13064  12FF  319B  2310  3192   	fcall	i1_writespi
 13065                           
 13066                           ;lighting.c: 826: writespi(0xFF);
 13067  1302  30FF               	movlw	255
 13068  1303  319B  2310  3192   	fcall	i1_writespi
 13069                           
 13070                           ;lighting.c: 827: writespi(0);
 13071  1306  3000               	movlw	0
 13072  1307  319B  2310  3192   	fcall	i1_writespi
 13073                           
 13074                           ;lighting.c: 828: writespi(0);
 13075  130A  3000               	movlw	0
 13076  130B  319B  2310  3192   	fcall	i1_writespi
 13077                           
 13078                           ;lighting.c: 829: writespi(0);
 13079  130E  3000               	movlw	0
 13080  130F  319B  2310  3192   	fcall	i1_writespi
 13081                           
 13082                           ;lighting.c: 831: writespi(brightness);
 13083  1312  0878               	movf	i1led5_command@brightness,w
 13084  1313  319B  2310  3192   	fcall	i1_writespi
 13085                           
 13086                           ;lighting.c: 832: writespi(blue);
 13087  1316  0875               	movf	i1led5_command@blue,w
 13088  1317  319B  2310  3192   	fcall	i1_writespi
 13089                           
 13090                           ;lighting.c: 833: writespi(green);
 13091  131A  0874               	movf	i1led5_command@green,w
 13092  131B  319B  2310  3192   	fcall	i1_writespi
 13093                           
 13094                           ;lighting.c: 834: writespi(red);
 13095  131E  0873               	movf	i1led5_command@red,w
 13096  131F  319B  2310  3192   	fcall	i1_writespi
 13097                           
 13098                           ;lighting.c: 836: writespi(0xFF);
 13099  1322  30FF               	movlw	255
 13100  1323  319B  2310  3192   	fcall	i1_writespi
 13101                           
 13102                           ;lighting.c: 837: writespi(0);
 13103  1326  3000               	movlw	0
 13104  1327  319B  2310  3192   	fcall	i1_writespi
 13105                           
 13106                           ;lighting.c: 838: writespi(0);
 13107  132A  3000               	movlw	0
 13108  132B  319B  2310  3192   	fcall	i1_writespi
 13109                           
 13110                           ;lighting.c: 839: writespi(0);
 13111  132E  3000               	movlw	0
 13112  132F  319B  2310  3192   	fcall	i1_writespi
 13113                           
 13114                           ;lighting.c: 841: writespi(0xFF);
 13115  1332  30FF               	movlw	255
 13116  1333  319B  2310  3192   	fcall	i1_writespi
 13117                           
 13118                           ;lighting.c: 842: writespi(0);
 13119  1336  3000               	movlw	0
 13120  1337  319B  2310  3192   	fcall	i1_writespi
 13121                           
 13122                           ;lighting.c: 843: writespi(0);
 13123  133A  3000               	movlw	0
 13124  133B  319B  2310  3192   	fcall	i1_writespi
 13125                           
 13126                           ;lighting.c: 844: writespi(0);
 13127  133E  3000               	movlw	0
 13128  133F  319B  2310  3192   	fcall	i1_writespi
 13129                           
 13130                           ;lighting.c: 846: for(int i = 0;i < 4; i++)
 13131  1342  01FB               	clrf	i1led5_command@i_703
 13132  1343  01FC               	clrf	i1led5_command@i_703+1
 13133  1344  087C               	movf	i1led5_command@i_703+1,w
 13134  1345  3A80               	xorlw	128
 13135  1346  00F6               	movwf	??i1_led5_command
 13136  1347  3080               	movlw	128
 13137  1348  0276               	subwf	??i1_led5_command,w
 13138  1349  1D03               	skipz
 13139  134A  2B4D               	goto	u288_25
 13140  134B  3004               	movlw	4
 13141  134C  027B               	subwf	i1led5_command@i_703,w
 13142  134D                     u288_25:	
 13143  134D  1803               	btfsc	3,0
 13144  134E  2B62               	goto	i1l3591
 13145  134F                     i1l3585:	
 13146                           
 13147                           ;lighting.c: 847: {
 13148                           ;lighting.c: 848: writespi(0xFF);
 13149  134F  30FF               	movlw	255
 13150  1350  319B  2310  3192   	fcall	i1_writespi
 13151  1353  3001               	movlw	1
 13152  1354  07FB               	addwf	i1led5_command@i_703,f
 13153  1355  3000               	movlw	0
 13154  1356  3DFC               	addwfc	i1led5_command@i_703+1,f
 13155  1357  087C               	movf	i1led5_command@i_703+1,w
 13156  1358  3A80               	xorlw	128
 13157  1359  00F6               	movwf	??i1_led5_command
 13158  135A  3080               	movlw	128
 13159  135B  0276               	subwf	??i1_led5_command,w
 13160  135C  1D03               	skipz
 13161  135D  2B60               	goto	u289_25
 13162  135E  3004               	movlw	4
 13163  135F  027B               	subwf	i1led5_command@i_703,w
 13164  1360                     u289_25:	
 13165  1360  1C03               	skipc
 13166  1361  2B4F               	goto	i1l3585
 13167  1362                     i1l3591:	
 13168                           
 13169                           ;lighting.c: 849: }
 13170                           ;lighting.c: 850: _delay((unsigned long)((20)*(32000000/4000.0)));
 13171  1362  30D0               	movlw	208
 13172  1363  00F7               	movwf	??i1_led5_command+1
 13173  1364  30C9               	movlw	201
 13174  1365  00F6               	movwf	??i1_led5_command
 13175  1366                     u595_27:	
 13176  1366  0BF6               	decfsz	??i1_led5_command,f
 13177  1367  2B66               	goto	u595_27
 13178  1368  0BF7               	decfsz	??i1_led5_command+1,f
 13179  1369  2B66               	goto	u595_27
 13180  136A  3200               	nop2
 13181  136B  0008               	return
 13182  136C                     __end_ofi1_led5_command:	
 13183                           
 13184                           	psect	text29
 13185  11F6                     __ptext29:	
 13186 ;; *************** function i1_led4_command *****************
 13187 ;; Defined at:
 13188 ;;		line 747 in file "../../source/lighting.c"
 13189 ;; Parameters:    Size  Location     Type
 13190 ;;  brightness      1    wreg     unsigned char 
 13191 ;;  red             1    3[COMMON] unsigned char 
 13192 ;;  green           1    4[COMMON] unsigned char 
 13193 ;;  blue            1    5[COMMON] unsigned char 
 13194 ;; Auto vars:     Size  Location     Type
 13195 ;;  brightness      1    8[COMMON] unsigned char 
 13196 ;;  led4_command    2   11[COMMON] int 
 13197 ;;  led4_command    2    9[COMMON] int 
 13198 ;; Return value:  Size  Location     Type
 13199 ;;		None               void
 13200 ;; Registers used:
 13201 ;;		wreg, status,2, status,0, pclath, cstack
 13202 ;; Tracked objects:
 13203 ;;		On entry : 0/0
 13204 ;;		On exit  : 0/0
 13205 ;;		Unchanged: 0/0
 13206 ;; Data sizes:     COMMON   BANK0   BANK1   BANK2   BANK3   BANK4   BANK5   BANK6   BANK7   BANK8   BANK9  BANK10  BANK1
      +1  BANK12  BANK13  BANK14  BANK15  BANK16  BANK17  BANK18  BANK19  BANK20  BANK21  BANK22  BANK23  BANK24  BANK25
 13207 ;;      Params:         3       0       0       0       0       0       0       0       0       0       0       0       
      +0       0       0       0       0       0       0       0       0       0       0       0       0       0       0
 13208 ;;      Locals:         5       0       0       0       0       0       0       0       0       0       0       0       
      +0       0       0       0       0       0       0       0       0       0       0       0       0       0       0
 13209 ;;      Temps:          2       0       0       0       0       0       0       0       0       0       0       0       
      +0       0       0       0       0       0       0       0       0       0       0       0       0       0       0
 13210 ;;      Totals:        10       0       0       0       0       0       0       0       0       0       0       0       
      +0       0       0       0       0       0       0       0       0       0       0       0       0       0       0
 13211 ;;Total ram usage:       10 bytes
 13212 ;; Hardware stack levels used:    1
 13213 ;; Hardware stack levels required when called:    1
 13214 ;; This function calls:
 13215 ;;		i1_writespi
 13216 ;; This function is called by:
 13217 ;;		i1_display_blade_lights
 13218 ;; This function uses a non-reentrant model
 13219 ;;
 13220                           
 13221                           
 13222                           ;psect for function i1_led4_command
 13223  11F6                     i1_led4_command:	
 13224                           
 13225                           ;incstack = 0
 13226                           ; Regs used in i1_led4_command: [wreg+status,2+status,0+pclath+cstack]
 13227                           ;i1led4_command@brightness stored from wreg
 13228  11F6  00F8               	movwf	i1led4_command@brightness
 13229                           
 13230                           ;lighting.c: 753: for(int i = 0;i < 4; i++)
 13231  11F7  01F9               	clrf	i1led4_command@i
 13232  11F8  01FA               	clrf	i1led4_command@i+1
 13233  11F9  087A               	movf	i1led4_command@i+1,w
 13234  11FA  3A80               	xorlw	128
 13235  11FB  00F6               	movwf	??i1_led4_command
 13236  11FC  3080               	movlw	128
 13237  11FD  0276               	subwf	??i1_led4_command,w
 13238  11FE  1D03               	skipz
 13239  11FF  2A02               	goto	u282_25
 13240  1200  3004               	movlw	4
 13241  1201  0279               	subwf	i1led4_command@i,w
 13242  1202                     u282_25:	
 13243  1202  1803               	btfsc	3,0
 13244  1203  2A17               	goto	i1l3549
 13245  1204                     i1l3543:	
 13246                           
 13247                           ;lighting.c: 754: {
 13248                           ;lighting.c: 755: writespi(0x00);
 13249  1204  3000               	movlw	0
 13250  1205  319B  2310  3191   	fcall	i1_writespi
 13251  1208  3001               	movlw	1
 13252  1209  07F9               	addwf	i1led4_command@i,f
 13253  120A  3000               	movlw	0
 13254  120B  3DFA               	addwfc	i1led4_command@i+1,f
 13255  120C  087A               	movf	i1led4_command@i+1,w
 13256  120D  3A80               	xorlw	128
 13257  120E  00F6               	movwf	??i1_led4_command
 13258  120F  3080               	movlw	128
 13259  1210  0276               	subwf	??i1_led4_command,w
 13260  1211  1D03               	skipz
 13261  1212  2A15               	goto	u283_25
 13262  1213  3004               	movlw	4
 13263  1214  0279               	subwf	i1led4_command@i,w
 13264  1215                     u283_25:	
 13265  1215  1C03               	skipc
 13266  1216  2A04               	goto	i1l3543
 13267  1217                     i1l3549:	
 13268                           
 13269                           ;lighting.c: 756: }
 13270                           ;lighting.c: 758: writespi(0xFF);
 13271  1217  30FF               	movlw	255
 13272  1218  319B  2310  3191   	fcall	i1_writespi
 13273                           
 13274                           ;lighting.c: 759: writespi(0);
 13275  121B  3000               	movlw	0
 13276  121C  319B  2310  3191   	fcall	i1_writespi
 13277                           
 13278                           ;lighting.c: 760: writespi(0);
 13279  121F  3000               	movlw	0
 13280  1220  319B  2310  3191   	fcall	i1_writespi
 13281                           
 13282                           ;lighting.c: 761: writespi(0);
 13283  1223  3000               	movlw	0
 13284  1224  319B  2310  3191   	fcall	i1_writespi
 13285                           
 13286                           ;lighting.c: 763: writespi(0xFF);
 13287  1227  30FF               	movlw	255
 13288  1228  319B  2310  3191   	fcall	i1_writespi
 13289                           
 13290                           ;lighting.c: 764: writespi(0);
 13291  122B  3000               	movlw	0
 13292  122C  319B  2310  3191   	fcall	i1_writespi
 13293                           
 13294                           ;lighting.c: 765: writespi(0);
 13295  122F  3000               	movlw	0
 13296  1230  319B  2310  3191   	fcall	i1_writespi
 13297                           
 13298                           ;lighting.c: 766: writespi(0);
 13299  1233  3000               	movlw	0
 13300  1234  319B  2310  3191   	fcall	i1_writespi
 13301                           
 13302                           ;lighting.c: 768: writespi(0xFF);
 13303  1237  30FF               	movlw	255
 13304  1238  319B  2310  3191   	fcall	i1_writespi
 13305                           
 13306                           ;lighting.c: 769: writespi(0);
 13307  123B  3000               	movlw	0
 13308  123C  319B  2310  3191   	fcall	i1_writespi
 13309                           
 13310                           ;lighting.c: 770: writespi(0);
 13311  123F  3000               	movlw	0
 13312  1240  319B  2310  3191   	fcall	i1_writespi
 13313                           
 13314                           ;lighting.c: 771: writespi(0);
 13315  1243  3000               	movlw	0
 13316  1244  319B  2310  3191   	fcall	i1_writespi
 13317                           
 13318                           ;lighting.c: 773: writespi(brightness);
 13319  1247  0878               	movf	i1led4_command@brightness,w
 13320  1248  319B  2310  3191   	fcall	i1_writespi
 13321                           
 13322                           ;lighting.c: 774: writespi(blue);
 13323  124B  0875               	movf	i1led4_command@blue,w
 13324  124C  319B  2310  3191   	fcall	i1_writespi
 13325                           
 13326                           ;lighting.c: 775: writespi(green);
 13327  124F  0874               	movf	i1led4_command@green,w
 13328  1250  319B  2310  3191   	fcall	i1_writespi
 13329                           
 13330                           ;lighting.c: 776: writespi(red);
 13331  1253  0873               	movf	i1led4_command@red,w
 13332  1254  319B  2310  3191   	fcall	i1_writespi
 13333                           
 13334                           ;lighting.c: 778: writespi(0xFF);
 13335  1257  30FF               	movlw	255
 13336  1258  319B  2310  3191   	fcall	i1_writespi
 13337                           
 13338                           ;lighting.c: 779: writespi(0);
 13339  125B  3000               	movlw	0
 13340  125C  319B  2310  3191   	fcall	i1_writespi
 13341                           
 13342                           ;lighting.c: 780: writespi(0);
 13343  125F  3000               	movlw	0
 13344  1260  319B  2310  3191   	fcall	i1_writespi
 13345                           
 13346                           ;lighting.c: 781: writespi(0);
 13347  1263  3000               	movlw	0
 13348  1264  319B  2310  3191   	fcall	i1_writespi
 13349                           
 13350                           ;lighting.c: 783: writespi(0xFF);
 13351  1267  30FF               	movlw	255
 13352  1268  319B  2310  3191   	fcall	i1_writespi
 13353                           
 13354                           ;lighting.c: 784: writespi(0);
 13355  126B  3000               	movlw	0
 13356  126C  319B  2310  3191   	fcall	i1_writespi
 13357                           
 13358                           ;lighting.c: 785: writespi(0);
 13359  126F  3000               	movlw	0
 13360  1270  319B  2310  3191   	fcall	i1_writespi
 13361                           
 13362                           ;lighting.c: 786: writespi(0);
 13363  1273  3000               	movlw	0
 13364  1274  319B  2310  3191   	fcall	i1_writespi
 13365                           
 13366                           ;lighting.c: 788: writespi(0xFF);
 13367  1277  30FF               	movlw	255
 13368  1278  319B  2310  3191   	fcall	i1_writespi
 13369                           
 13370                           ;lighting.c: 789: writespi(0);
 13371  127B  3000               	movlw	0
 13372  127C  319B  2310  3191   	fcall	i1_writespi
 13373                           
 13374                           ;lighting.c: 790: writespi(0);
 13375  127F  3000               	movlw	0
 13376  1280  319B  2310  3191   	fcall	i1_writespi
 13377                           
 13378                           ;lighting.c: 791: writespi(0);
 13379  1283  3000               	movlw	0
 13380  1284  319B  2310  3191   	fcall	i1_writespi
 13381                           
 13382                           ;lighting.c: 793: for(int i = 0;i < 4; i++)
 13383  1287  01FB               	clrf	i1led4_command@i_696
 13384  1288  01FC               	clrf	i1led4_command@i_696+1
 13385  1289  087C               	movf	i1led4_command@i_696+1,w
 13386  128A  3A80               	xorlw	128
 13387  128B  00F6               	movwf	??i1_led4_command
 13388  128C  3080               	movlw	128
 13389  128D  0276               	subwf	??i1_led4_command,w
 13390  128E  1D03               	skipz
 13391  128F  2A92               	goto	u284_25
 13392  1290  3004               	movlw	4
 13393  1291  027B               	subwf	i1led4_command@i_696,w
 13394  1292                     u284_25:	
 13395  1292  1803               	btfsc	3,0
 13396  1293  2AA7               	goto	i1l3563
 13397  1294                     i1l3557:	
 13398                           
 13399                           ;lighting.c: 794: {
 13400                           ;lighting.c: 795: writespi(0xFF);
 13401  1294  30FF               	movlw	255
 13402  1295  319B  2310  3191   	fcall	i1_writespi
 13403  1298  3001               	movlw	1
 13404  1299  07FB               	addwf	i1led4_command@i_696,f
 13405  129A  3000               	movlw	0
 13406  129B  3DFC               	addwfc	i1led4_command@i_696+1,f
 13407  129C  087C               	movf	i1led4_command@i_696+1,w
 13408  129D  3A80               	xorlw	128
 13409  129E  00F6               	movwf	??i1_led4_command
 13410  129F  3080               	movlw	128
 13411  12A0  0276               	subwf	??i1_led4_command,w
 13412  12A1  1D03               	skipz
 13413  12A2  2AA5               	goto	u285_25
 13414  12A3  3004               	movlw	4
 13415  12A4  027B               	subwf	i1led4_command@i_696,w
 13416  12A5                     u285_25:	
 13417  12A5  1C03               	skipc
 13418  12A6  2A94               	goto	i1l3557
 13419  12A7                     i1l3563:	
 13420                           
 13421                           ;lighting.c: 796: }
 13422                           ;lighting.c: 797: _delay((unsigned long)((20)*(32000000/4000.0)));
 13423  12A7  30D0               	movlw	208
 13424  12A8  00F7               	movwf	??i1_led4_command+1
 13425  12A9  30C9               	movlw	201
 13426  12AA  00F6               	movwf	??i1_led4_command
 13427  12AB                     u596_27:	
 13428  12AB  0BF6               	decfsz	??i1_led4_command,f
 13429  12AC  2AAB               	goto	u596_27
 13430  12AD  0BF7               	decfsz	??i1_led4_command+1,f
 13431  12AE  2AAB               	goto	u596_27
 13432  12AF  3200               	nop2
 13433  12B0  0008               	return
 13434  12B1                     __end_ofi1_led4_command:	
 13435                           
 13436                           	psect	text30
 13437  113B                     __ptext30:	
 13438 ;; *************** function i1_led3_command *****************
 13439 ;; Defined at:
 13440 ;;		line 694 in file "../../source/lighting.c"
 13441 ;; Parameters:    Size  Location     Type
 13442 ;;  brightness      1    wreg     unsigned char 
 13443 ;;  red             1    3[COMMON] unsigned char 
 13444 ;;  green           1    4[COMMON] unsigned char 
 13445 ;;  blue            1    5[COMMON] unsigned char 
 13446 ;; Auto vars:     Size  Location     Type
 13447 ;;  brightness      1    8[COMMON] unsigned char 
 13448 ;;  led3_command    2   11[COMMON] int 
 13449 ;;  led3_command    2    9[COMMON] int 
 13450 ;; Return value:  Size  Location     Type
 13451 ;;		None               void
 13452 ;; Registers used:
 13453 ;;		wreg, status,2, status,0, pclath, cstack
 13454 ;; Tracked objects:
 13455 ;;		On entry : 0/0
 13456 ;;		On exit  : 0/0
 13457 ;;		Unchanged: 0/0
 13458 ;; Data sizes:     COMMON   BANK0   BANK1   BANK2   BANK3   BANK4   BANK5   BANK6   BANK7   BANK8   BANK9  BANK10  BANK1
      +1  BANK12  BANK13  BANK14  BANK15  BANK16  BANK17  BANK18  BANK19  BANK20  BANK21  BANK22  BANK23  BANK24  BANK25
 13459 ;;      Params:         3       0       0       0       0       0       0       0       0       0       0       0       
      +0       0       0       0       0       0       0       0       0       0       0       0       0       0       0
 13460 ;;      Locals:         5       0       0       0       0       0       0       0       0       0       0       0       
      +0       0       0       0       0       0       0       0       0       0       0       0       0       0       0
 13461 ;;      Temps:          2       0       0       0       0       0       0       0       0       0       0       0       
      +0       0       0       0       0       0       0       0       0       0       0       0       0       0       0
 13462 ;;      Totals:        10       0       0       0       0       0       0       0       0       0       0       0       
      +0       0       0       0       0       0       0       0       0       0       0       0       0       0       0
 13463 ;;Total ram usage:       10 bytes
 13464 ;; Hardware stack levels used:    1
 13465 ;; Hardware stack levels required when called:    1
 13466 ;; This function calls:
 13467 ;;		i1_writespi
 13468 ;; This function is called by:
 13469 ;;		i1_display_blade_lights
 13470 ;; This function uses a non-reentrant model
 13471 ;;
 13472                           
 13473                           
 13474                           ;psect for function i1_led3_command
 13475  113B                     i1_led3_command:	
 13476                           
 13477                           ;incstack = 0
 13478                           ; Regs used in i1_led3_command: [wreg+status,2+status,0+pclath+cstack]
 13479                           ;i1led3_command@brightness stored from wreg
 13480  113B  00F8               	movwf	i1led3_command@brightness
 13481                           
 13482                           ;lighting.c: 700: for(int i = 0;i < 4; i++)
 13483  113C  01F9               	clrf	i1led3_command@i
 13484  113D  01FA               	clrf	i1led3_command@i+1
 13485  113E  087A               	movf	i1led3_command@i+1,w
 13486  113F  3A80               	xorlw	128
 13487  1140  00F6               	movwf	??i1_led3_command
 13488  1141  3080               	movlw	128
 13489  1142  0276               	subwf	??i1_led3_command,w
 13490  1143  1D03               	skipz
 13491  1144  2947               	goto	u278_25
 13492  1145  3004               	movlw	4
 13493  1146  0279               	subwf	i1led3_command@i,w
 13494  1147                     u278_25:	
 13495  1147  1803               	btfsc	3,0
 13496  1148  295C               	goto	i1l3521
 13497  1149                     i1l3515:	
 13498                           
 13499                           ;lighting.c: 701: {
 13500                           ;lighting.c: 702: writespi(0x00);
 13501  1149  3000               	movlw	0
 13502  114A  319B  2310  3191   	fcall	i1_writespi
 13503  114D  3001               	movlw	1
 13504  114E  07F9               	addwf	i1led3_command@i,f
 13505  114F  3000               	movlw	0
 13506  1150  3DFA               	addwfc	i1led3_command@i+1,f
 13507  1151  087A               	movf	i1led3_command@i+1,w
 13508  1152  3A80               	xorlw	128
 13509  1153  00F6               	movwf	??i1_led3_command
 13510  1154  3080               	movlw	128
 13511  1155  0276               	subwf	??i1_led3_command,w
 13512  1156  1D03               	skipz
 13513  1157  295A               	goto	u279_25
 13514  1158  3004               	movlw	4
 13515  1159  0279               	subwf	i1led3_command@i,w
 13516  115A                     u279_25:	
 13517  115A  1C03               	skipc
 13518  115B  2949               	goto	i1l3515
 13519  115C                     i1l3521:	
 13520                           
 13521                           ;lighting.c: 703: }
 13522                           ;lighting.c: 705: writespi(0xFF);
 13523  115C  30FF               	movlw	255
 13524  115D  319B  2310  3191   	fcall	i1_writespi
 13525                           
 13526                           ;lighting.c: 706: writespi(0);
 13527  1160  3000               	movlw	0
 13528  1161  319B  2310  3191   	fcall	i1_writespi
 13529                           
 13530                           ;lighting.c: 707: writespi(0);
 13531  1164  3000               	movlw	0
 13532  1165  319B  2310  3191   	fcall	i1_writespi
 13533                           
 13534                           ;lighting.c: 708: writespi(0);
 13535  1168  3000               	movlw	0
 13536  1169  319B  2310  3191   	fcall	i1_writespi
 13537                           
 13538                           ;lighting.c: 710: writespi(0xFF);
 13539  116C  30FF               	movlw	255
 13540  116D  319B  2310  3191   	fcall	i1_writespi
 13541                           
 13542                           ;lighting.c: 711: writespi(0);
 13543  1170  3000               	movlw	0
 13544  1171  319B  2310  3191   	fcall	i1_writespi
 13545                           
 13546                           ;lighting.c: 712: writespi(0);
 13547  1174  3000               	movlw	0
 13548  1175  319B  2310  3191   	fcall	i1_writespi
 13549                           
 13550                           ;lighting.c: 713: writespi(0);
 13551  1178  3000               	movlw	0
 13552  1179  319B  2310  3191   	fcall	i1_writespi
 13553                           
 13554                           ;lighting.c: 715: writespi(brightness);
 13555  117C  0878               	movf	i1led3_command@brightness,w
 13556  117D  319B  2310  3191   	fcall	i1_writespi
 13557                           
 13558                           ;lighting.c: 716: writespi(blue);
 13559  1180  0875               	movf	i1led3_command@blue,w
 13560  1181  319B  2310  3191   	fcall	i1_writespi
 13561                           
 13562                           ;lighting.c: 717: writespi(green);
 13563  1184  0874               	movf	i1led3_command@green,w
 13564  1185  319B  2310  3191   	fcall	i1_writespi
 13565                           
 13566                           ;lighting.c: 718: writespi(red);
 13567  1188  0873               	movf	i1led3_command@red,w
 13568  1189  319B  2310  3191   	fcall	i1_writespi
 13569                           
 13570                           ;lighting.c: 720: writespi(0xFF);
 13571  118C  30FF               	movlw	255
 13572  118D  319B  2310  3191   	fcall	i1_writespi
 13573                           
 13574                           ;lighting.c: 721: writespi(0);
 13575  1190  3000               	movlw	0
 13576  1191  319B  2310  3191   	fcall	i1_writespi
 13577                           
 13578                           ;lighting.c: 722: writespi(0);
 13579  1194  3000               	movlw	0
 13580  1195  319B  2310  3191   	fcall	i1_writespi
 13581                           
 13582                           ;lighting.c: 723: writespi(0);
 13583  1198  3000               	movlw	0
 13584  1199  319B  2310  3191   	fcall	i1_writespi
 13585                           
 13586                           ;lighting.c: 725: writespi(0xFF);
 13587  119C  30FF               	movlw	255
 13588  119D  319B  2310  3191   	fcall	i1_writespi
 13589                           
 13590                           ;lighting.c: 726: writespi(0);
 13591  11A0  3000               	movlw	0
 13592  11A1  319B  2310  3191   	fcall	i1_writespi
 13593                           
 13594                           ;lighting.c: 727: writespi(0);
 13595  11A4  3000               	movlw	0
 13596  11A5  319B  2310  3191   	fcall	i1_writespi
 13597                           
 13598                           ;lighting.c: 728: writespi(0);
 13599  11A8  3000               	movlw	0
 13600  11A9  319B  2310  3191   	fcall	i1_writespi
 13601                           
 13602                           ;lighting.c: 730: writespi(0xFF);
 13603  11AC  30FF               	movlw	255
 13604  11AD  319B  2310  3191   	fcall	i1_writespi
 13605                           
 13606                           ;lighting.c: 731: writespi(0);
 13607  11B0  3000               	movlw	0
 13608  11B1  319B  2310  3191   	fcall	i1_writespi
 13609                           
 13610                           ;lighting.c: 732: writespi(0);
 13611  11B4  3000               	movlw	0
 13612  11B5  319B  2310  3191   	fcall	i1_writespi
 13613                           
 13614                           ;lighting.c: 733: writespi(0);
 13615  11B8  3000               	movlw	0
 13616  11B9  319B  2310  3191   	fcall	i1_writespi
 13617                           
 13618                           ;lighting.c: 735: writespi(0xFF);
 13619  11BC  30FF               	movlw	255
 13620  11BD  319B  2310  3191   	fcall	i1_writespi
 13621                           
 13622                           ;lighting.c: 736: writespi(0);
 13623  11C0  3000               	movlw	0
 13624  11C1  319B  2310  3191   	fcall	i1_writespi
 13625                           
 13626                           ;lighting.c: 737: writespi(0);
 13627  11C4  3000               	movlw	0
 13628  11C5  319B  2310  3191   	fcall	i1_writespi
 13629                           
 13630                           ;lighting.c: 738: writespi(0);
 13631  11C8  3000               	movlw	0
 13632  11C9  319B  2310  3191   	fcall	i1_writespi
 13633                           
 13634                           ;lighting.c: 740: for(int i = 0;i < 4; i++)
 13635  11CC  01FB               	clrf	i1led3_command@i_689
 13636  11CD  01FC               	clrf	i1led3_command@i_689+1
 13637  11CE  087C               	movf	i1led3_command@i_689+1,w
 13638  11CF  3A80               	xorlw	128
 13639  11D0  00F6               	movwf	??i1_led3_command
 13640  11D1  3080               	movlw	128
 13641  11D2  0276               	subwf	??i1_led3_command,w
 13642  11D3  1D03               	skipz
 13643  11D4  29D7               	goto	u280_25
 13644  11D5  3004               	movlw	4
 13645  11D6  027B               	subwf	i1led3_command@i_689,w
 13646  11D7                     u280_25:	
 13647  11D7  1803               	btfsc	3,0
 13648  11D8  29EC               	goto	i1l3535
 13649  11D9                     i1l3529:	
 13650                           
 13651                           ;lighting.c: 741: {
 13652                           ;lighting.c: 742: writespi(0xFF);
 13653  11D9  30FF               	movlw	255
 13654  11DA  319B  2310  3191   	fcall	i1_writespi
 13655  11DD  3001               	movlw	1
 13656  11DE  07FB               	addwf	i1led3_command@i_689,f
 13657  11DF  3000               	movlw	0
 13658  11E0  3DFC               	addwfc	i1led3_command@i_689+1,f
 13659  11E1  087C               	movf	i1led3_command@i_689+1,w
 13660  11E2  3A80               	xorlw	128
 13661  11E3  00F6               	movwf	??i1_led3_command
 13662  11E4  3080               	movlw	128
 13663  11E5  0276               	subwf	??i1_led3_command,w
 13664  11E6  1D03               	skipz
 13665  11E7  29EA               	goto	u281_25
 13666  11E8  3004               	movlw	4
 13667  11E9  027B               	subwf	i1led3_command@i_689,w
 13668  11EA                     u281_25:	
 13669  11EA  1C03               	skipc
 13670  11EB  29D9               	goto	i1l3529
 13671  11EC                     i1l3535:	
 13672                           
 13673                           ;lighting.c: 743: }
 13674                           ;lighting.c: 744: _delay((unsigned long)((20)*(32000000/4000.0)));
 13675  11EC  30D0               	movlw	208
 13676  11ED  00F7               	movwf	??i1_led3_command+1
 13677  11EE  30C9               	movlw	201
 13678  11EF  00F6               	movwf	??i1_led3_command
 13679  11F0                     u597_27:	
 13680  11F0  0BF6               	decfsz	??i1_led3_command,f
 13681  11F1  29F0               	goto	u597_27
 13682  11F2  0BF7               	decfsz	??i1_led3_command+1,f
 13683  11F3  29F0               	goto	u597_27
 13684  11F4  3200               	nop2
 13685  11F5  0008               	return
 13686  11F6                     __end_ofi1_led3_command:	
 13687                           
 13688                           	psect	text31
 13689  1080                     __ptext31:	
 13690 ;; *************** function i1_led2_command *****************
 13691 ;; Defined at:
 13692 ;;		line 641 in file "../../source/lighting.c"
 13693 ;; Parameters:    Size  Location     Type
 13694 ;;  brightness      1    wreg     unsigned char 
 13695 ;;  red             1    3[COMMON] unsigned char 
 13696 ;;  green           1    4[COMMON] unsigned char 
 13697 ;;  blue            1    5[COMMON] unsigned char 
 13698 ;; Auto vars:     Size  Location     Type
 13699 ;;  brightness      1    8[COMMON] unsigned char 
 13700 ;;  led2_command    2   11[COMMON] int 
 13701 ;;  led2_command    2    9[COMMON] int 
 13702 ;; Return value:  Size  Location     Type
 13703 ;;		None               void
 13704 ;; Registers used:
 13705 ;;		wreg, status,2, status,0, pclath, cstack
 13706 ;; Tracked objects:
 13707 ;;		On entry : 0/0
 13708 ;;		On exit  : 0/0
 13709 ;;		Unchanged: 0/0
 13710 ;; Data sizes:     COMMON   BANK0   BANK1   BANK2   BANK3   BANK4   BANK5   BANK6   BANK7   BANK8   BANK9  BANK10  BANK1
      +1  BANK12  BANK13  BANK14  BANK15  BANK16  BANK17  BANK18  BANK19  BANK20  BANK21  BANK22  BANK23  BANK24  BANK25
 13711 ;;      Params:         3       0       0       0       0       0       0       0       0       0       0       0       
      +0       0       0       0       0       0       0       0       0       0       0       0       0       0       0
 13712 ;;      Locals:         5       0       0       0       0       0       0       0       0       0       0       0       
      +0       0       0       0       0       0       0       0       0       0       0       0       0       0       0
 13713 ;;      Temps:          2       0       0       0       0       0       0       0       0       0       0       0       
      +0       0       0       0       0       0       0       0       0       0       0       0       0       0       0
 13714 ;;      Totals:        10       0       0       0       0       0       0       0       0       0       0       0       
      +0       0       0       0       0       0       0       0       0       0       0       0       0       0       0
 13715 ;;Total ram usage:       10 bytes
 13716 ;; Hardware stack levels used:    1
 13717 ;; Hardware stack levels required when called:    1
 13718 ;; This function calls:
 13719 ;;		i1_writespi
 13720 ;; This function is called by:
 13721 ;;		i1_display_blade_lights
 13722 ;; This function uses a non-reentrant model
 13723 ;;
 13724                           
 13725                           
 13726                           ;psect for function i1_led2_command
 13727  1080                     i1_led2_command:	
 13728                           
 13729                           ;incstack = 0
 13730                           ; Regs used in i1_led2_command: [wreg+status,2+status,0+pclath+cstack]
 13731                           ;i1led2_command@brightness stored from wreg
 13732  1080  00F8               	movwf	i1led2_command@brightness
 13733                           
 13734                           ;lighting.c: 647: for(int i = 0;i < 4; i++)
 13735  1081  01F9               	clrf	i1led2_command@i
 13736  1082  01FA               	clrf	i1led2_command@i+1
 13737  1083  087A               	movf	i1led2_command@i+1,w
 13738  1084  3A80               	xorlw	128
 13739  1085  00F6               	movwf	??i1_led2_command
 13740  1086  3080               	movlw	128
 13741  1087  0276               	subwf	??i1_led2_command,w
 13742  1088  1D03               	skipz
 13743  1089  288C               	goto	u274_25
 13744  108A  3004               	movlw	4
 13745  108B  0279               	subwf	i1led2_command@i,w
 13746  108C                     u274_25:	
 13747  108C  1803               	btfsc	3,0
 13748  108D  28A1               	goto	i1l3493
 13749  108E                     i1l3487:	
 13750                           
 13751                           ;lighting.c: 648: {
 13752                           ;lighting.c: 649: writespi(0x00);
 13753  108E  3000               	movlw	0
 13754  108F  319B  2310  3190   	fcall	i1_writespi
 13755  1092  3001               	movlw	1
 13756  1093  07F9               	addwf	i1led2_command@i,f
 13757  1094  3000               	movlw	0
 13758  1095  3DFA               	addwfc	i1led2_command@i+1,f
 13759  1096  087A               	movf	i1led2_command@i+1,w
 13760  1097  3A80               	xorlw	128
 13761  1098  00F6               	movwf	??i1_led2_command
 13762  1099  3080               	movlw	128
 13763  109A  0276               	subwf	??i1_led2_command,w
 13764  109B  1D03               	skipz
 13765  109C  289F               	goto	u275_25
 13766  109D  3004               	movlw	4
 13767  109E  0279               	subwf	i1led2_command@i,w
 13768  109F                     u275_25:	
 13769  109F  1C03               	skipc
 13770  10A0  288E               	goto	i1l3487
 13771  10A1                     i1l3493:	
 13772                           
 13773                           ;lighting.c: 650: }
 13774                           ;lighting.c: 652: writespi(0xFF);
 13775  10A1  30FF               	movlw	255
 13776  10A2  319B  2310  3190   	fcall	i1_writespi
 13777                           
 13778                           ;lighting.c: 653: writespi(0);
 13779  10A5  3000               	movlw	0
 13780  10A6  319B  2310  3190   	fcall	i1_writespi
 13781                           
 13782                           ;lighting.c: 654: writespi(0);
 13783  10A9  3000               	movlw	0
 13784  10AA  319B  2310  3190   	fcall	i1_writespi
 13785                           
 13786                           ;lighting.c: 655: writespi(0);
 13787  10AD  3000               	movlw	0
 13788  10AE  319B  2310  3190   	fcall	i1_writespi
 13789                           
 13790                           ;lighting.c: 657: writespi(brightness);
 13791  10B1  0878               	movf	i1led2_command@brightness,w
 13792  10B2  319B  2310  3190   	fcall	i1_writespi
 13793                           
 13794                           ;lighting.c: 658: writespi(blue);
 13795  10B5  0875               	movf	i1led2_command@blue,w
 13796  10B6  319B  2310  3190   	fcall	i1_writespi
 13797                           
 13798                           ;lighting.c: 659: writespi(green);
 13799  10B9  0874               	movf	i1led2_command@green,w
 13800  10BA  319B  2310  3190   	fcall	i1_writespi
 13801                           
 13802                           ;lighting.c: 660: writespi(red);
 13803  10BD  0873               	movf	i1led2_command@red,w
 13804  10BE  319B  2310  3190   	fcall	i1_writespi
 13805                           
 13806                           ;lighting.c: 662: writespi(0xFF);
 13807  10C1  30FF               	movlw	255
 13808  10C2  319B  2310  3190   	fcall	i1_writespi
 13809                           
 13810                           ;lighting.c: 663: writespi(0);
 13811  10C5  3000               	movlw	0
 13812  10C6  319B  2310  3190   	fcall	i1_writespi
 13813                           
 13814                           ;lighting.c: 664: writespi(0);
 13815  10C9  3000               	movlw	0
 13816  10CA  319B  2310  3190   	fcall	i1_writespi
 13817                           
 13818                           ;lighting.c: 665: writespi(0);
 13819  10CD  3000               	movlw	0
 13820  10CE  319B  2310  3190   	fcall	i1_writespi
 13821                           
 13822                           ;lighting.c: 667: writespi(0xFF);
 13823  10D1  30FF               	movlw	255
 13824  10D2  319B  2310  3190   	fcall	i1_writespi
 13825                           
 13826                           ;lighting.c: 668: writespi(0);
 13827  10D5  3000               	movlw	0
 13828  10D6  319B  2310  3190   	fcall	i1_writespi
 13829                           
 13830                           ;lighting.c: 669: writespi(0);
 13831  10D9  3000               	movlw	0
 13832  10DA  319B  2310  3190   	fcall	i1_writespi
 13833                           
 13834                           ;lighting.c: 670: writespi(0);
 13835  10DD  3000               	movlw	0
 13836  10DE  319B  2310  3190   	fcall	i1_writespi
 13837                           
 13838                           ;lighting.c: 672: writespi(0xFF);
 13839  10E1  30FF               	movlw	255
 13840  10E2  319B  2310  3190   	fcall	i1_writespi
 13841                           
 13842                           ;lighting.c: 673: writespi(0);
 13843  10E5  3000               	movlw	0
 13844  10E6  319B  2310  3190   	fcall	i1_writespi
 13845                           
 13846                           ;lighting.c: 674: writespi(0);
 13847  10E9  3000               	movlw	0
 13848  10EA  319B  2310  3190   	fcall	i1_writespi
 13849                           
 13850                           ;lighting.c: 675: writespi(0);
 13851  10ED  3000               	movlw	0
 13852  10EE  319B  2310  3190   	fcall	i1_writespi
 13853                           
 13854                           ;lighting.c: 677: writespi(0xFF);
 13855  10F1  30FF               	movlw	255
 13856  10F2  319B  2310  3190   	fcall	i1_writespi
 13857                           
 13858                           ;lighting.c: 678: writespi(0);
 13859  10F5  3000               	movlw	0
 13860  10F6  319B  2310  3190   	fcall	i1_writespi
 13861                           
 13862                           ;lighting.c: 679: writespi(0);
 13863  10F9  3000               	movlw	0
 13864  10FA  319B  2310  3190   	fcall	i1_writespi
 13865                           
 13866                           ;lighting.c: 680: writespi(0);
 13867  10FD  3000               	movlw	0
 13868  10FE  319B  2310  3190   	fcall	i1_writespi
 13869                           
 13870                           ;lighting.c: 682: writespi(0xFF);
 13871  1101  30FF               	movlw	255
 13872  1102  319B  2310  3190   	fcall	i1_writespi
 13873                           
 13874                           ;lighting.c: 683: writespi(0);
 13875  1105  3000               	movlw	0
 13876  1106  319B  2310  3190   	fcall	i1_writespi
 13877                           
 13878                           ;lighting.c: 684: writespi(0);
 13879  1109  3000               	movlw	0
 13880  110A  319B  2310  3190   	fcall	i1_writespi
 13881                           
 13882                           ;lighting.c: 685: writespi(0);
 13883  110D  3000               	movlw	0
 13884  110E  319B  2310  3190   	fcall	i1_writespi
 13885                           
 13886                           ;lighting.c: 687: for(int i = 0;i < 4; i++)
 13887  1111  01FB               	clrf	i1led2_command@i_682
 13888  1112  01FC               	clrf	i1led2_command@i_682+1
 13889  1113  087C               	movf	i1led2_command@i_682+1,w
 13890  1114  3A80               	xorlw	128
 13891  1115  00F6               	movwf	??i1_led2_command
 13892  1116  3080               	movlw	128
 13893  1117  0276               	subwf	??i1_led2_command,w
 13894  1118  1D03               	skipz
 13895  1119  291C               	goto	u276_25
 13896  111A  3004               	movlw	4
 13897  111B  027B               	subwf	i1led2_command@i_682,w
 13898  111C                     u276_25:	
 13899  111C  1803               	btfsc	3,0
 13900  111D  2931               	goto	i1l3507
 13901  111E                     i1l3501:	
 13902                           
 13903                           ;lighting.c: 688: {
 13904                           ;lighting.c: 689: writespi(0xFF);
 13905  111E  30FF               	movlw	255
 13906  111F  319B  2310  3190   	fcall	i1_writespi
 13907  1122  3001               	movlw	1
 13908  1123  07FB               	addwf	i1led2_command@i_682,f
 13909  1124  3000               	movlw	0
 13910  1125  3DFC               	addwfc	i1led2_command@i_682+1,f
 13911  1126  087C               	movf	i1led2_command@i_682+1,w
 13912  1127  3A80               	xorlw	128
 13913  1128  00F6               	movwf	??i1_led2_command
 13914  1129  3080               	movlw	128
 13915  112A  0276               	subwf	??i1_led2_command,w
 13916  112B  1D03               	skipz
 13917  112C  292F               	goto	u277_25
 13918  112D  3004               	movlw	4
 13919  112E  027B               	subwf	i1led2_command@i_682,w
 13920  112F                     u277_25:	
 13921  112F  1C03               	skipc
 13922  1130  291E               	goto	i1l3501
 13923  1131                     i1l3507:	
 13924                           
 13925                           ;lighting.c: 690: }
 13926                           ;lighting.c: 691: _delay((unsigned long)((20)*(32000000/4000.0)));
 13927  1131  30D0               	movlw	208
 13928  1132  00F7               	movwf	??i1_led2_command+1
 13929  1133  30C9               	movlw	201
 13930  1134  00F6               	movwf	??i1_led2_command
 13931  1135                     u598_27:	
 13932  1135  0BF6               	decfsz	??i1_led2_command,f
 13933  1136  2935               	goto	u598_27
 13934  1137  0BF7               	decfsz	??i1_led2_command+1,f
 13935  1138  2935               	goto	u598_27
 13936  1139  3200               	nop2
 13937  113A  0008               	return
 13938  113B                     __end_ofi1_led2_command:	
 13939                           
 13940                           	psect	text32
 13941  1F45                     __ptext32:	
 13942 ;; *************** function i1_led1_command *****************
 13943 ;; Defined at:
 13944 ;;		line 588 in file "../../source/lighting.c"
 13945 ;; Parameters:    Size  Location     Type
 13946 ;;  brightness      1    wreg     unsigned char 
 13947 ;;  red             1    3[COMMON] unsigned char 
 13948 ;;  green           1    4[COMMON] unsigned char 
 13949 ;;  blue            1    5[COMMON] unsigned char 
 13950 ;; Auto vars:     Size  Location     Type
 13951 ;;  brightness      1    8[COMMON] unsigned char 
 13952 ;;  led1_command    2   11[COMMON] int 
 13953 ;;  led1_command    2    9[COMMON] int 
 13954 ;; Return value:  Size  Location     Type
 13955 ;;		None               void
 13956 ;; Registers used:
 13957 ;;		wreg, status,2, status,0, pclath, cstack
 13958 ;; Tracked objects:
 13959 ;;		On entry : 0/0
 13960 ;;		On exit  : 0/0
 13961 ;;		Unchanged: 0/0
 13962 ;; Data sizes:     COMMON   BANK0   BANK1   BANK2   BANK3   BANK4   BANK5   BANK6   BANK7   BANK8   BANK9  BANK10  BANK1
      +1  BANK12  BANK13  BANK14  BANK15  BANK16  BANK17  BANK18  BANK19  BANK20  BANK21  BANK22  BANK23  BANK24  BANK25
 13963 ;;      Params:         3       0       0       0       0       0       0       0       0       0       0       0       
      +0       0       0       0       0       0       0       0       0       0       0       0       0       0       0
 13964 ;;      Locals:         5       0       0       0       0       0       0       0       0       0       0       0       
      +0       0       0       0       0       0       0       0       0       0       0       0       0       0       0
 13965 ;;      Temps:          2       0       0       0       0       0       0       0       0       0       0       0       
      +0       0       0       0       0       0       0       0       0       0       0       0       0       0       0
 13966 ;;      Totals:        10       0       0       0       0       0       0       0       0       0       0       0       
      +0       0       0       0       0       0       0       0       0       0       0       0       0       0       0
 13967 ;;Total ram usage:       10 bytes
 13968 ;; Hardware stack levels used:    1
 13969 ;; Hardware stack levels required when called:    1
 13970 ;; This function calls:
 13971 ;;		i1_writespi
 13972 ;; This function is called by:
 13973 ;;		i1_display_blade_lights
 13974 ;; This function uses a non-reentrant model
 13975 ;;
 13976                           
 13977                           
 13978                           ;psect for function i1_led1_command
 13979  1F45                     i1_led1_command:	
 13980                           
 13981                           ;incstack = 0
 13982                           ; Regs used in i1_led1_command: [wreg+status,2+status,0+pclath+cstack]
 13983                           ;i1led1_command@brightness stored from wreg
 13984  1F45  00F8               	movwf	i1led1_command@brightness
 13985                           
 13986                           ;lighting.c: 594: for(int i = 0;i < 4; i++)
 13987  1F46  01F9               	clrf	i1led1_command@i
 13988  1F47  01FA               	clrf	i1led1_command@i+1
 13989  1F48  087A               	movf	i1led1_command@i+1,w
 13990  1F49  3A80               	xorlw	128
 13991  1F4A  00F6               	movwf	??i1_led1_command
 13992  1F4B  3080               	movlw	128
 13993  1F4C  0276               	subwf	??i1_led1_command,w
 13994  1F4D  1D03               	skipz
 13995  1F4E  2F51               	goto	u270_25
 13996  1F4F  3004               	movlw	4
 13997  1F50  0279               	subwf	i1led1_command@i,w
 13998  1F51                     u270_25:	
 13999  1F51  1803               	btfsc	3,0
 14000  1F52  2F66               	goto	i1l3465
 14001  1F53                     i1l3459:	
 14002                           
 14003                           ;lighting.c: 595: {
 14004                           ;lighting.c: 596: writespi(0x00);
 14005  1F53  3000               	movlw	0
 14006  1F54  319B  2310  319F   	fcall	i1_writespi
 14007  1F57  3001               	movlw	1
 14008  1F58  07F9               	addwf	i1led1_command@i,f
 14009  1F59  3000               	movlw	0
 14010  1F5A  3DFA               	addwfc	i1led1_command@i+1,f
 14011  1F5B  087A               	movf	i1led1_command@i+1,w
 14012  1F5C  3A80               	xorlw	128
 14013  1F5D  00F6               	movwf	??i1_led1_command
 14014  1F5E  3080               	movlw	128
 14015  1F5F  0276               	subwf	??i1_led1_command,w
 14016  1F60  1D03               	skipz
 14017  1F61  2F64               	goto	u271_25
 14018  1F62  3004               	movlw	4
 14019  1F63  0279               	subwf	i1led1_command@i,w
 14020  1F64                     u271_25:	
 14021  1F64  1C03               	skipc
 14022  1F65  2F53               	goto	i1l3459
 14023  1F66                     i1l3465:	
 14024                           
 14025                           ;lighting.c: 597: }
 14026                           ;lighting.c: 599: writespi(brightness);
 14027  1F66  0878               	movf	i1led1_command@brightness,w
 14028  1F67  319B  2310  319F   	fcall	i1_writespi
 14029                           
 14030                           ;lighting.c: 600: writespi(blue);
 14031  1F6A  0875               	movf	i1led1_command@blue,w
 14032  1F6B  319B  2310  319F   	fcall	i1_writespi
 14033                           
 14034                           ;lighting.c: 601: writespi(green);
 14035  1F6E  0874               	movf	i1led1_command@green,w
 14036  1F6F  319B  2310  319F   	fcall	i1_writespi
 14037                           
 14038                           ;lighting.c: 602: writespi(red);
 14039  1F72  0873               	movf	i1led1_command@red,w
 14040  1F73  319B  2310  319F   	fcall	i1_writespi
 14041                           
 14042                           ;lighting.c: 604: writespi(0xFF);
 14043  1F76  30FF               	movlw	255
 14044  1F77  319B  2310  319F   	fcall	i1_writespi
 14045                           
 14046                           ;lighting.c: 605: writespi(0);
 14047  1F7A  3000               	movlw	0
 14048  1F7B  319B  2310  319F   	fcall	i1_writespi
 14049                           
 14050                           ;lighting.c: 606: writespi(0);
 14051  1F7E  3000               	movlw	0
 14052  1F7F  319B  2310  319F   	fcall	i1_writespi
 14053                           
 14054                           ;lighting.c: 607: writespi(0);
 14055  1F82  3000               	movlw	0
 14056  1F83  319B  2310  319F   	fcall	i1_writespi
 14057                           
 14058                           ;lighting.c: 609: writespi(0xFF);
 14059  1F86  30FF               	movlw	255
 14060  1F87  319B  2310  319F   	fcall	i1_writespi
 14061                           
 14062                           ;lighting.c: 610: writespi(0);
 14063  1F8A  3000               	movlw	0
 14064  1F8B  319B  2310  319F   	fcall	i1_writespi
 14065                           
 14066                           ;lighting.c: 611: writespi(0);
 14067  1F8E  3000               	movlw	0
 14068  1F8F  319B  2310  319F   	fcall	i1_writespi
 14069                           
 14070                           ;lighting.c: 612: writespi(0);
 14071  1F92  3000               	movlw	0
 14072  1F93  319B  2310  319F   	fcall	i1_writespi
 14073                           
 14074                           ;lighting.c: 614: writespi(0xFF);
 14075  1F96  30FF               	movlw	255
 14076  1F97  319B  2310  319F   	fcall	i1_writespi
 14077                           
 14078                           ;lighting.c: 615: writespi(0);
 14079  1F9A  3000               	movlw	0
 14080  1F9B  319B  2310  319F   	fcall	i1_writespi
 14081                           
 14082                           ;lighting.c: 616: writespi(0);
 14083  1F9E  3000               	movlw	0
 14084  1F9F  319B  2310  319F   	fcall	i1_writespi
 14085                           
 14086                           ;lighting.c: 617: writespi(0);
 14087  1FA2  3000               	movlw	0
 14088  1FA3  319B  2310  319F   	fcall	i1_writespi
 14089                           
 14090                           ;lighting.c: 619: writespi(0xFF);
 14091  1FA6  30FF               	movlw	255
 14092  1FA7  319B  2310  319F   	fcall	i1_writespi
 14093                           
 14094                           ;lighting.c: 620: writespi(0);
 14095  1FAA  3000               	movlw	0
 14096  1FAB  319B  2310  319F   	fcall	i1_writespi
 14097                           
 14098                           ;lighting.c: 621: writespi(0);
 14099  1FAE  3000               	movlw	0
 14100  1FAF  319B  2310  319F   	fcall	i1_writespi
 14101                           
 14102                           ;lighting.c: 622: writespi(0);
 14103  1FB2  3000               	movlw	0
 14104  1FB3  319B  2310  319F   	fcall	i1_writespi
 14105                           
 14106                           ;lighting.c: 624: writespi(0xFF);
 14107  1FB6  30FF               	movlw	255
 14108  1FB7  319B  2310  319F   	fcall	i1_writespi
 14109                           
 14110                           ;lighting.c: 625: writespi(0);
 14111  1FBA  3000               	movlw	0
 14112  1FBB  319B  2310  319F   	fcall	i1_writespi
 14113                           
 14114                           ;lighting.c: 626: writespi(0);
 14115  1FBE  3000               	movlw	0
 14116  1FBF  319B  2310  319F   	fcall	i1_writespi
 14117                           
 14118                           ;lighting.c: 627: writespi(0);
 14119  1FC2  3000               	movlw	0
 14120  1FC3  319B  2310  319F   	fcall	i1_writespi
 14121                           
 14122                           ;lighting.c: 629: writespi(0xFF);
 14123  1FC6  30FF               	movlw	255
 14124  1FC7  319B  2310  319F   	fcall	i1_writespi
 14125                           
 14126                           ;lighting.c: 630: writespi(0);
 14127  1FCA  3000               	movlw	0
 14128  1FCB  319B  2310  319F   	fcall	i1_writespi
 14129                           
 14130                           ;lighting.c: 631: writespi(0);
 14131  1FCE  3000               	movlw	0
 14132  1FCF  319B  2310  319F   	fcall	i1_writespi
 14133                           
 14134                           ;lighting.c: 632: writespi(0);
 14135  1FD2  3000               	movlw	0
 14136  1FD3  319B  2310  319F   	fcall	i1_writespi
 14137                           
 14138                           ;lighting.c: 634: for(int i = 0;i < 4; i++)
 14139  1FD6  01FB               	clrf	i1led1_command@i_675
 14140  1FD7  01FC               	clrf	i1led1_command@i_675+1
 14141  1FD8  087C               	movf	i1led1_command@i_675+1,w
 14142  1FD9  3A80               	xorlw	128
 14143  1FDA  00F6               	movwf	??i1_led1_command
 14144  1FDB  3080               	movlw	128
 14145  1FDC  0276               	subwf	??i1_led1_command,w
 14146  1FDD  1D03               	skipz
 14147  1FDE  2FE1               	goto	u272_25
 14148  1FDF  3004               	movlw	4
 14149  1FE0  027B               	subwf	i1led1_command@i_675,w
 14150  1FE1                     u272_25:	
 14151  1FE1  1803               	btfsc	3,0
 14152  1FE2  2FF6               	goto	i1l3479
 14153  1FE3                     i1l3473:	
 14154                           
 14155                           ;lighting.c: 635: {
 14156                           ;lighting.c: 636: writespi(0xFF);
 14157  1FE3  30FF               	movlw	255
 14158  1FE4  319B  2310  319F   	fcall	i1_writespi
 14159  1FE7  3001               	movlw	1
 14160  1FE8  07FB               	addwf	i1led1_command@i_675,f
 14161  1FE9  3000               	movlw	0
 14162  1FEA  3DFC               	addwfc	i1led1_command@i_675+1,f
 14163  1FEB  087C               	movf	i1led1_command@i_675+1,w
 14164  1FEC  3A80               	xorlw	128
 14165  1FED  00F6               	movwf	??i1_led1_command
 14166  1FEE  3080               	movlw	128
 14167  1FEF  0276               	subwf	??i1_led1_command,w
 14168  1FF0  1D03               	skipz
 14169  1FF1  2FF4               	goto	u273_25
 14170  1FF2  3004               	movlw	4
 14171  1FF3  027B               	subwf	i1led1_command@i_675,w
 14172  1FF4                     u273_25:	
 14173  1FF4  1C03               	skipc
 14174  1FF5  2FE3               	goto	i1l3473
 14175  1FF6                     i1l3479:	
 14176                           
 14177                           ;lighting.c: 637: }
 14178                           ;lighting.c: 638: _delay((unsigned long)((20)*(32000000/4000.0)));
 14179  1FF6  30D0               	movlw	208
 14180  1FF7  00F7               	movwf	??i1_led1_command+1
 14181  1FF8  30C9               	movlw	201
 14182  1FF9  00F6               	movwf	??i1_led1_command
 14183  1FFA                     u599_27:	
 14184  1FFA  0BF6               	decfsz	??i1_led1_command,f
 14185  1FFB  2FFA               	goto	u599_27
 14186  1FFC  0BF7               	decfsz	??i1_led1_command+1,f
 14187  1FFD  2FFA               	goto	u599_27
 14188  1FFE  3200               	nop2
 14189  1FFF  0008               	return
 14190  2000                     __end_ofi1_led1_command:	
 14191                           
 14192                           	psect	text33
 14193  1B10                     __ptext33:	
 14194 ;; *************** function i1_writespi *****************
 14195 ;; Defined at:
 14196 ;;		line 543 in file "../../source/lighting.c"
 14197 ;; Parameters:    Size  Location     Type
 14198 ;;  data_out        1    wreg     unsigned char 
 14199 ;; Auto vars:     Size  Location     Type
 14200 ;;  data_out        1    2[COMMON] unsigned char 
 14201 ;;  writespi        1    1[COMMON] unsigned char 
 14202 ;; Return value:  Size  Location     Type
 14203 ;;		None               void
 14204 ;; Registers used:
 14205 ;;		wreg
 14206 ;; Tracked objects:
 14207 ;;		On entry : 0/0
 14208 ;;		On exit  : 0/0
 14209 ;;		Unchanged: 0/0
 14210 ;; Data sizes:     COMMON   BANK0   BANK1   BANK2   BANK3   BANK4   BANK5   BANK6   BANK7   BANK8   BANK9  BANK10  BANK1
      +1  BANK12  BANK13  BANK14  BANK15  BANK16  BANK17  BANK18  BANK19  BANK20  BANK21  BANK22  BANK23  BANK24  BANK25
 14211 ;;      Params:         0       0       0       0       0       0       0       0       0       0       0       0       
      +0       0       0       0       0       0       0       0       0       0       0       0       0       0       0
 14212 ;;      Locals:         2       0       0       0       0       0       0       0       0       0       0       0       
      +0       0       0       0       0       0       0       0       0       0       0       0       0       0       0
 14213 ;;      Temps:          1       0       0       0       0       0       0       0       0       0       0       0       
      +0       0       0       0       0       0       0       0       0       0       0       0       0       0       0
 14214 ;;      Totals:         3       0       0       0       0       0       0       0       0       0       0       0       
      +0       0       0       0       0       0       0       0       0       0       0       0       0       0       0
 14215 ;;Total ram usage:        3 bytes
 14216 ;; Hardware stack levels used:    1
 14217 ;; This function calls:
 14218 ;;		Nothing
 14219 ;; This function is called by:
 14220 ;;		i1_display_blade_lights
 14221 ;;		i1_led1_command
 14222 ;;		i1_led2_command
 14223 ;;		i1_led3_command
 14224 ;;		i1_led4_command
 14225 ;;		i1_led5_command
 14226 ;;		i1_led6_command
 14227 ;;		i1_led7_command
 14228 ;;		i1_leds_off
 14229 ;; This function uses a non-reentrant model
 14230 ;;
 14231                           
 14232                           
 14233                           ;psect for function i1_writespi
 14234  1B10                     i1_writespi:	
 14235                           
 14236                           ;incstack = 0
 14237                           ; Regs used in i1_writespi: [wreg]
 14238                           ;i1writespi@data_out stored from wreg
 14239  1B10  00F2               	movwf	i1writespi@data_out
 14240                           
 14241                           ;lighting.c: 545: unsigned char TempVar;
 14242                           ;lighting.c: 546: TempVar = SSPBUF;
 14243  1B11  0024               	movlb	4	; select bank4
 14244  1B12  0811               	movf	17,w	;volatile
 14245  1B13  00F0               	movwf	??i1_writespi
 14246  1B14  0870               	movf	??i1_writespi,w
 14247  1B15  00F1               	movwf	i1writespi@TempVar
 14248                           
 14249                           ;lighting.c: 547: PIR1bits.SSP1IF = 0;
 14250  1B16  0020               	movlb	0	; select bank0
 14251  1B17  1191               	bcf	17,3	;volatile
 14252                           
 14253                           ;lighting.c: 548: SSPCON1bits.WCOL = 0;
 14254  1B18  0024               	movlb	4	; select bank4
 14255  1B19  1395               	bcf	21,7	;volatile
 14256                           
 14257                           ;lighting.c: 549: SSPBUF = data_out;
 14258  1B1A  0872               	movf	i1writespi@data_out,w
 14259  1B1B  0091               	movwf	17	;volatile
 14260  1B1C                     i1l667:	
 14261                           ;lighting.c: 554: while( !PIR1bits.SSP1IF );
 14262                           
 14263  1B1C  0020               	movlb	0	; select bank0
 14264  1B1D  1991               	btfsc	17,3	;volatile
 14265  1B1E  0008               	return
 14266  1B1F  2B1C               	goto	i1l667
 14267  1B20                     __end_ofi1_writespi:	
 14268                           
 14269                           	psect	text34
 14270  0800                     __ptext34:	
 14271 ;; *************** function i1_determine_omega_mode_active *****************
 14272 ;; Defined at:
 14273 ;;		line 9 in file "../../source/blade_connection.c"
 14274 ;; Parameters:    Size  Location     Type
 14275 ;;		None
 14276 ;; Auto vars:     Size  Location     Type
 14277 ;;		None
 14278 ;; Return value:  Size  Location     Type
 14279 ;;                  1    wreg      unsigned char 
 14280 ;; Registers used:
 14281 ;;		wreg
 14282 ;; Tracked objects:
 14283 ;;		On entry : 0/0
 14284 ;;		On exit  : 0/0
 14285 ;;		Unchanged: 0/0
 14286 ;; Data sizes:     COMMON   BANK0   BANK1   BANK2   BANK3   BANK4   BANK5   BANK6   BANK7   BANK8   BANK9  BANK10  BANK1
      +1  BANK12  BANK13  BANK14  BANK15  BANK16  BANK17  BANK18  BANK19  BANK20  BANK21  BANK22  BANK23  BANK24  BANK25
 14287 ;;      Params:         0       0       0       0       0       0       0       0       0       0       0       0       
      +0       0       0       0       0       0       0       0       0       0       0       0       0       0       0
 14288 ;;      Locals:         0       0       0       0       0       0       0       0       0       0       0       0       
      +0       0       0       0       0       0       0       0       0       0       0       0       0       0       0
 14289 ;;      Temps:          0       0       0       0       0       0       0       0       0       0       0       0       
      +0       0       0       0       0       0       0       0       0       0       0       0       0       0       0
 14290 ;;      Totals:         0       0       0       0       0       0       0       0       0       0       0       0       
      +0       0       0       0       0       0       0       0       0       0       0       0       0       0       0
 14291 ;;Total ram usage:        0 bytes
 14292 ;; Hardware stack levels used:    1
 14293 ;; This function calls:
 14294 ;;		Nothing
 14295 ;; This function is called by:
 14296 ;;		_isr
 14297 ;; This function uses a non-reentrant model
 14298 ;;
 14299                           
 14300                           
 14301                           ;psect for function i1_determine_omega_mode_active
 14302  0800                     i1_determine_omega_mode_active:	
 14303                           
 14304                           ;blade_connection.c: 11: return RA1;
 14305                           
 14306                           ;incstack = 0
 14307                           ; Regs used in i1_determine_omega_mode_active: [wreg]
 14308  0800  3000               	movlw	0
 14309  0801  0020               	movlb	0	; select bank0
 14310  0802  188C               	btfsc	12,1	;volatile
 14311  0803  3001               	movlw	1
 14312  0804  0008               	return
 14313  0805                     __end_ofi1_determine_omega_mode_active:	
 14314                           
 14315                           	psect	text35
 14316  1C1E                     __ptext35:	
 14317 ;; *************** function ___fttol *****************
 14318 ;; Defined at:
 14319 ;;		line 44 in file "C:\Program Files (x86)\Microchip\xc8\v1.35\sources\common\fttol.c"
 14320 ;; Parameters:    Size  Location     Type
 14321 ;;  f1              3   16[BANK0 ] float 
 14322 ;; Auto vars:     Size  Location     Type
 14323 ;;  lval            4   25[BANK0 ] unsigned long 
 14324 ;;  exp1            1   29[BANK0 ] unsigned char 
 14325 ;;  sign1           1   24[BANK0 ] unsigned char 
 14326 ;; Return value:  Size  Location     Type
 14327 ;;                  4   16[BANK0 ] long 
 14328 ;; Registers used:
 14329 ;;		wreg, status,2, status,0
 14330 ;; Tracked objects:
 14331 ;;		On entry : 0/0
 14332 ;;		On exit  : 0/0
 14333 ;;		Unchanged: 0/0
 14334 ;; Data sizes:     COMMON   BANK0   BANK1   BANK2   BANK3   BANK4   BANK5   BANK6   BANK7   BANK8   BANK9  BANK10  BANK1
      +1  BANK12  BANK13  BANK14  BANK15  BANK16  BANK17  BANK18  BANK19  BANK20  BANK21  BANK22  BANK23  BANK24  BANK25
 14335 ;;      Params:         0       4       0       0       0       0       0       0       0       0       0       0       
      +0       0       0       0       0       0       0       0       0       0       0       0       0       0       0
 14336 ;;      Locals:         0       6       0       0       0       0       0       0       0       0       0       0       
      +0       0       0       0       0       0       0       0       0       0       0       0       0       0       0
 14337 ;;      Temps:          0       4       0       0       0       0       0       0       0       0       0       0       
      +0       0       0       0       0       0       0       0       0       0       0       0       0       0       0
 14338 ;;      Totals:         0      14       0       0       0       0       0       0       0       0       0       0       
      +0       0       0       0       0       0       0       0       0       0       0       0       0       0       0
 14339 ;;Total ram usage:       14 bytes
 14340 ;; Hardware stack levels used:    1
 14341 ;; This function calls:
 14342 ;;		Nothing
 14343 ;; This function is called by:
 14344 ;;		_isr
 14345 ;; This function uses a non-reentrant model
 14346 ;;
 14347                           
 14348                           
 14349                           ;psect for function ___fttol
 14350  1C1E                     ___fttol:	
 14351                           
 14352                           ;incstack = 0
 14353                           ; Regs used in ___fttol: [wreg+status,2+status,0]
 14354  1C1E  0020               	movlb	0	; select bank0
 14355  1C1F  0830               	movf	___fttol@f1,w
 14356  1C20  00B4               	movwf	??___fttol
 14357  1C21  0831               	movf	___fttol@f1+1,w
 14358  1C22  00B5               	movwf	??___fttol+1
 14359  1C23  0832               	movf	___fttol@f1+2,w
 14360  1C24  00B6               	movwf	??___fttol+2
 14361  1C25  1003               	clrc
 14362  1C26  0D35               	rlf	??___fttol+1,w
 14363  1C27  0D36               	rlf	??___fttol+2,w
 14364  1C28  00B7               	movwf	??___fttol+3
 14365  1C29  0837               	movf	??___fttol+3,w
 14366  1C2A  00BD               	movwf	___fttol@exp1
 14367  1C2B  083D               	movf	___fttol@exp1,w
 14368  1C2C  1D03               	btfss	3,2
 14369  1C2D  2C37               	goto	i1l4519
 14370  1C2E  3000               	movlw	0
 14371  1C2F  00B3               	movwf	?___fttol+3
 14372  1C30  3000               	movlw	0
 14373  1C31  00B2               	movwf	?___fttol+2
 14374  1C32  3000               	movlw	0
 14375  1C33  00B1               	movwf	?___fttol+1
 14376  1C34  3000               	movlw	0
 14377  1C35  00B0               	movwf	?___fttol
 14378  1C36  0008               	return
 14379  1C37                     i1l4519:	
 14380  1C37  0830               	movf	___fttol@f1,w
 14381  1C38  00B4               	movwf	??___fttol
 14382  1C39  0831               	movf	___fttol@f1+1,w
 14383  1C3A  00B5               	movwf	??___fttol+1
 14384  1C3B  0832               	movf	___fttol@f1+2,w
 14385  1C3C  00B6               	movwf	??___fttol+2
 14386  1C3D  3017               	movlw	23
 14387  1C3E                     u371_25:	
 14388  1C3E  36B6               	lsrf	??___fttol+2,f
 14389  1C3F  0CB5               	rrf	??___fttol+1,f
 14390  1C40  0CB4               	rrf	??___fttol,f
 14391  1C41  0B89               	decfsz	9,f
 14392  1C42  2C3E               	goto	u371_25
 14393  1C43  0834               	movf	??___fttol,w
 14394  1C44  00B7               	movwf	??___fttol+3
 14395  1C45  0837               	movf	??___fttol+3,w
 14396  1C46  00B8               	movwf	___fttol@sign1
 14397  1C47  17B1               	bsf	___fttol@f1+1,7
 14398  1C48  30FF               	movlw	255
 14399  1C49  05B0               	andwf	___fttol@f1,f
 14400  1C4A  30FF               	movlw	255
 14401  1C4B  05B1               	andwf	___fttol@f1+1,f
 14402  1C4C  3000               	movlw	0
 14403  1C4D  05B2               	andwf	___fttol@f1+2,f
 14404  1C4E  0830               	movf	___fttol@f1,w
 14405  1C4F  00B9               	movwf	___fttol@lval
 14406  1C50  0831               	movf	___fttol@f1+1,w
 14407  1C51  00BA               	movwf	___fttol@lval+1
 14408  1C52  0832               	movf	___fttol@f1+2,w
 14409  1C53  00BB               	movwf	___fttol@lval+2
 14410  1C54  01BC               	clrf	___fttol@lval+3
 14411  1C55  308E               	movlw	142
 14412  1C56  02BD               	subwf	___fttol@exp1,f
 14413  1C57  1FBD               	btfss	___fttol@exp1,7
 14414  1C58  2C75               	goto	i1l4539
 14415  1C59  083D               	movf	___fttol@exp1,w
 14416  1C5A  3A80               	xorlw	128
 14417  1C5B  3E8F               	addlw	143
 14418  1C5C  1803               	skipnc
 14419  1C5D  2C67               	goto	i1l4537
 14420  1C5E  3000               	movlw	0
 14421  1C5F  00B3               	movwf	?___fttol+3
 14422  1C60  3000               	movlw	0
 14423  1C61  00B2               	movwf	?___fttol+2
 14424  1C62  3000               	movlw	0
 14425  1C63  00B1               	movwf	?___fttol+1
 14426  1C64  3000               	movlw	0
 14427  1C65  00B0               	movwf	?___fttol
 14428  1C66  0008               	return
 14429  1C67                     i1l4537:	
 14430  1C67  3001               	movlw	1
 14431  1C68                     u374_25:	
 14432  1C68  36BC               	lsrf	___fttol@lval+3,f
 14433  1C69  0CBB               	rrf	___fttol@lval+2,f
 14434  1C6A  0CBA               	rrf	___fttol@lval+1,f
 14435  1C6B  0CB9               	rrf	___fttol@lval,f
 14436  1C6C  0B89               	decfsz	9,f
 14437  1C6D  2C68               	goto	u374_25
 14438  1C6E  3001               	movlw	1
 14439  1C6F  00B4               	movwf	??___fttol
 14440  1C70  0834               	movf	??___fttol,w
 14441  1C71  07BD               	addwf	___fttol@exp1,f
 14442  1C72  1903               	btfsc	3,2
 14443  1C73  2C8E               	goto	i1l4547
 14444  1C74  2C67               	goto	i1l4537
 14445  1C75                     i1l4539:	
 14446  1C75  3018               	movlw	24
 14447  1C76  023D               	subwf	___fttol@exp1,w
 14448  1C77  1C03               	skipc
 14449  1C78  2C8B               	goto	i1l1085
 14450  1C79  3000               	movlw	0
 14451  1C7A  00B3               	movwf	?___fttol+3
 14452  1C7B  3000               	movlw	0
 14453  1C7C  00B2               	movwf	?___fttol+2
 14454  1C7D  3000               	movlw	0
 14455  1C7E  00B1               	movwf	?___fttol+1
 14456  1C7F  3000               	movlw	0
 14457  1C80  00B0               	movwf	?___fttol
 14458  1C81  0008               	return
 14459  1C82                     i1l4545:	
 14460  1C82  3001               	movlw	1
 14461  1C83                     u377_25:	
 14462  1C83  35B9               	lslf	___fttol@lval,f
 14463  1C84  0DBA               	rlf	___fttol@lval+1,f
 14464  1C85  0DBB               	rlf	___fttol@lval+2,f
 14465  1C86  0DBC               	rlf	___fttol@lval+3,f
 14466  1C87  0B89               	decfsz	9,f
 14467  1C88  2C83               	goto	u377_25
 14468  1C89  3001               	movlw	1
 14469  1C8A  02BD               	subwf	___fttol@exp1,f
 14470  1C8B                     i1l1085:	
 14471  1C8B  083D               	movf	___fttol@exp1,w
 14472  1C8C  1D03               	btfss	3,2
 14473  1C8D  2C82               	goto	i1l4545
 14474  1C8E                     i1l4547:	
 14475  1C8E  0838               	movf	___fttol@sign1,w
 14476  1C8F  1903               	btfsc	3,2
 14477  1C90  2C9C               	goto	i1l4551
 14478  1C91  09B9               	comf	___fttol@lval,f
 14479  1C92  09BA               	comf	___fttol@lval+1,f
 14480  1C93  09BB               	comf	___fttol@lval+2,f
 14481  1C94  09BC               	comf	___fttol@lval+3,f
 14482  1C95  0AB9               	incf	___fttol@lval,f
 14483  1C96  1903               	skipnz
 14484  1C97  0ABA               	incf	___fttol@lval+1,f
 14485  1C98  1903               	skipnz
 14486  1C99  0ABB               	incf	___fttol@lval+2,f
 14487  1C9A  1903               	skipnz
 14488  1C9B  0ABC               	incf	___fttol@lval+3,f
 14489  1C9C                     i1l4551:	
 14490  1C9C  083C               	movf	___fttol@lval+3,w
 14491  1C9D  00B3               	movwf	?___fttol+3
 14492  1C9E  083B               	movf	___fttol@lval+2,w
 14493  1C9F  00B2               	movwf	?___fttol+2
 14494  1CA0  083A               	movf	___fttol@lval+1,w
 14495  1CA1  00B1               	movwf	?___fttol+1
 14496  1CA2  0839               	movf	___fttol@lval,w
 14497  1CA3  00B0               	movwf	?___fttol
 14498  1CA4  0008               	return
 14499  1CA5                     __end_of___fttol:	
 14500                           
 14501                           	psect	text36
 14502  1DD7                     __ptext36:	
 14503 ;; *************** function ___ftmul *****************
 14504 ;; Defined at:
 14505 ;;		line 62 in file "C:\Program Files (x86)\Microchip\xc8\v1.35\sources\common\ftmul.c"
 14506 ;; Parameters:    Size  Location     Type
 14507 ;;  f1              3    0[BANK0 ] float 
 14508 ;;  f2              3    3[BANK0 ] float 
 14509 ;; Auto vars:     Size  Location     Type
 14510 ;;  f3_as_produc    3   11[BANK0 ] unsigned um
 14511 ;;  sign            1   15[BANK0 ] unsigned char 
 14512 ;;  cntr            1   14[BANK0 ] unsigned char 
 14513 ;;  exp             1   10[BANK0 ] unsigned char 
 14514 ;; Return value:  Size  Location     Type
 14515 ;;                  3    0[BANK0 ] float 
 14516 ;; Registers used:
 14517 ;;		wreg, status,2, status,0, pclath, cstack
 14518 ;; Tracked objects:
 14519 ;;		On entry : 0/0
 14520 ;;		On exit  : 0/0
 14521 ;;		Unchanged: 0/0
 14522 ;; Data sizes:     COMMON   BANK0   BANK1   BANK2   BANK3   BANK4   BANK5   BANK6   BANK7   BANK8   BANK9  BANK10  BANK1
      +1  BANK12  BANK13  BANK14  BANK15  BANK16  BANK17  BANK18  BANK19  BANK20  BANK21  BANK22  BANK23  BANK24  BANK25
 14523 ;;      Params:         0       6       0       0       0       0       0       0       0       0       0       0       
      +0       0       0       0       0       0       0       0       0       0       0       0       0       0       0
 14524 ;;      Locals:         0       6       0       0       0       0       0       0       0       0       0       0       
      +0       0       0       0       0       0       0       0       0       0       0       0       0       0       0
 14525 ;;      Temps:          0       4       0       0       0       0       0       0       0       0       0       0       
      +0       0       0       0       0       0       0       0       0       0       0       0       0       0       0
 14526 ;;      Totals:         0      16       0       0       0       0       0       0       0       0       0       0       
      +0       0       0       0       0       0       0       0       0       0       0       0       0       0       0
 14527 ;;Total ram usage:       16 bytes
 14528 ;; Hardware stack levels used:    1
 14529 ;; Hardware stack levels required when called:    1
 14530 ;; This function calls:
 14531 ;;		___ftpack
 14532 ;; This function is called by:
 14533 ;;		_isr
 14534 ;; This function uses a non-reentrant model
 14535 ;;
 14536                           
 14537                           
 14538                           ;psect for function ___ftmul
 14539  1DD7                     ___ftmul:	
 14540                           
 14541                           ;incstack = 0
 14542                           ; Regs used in ___ftmul: [wreg+status,2+status,0+pclath+cstack]
 14543  1DD7  0020               	movlb	0	; select bank0
 14544  1DD8  0820               	movf	___ftmul@f1,w
 14545  1DD9  00A6               	movwf	??___ftmul
 14546  1DDA  0821               	movf	___ftmul@f1+1,w
 14547  1DDB  00A7               	movwf	??___ftmul+1
 14548  1DDC  0822               	movf	___ftmul@f1+2,w
 14549  1DDD  00A8               	movwf	??___ftmul+2
 14550  1DDE  1003               	clrc
 14551  1DDF  0D27               	rlf	??___ftmul+1,w
 14552  1DE0  0D28               	rlf	??___ftmul+2,w
 14553  1DE1  00A9               	movwf	??___ftmul+3
 14554  1DE2  0829               	movf	??___ftmul+3,w
 14555  1DE3  00AA               	movwf	___ftmul@exp
 14556  1DE4  082A               	movf	___ftmul@exp,w
 14557  1DE5  1D03               	btfss	3,2
 14558  1DE6  2DEE               	goto	i1l4469
 14559  1DE7  3000               	movlw	0
 14560  1DE8  00A0               	movwf	?___ftmul
 14561  1DE9  3000               	movlw	0
 14562  1DEA  00A1               	movwf	?___ftmul+1
 14563  1DEB  3000               	movlw	0
 14564  1DEC  00A2               	movwf	?___ftmul+2
 14565  1DED  0008               	return
 14566  1DEE                     i1l4469:	
 14567  1DEE  0823               	movf	___ftmul@f2,w
 14568  1DEF  00A6               	movwf	??___ftmul
 14569  1DF0  0824               	movf	___ftmul@f2+1,w
 14570  1DF1  00A7               	movwf	??___ftmul+1
 14571  1DF2  0825               	movf	___ftmul@f2+2,w
 14572  1DF3  00A8               	movwf	??___ftmul+2
 14573  1DF4  1003               	clrc
 14574  1DF5  0D27               	rlf	??___ftmul+1,w
 14575  1DF6  0D28               	rlf	??___ftmul+2,w
 14576  1DF7  00A9               	movwf	??___ftmul+3
 14577  1DF8  0829               	movf	??___ftmul+3,w
 14578  1DF9  00AF               	movwf	___ftmul@sign
 14579  1DFA  082F               	movf	___ftmul@sign,w
 14580  1DFB  1D03               	btfss	3,2
 14581  1DFC  2E04               	goto	i1l4475
 14582  1DFD  3000               	movlw	0
 14583  1DFE  00A0               	movwf	?___ftmul
 14584  1DFF  3000               	movlw	0
 14585  1E00  00A1               	movwf	?___ftmul+1
 14586  1E01  3000               	movlw	0
 14587  1E02  00A2               	movwf	?___ftmul+2
 14588  1E03  0008               	return
 14589  1E04                     i1l4475:	
 14590  1E04  082F               	movf	___ftmul@sign,w
 14591  1E05  3E7B               	addlw	123
 14592  1E06  00A6               	movwf	??___ftmul
 14593  1E07  0826               	movf	??___ftmul,w
 14594  1E08  07AA               	addwf	___ftmul@exp,f
 14595  1E09  0820               	movf	___ftmul@f1,w
 14596  1E0A  00A6               	movwf	??___ftmul
 14597  1E0B  0821               	movf	___ftmul@f1+1,w
 14598  1E0C  00A7               	movwf	??___ftmul+1
 14599  1E0D  0822               	movf	___ftmul@f1+2,w
 14600  1E0E  00A8               	movwf	??___ftmul+2
 14601  1E0F  3010               	movlw	16
 14602  1E10                     u360_25:	
 14603  1E10  36A8               	lsrf	??___ftmul+2,f
 14604  1E11  0CA7               	rrf	??___ftmul+1,f
 14605  1E12  0CA6               	rrf	??___ftmul,f
 14606  1E13  0B89               	decfsz	9,f
 14607  1E14  2E10               	goto	u360_25
 14608  1E15  0826               	movf	??___ftmul,w
 14609  1E16  00A9               	movwf	??___ftmul+3
 14610  1E17  0829               	movf	??___ftmul+3,w
 14611  1E18  00AF               	movwf	___ftmul@sign
 14612  1E19  0823               	movf	___ftmul@f2,w
 14613  1E1A  00A6               	movwf	??___ftmul
 14614  1E1B  0824               	movf	___ftmul@f2+1,w
 14615  1E1C  00A7               	movwf	??___ftmul+1
 14616  1E1D  0825               	movf	___ftmul@f2+2,w
 14617  1E1E  00A8               	movwf	??___ftmul+2
 14618  1E1F  3010               	movlw	16
 14619  1E20                     u361_25:	
 14620  1E20  36A8               	lsrf	??___ftmul+2,f
 14621  1E21  0CA7               	rrf	??___ftmul+1,f
 14622  1E22  0CA6               	rrf	??___ftmul,f
 14623  1E23  0B89               	decfsz	9,f
 14624  1E24  2E20               	goto	u361_25
 14625  1E25  0826               	movf	??___ftmul,w
 14626  1E26  00A9               	movwf	??___ftmul+3
 14627  1E27  0829               	movf	??___ftmul+3,w
 14628  1E28  06AF               	xorwf	___ftmul@sign,f
 14629  1E29  3080               	movlw	128
 14630  1E2A  00A6               	movwf	??___ftmul
 14631  1E2B  0826               	movf	??___ftmul,w
 14632  1E2C  05AF               	andwf	___ftmul@sign,f
 14633  1E2D  17A1               	bsf	___ftmul@f1+1,7
 14634  1E2E  17A4               	bsf	___ftmul@f2+1,7
 14635  1E2F  30FF               	movlw	255
 14636  1E30  05A3               	andwf	___ftmul@f2,f
 14637  1E31  30FF               	movlw	255
 14638  1E32  05A4               	andwf	___ftmul@f2+1,f
 14639  1E33  3000               	movlw	0
 14640  1E34  05A5               	andwf	___ftmul@f2+2,f
 14641  1E35  3000               	movlw	0
 14642  1E36  00AB               	movwf	___ftmul@f3_as_product
 14643  1E37  3000               	movlw	0
 14644  1E38  00AC               	movwf	___ftmul@f3_as_product+1
 14645  1E39  3000               	movlw	0
 14646  1E3A  00AD               	movwf	___ftmul@f3_as_product+2
 14647  1E3B  3007               	movlw	7
 14648  1E3C  00A6               	movwf	??___ftmul
 14649  1E3D  0826               	movf	??___ftmul,w
 14650  1E3E  00AE               	movwf	___ftmul@cntr
 14651  1E3F                     i1l4487:	
 14652  1E3F  1C20               	btfss	___ftmul@f1,0
 14653  1E40  2E47               	goto	i1l4491
 14654  1E41  0823               	movf	___ftmul@f2,w
 14655  1E42  07AB               	addwf	___ftmul@f3_as_product,f
 14656  1E43  0824               	movf	___ftmul@f2+1,w
 14657  1E44  3DAC               	addwfc	___ftmul@f3_as_product+1,f
 14658  1E45  0825               	movf	___ftmul@f2+2,w
 14659  1E46  3DAD               	addwfc	___ftmul@f3_as_product+2,f
 14660  1E47                     i1l4491:	
 14661  1E47  3001               	movlw	1
 14662  1E48                     u363_25:	
 14663  1E48  36A2               	lsrf	___ftmul@f1+2,f
 14664  1E49  0CA1               	rrf	___ftmul@f1+1,f
 14665  1E4A  0CA0               	rrf	___ftmul@f1,f
 14666  1E4B  0B89               	decfsz	9,f
 14667  1E4C  2E48               	goto	u363_25
 14668  1E4D  3001               	movlw	1
 14669  1E4E                     u364_25:	
 14670  1E4E  35A3               	lslf	___ftmul@f2,f
 14671  1E4F  0DA4               	rlf	___ftmul@f2+1,f
 14672  1E50  0DA5               	rlf	___ftmul@f2+2,f
 14673  1E51  0B89               	decfsz	9,f
 14674  1E52  2E4E               	goto	u364_25
 14675  1E53  3001               	movlw	1
 14676  1E54  02AE               	subwf	___ftmul@cntr,f
 14677  1E55  1D03               	btfss	3,2
 14678  1E56  2E3F               	goto	i1l4487
 14679  1E57  3009               	movlw	9
 14680  1E58  00A6               	movwf	??___ftmul
 14681  1E59  0826               	movf	??___ftmul,w
 14682  1E5A  00AE               	movwf	___ftmul@cntr
 14683  1E5B                     i1l4499:	
 14684  1E5B  1C20               	btfss	___ftmul@f1,0
 14685  1E5C  2E63               	goto	i1l4503
 14686  1E5D  0823               	movf	___ftmul@f2,w
 14687  1E5E  07AB               	addwf	___ftmul@f3_as_product,f
 14688  1E5F  0824               	movf	___ftmul@f2+1,w
 14689  1E60  3DAC               	addwfc	___ftmul@f3_as_product+1,f
 14690  1E61  0825               	movf	___ftmul@f2+2,w
 14691  1E62  3DAD               	addwfc	___ftmul@f3_as_product+2,f
 14692  1E63                     i1l4503:	
 14693  1E63  3001               	movlw	1
 14694  1E64                     u367_25:	
 14695  1E64  36A2               	lsrf	___ftmul@f1+2,f
 14696  1E65  0CA1               	rrf	___ftmul@f1+1,f
 14697  1E66  0CA0               	rrf	___ftmul@f1,f
 14698  1E67  0B89               	decfsz	9,f
 14699  1E68  2E64               	goto	u367_25
 14700  1E69  3001               	movlw	1
 14701  1E6A                     u368_25:	
 14702  1E6A  36AD               	lsrf	___ftmul@f3_as_product+2,f
 14703  1E6B  0CAC               	rrf	___ftmul@f3_as_product+1,f
 14704  1E6C  0CAB               	rrf	___ftmul@f3_as_product,f
 14705  1E6D  0B89               	decfsz	9,f
 14706  1E6E  2E6A               	goto	u368_25
 14707  1E6F  3001               	movlw	1
 14708  1E70  02AE               	subwf	___ftmul@cntr,f
 14709  1E71  1D03               	btfss	3,2
 14710  1E72  2E5B               	goto	i1l4499
 14711  1E73  082B               	movf	___ftmul@f3_as_product,w
 14712  1E74  00F0               	movwf	___ftpack@arg
 14713  1E75  082C               	movf	___ftmul@f3_as_product+1,w
 14714  1E76  00F1               	movwf	___ftpack@arg+1
 14715  1E77  082D               	movf	___ftmul@f3_as_product+2,w
 14716  1E78  00F2               	movwf	___ftpack@arg+2
 14717  1E79  082A               	movf	___ftmul@exp,w
 14718  1E7A  00A6               	movwf	??___ftmul
 14719  1E7B  0826               	movf	??___ftmul,w
 14720  1E7C  00F3               	movwf	___ftpack@exp
 14721  1E7D  082F               	movf	___ftmul@sign,w
 14722  1E7E  00A7               	movwf	??___ftmul+1
 14723  1E7F  0827               	movf	??___ftmul+1,w
 14724  1E80  00F4               	movwf	___ftpack@sign
 14725  1E81  3190  201C         	fcall	___ftpack
 14726  1E83  0870               	movf	?___ftpack,w
 14727  1E84  0020               	movlb	0	; select bank0
 14728  1E85  00A0               	movwf	?___ftmul
 14729  1E86  0871               	movf	?___ftpack+1,w
 14730  1E87  00A1               	movwf	?___ftmul+1
 14731  1E88  0872               	movf	?___ftpack+2,w
 14732  1E89  00A2               	movwf	?___ftmul+2
 14733  1E8A  0008               	return
 14734  1E8B                     __end_of___ftmul:	
 14735                           
 14736                           	psect	text37
 14737  1BE2                     __ptext37:	
 14738 ;; *************** function ___ftge *****************
 14739 ;; Defined at:
 14740 ;;		line 4 in file "C:\Program Files (x86)\Microchip\xc8\v1.35\sources\common\ftge.c"
 14741 ;; Parameters:    Size  Location     Type
 14742 ;;  ff1             3   16[BANK0 ] float 
 14743 ;;  ff2             3   19[BANK0 ] float 
 14744 ;; Auto vars:     Size  Location     Type
 14745 ;;		None
 14746 ;; Return value:  Size  Location     Type
 14747 ;;		None               void
 14748 ;; Registers used:
 14749 ;;		wreg, status,2, status,0
 14750 ;; Tracked objects:
 14751 ;;		On entry : 0/0
 14752 ;;		On exit  : 0/0
 14753 ;;		Unchanged: 0/0
 14754 ;; Data sizes:     COMMON   BANK0   BANK1   BANK2   BANK3   BANK4   BANK5   BANK6   BANK7   BANK8   BANK9  BANK10  BANK1
      +1  BANK12  BANK13  BANK14  BANK15  BANK16  BANK17  BANK18  BANK19  BANK20  BANK21  BANK22  BANK23  BANK24  BANK25
 14755 ;;      Params:         0       6       0       0       0       0       0       0       0       0       0       0       
      +0       0       0       0       0       0       0       0       0       0       0       0       0       0       0
 14756 ;;      Locals:         0       0       0       0       0       0       0       0       0       0       0       0       
      +0       0       0       0       0       0       0       0       0       0       0       0       0       0       0
 14757 ;;      Temps:          0       3       0       0       0       0       0       0       0       0       0       0       
      +0       0       0       0       0       0       0       0       0       0       0       0       0       0       0
 14758 ;;      Totals:         0       9       0       0       0       0       0       0       0       0       0       0       
      +0       0       0       0       0       0       0       0       0       0       0       0       0       0       0
 14759 ;;Total ram usage:        9 bytes
 14760 ;; Hardware stack levels used:    1
 14761 ;; This function calls:
 14762 ;;		Nothing
 14763 ;; This function is called by:
 14764 ;;		_isr
 14765 ;; This function uses a non-reentrant model
 14766 ;;
 14767                           
 14768                           
 14769                           ;psect for function ___ftge
 14770  1BE2                     ___ftge:	
 14771                           
 14772                           ;incstack = 0
 14773                           ; Regs used in ___ftge: [wreg+status,2+status,0]
 14774  1BE2  0020               	movlb	0	; select bank0
 14775  1BE3  1FB2               	btfss	___ftge@ff1+2,7
 14776  1BE4  2BF9               	goto	i1l4447
 14777  1BE5  0930               	comf	___ftge@ff1,w
 14778  1BE6  00B6               	movwf	??___ftge
 14779  1BE7  0931               	comf	___ftge@ff1+1,w
 14780  1BE8  00B7               	movwf	??___ftge+1
 14781  1BE9  0932               	comf	___ftge@ff1+2,w
 14782  1BEA  00B8               	movwf	??___ftge+2
 14783  1BEB  0AB6               	incf	??___ftge,f
 14784  1BEC  1903               	skipnz
 14785  1BED  0AB7               	incf	??___ftge+1,f
 14786  1BEE  1903               	skipnz
 14787  1BEF  0AB8               	incf	??___ftge+2,f
 14788  1BF0  3000               	movlw	0
 14789  1BF1  0736               	addwf	??___ftge,w
 14790  1BF2  00B0               	movwf	___ftge@ff1
 14791  1BF3  3000               	movlw	0
 14792  1BF4  3D37               	addwfc	??___ftge+1,w
 14793  1BF5  00B1               	movwf	___ftge@ff1+1
 14794  1BF6  3080               	movlw	128
 14795  1BF7  3D38               	addwfc	??___ftge+2,w
 14796  1BF8  00B2               	movwf	___ftge@ff1+2
 14797  1BF9                     i1l4447:	
 14798  1BF9  1FB5               	btfss	___ftge@ff2+2,7
 14799  1BFA  2C0F               	goto	i1l4451
 14800  1BFB  0933               	comf	___ftge@ff2,w
 14801  1BFC  00B6               	movwf	??___ftge
 14802  1BFD  0934               	comf	___ftge@ff2+1,w
 14803  1BFE  00B7               	movwf	??___ftge+1
 14804  1BFF  0935               	comf	___ftge@ff2+2,w
 14805  1C00  00B8               	movwf	??___ftge+2
 14806  1C01  0AB6               	incf	??___ftge,f
 14807  1C02  1903               	skipnz
 14808  1C03  0AB7               	incf	??___ftge+1,f
 14809  1C04  1903               	skipnz
 14810  1C05  0AB8               	incf	??___ftge+2,f
 14811  1C06  3000               	movlw	0
 14812  1C07  0736               	addwf	??___ftge,w
 14813  1C08  00B3               	movwf	___ftge@ff2
 14814  1C09  3000               	movlw	0
 14815  1C0A  3D37               	addwfc	??___ftge+1,w
 14816  1C0B  00B4               	movwf	___ftge@ff2+1
 14817  1C0C  3080               	movlw	128
 14818  1C0D  3D38               	addwfc	??___ftge+2,w
 14819  1C0E  00B5               	movwf	___ftge@ff2+2
 14820  1C0F                     i1l4451:	
 14821  1C0F  3080               	movlw	128
 14822  1C10  06B2               	xorwf	___ftge@ff1+2,f
 14823  1C11  3080               	movlw	128
 14824  1C12  06B5               	xorwf	___ftge@ff2+2,f
 14825  1C13  0835               	movf	___ftge@ff2+2,w
 14826  1C14  0232               	subwf	___ftge@ff1+2,w
 14827  1C15  1D03               	skipz
 14828  1C16  0008               	return
 14829  1C17  0834               	movf	___ftge@ff2+1,w
 14830  1C18  0231               	subwf	___ftge@ff1+1,w
 14831  1C19  1D03               	skipz
 14832  1C1A  0008               	return
 14833  1C1B  0833               	movf	___ftge@ff2,w
 14834  1C1C  0230               	subwf	___ftge@ff1,w
 14835  1C1D  0008               	return
 14836  1C1E                     __end_of___ftge:	
 14837                           
 14838                           	psect	text38
 14839  1B33                     __ptext38:	
 14840 ;; *************** function ___awtoft *****************
 14841 ;; Defined at:
 14842 ;;		line 32 in file "C:\Program Files (x86)\Microchip\xc8\v1.35\sources\common\awtoft.c"
 14843 ;; Parameters:    Size  Location     Type
 14844 ;;  c               2    8[COMMON] int 
 14845 ;; Auto vars:     Size  Location     Type
 14846 ;;  sign            1   13[COMMON] unsigned char 
 14847 ;; Return value:  Size  Location     Type
 14848 ;;                  3    8[COMMON] float 
 14849 ;; Registers used:
 14850 ;;		wreg, status,2, status,0, pclath, cstack
 14851 ;; Tracked objects:
 14852 ;;		On entry : 0/0
 14853 ;;		On exit  : 0/0
 14854 ;;		Unchanged: 0/0
 14855 ;; Data sizes:     COMMON   BANK0   BANK1   BANK2   BANK3   BANK4   BANK5   BANK6   BANK7   BANK8   BANK9  BANK10  BANK1
      +1  BANK12  BANK13  BANK14  BANK15  BANK16  BANK17  BANK18  BANK19  BANK20  BANK21  BANK22  BANK23  BANK24  BANK25
 14856 ;;      Params:         3       0       0       0       0       0       0       0       0       0       0       0       
      +0       0       0       0       0       0       0       0       0       0       0       0       0       0       0
 14857 ;;      Locals:         1       0       0       0       0       0       0       0       0       0       0       0       
      +0       0       0       0       0       0       0       0       0       0       0       0       0       0       0
 14858 ;;      Temps:          2       0       0       0       0       0       0       0       0       0       0       0       
      +0       0       0       0       0       0       0       0       0       0       0       0       0       0       0
 14859 ;;      Totals:         6       0       0       0       0       0       0       0       0       0       0       0       
      +0       0       0       0       0       0       0       0       0       0       0       0       0       0       0
 14860 ;;Total ram usage:        6 bytes
 14861 ;; Hardware stack levels used:    1
 14862 ;; Hardware stack levels required when called:    1
 14863 ;; This function calls:
 14864 ;;		___ftpack
 14865 ;; This function is called by:
 14866 ;;		_isr
 14867 ;; This function uses a non-reentrant model
 14868 ;;
 14869                           
 14870                           
 14871                           ;psect for function ___awtoft
 14872  1B33                     ___awtoft:	
 14873                           
 14874                           ;incstack = 0
 14875                           ; Regs used in ___awtoft: [wreg+status,2+status,0+pclath+cstack]
 14876  1B33  01FD               	clrf	___awtoft@sign
 14877  1B34  1FF9               	btfss	___awtoft@c+1,7
 14878  1B35  2B3D               	goto	i1l4439
 14879  1B36  09F8               	comf	___awtoft@c,f
 14880  1B37  09F9               	comf	___awtoft@c+1,f
 14881  1B38  0AF8               	incf	___awtoft@c,f
 14882  1B39  1903               	skipnz
 14883  1B3A  0AF9               	incf	___awtoft@c+1,f
 14884  1B3B  01FD               	clrf	___awtoft@sign
 14885  1B3C  0AFD               	incf	___awtoft@sign,f
 14886  1B3D                     i1l4439:	
 14887  1B3D  0878               	movf	___awtoft@c,w
 14888  1B3E  00F0               	movwf	___ftpack@arg
 14889  1B3F  0879               	movf	___awtoft@c+1,w
 14890  1B40  00F1               	movwf	___ftpack@arg+1
 14891  1B41  01F2               	clrf	___ftpack@arg+2
 14892  1B42  308E               	movlw	142
 14893  1B43  00FB               	movwf	??___awtoft
 14894  1B44  087B               	movf	??___awtoft,w
 14895  1B45  00F3               	movwf	___ftpack@exp
 14896  1B46  087D               	movf	___awtoft@sign,w
 14897  1B47  00FC               	movwf	??___awtoft+1
 14898  1B48  087C               	movf	??___awtoft+1,w
 14899  1B49  00F4               	movwf	___ftpack@sign
 14900  1B4A  3190  201C         	fcall	___ftpack
 14901  1B4C  0870               	movf	?___ftpack,w
 14902  1B4D  00F8               	movwf	?___awtoft
 14903  1B4E  0871               	movf	?___ftpack+1,w
 14904  1B4F  00F9               	movwf	?___awtoft+1
 14905  1B50  0872               	movf	?___ftpack+2,w
 14906  1B51  00FA               	movwf	?___awtoft+2
 14907  1B52  0008               	return
 14908  1B53                     __end_of___awtoft:	
 14909                           
 14910                           	psect	text39
 14911  101C                     __ptext39:	
 14912 ;; *************** function ___ftpack *****************
 14913 ;; Defined at:
 14914 ;;		line 62 in file "C:\Program Files (x86)\Microchip\xc8\v1.35\sources\common\float.c"
 14915 ;; Parameters:    Size  Location     Type
 14916 ;;  arg             3    0[COMMON] unsigned um
 14917 ;;  exp             1    3[COMMON] unsigned char 
 14918 ;;  sign            1    4[COMMON] unsigned char 
 14919 ;; Auto vars:     Size  Location     Type
 14920 ;;		None
 14921 ;; Return value:  Size  Location     Type
 14922 ;;                  3    0[COMMON] float 
 14923 ;; Registers used:
 14924 ;;		wreg, status,2, status,0
 14925 ;; Tracked objects:
 14926 ;;		On entry : 0/0
 14927 ;;		On exit  : 0/0
 14928 ;;		Unchanged: 0/0
 14929 ;; Data sizes:     COMMON   BANK0   BANK1   BANK2   BANK3   BANK4   BANK5   BANK6   BANK7   BANK8   BANK9  BANK10  BANK1
      +1  BANK12  BANK13  BANK14  BANK15  BANK16  BANK17  BANK18  BANK19  BANK20  BANK21  BANK22  BANK23  BANK24  BANK25
 14930 ;;      Params:         5       0       0       0       0       0       0       0       0       0       0       0       
      +0       0       0       0       0       0       0       0       0       0       0       0       0       0       0
 14931 ;;      Locals:         0       0       0       0       0       0       0       0       0       0       0       0       
      +0       0       0       0       0       0       0       0       0       0       0       0       0       0       0
 14932 ;;      Temps:          3       0       0       0       0       0       0       0       0       0       0       0       
      +0       0       0       0       0       0       0       0       0       0       0       0       0       0       0
 14933 ;;      Totals:         8       0       0       0       0       0       0       0       0       0       0       0       
      +0       0       0       0       0       0       0       0       0       0       0       0       0       0       0
 14934 ;;Total ram usage:        8 bytes
 14935 ;; Hardware stack levels used:    1
 14936 ;; This function calls:
 14937 ;;		Nothing
 14938 ;; This function is called by:
 14939 ;;		___awtoft
 14940 ;;		___ftmul
 14941 ;; This function uses a non-reentrant model
 14942 ;;
 14943                           
 14944                           
 14945                           ;psect for function ___ftpack
 14946  101C                     ___ftpack:	
 14947                           
 14948                           ;incstack = 0
 14949                           ; Regs used in ___ftpack: [wreg+status,2+status,0]
 14950  101C  0873               	movf	___ftpack@exp,w
 14951  101D  1903               	btfsc	3,2
 14952  101E  2824               	goto	i1l3425
 14953  101F  0872               	movf	___ftpack@arg+2,w
 14954  1020  0471               	iorwf	___ftpack@arg+1,w
 14955  1021  0470               	iorwf	___ftpack@arg,w
 14956  1022  1D03               	skipz
 14957  1023  2835               	goto	i1l3431
 14958  1024                     i1l3425:	
 14959  1024  3000               	movlw	0
 14960  1025  00F0               	movwf	?___ftpack
 14961  1026  3000               	movlw	0
 14962  1027  00F1               	movwf	?___ftpack+1
 14963  1028  3000               	movlw	0
 14964  1029  00F2               	movwf	?___ftpack+2
 14965  102A  0008               	return
 14966  102B                     i1l3429:	
 14967  102B  3001               	movlw	1
 14968  102C  00F5               	movwf	??___ftpack
 14969  102D  0875               	movf	??___ftpack,w
 14970  102E  07F3               	addwf	___ftpack@exp,f
 14971  102F  3001               	movlw	1
 14972  1030                     u260_25:	
 14973  1030  36F2               	lsrf	___ftpack@arg+2,f
 14974  1031  0CF1               	rrf	___ftpack@arg+1,f
 14975  1032  0CF0               	rrf	___ftpack@arg,f
 14976  1033  0B89               	decfsz	9,f
 14977  1034  2830               	goto	u260_25
 14978  1035                     i1l3431:	
 14979  1035  30FE               	movlw	254
 14980  1036  0572               	andwf	___ftpack@arg+2,w
 14981  1037  1903               	btfsc	3,2
 14982  1038  284E               	goto	i1l994
 14983  1039  282B               	goto	i1l3429
 14984  103A                     i1l3433:	
 14985  103A  3001               	movlw	1
 14986  103B  00F5               	movwf	??___ftpack
 14987  103C  0875               	movf	??___ftpack,w
 14988  103D  07F3               	addwf	___ftpack@exp,f
 14989  103E  3001               	movlw	1
 14990  103F  07F0               	addwf	___ftpack@arg,f
 14991  1040  3000               	movlw	0
 14992  1041  1803               	skipnc
 14993  1042  3001               	movlw	1
 14994  1043  07F1               	addwf	___ftpack@arg+1,f
 14995  1044  3000               	movlw	0
 14996  1045  1803               	skipnc
 14997  1046  3001               	movlw	1
 14998  1047  07F2               	addwf	___ftpack@arg+2,f
 14999  1048  3001               	movlw	1
 15000  1049                     u262_25:	
 15001  1049  36F2               	lsrf	___ftpack@arg+2,f
 15002  104A  0CF1               	rrf	___ftpack@arg+1,f
 15003  104B  0CF0               	rrf	___ftpack@arg,f
 15004  104C  0B89               	decfsz	9,f
 15005  104D  2849               	goto	u262_25
 15006  104E                     i1l994:	
 15007  104E  30FF               	movlw	255
 15008  104F  0572               	andwf	___ftpack@arg+2,w
 15009  1050  1903               	btfsc	3,2
 15010  1051  285B               	goto	i1l3441
 15011  1052  283A               	goto	i1l3433
 15012  1053                     i1l3439:	
 15013  1053  3001               	movlw	1
 15014  1054  02F3               	subwf	___ftpack@exp,f
 15015  1055  3001               	movlw	1
 15016  1056                     u264_25:	
 15017  1056  35F0               	lslf	___ftpack@arg,f
 15018  1057  0DF1               	rlf	___ftpack@arg+1,f
 15019  1058  0DF2               	rlf	___ftpack@arg+2,f
 15020  1059  0B89               	decfsz	9,f
 15021  105A  2856               	goto	u264_25
 15022  105B                     i1l3441:	
 15023  105B  1BF1               	btfsc	___ftpack@arg+1,7
 15024  105C  2861               	goto	i1l1001
 15025  105D  3002               	movlw	2
 15026  105E  0273               	subwf	___ftpack@exp,w
 15027  105F  1803               	skipnc
 15028  1060  2853               	goto	i1l3439
 15029  1061                     i1l1001:	
 15030  1061  1873               	btfsc	___ftpack@exp,0
 15031  1062  2869               	goto	i1l1002
 15032  1063  30FF               	movlw	255
 15033  1064  05F0               	andwf	___ftpack@arg,f
 15034  1065  307F               	movlw	127
 15035  1066  05F1               	andwf	___ftpack@arg+1,f
 15036  1067  30FF               	movlw	255
 15037  1068  05F2               	andwf	___ftpack@arg+2,f
 15038  1069                     i1l1002:	
 15039  1069  1003               	clrc
 15040  106A  0CF3               	rrf	___ftpack@exp,f
 15041  106B  0873               	movf	___ftpack@exp,w
 15042  106C  00F5               	movwf	??___ftpack
 15043  106D  01F6               	clrf	??___ftpack+1
 15044  106E  01F7               	clrf	??___ftpack+2
 15045  106F  3010               	movlw	16
 15046  1070                     u268_25:	
 15047  1070  35F5               	lslf	??___ftpack,f
 15048  1071  0DF6               	rlf	??___ftpack+1,f
 15049  1072  0DF7               	rlf	??___ftpack+2,f
 15050  1073  0B89               	decfsz	9,f
 15051  1074  2870               	goto	u268_25
 15052  1075  0875               	movf	??___ftpack,w
 15053  1076  04F0               	iorwf	___ftpack@arg,f
 15054  1077  0876               	movf	??___ftpack+1,w
 15055  1078  04F1               	iorwf	___ftpack@arg+1,f
 15056  1079  0877               	movf	??___ftpack+2,w
 15057  107A  04F2               	iorwf	___ftpack@arg+2,f
 15058  107B  0874               	movf	___ftpack@sign,w
 15059  107C  1903               	btfsc	3,2
 15060  107D  0008               	return
 15061  107E  17F2               	bsf	___ftpack@arg+2,7
 15062  107F  0008               	return
 15063  1080                     __end_of___ftpack:	
 15064                           
 15065                           	psect	text40
 15066  07AA                     __ptext40:	
 15067 ;; *************** function ___awdiv *****************
 15068 ;; Defined at:
 15069 ;;		line 6 in file "C:\Program Files (x86)\Microchip\xc8\v1.35\sources\common\awdiv.c"
 15070 ;; Parameters:    Size  Location     Type
 15071 ;;  divisor         2    0[COMMON] int 
 15072 ;;  dividend        2    2[COMMON] int 
 15073 ;; Auto vars:     Size  Location     Type
 15074 ;;  quotient        2    7[COMMON] int 
 15075 ;;  sign            1    6[COMMON] unsigned char 
 15076 ;;  counter         1    5[COMMON] unsigned char 
 15077 ;; Return value:  Size  Location     Type
 15078 ;;                  2    0[COMMON] int 
 15079 ;; Registers used:
 15080 ;;		wreg, status,2, status,0
 15081 ;; Tracked objects:
 15082 ;;		On entry : 0/0
 15083 ;;		On exit  : 0/0
 15084 ;;		Unchanged: 0/0
 15085 ;; Data sizes:     COMMON   BANK0   BANK1   BANK2   BANK3   BANK4   BANK5   BANK6   BANK7   BANK8   BANK9  BANK10  BANK1
      +1  BANK12  BANK13  BANK14  BANK15  BANK16  BANK17  BANK18  BANK19  BANK20  BANK21  BANK22  BANK23  BANK24  BANK25
 15086 ;;      Params:         4       0       0       0       0       0       0       0       0       0       0       0       
      +0       0       0       0       0       0       0       0       0       0       0       0       0       0       0
 15087 ;;      Locals:         4       0       0       0       0       0       0       0       0       0       0       0       
      +0       0       0       0       0       0       0       0       0       0       0       0       0       0       0
 15088 ;;      Temps:          1       0       0       0       0       0       0       0       0       0       0       0       
      +0       0       0       0       0       0       0       0       0       0       0       0       0       0       0
 15089 ;;      Totals:         9       0       0       0       0       0       0       0       0       0       0       0       
      +0       0       0       0       0       0       0       0       0       0       0       0       0       0       0
 15090 ;;Total ram usage:        9 bytes
 15091 ;; Hardware stack levels used:    1
 15092 ;; This function calls:
 15093 ;;		Nothing
 15094 ;; This function is called by:
 15095 ;;		_isr
 15096 ;; This function uses a non-reentrant model
 15097 ;;
 15098                           
 15099                           
 15100                           ;psect for function ___awdiv
 15101  07AA                     ___awdiv:	
 15102                           
 15103                           ;incstack = 0
 15104                           ; Regs used in ___awdiv: [wreg+status,2+status,0]
 15105  07AA  01F6               	clrf	___awdiv@sign
 15106  07AB  1FF1               	btfss	___awdiv@divisor+1,7
 15107  07AC  2FB4               	goto	i1l4395
 15108  07AD  09F0               	comf	___awdiv@divisor,f
 15109  07AE  09F1               	comf	___awdiv@divisor+1,f
 15110  07AF  0AF0               	incf	___awdiv@divisor,f
 15111  07B0  1903               	skipnz
 15112  07B1  0AF1               	incf	___awdiv@divisor+1,f
 15113  07B2  01F6               	clrf	___awdiv@sign
 15114  07B3  0AF6               	incf	___awdiv@sign,f
 15115  07B4                     i1l4395:	
 15116  07B4  1FF3               	btfss	___awdiv@dividend+1,7
 15117  07B5  2FBF               	goto	i1l4401
 15118  07B6  09F2               	comf	___awdiv@dividend,f
 15119  07B7  09F3               	comf	___awdiv@dividend+1,f
 15120  07B8  0AF2               	incf	___awdiv@dividend,f
 15121  07B9  1903               	skipnz
 15122  07BA  0AF3               	incf	___awdiv@dividend+1,f
 15123  07BB  3001               	movlw	1
 15124  07BC  00F4               	movwf	??___awdiv
 15125  07BD  0874               	movf	??___awdiv,w
 15126  07BE  06F6               	xorwf	___awdiv@sign,f
 15127  07BF                     i1l4401:	
 15128  07BF  01F7               	clrf	___awdiv@quotient
 15129  07C0  01F8               	clrf	___awdiv@quotient+1
 15130  07C1  0870               	movf	___awdiv@divisor,w
 15131  07C2  0471               	iorwf	___awdiv@divisor+1,w
 15132  07C3  1903               	btfsc	3,2
 15133  07C4  2FEE               	goto	i1l4423
 15134  07C5  01F5               	clrf	___awdiv@counter
 15135  07C6  0AF5               	incf	___awdiv@counter,f
 15136  07C7                     i1l4411:	
 15137  07C7  1BF1               	btfsc	___awdiv@divisor+1,7
 15138  07C8  2FD3               	goto	i1l4413
 15139  07C9  3001               	movlw	1
 15140  07CA                     u347_25:	
 15141  07CA  35F0               	lslf	___awdiv@divisor,f
 15142  07CB  0DF1               	rlf	___awdiv@divisor+1,f
 15143  07CC  0B89               	decfsz	9,f
 15144  07CD  2FCA               	goto	u347_25
 15145  07CE  3001               	movlw	1
 15146  07CF  00F4               	movwf	??___awdiv
 15147  07D0  0874               	movf	??___awdiv,w
 15148  07D1  07F5               	addwf	___awdiv@counter,f
 15149  07D2  2FC7               	goto	i1l4411
 15150  07D3                     i1l4413:	
 15151  07D3  3001               	movlw	1
 15152  07D4                     u349_25:	
 15153  07D4  35F7               	lslf	___awdiv@quotient,f
 15154  07D5  0DF8               	rlf	___awdiv@quotient+1,f
 15155  07D6  0B89               	decfsz	9,f
 15156  07D7  2FD4               	goto	u349_25
 15157  07D8  0871               	movf	___awdiv@divisor+1,w
 15158  07D9  0273               	subwf	___awdiv@dividend+1,w
 15159  07DA  1D03               	skipz
 15160  07DB  2FDE               	goto	u350_25
 15161  07DC  0870               	movf	___awdiv@divisor,w
 15162  07DD  0272               	subwf	___awdiv@dividend,w
 15163  07DE                     u350_25:	
 15164  07DE  1C03               	skipc
 15165  07DF  2FE5               	goto	i1l4419
 15166  07E0  0870               	movf	___awdiv@divisor,w
 15167  07E1  02F2               	subwf	___awdiv@dividend,f
 15168  07E2  0871               	movf	___awdiv@divisor+1,w
 15169  07E3  3BF3               	subwfb	___awdiv@dividend+1,f
 15170  07E4  1477               	bsf	___awdiv@quotient,0
 15171  07E5                     i1l4419:	
 15172  07E5  3001               	movlw	1
 15173  07E6                     u351_25:	
 15174  07E6  36F1               	lsrf	___awdiv@divisor+1,f
 15175  07E7  0CF0               	rrf	___awdiv@divisor,f
 15176  07E8  0B89               	decfsz	9,f
 15177  07E9  2FE6               	goto	u351_25
 15178  07EA  3001               	movlw	1
 15179  07EB  02F5               	subwf	___awdiv@counter,f
 15180  07EC  1D03               	btfss	3,2
 15181  07ED  2FD3               	goto	i1l4413
 15182  07EE                     i1l4423:	
 15183  07EE  0876               	movf	___awdiv@sign,w
 15184  07EF  1903               	btfsc	3,2
 15185  07F0  2FF6               	goto	i1l4427
 15186  07F1  09F7               	comf	___awdiv@quotient,f
 15187  07F2  09F8               	comf	___awdiv@quotient+1,f
 15188  07F3  0AF7               	incf	___awdiv@quotient,f
 15189  07F4  1903               	skipnz
 15190  07F5  0AF8               	incf	___awdiv@quotient+1,f
 15191  07F6                     i1l4427:	
 15192  07F6  0878               	movf	___awdiv@quotient+1,w
 15193  07F7  00F1               	movwf	?___awdiv+1
 15194  07F8  0877               	movf	___awdiv@quotient,w
 15195  07F9  00F0               	movwf	?___awdiv
 15196  07FA  0008               	return
 15197  07FB                     __end_of___awdiv:	
 15198  007E                     btemp	set	126	;btemp
 15199  007E                     int$flags	set	126
 15200  007E                     wtemp	set	126
 15201  007E                     wtemp0	set	126
 15202  0080                     wtemp1	set	128
 15203  0082                     wtemp2	set	130
 15204  0084                     wtemp3	set	132
 15205  0086                     wtemp4	set	134
 15206  0088                     wtemp5	set	136
 15207  007F                     wtemp6	set	127
 15208  007E                     ttemp	set	126
 15209  007E                     ttemp0	set	126
 15210  0081                     ttemp1	set	129
 15211  0084                     ttemp2	set	132
 15212  0087                     ttemp3	set	135
 15213  007F                     ttemp4	set	127
 15214  007E                     ltemp	set	126
 15215  007E                     ltemp0	set	126
 15216  0082                     ltemp1	set	130
 15217  0086                     ltemp2	set	134
 15218  0080                     ltemp3	set	128


Data Sizes:
    Strings     131
    Constant    6
    Data        1
    BSS         13
    Persistent  0
    Stack       0

Auto Spaces:
    Space          Size  Autos    Used
    COMMON           14     14      14
    BANK0            80     40      48
    BANK1            80     32      38
    BANK2            80      0       0
    BANK3            80      0       0
    BANK4            80      0       0
    BANK5            80      0       0
    BANK6            80      0       0
    BANK7            80      0       0
    BANK8            80      0       0
    BANK9            80      0       0
    BANK10           80      0       0
    BANK11           80      0       0
    BANK12           80      0       0
    BANK13           80      0       0
    BANK14           80      0       0
    BANK15           80      0       0
    BANK16           80      0       0
    BANK17           80      0       0
    BANK18           80      0       0
    BANK19           80      0       0
    BANK20           80      0       0
    BANK21           80      0       0
    BANK22           80      0       0
    BANK23           80      0       0
    BANK24           80      0       0
    BANK25           32      0       0

Pointer List with Targets:

    determine_packets_to_send@packets	PTR unsigned char  size(1) Largest target is 3
		 -> main@pkt_arr(BANK1[3]), 


Critical Paths under _main in COMMON

    None.

Critical Paths under _isr in COMMON

    _isr->___awtoft
    i1_display_blade_lights->i1_led1_command
    i1_display_blade_lights->i1_led2_command
    i1_display_blade_lights->i1_led3_command
    i1_display_blade_lights->i1_led4_command
    i1_display_blade_lights->i1_led5_command
    i1_display_blade_lights->i1_led6_command
    i1_display_blade_lights->i1_led7_command
    i1_leds_off->i1_writespi
    i1_led7_command->i1_writespi
    i1_led6_command->i1_writespi
    i1_led5_command->i1_writespi
    i1_led4_command->i1_writespi
    i1_led3_command->i1_writespi
    i1_led2_command->i1_writespi
    i1_led1_command->i1_writespi
    ___fttol->___awtoft
    ___ftmul->___awtoft
    ___ftge->___awtoft
    ___awtoft->___ftpack

Critical Paths under _main in BANK0

    _init_leds->_leds_off
    _display_blade_lights->_led1_command
    _display_blade_lights->_led2_command
    _display_blade_lights->_led3_command
    _display_blade_lights->_led4_command
    _display_blade_lights->_led5_command
    _display_blade_lights->_led6_command
    _display_blade_lights->_led7_command
    _leds_off->_writespi
    _led7_command->_writespi
    _led6_command->_writespi
    _led5_command->_writespi
    _led4_command->_writespi
    _led3_command->_writespi
    _led2_command->_writespi
    _led1_command->_writespi

Critical Paths under _isr in BANK0

    _isr->___fttol
    ___fttol->___ftmul
    ___ftge->___ftmul

Critical Paths under _main in BANK1

    _main->_display_blade_lights
    _init_leds->_leds_off
    _display_blade_lights->_led1_command
    _display_blade_lights->_led2_command
    _display_blade_lights->_led3_command
    _display_blade_lights->_led4_command
    _display_blade_lights->_led5_command
    _display_blade_lights->_led6_command
    _display_blade_lights->_led7_command

Critical Paths under _isr in BANK1

    None.

Critical Paths under _main in BANK2

    None.

Critical Paths under _isr in BANK2

    None.

Critical Paths under _main in BANK3

    None.

Critical Paths under _isr in BANK3

    None.

Critical Paths under _main in BANK4

    None.

Critical Paths under _isr in BANK4

    None.

Critical Paths under _main in BANK5

    None.

Critical Paths under _isr in BANK5

    None.

Critical Paths under _main in BANK6

    None.

Critical Paths under _isr in BANK6

    None.

Critical Paths under _main in BANK7

    None.

Critical Paths under _isr in BANK7

    None.

Critical Paths under _main in BANK8

    None.

Critical Paths under _isr in BANK8

    None.

Critical Paths under _main in BANK9

    None.

Critical Paths under _isr in BANK9

    None.

Critical Paths under _main in BANK10

    None.

Critical Paths under _isr in BANK10

    None.

Critical Paths under _main in BANK11

    None.

Critical Paths under _isr in BANK11

    None.

Critical Paths under _main in BANK12

    None.

Critical Paths under _isr in BANK12

    None.

Critical Paths under _main in BANK13

    None.

Critical Paths under _isr in BANK13

    None.

Critical Paths under _main in BANK14

    None.

Critical Paths under _isr in BANK14

    None.

Critical Paths under _main in BANK15

    None.

Critical Paths under _isr in BANK15

    None.

Critical Paths under _main in BANK16

    None.

Critical Paths under _isr in BANK16

    None.

Critical Paths under _main in BANK17

    None.

Critical Paths under _isr in BANK17

    None.

Critical Paths under _main in BANK18

    None.

Critical Paths under _isr in BANK18

    None.

Critical Paths under _main in BANK19

    None.

Critical Paths under _isr in BANK19

    None.

Critical Paths under _main in BANK20

    None.

Critical Paths under _isr in BANK20

    None.

Critical Paths under _main in BANK21

    None.

Critical Paths under _isr in BANK21

    None.

Critical Paths under _main in BANK22

    None.

Critical Paths under _isr in BANK22

    None.

Critical Paths under _main in BANK23

    None.

Critical Paths under _isr in BANK23

    None.

Critical Paths under _main in BANK24

    None.

Critical Paths under _isr in BANK24

    None.

Critical Paths under _main in BANK25

    None.

Critical Paths under _isr in BANK25

    None.

Call Graph Tables:

 ---------------------------------------------------------------------------------
 (Depth) Function   	        Calls       Base Space   Used Autos Params    Refs
 ---------------------------------------------------------------------------------
 (0) _main                                                 7     7      0    9013
                                             25 BANK1      7     7      0
        _determine_omega_mode_active
          _determine_packets_to_send
          _determine_sword_was_swung
               _display_blade_lights
                     _display_health
                         _init_accel
                          _init_conn
                            _init_ir
                           _init_isr
                          _init_leds
                           _init_pic
                          _output_ir
 ---------------------------------------------------------------------------------
 (1) _output_ir                                           10     9      1     331
                                             32 BANK0      3     2      1
                                              0 BANK1      7     7      0
 ---------------------------------------------------------------------------------
 (1) _init_pic                                             3     3      0       0
                                             32 BANK0      3     3      0
 ---------------------------------------------------------------------------------
 (1) _init_leds                                            1     1      0     170
                                             37 BANK0      1     1      0
                           _leds_off
 ---------------------------------------------------------------------------------
 (1) _init_isr                                             0     0      0       0
 ---------------------------------------------------------------------------------
 (1) _init_ir                                              1     1      0       0
                                             32 BANK0      1     1      0
 ---------------------------------------------------------------------------------
 (1) _init_conn                                            0     0      0       0
 ---------------------------------------------------------------------------------
 (1) _init_accel                                           1     1      0       0
                                             32 BANK0      1     1      0
 ---------------------------------------------------------------------------------
 (1) _display_health                                       3     3      0       0
                                             32 BANK0      3     3      0
 ---------------------------------------------------------------------------------
 (1) _display_blade_lights                                20    20      0    7763
                                              5 BANK1     20    20      0
                       _led1_command
                       _led2_command
                       _led3_command
                       _led4_command
                       _led5_command
                       _led6_command
                       _led7_command
                           _leds_off
                           _writespi
 ---------------------------------------------------------------------------------
 (2) _leds_off                                             6     6      0     170
                                             35 BANK0      2     2      0
                                              0 BANK1      4     4      0
                           _writespi
 ---------------------------------------------------------------------------------
 (2) _led7_command                                        10     7      3    1074
                                             35 BANK0      5     2      3
                                              0 BANK1      5     5      0
                           _writespi
 ---------------------------------------------------------------------------------
 (2) _led6_command                                        10     7      3     684
                                             35 BANK0      5     2      3
                                              0 BANK1      5     5      0
                           _writespi
 ---------------------------------------------------------------------------------
 (2) _led5_command                                        10     7      3     684
                                             35 BANK0      5     2      3
                                              0 BANK1      5     5      0
                           _writespi
 ---------------------------------------------------------------------------------
 (2) _led4_command                                        10     7      3     684
                                             35 BANK0      5     2      3
                                              0 BANK1      5     5      0
                           _writespi
 ---------------------------------------------------------------------------------
 (2) _led3_command                                        10     7      3     684
                                             35 BANK0      5     2      3
                                              0 BANK1      5     5      0
                           _writespi
 ---------------------------------------------------------------------------------
 (2) _led2_command                                        10     7      3     684
                                             35 BANK0      5     2      3
                                              0 BANK1      5     5      0
                           _writespi
 ---------------------------------------------------------------------------------
 (2) _led1_command                                        10     7      3    1074
                                             35 BANK0      5     2      3
                                              0 BANK1      5     5      0
                           _writespi
 ---------------------------------------------------------------------------------
 (3) _writespi                                             3     3      0      34
                                             32 BANK0      3     3      0
 ---------------------------------------------------------------------------------
 (1) _determine_sword_was_swung                           26    26      0     288
                                             32 BANK0      2     2      0
                                              0 BANK1     24    24      0
 ---------------------------------------------------------------------------------
 (1) _determine_packets_to_send                            2     2      0     159
                                             32 BANK0      2     2      0
        _determine_omega_mode_active
 ---------------------------------------------------------------------------------
 (2) _determine_omega_mode_active                          0     0      0       0
 ---------------------------------------------------------------------------------
 Estimated maximum stack depth 3
 ---------------------------------------------------------------------------------
 (Depth) Function   	        Calls       Base Space   Used Autos Params    Refs
 ---------------------------------------------------------------------------------
 (4) _isr                                                  2     2      0    9667
                                             30 BANK0      2     2      0
                            ___awdiv
                           ___awtoft
                             ___ftge
                            ___ftmul
                            ___fttol
      i1_determine_omega_mode_active
             i1_display_blade_lights
                   i1_display_health
 ---------------------------------------------------------------------------------
 (5) i1_display_health                                     3     3      0       0
                                              0 COMMON     3     3      0
 ---------------------------------------------------------------------------------
 (5) i1_display_blade_lights                              20    20      0    4350
                                              0 BANK0     20    20      0
                     i1_led1_command
                     i1_led2_command
                     i1_led3_command
                     i1_led4_command
                     i1_led5_command
                     i1_led6_command
                     i1_led7_command
                         i1_leds_off
                         i1_writespi
 ---------------------------------------------------------------------------------
 (6) i1_leds_off                                           6     6      0     115
                                              3 COMMON     6     6      0
                         i1_writespi
 ---------------------------------------------------------------------------------
 (6) i1_led7_command                                      10     7      3     515
                                              3 COMMON    10     7      3
                         i1_writespi
 ---------------------------------------------------------------------------------
 (6) i1_led6_command                                      10     7      3     359
                                              3 COMMON    10     7      3
                         i1_writespi
 ---------------------------------------------------------------------------------
 (6) i1_led5_command                                      10     7      3     359
                                              3 COMMON    10     7      3
                         i1_writespi
 ---------------------------------------------------------------------------------
 (6) i1_led4_command                                      10     7      3     359
                                              3 COMMON    10     7      3
                         i1_writespi
 ---------------------------------------------------------------------------------
 (6) i1_led3_command                                      10     7      3     359
                                              3 COMMON    10     7      3
                         i1_writespi
 ---------------------------------------------------------------------------------
 (6) i1_led2_command                                      10     7      3     359
                                              3 COMMON    10     7      3
                         i1_writespi
 ---------------------------------------------------------------------------------
 (6) i1_led1_command                                      10     7      3     515
                                              3 COMMON    10     7      3
                         i1_writespi
 ---------------------------------------------------------------------------------
 (6) i1_writespi                                           3     3      0      23
                                              0 COMMON     3     3      0
 ---------------------------------------------------------------------------------
 (5) i1_determine_omega_mode_active                        0     0      0       0
 ---------------------------------------------------------------------------------
 (5) ___fttol                                             14    10      4     305
                                             16 BANK0     14    10      4
                           ___awtoft (ARG)
                            ___ftmul (ARG)
 ---------------------------------------------------------------------------------
 (5) ___ftmul                                             16    10      6    2273
                                              0 BANK0     16    10      6
                           ___awtoft (ARG)
                           ___ftpack
 ---------------------------------------------------------------------------------
 (5) ___ftge                                               9     3      6     348
                                             16 BANK0      9     3      6
                           ___awtoft (ARG)
                            ___ftmul (ARG)
 ---------------------------------------------------------------------------------
 (5) ___awtoft                                             6     3      3    1985
                                              8 COMMON     6     3      3
                           ___ftpack
 ---------------------------------------------------------------------------------
 (6) ___ftpack                                             8     3      5    1629
                                              0 COMMON     8     3      5
 ---------------------------------------------------------------------------------
 (5) ___awdiv                                              9     5      4     406
                                              0 COMMON     9     5      4
 ---------------------------------------------------------------------------------
 Estimated maximum stack depth 6
 ---------------------------------------------------------------------------------

 Call Graph Graphs:

 _main (ROOT)
   _determine_omega_mode_active
   _determine_packets_to_send
     _determine_omega_mode_active
   _determine_sword_was_swung
   _display_blade_lights
     _led1_command
       _writespi
     _led2_command
       _writespi
     _led3_command
       _writespi
     _led4_command
       _writespi
     _led5_command
       _writespi
     _led6_command
       _writespi
     _led7_command
       _writespi
     _leds_off
       _writespi
     _writespi
   _display_health
   _init_accel
   _init_conn
   _init_ir
   _init_isr
   _init_leds
     _leds_off
       _writespi
   _init_pic
   _output_ir

 _isr (ROOT)
   ___awdiv
   ___awtoft
     ___ftpack
   ___ftge
     ___awtoft (ARG)
       ___ftpack
     ___ftmul (ARG)
       ___awtoft (ARG)
         ___ftpack
       ___ftpack (ARG)
   ___ftmul
     ___awtoft (ARG)
       ___ftpack
     ___ftpack (ARG)
   ___fttol
     ___awtoft (ARG)
       ___ftpack
     ___ftmul (ARG)
       ___awtoft (ARG)
         ___ftpack
       ___ftpack (ARG)
   i1_determine_omega_mode_active
   i1_display_blade_lights
     i1_led1_command
       i1_writespi
     i1_led2_command
       i1_writespi
     i1_led3_command
       i1_writespi
     i1_led4_command
       i1_writespi
     i1_led5_command
       i1_writespi
     i1_led6_command
       i1_writespi
     i1_led7_command
       i1_writespi
     i1_leds_off
       i1_writespi
     i1_writespi
   i1_display_health

 Address spaces:
Name               Size   Autos  Total    Cost      Usage
BIGRAM             7F0      0       0       0        0.0%
EEDATA             100      0       0       0        0.0%
NULL                 0      0       0       0        0.0%
CODE                 0      0       0       0        0.0%
BITCOMMON            E      0       0       1        0.0%
BITSFR0              0      0       0       1        0.0%
SFR0                 0      0       0       1        0.0%
COMMON               E      E       E       2      100.0%
BITSFR1              0      0       0       2        0.0%
SFR1                 0      0       0       2        0.0%
BITSFR2              0      0       0       3        0.0%
SFR2                 0      0       0       3        0.0%
STACK                0      0       0       3        0.0%
BITBANK0            50      0       0       4        0.0%
BITSFR3              0      0       0       4        0.0%
SFR3                 0      0       0       4        0.0%
BANK0               50     28      30       5       60.0%
BITSFR4              0      0       0       5        0.0%
SFR4                 0      0       0       5        0.0%
BITBANK1            50      0       0       6        0.0%
BITSFR5              0      0       0       6        0.0%
SFR5                 0      0       0       6        0.0%
BANK1               50     20      26       7       47.5%
BITSFR6              0      0       0       7        0.0%
SFR6                 0      0       0       7        0.0%
BITBANK2            50      0       0       8        0.0%
BITSFR7              0      0       0       8        0.0%
SFR7                 0      0       0       8        0.0%
BANK2               50      0       0       9        0.0%
BITSFR8              0      0       0       9        0.0%
SFR8                 0      0       0       9        0.0%
BITBANK3            50      0       0      10        0.0%
BITSFR9              0      0       0      10        0.0%
SFR9                 0      0       0      10        0.0%
BANK3               50      0       0      11        0.0%
BITSFR10             0      0       0      11        0.0%
SFR10                0      0       0      11        0.0%
BITBANK4            50      0       0      12        0.0%
BITSFR11             0      0       0      12        0.0%
SFR11                0      0       0      12        0.0%
BANK4               50      0       0      13        0.0%
BITSFR12             0      0       0      13        0.0%
SFR12                0      0       0      13        0.0%
BITSFR13             0      0       0      14        0.0%
SFR13                0      0       0      14        0.0%
ABS                  0      0      64      14        0.0%
BITBANK5            50      0       0      15        0.0%
BITSFR14             0      0       0      15        0.0%
SFR14                0      0       0      15        0.0%
BANK5               50      0       0      16        0.0%
BITSFR15             0      0       0      16        0.0%
SFR15                0      0       0      16        0.0%
BITBANK6            50      0       0      17        0.0%
BITSFR16             0      0       0      17        0.0%
SFR16                0      0       0      17        0.0%
BANK6               50      0       0      18        0.0%
BITSFR17             0      0       0      18        0.0%
SFR17                0      0       0      18        0.0%
BITBANK7            50      0       0      19        0.0%
BITSFR18             0      0       0      19        0.0%
SFR18                0      0       0      19        0.0%
BANK7               50      0       0      20        0.0%
BITSFR19             0      0       0      20        0.0%
SFR19                0      0       0      20        0.0%
BITBANK8            50      0       0      21        0.0%
BITSFR20             0      0       0      21        0.0%
SFR20                0      0       0      21        0.0%
BANK8               50      0       0      22        0.0%
BITSFR21             0      0       0      22        0.0%
SFR21                0      0       0      22        0.0%
BITBANK9            50      0       0      23        0.0%
BITSFR22             0      0       0      23        0.0%
SFR22                0      0       0      23        0.0%
BANK9               50      0       0      24        0.0%
BITSFR23             0      0       0      24        0.0%
SFR23                0      0       0      24        0.0%
BITBANK10           50      0       0      25        0.0%
BITSFR24             0      0       0      25        0.0%
SFR24                0      0       0      25        0.0%
BANK10              50      0       0      26        0.0%
BITSFR25             0      0       0      26        0.0%
SFR25                0      0       0      26        0.0%
BITBANK11           50      0       0      27        0.0%
BITSFR26             0      0       0      27        0.0%
SFR26                0      0       0      27        0.0%
BITSFR27             0      0       0      28        0.0%
SFR27                0      0       0      28        0.0%
DATA                 0      0      64      28        0.0%
BANK11              50      0       0      29        0.0%
BITSFR28             0      0       0      29        0.0%
SFR28                0      0       0      29        0.0%
BITBANK12           50      0       0      30        0.0%
BITSFR29             0      0       0      30        0.0%
SFR29                0      0       0      30        0.0%
BANK12              50      0       0      31        0.0%
BITSFR30             0      0       0      31        0.0%
SFR30                0      0       0      31        0.0%
BITBANK13           50      0       0      32        0.0%
BITSFR31             0      0       0      32        0.0%
SFR31                0      0       0      32        0.0%
BANK13              50      0       0      33        0.0%
BITBANK14           50      0       0      34        0.0%
BANK14              50      0       0      35        0.0%
BITBANK15           50      0       0      36        0.0%
BANK15              50      0       0      37        0.0%
BITBANK16           50      0       0      38        0.0%
BANK16              50      0       0      39        0.0%
BITBANK17           50      0       0      40        0.0%
BANK17              50      0       0      41        0.0%
BITBANK18           50      0       0      42        0.0%
BANK18              50      0       0      43        0.0%
BITBANK19           50      0       0      44        0.0%
BANK19              50      0       0      45        0.0%
BITBANK20           50      0       0      46        0.0%
BANK20              50      0       0      47        0.0%
BITBANK21           50      0       0      48        0.0%
BANK21              50      0       0      49        0.0%
BITBANK22           50      0       0      50        0.0%
BANK22              50      0       0      51        0.0%
BITBANK23           50      0       0      52        0.0%
BANK23              50      0       0      53        0.0%
BITBANK24           50      0       0      54        0.0%
BANK24              50      0       0      55        0.0%
BITBANK25           20      0       0      56        0.0%
BANK25              20      0       0      57        0.0%


Microchip Technology PIC Macro Assembler V1.35 build -356382666 
Symbol Table                                                                                   Fri Nov 20 18:33:01 2015

                                      __CFG_CP$OFF 0000                                                 l91 159F  
                                               l88 1553                                       ___awdiv@sign 0076  
                           __end_of_display_health 088F                          i1display_blade_lights@red 0031  
                                              l321 05B0                                                l316 0543  
                                              l325 061A                                                l362 0717  
                                              l365 0729                                                l368 073B  
                                              l667 1B2F                                                _GIE 005F  
                                              _RA1 0061                                                _RB2 006A  
                                              _RB3 006B                                                _RC7 0077  
                                     __CFG_CPD$OFF 0000                                                _isr 0004  
                                     __CFG_BORV$LO 0000                                                wreg 0009  
                                     __CFG_IESO$ON 0000                                   led2_command@blue 0045  
                                 writespi@data_out 0042                           ??i1_display_blade_lights 0020  
                             __end_of_led1_command 1734                                       __CFG_LVP$OFF 0000  
                                       i1_leds_off 1E8B                         i1display_blade_lights@blue 0033  
                                i1led1_command@red 0073                         i1display_blade_lights@mode 0023  
                             __end_of_led2_command 1800                                               l4025 0805  
                                             l4027 0848                                               l4311 07A8  
                                             l4071 087C                                               l4047 085F  
                                             l4321 1B6A                                               l4305 07A6  
                                             l5113 0C6A                                               l5105 0BE6  
                                             l5211 08A0                                               l5203 0A1C  
                                             l5141 0B9E                                               l5133 0B1A  
                                             l5231 0950                                               l5127 0B04  
                                             l5119 0C80                                               l5071 15B1  
                                             l4265 0686                                               l5225 093A  
                                             l5217 08B6                                               l5161 0A4E  
                                             l5155 0A38                                               l5147 0BB4  
                                             l5091 165D                                               l5253 17DF  
                                             l5245 175B                                               l5085 1647  
                                             l5077 15C7                                               l5239 1745  
                                             l5183 096C                                               l5175 0AE8  
                                             l5281 1713                                               l5273 168F  
                                             l5169 0AD2                                               l5601 0449  
                                             l5267 1679                                               l5259 17F5  
                                             l5099 0BD0                                               l5531 02EA  
                                             l5523 02E2                                               l5197 0A06  
                                             l5189 0982                                               l5287 1729  
                                             l5551 0372                                               l5543 030B  
                                             l5537 02F7                                               l5563 0398  
                                             l5723 1509                                               l5715 14FC  
                                             l5629 0501                                               l5581 03C0  
                                             l5557 0386                                               l5661 05AA  
                                             l5575 03AC                                               l5639 0539  
                                             l5681 0617                                               l5753 154D  
                                             l5729 1519                                               l5595 043B  
                                             l5755 1551                                               ?_isr 0070  
                                             l5589 0427                                               l5749 1549  
                                             _ADGO 04E9                                               l5797 1595  
                                             STR_1 2070                                               STR_2 2037  
                                             STR_3 2006                                               STR_4 2056  
                                             _BRGH 0CF2                                               _CREN 0CEC  
                                             u3325 074F                                               u3335 0760  
                                             u3345 0771                                               _PIE4 0094  
                                             u3355 0782                                               u3365 0793  
                                             u3375 07A4                                               u5207 0591  
                                             u4505 0B02                                               u4425 15AF  
                                             u5217 059D                                               u5137 156E  
                                             u4515 0B18                                               u4435 15C5  
                                             u5307 0638                                               u5227 05C2  
                                             u5147 158B                                               u4605 0A04  
                                             u4525 0B9C                                               u4445 1645  
                                             u5317 0644                                               u5237 05CE  
                                             u5157 0555                                               u4615 0A1A  
                                             u4535 0BB2                                               u4455 165B  
                                             u5407 01E2                                               u5327 0650  
                                             u5247 05DA                                               u5167 0561  
                                             u4705 1677                                               u4625 089E  
                                             u4545 0A36                                               u4465 0BCE  
                                             u5417 0206                                               u5337 065C  
                                             u5257 05E6                                               u5177 056D  
                                             u4715 168D                                               u4635 08B4  
                                             u4555 0A4C                                               u4475 0BE4  
                                             u5507 045F                                               u5427 022A  
                                             u5347 0668                                               u5267 05F2  
                                             u5187 0579                                               _RCIE 048D  
                                             _RCIF 008D                                               u4725 1711  
                                             u4645 0938                                               u4565 0AD0  
                                             u4485 0C68                                               u5517 0478  
                                             u4805 02F5                                               u5437 024E  
                                             u5357 0674                                               u5277 05FE  
                                             u5197 0585                                               u4735 1727  
                                             u4655 094E                                               u4575 0AE6  
                                             u5607 0C85                                               u4495 0C7E  
                                             u5527 0491                                               u4815 0309  
                                             u5447 0272                                               u5367 1B95  
                                             u5287 060A                                               u4665 1743  
                                             u4585 096A                                               u5617 0BB9  
                                             u5537 04AA                                               u4825 0370  
                                             u5457 0296                                               u5377 0822  
                                             u5297 062C                                               u4675 1759  
                                             u4595 0980                                               u5627 0AED  
                                             u5547 04C3                                               u4835 0384  
                                             u5467 02BF                                               u5387 0840  
                                             u4685 17DD                                               u5637 0A21  
                                             u5557 04DC                                               u5477 02D5  
                                             u5397 01BE                  __end_of_determine_sword_was_swung 07AA  
                                             u4695 17F3                                               u5647 0955  
                                             u5567 04F5                                               u5487 038B  
                                             u5657 17FA                                               u5577 0513  
                                             u5497 0440                                               u4865 03AA  
                                             u5667 172E                                               u5587 0529  
                                             u4875 03BE                                               u4955 054E  
                                             u5677 0710                                               u5597 1662  
                                             u4885 0425                                               u5687 0722  
                                             u4895 0439                                               u4975 05BB  
                                             u5697 0734                                               u4985 0625  
                             __end_of_led3_command 095B                                               _TMR1 0016  
                                             _SPEN 0CEF                                               _TRMT 0CF1  
                                             _TXEN 0CF5                                               _SYNC 0CF4  
                                     __CFG_WRT$OFF 0000                                      __CFG_FCMEN$ON 0000  
                             __end_of_led4_command 0A27                                               _main 14E2  
                                     ___ftpack@arg 0070                                        main@pkt_arr 00BC  
                                     ___ftpack@exp 0073                                               fsr0h 0005  
                                             fsr1h 0007                                               fsr0l 0004  
                                             indf1 0001                                               fsr1l 0006  
                             __end_of_led5_command 0AF3                                               btemp 007E  
                        __size_ofi1_display_health 0088                                               ltemp 007E  
                             __end_of_led6_command 0BBF                                               start 0176  
                                             ttemp 007E                                               wtemp 007E  
                                led2_command@i_682 00A3                               __end_of_led7_command 0C8B  
                                       _Davgcycles 004C                                      __CFG_MCLRE$ON 0000  
                                     ___ftmul@cntr 002E                                       ___ftmul@sign 002F  
                                led2_command@green 0044                                       ___fttol@exp1 003D  
                                     ___fttol@lval 0039                                              ??_isr 003E  
                                       i1_writespi 1B10                                 i1led1_command@blue 0075  
                        _determine_packets_to_send 1B53                                              ?_main 0070  
                                  ?_display_health 0070                                    __end_of___awdiv 07FB  
                                            _ADRES 009B                                              _BRG16 0CFB  
                                    __CFG_WDTE$OFF 0000                                    __end_of___ftmul 1E8B  
                                  ___awdiv@divisor 0070                                              _T1CON 0018  
                                  __end_of___fttol 1CA5                                              _IOCAF 0393  
                                            _IOCAN 0392                                              _IOCAP 0391  
                                            i1l210 001D                                              i1l211 016F  
                                            i1l213 0025                                              i1l230 005B  
                                            i1l222 003F                                              i1l216 0171  
                                            i1l226 004F                                              i1l218 0033  
                                            i1l667 1B1C                                              i1l994 104E  
                                  ___awdiv@counter 0075                                              _RCREG 0199  
                                            _SPBRG 019B                                  i1writespi@TempVar 0071  
                                            _TRISA 008C                                              _TRISB 008D  
                                            _TRISC 008E                                              _SSPEN 10AD  
                                            _WPUB2 106A                                              _WPUB3 106B  
                                            _TXREG 019A                                      ___awtoft@sign 007D  
                                  __end_of_init_ir 1BE2                                      ___ftpack@sign 0074  
                                i1led2_command@red 0073                                              main@i 00BF  
                                   __CFG_BOREN$OFF 0000                                              ltemp0 007E  
                                            ltemp1 0082                                              ltemp2 0086  
                                            ltemp3 0080                                              ttemp0 007E  
                                            ttemp1 0081                                              ttemp2 0084  
                                            ttemp3 0087                                              ttemp4 007F  
                                            status 0003                                              wtemp0 007E  
                                            wtemp1 0080                                              wtemp2 0082  
                                            wtemp3 0084                                              wtemp4 0086  
                                            wtemp5 0088                                              wtemp6 007F  
                                  __initialization 0178                    ??i1_determine_omega_mode_active 0070  
                                     __end_of_main 15A1                                  led6_command@i_710 00A3  
                                   __CFG_LPBOR$OFF 0000                            __size_ofi1_led1_command 00BB  
                                           ??_main 00B9                                  led6_command@green 0044  
                                    ___fttol@sign1 0038                            __size_ofi1_led2_command 00BB  
                              i1led1_command@i_675 007B                            __size_ofi1_led3_command 00BB  
                                   __CFG_PLLEN$OFF 0000                            __size_ofi1_led4_command 00BB  
                                      i1leds_off@i 0075                                i1led1_command@green 0074  
                          __size_ofi1_led5_command 00BB                       __end_of_display_blade_lights 053C  
                                 led3_command@blue 0045                                       _stun_counter 00C4  
                          __size_ofi1_led6_command 00BB                    __size_ofi1_display_blade_lights 0375  
                                           _ADCON0 009D                                             _ADCON1 009E  
                                           _ADCON2 009F                                        ?i1_leds_off 0070  
                                 ___awdiv@dividend 0072                            __size_ofi1_led7_command 00BB  
                   display_blade_lights@brightness 00B5                                   __end_of___awtoft 1B53  
                                           _ANSELA 018C                                             _ANSELB 018D  
                                 __end_of___ftpack 1080                                  i1led3_command@red 0073  
                                           _IOCAF1 1C99                                             i1l1001 1061  
                                           i1l1002 1069                                             i1l1085 1C8B  
                                           i1l5011 012C                                             i1l3501 111E  
                                           i1l3431 1035                                             i1l5023 0150  
                                           i1l4401 07BF                                             i1l3441 105B  
                                           i1l3433 103A                                             i1l3425 1024  
                                           i1l3521 115C                                             i1l4411 07C7  
                                           i1l3507 1131                                             i1l3515 1149  
                                           i1l4413 07D3                                             i1l3429 102B  
                                           i1l3613 140A                                             i1l3605 138D  
                                           i1l4423 07EE                                             i1l3439 1053  
                                           i1l4503 1E63                                             i1l3535 11EC  
                                           i1l3543 1204                                             i1l3473 1FE3  
                                           i1l3465 1F66                                             i1l3529 11D9  
                                           i1l3641 14C5                                             i1l3633 1448  
                                           i1l4427 07F6                                             i1l4419 07E5  
                                           i1l4451 1C0F                                             i1l3459 1F53  
                                           i1l3563 12A7                                             i1l3571 12BF  
                                           i1l3619 141D                                             i1l3627 1435  
                                           i1l3493 10A1                                             i1l3557 1294  
                                           i1l3549 1217                                             i1l3661 1EAB  
                                           i1l4439 1B3D                                             i1l4447 1BF9  
                                           i1l4551 1C9C                                             i1l4519 1C37  
                                           i1l3479 1FF6                                             i1l3487 108E  
                                           i1l3591 1362                                             i1l3647 14D8  
                                           i1l3655 1E98                                             i1l4607 1CA5  
                                           i1l4545 1C82                                             i1l4537 1C67  
                                           i1l3585 134F                                             i1l3577 12D2  
                                           i1l4801 0F16                                             i1l4609 1CE6  
                                           i1l4395 07B4                                             i1l4491 1E47  
                                           i1l4475 1E04                                             i1l4547 1C8E  
                                           i1l4539 1C75                                             i1l3675 1F3B  
                                           i1l4731 0DB7                                             i1l4723 0DAF  
                                           i1l4469 1DEE                                             i1l3669 1F28  
                                           u300_25 1F26                                             i1l4653 1D1A  
                                           i1l4629 1CFD                                             i1l4487 1E3F  
                                           i1l3599 137A                                             i1l4751 0E3F  
                                           i1l4743 0DD8                                             i1l4737 0DC4  
                                           i1l4499 1E5B                                             i1l4763 0E65  
                                           u301_25 1F39                                             i1l4829 0FC7  
                                           i1l4781 0E8D                                             i1l4757 0E53  
                                           i1l4775 0E79                                             i1l4839 0FFD  
                                           i1l4961 0031                                             i1l4795 0F08  
                                           i1l4789 0EF4                                             i1l4981 0059  
                                           i1l4973 0049                                             i1l4967 003D  
                                           i1l4987 0065                                             _INTCON 000B  
                                           u260_25 1030  __end_ofdetermine_sword_was_swung@neg_shock_thresh 2004  
        determine_sword_was_swung@neg_shock_thresh 2002                                             u350_25 07DE  
                                           u262_25 1049                                             u270_25 1F51  
                                           u351_25 07E6                                             u271_25 1F64  
                                           u264_25 1056                                             u360_25 1E10  
                                           u272_25 1FE1                                             u280_25 11D7  
                                           u432_25 0136                                             u361_25 1E20  
                                           u273_25 1FF4                                             u281_25 11EA  
                                           u433_25 0142                                             u274_25 108C  
                                           u282_25 1202                                             u290_25 1378  
                                           u347_25 07CA                                             u363_25 1E48  
                                           u371_25 1C3E                                             u275_25 109F  
                                           u283_25 1215                                             u291_25 138B  
                                           u435_25 015A                                             u268_25 1070  
                                           u364_25 1E4E                                             u276_25 111C  
                                           u284_25 1292                                             u292_25 1408  
                                           u436_25 0166                                             u428_25 010E  
                                           u349_25 07D4                                             u277_25 112F  
                                           u285_25 12A5                                             u293_25 141B  
                                           u429_25 011A                                             u374_25 1C68  
                                           u278_25 1147                                             u286_25 12BD  
                                           u294_25 1433                                             u390_25 0DC2  
                                           _SDISEL 08EB                                             _SCKSEL 08EC  
                                           u367_25 1E64                                             u279_25 115A  
                                           u287_25 12D0                                             u295_25 1446  
                                           u391_25 0DD6                                             u368_25 1E6A  
                                           u288_25 134D                                             u296_25 14C3  
                                           u392_25 0E3D                                             u377_25 1C83  
                                           u289_25 1360                                             u297_25 14D6  
                                           u393_25 0E51                                             _OSCCON 0099  
                                           u298_25 1E96                                             u570_27 1CC1  
                                           u299_25 1EA9                                             u571_27 1CDE  
                                           u396_25 0E77                                             u580_27 0DA2  
                                           u572_27 0CB6                                             _SDOSEL 08ED  
                                           u397_25 0E8B                                             u581_27 0E58  
                                           u573_27 0CD4                                             u398_25 0EF2  
                                           u590_27 0FD8                                             u582_27 0F0D  
                                           u574_27 0CF2                                             u399_25 0F06  
                                           u591_27 0FED                                             u583_27 0F2B  
                                           u575_27 0D10                                             u592_27 1F3F  
                                           u584_27 0F43                                             u576_27 0D2E  
                                           u593_27 14DC                                             u585_27 0F5B  
                                           u577_27 0D4C                                             u594_27 1421  
                                           u586_27 0F73                                             u578_27 0D6A  
                                           u595_27 1366                                             u587_27 0F8B  
                                           u579_27 0D8D                                             u596_27 12AB  
                                           u588_27 0FA3                                             u597_27 11F0  
                                           u589_27 0FBB                                             u598_27 1135  
                                           u599_27 1FFA                                             _SSPBUF 0211  
                                   __CFG_PWRTE$OFF 0000                             led2_command@brightness 00A0  
                           led5_command@brightness 00A0                                             ___ftge 1BE2  
                                        ??___awdiv 0074                                     __CFG_STVREN$ON 0000  
                                 __end_of_leds_off 1668                                          ??___ftmul 0026  
                                        ??___fttol 0034                                             _health 00C5  
                                      ?i1_writespi 0070                                   __end_of_init_pic 1BA9  
                                 __end_of_init_isr 1B10                                   ___awdiv@quotient 0077  
                               i1led2_command@blue 0075                                 i1writespi@data_out 0072  
                            ___ftmul@f3_as_product 002B                              __size_of_led1_command 00CC  
                                        ??_init_ir 0040                              __size_of_led2_command 00CC  
                            __size_of_led3_command 00CC                              __size_of_led4_command 00CC  
                              i1led5_command@i_703 007B                              __size_of_led5_command 00CC  
                                i1led4_command@red 0073                              __size_of_led6_command 00CC  
                              i1led5_command@green 0074                           i1led1_command@brightness 0078  
                                 __end_of_writespi 1B33                              __size_of_led7_command 00CC  
                         i1led4_command@brightness 0078                           i1led7_command@brightness 0078  
                          __end_of__initialization 0189                                         ___ftge@ff1 0030  
                                       ___ftge@ff2 0033                                   i1_display_health 1CA5  
                                       ___awtoft@c 0078                                         ___ftmul@f1 0020  
                                       ___ftmul@f2 0023                                         ___fttol@f1 0030  
                                   __pcstackCOMMON 0070                             i1_display_blade_lights 0C8B  
                                     __pidataBANK1 0003                                       _led1_command 1668  
                              __size_ofi1_leds_off 00BA                                       _led2_command 1734  
                                     _led3_command 088F              __end_ofi1_determine_omega_mode_active 0805  
           __size_ofi1_determine_omega_mode_active 0005                      i1_determine_omega_mode_active 0800  
                                     _led4_command 095B                                       _led5_command 0A27  
                                     _led6_command 0AF3                                       _led7_command 0BBF  
                                 led4_command@blue 0045                 __size_of_determine_packets_to_send 0029  
                                       __pbssBANK0 0048                                         __pbssBANK1 00C0  
                                i1led5_command@red 0073                                __size_ofi1_writespi 0010  
                                  __CFG_VCAPEN$OFF 0000                                 __size_of_init_conn 0003  
                               __size_of_init_leds 00AA                                  led3_command@i_689 00A3  
                                       __pmaintext 14E2                                            ?___ftge 0030  
                                 ??_display_health 0040                               _display_blade_lights 018D  
                                led3_command@green 0044                                         __pintentry 0004  
                                   output_ir@i_336 00A2                                     output_ir@i_337 00A4  
                                   i1_led1_command 1F45                                          ?___awtoft 0078  
                                        ?___ftpack 0070                                     i1_led2_command 1080  
                               i1led3_command@blue 0075                                     i1_led3_command 113B  
                          i1display_blade_lights@i 002C                            i1display_blade_lights@r 002E  
                                   i1_led4_command 11F6                                      led1_command@i 00A1  
                                   i1_led5_command 12B1                                            _PSMC2LD 758E  
                                          _PSMC3LD 768E                                            _PSMC4LD 788E  
                                   i1_led6_command 136C                                     i1_led7_command 1427  
                                          _SSPCON1 0215                                      led2_command@i 00A1  
                                i1led6_command@red 0073                                          ?_leds_off 0070  
                __end_of_determine_packets_to_send 1B7C                                 __size_of_output_ir 0145  
                       ?_determine_sword_was_swung 0070                                          ?_init_pic 0070  
                                        ?_init_isr 0070                                      led3_command@i 00A1  
                            ?_display_blade_lights 0070                             __end_ofi1_led1_command 2000  
                                  __size_of___ftge 003C                                            ___awdiv 07AA  
                                          ___ftmul 1DD7                                            ___fttol 1C1E  
                                       _init_accel 1007                             __end_ofi1_led2_command 113B  
                                    led4_command@i 00A1                             __end_ofi1_led3_command 11F6  
                                       ??___awtoft 007B                                         ??___ftpack 0075  
                                led7_command@i_717 00A3                             __end_ofi1_led4_command 12B1  
                                          __ptext1 053C                                            __ptext2 1B7C  
                                          __ptext3 1D2D                                            __ptext4 1B01  
                                          __ptext5 1BA9                                            __ptext6 1004  
                                          __ptext7 1007                                            __ptext8 0805  
                                          __ptext9 018D                                          ?_writespi 0070  
                           __end_ofi1_led5_command 136C                                  led7_command@green 0044  
                                          _init_ir 1BA9                                  __end_of_init_conn 1007  
                           __end_ofi1_led6_command 1427                                       __size_of_isr 0172  
                                __end_of_init_leds 1DD7                                i1led2_command@i_682 007B  
                                    led5_command@i 00A1                     ?i1_determine_omega_mode_active 0070  
                     ?_determine_omega_mode_active 0070                             __end_ofi1_led7_command 14E2  
                                        _IOCAFbits 0393                                i1led2_command@green 0074  
                                     ??i1_leds_off 0073                                   led5_command@blue 0045  
                             end_of_initialization 0189                                      led6_command@i 00A1  
                                       ??_leds_off 0043                                  i1led7_command@red 0073  
                                  led1_command@red 0043                                         ??_init_pic 0040  
                                       ??_init_isr 0040                                         _numPackets 004E  
                                    led7_command@i 00A1                                          _PSMC1FEBS 0E99  
                                        _PSMC1BLKF 0EAC                                          _PSMC1ASDC 0E9D  
                                        _PSMC1BLNK 0E97                                          _PSMC1BLKR 0EAB  
                                        _PSMC1ASDL 0E9E                                          _PSMC2FEBS 0EB9  
                                        _PSMC2BLKF 0ECC                                          _PSMC2ASDC 0EBD  
                                        _PSMC1ASDS 0E9F                                          _PSMC2BLNK 0EB7  
                                        _PSMC2BLKR 0ECB                                          _PSMC2ASDL 0EBE  
                                        _PSMC3FEBS 0ED9                                          _PSMC3BLKF 0EEC  
                                        _PSMC3ASDC 0EDD                                          _PSMC2ASDS 0EBF  
                                        _PSMC3BLNK 0ED7                                          _PSMC3BLKR 0EEB  
                                        _PSMC3ASDL 0EDE                                          _PSMC4FEBS 0F19  
                                        _PSMC4BLKF 0F2C                                          _PSMC4ASDC 0F1D  
                                        _PSMC3ASDS 0EDF                                          _PSMC4BLNK 0F17  
                                        _PSMC4BLKR 0F2B                                          _PSMC4ASDL 0F1E  
                                        _PSMC4ASDS 0F1F                                          _PSMC1REBS 0E98  
                                        _PSMC2REBS 0EB8                                          _PSMC3REBS 0ED8  
                                        _PSMC4REBS 0F18                                          _PSMC1STR0 0EAE  
                                        _PSMC1STR1 0EAF                                          _PSMC2STR0 0ECE  
                                        _PSMC2STR1 0ECF                                          _PSMC1SYNC 0E93  
                                        _PSMC3STR0 0EEE                                          _PSMC3STR1 0EEF  
                                        _PSMC2SYNC 0EB3                                          _PSMC4STR0 0F2E  
                                        _PSMC4STR1 0F2F                                          _PSMC3SYNC 0ED3  
                                        _PSMC4SYNC 0F13                                    ?i1_led1_command 0073  
                                    leds_off@i_720 00A2                                       __pstringtext 2000  
                                  ?i1_led2_command 0073                                       ??i1_writespi 0070  
                               __end_ofi1_leds_off 1F45                                    ?i1_led3_command 0073  
                                __end_of_output_ir 0681                                          _PORTAbits 000C  
                                        _PORTBbits 000D                                    ?i1_led4_command 0073  
                               i1led4_command@blue 0075                                         ??_writespi 0040  
                                  ?i1_led5_command 0073                           __end_ofi1_display_health 1D2D  
                                  ?i1_led6_command 0073                                   __CFG_FOSC$INTOSC 0000  
                                  ?i1_led7_command 0073                                          _TRISBbits 008D  
                            display_blade_lights@i 00B0                              display_blade_lights@r 00B3  
                                  writespi@TempVar 0041                                    i1led1_command@i 0079  
                              i1led6_command@i_710 007B                                    led2_command@red 0043  
                              i1led6_command@green 0074                                 __end_ofi1_writespi 1B20  
                          ?i1_display_blade_lights 0070                                    i1led2_command@i 0079  
                           ??_display_blade_lights 00A5                             led1_command@brightness 00A0  
                           led4_command@brightness 00A0                             led7_command@brightness 00A0  
                                      ___ftmul@exp 002A                                        ?_init_accel 0070  
                                   __end_of___ftge 1C1E                                    i1led3_command@i 0079  
                                  i1led4_command@i 0079                                start_initialization 0178  
                        display_blade_lights@i_641 00AC                          display_blade_lights@i_642 00AE  
                        display_blade_lights@i_643 00B1                          display_blade_lights@i_638 00A8  
                        display_blade_lights@i_639 00AA                                        __end_of_isr 0176  
                        display_blade_lights@r_640 00B4                          display_blade_lights@green 00B7  
                                 led6_command@blue 0045                                    i1led5_command@i 0079  
                         i1led3_command@brightness 0078                           i1led6_command@brightness 0078  
                   __end_ofi1_display_blade_lights 1000                                    led3_command@red 0043  
                                  i1led6_command@i 0079  __end_ofdetermine_sword_was_swung@pos_shock_thresh 2006  
        determine_sword_was_swung@pos_shock_thresh 2004               __size_of_determine_omega_mode_active 0005  
                                         ??___ftge 0036                                  led4_command@i_696 00A3  
                                      __pdataBANK1 00C5                                  led4_command@green 0044  
                                  i1led7_command@i 0079                                 i1led5_command@blue 0075  
                                  i1leds_off@i_720 0077                                  __size_of___awtoft 0020  
                                __size_of___ftpack 0064                                          ___latbits 0003  
                                    __pcstackBANK0 0020                                      __pcstackBANK1 00A0  
                              __size_of_init_accel 0015                                    led4_command@red 0043  
                      ??_determine_sword_was_swung 0040                                  __size_of_leds_off 00C7  
                                __size_of_init_pic 002D                                  __size_of_init_isr 000F  
                      i1display_blade_lights@i_641 0028                        i1display_blade_lights@i_642 002A  
                      i1display_blade_lights@i_643 002D                        i1display_blade_lights@i_638 0024  
                      i1display_blade_lights@i_639 0026                        i1display_blade_lights@r_640 002F  
                      i1display_blade_lights@green 0032                                           ?___awdiv 0070  
                                         ?___ftmul 0020                                           ?___fttol 0030  
                                         ?_init_ir 0070                                  __size_of_writespi 0013  
                              i1led3_command@i_689 007B                                    output_ir@amount 0040  
                                         _P1MDLBIT 7495                                          _init_conn 1004  
                                        _init_leds 1D2D                                i1led3_command@green 0074  
                                         _D1cycles 0048                                           _D2cycles 004A  
                                 led7_command@blue 0045                         ?_determine_packets_to_send 0070  
                                  led5_command@red 0043                                           _LATBbits 010D  
                                 ??i1_led1_command 0076                                   ??i1_led2_command 0076  
                                         _PIR1bits 0011                                           _PSMC1DBF 0EAA  
                                         _PSMC1DCH 0EA4                                           _PSMC2DBF 0ECA  
                                         _PSMC1DCL 0EA3                                           _PSMC1FFA 0EAD  
                                 ??i1_led3_command 0076                                           _PSMC2DCH 0EC4  
                                         _PSMC1DBR 0EA9                                           _PSMC1DCS 0E9B  
                                         _PSMC3DBF 0EEA                                           _PSMC2DCL 0EC3  
                                         _PSMC2FFA 0ECD                                           _PSMC3DCH 0EE4  
                                         _PSMC2DBR 0EC9                                           _PSMC1CLK 0E94  
                                         _PSMC2DCS 0EBB                                           _PSMC4DBF 0F2A  
                                         _PSMC3DCL 0EE3                                           _PSMC3FFA 0EED  
                                         _PSMC4DCH 0F24                                           _PSMC3DBR 0EE9  
                                         _PSMC2CLK 0EB4                                           _PSMC1CON 0E91  
                                         _PSMC3DCS 0EDB                                           _PSMC4DCL 0F23  
                                         _PSMC4FFA 0F2D                                           _PSMC4DBR 0F29  
                                         _PSMC3CLK 0ED4                                           _PSMC2CON 0EB1  
                                         _PSMC4DCS 0F1B                                           _PSMC4CLK 0F14  
                                         _PSMC3CON 0ED1                                           _PSMC1MDL 0E92  
                                         _PSMC4CON 0F11                                           _PSMC2MDL 0EB2  
                                         _PSMC1OEN 0E95                                           _PSMC1INT 0EA0  
                                         _PSMC3MDL 0ED2                                           _PSMC1PHH 0EA2  
                                         _PSMC2OEN 0EB5                                           _PSMC2INT 0EC0  
                                         _PSMC1PHL 0EA1                                           _PSMC4MDL 0F12  
                                         _PSMC2PHH 0EC2                                           _PSMC1PHS 0E9A  
                                         _PSMC3OEN 0ED5                                           _PSMC3INT 0EE0  
                                         _PSMC2PHL 0EC1                                           _PSMC3PHH 0EE2  
                                         _PSMC1POL 0E96                                           _PSMC2PHS 0EBA  
                                         _PSMC4OEN 0F15                                           _PSMC4INT 0F20  
                                         _PSMC3PHL 0EE1                                           _PSMC1PRH 0EA6  
                                         _PSMC4PHH 0F22                                           _PSMC1PRL 0EA5  
                                         _PSMC2POL 0EB6                                           _PSMC3PHS 0EDA  
                                         _PSMC4PHL 0F21                                           _PSMC2PRH 0EC6  
                                         _PSMC1PRS 0E9C                                           _PSMC2PRL 0EC5  
                                         _PSMC3POL 0ED6                                           _PSMC4PHS 0F1A  
                                         _PSMC3PRH 0EE6                                           _PSMC2PRS 0EBC  
                                         _PSMC3PRL 0EE5                                           _PSMC4POL 0F16  
                                         _PSMC4PRH 0F26                                           _PSMC3PRS 0EDC  
                                         _PSMC4PRL 0F25                                           _PSMC4PRS 0F1C  
                                 ??i1_led4_command 0076                                          main@F7258 00C0  
                                 ??i1_led5_command 0076                                   ??i1_led6_command 0076  
                                 ??i1_led7_command 0076                          _determine_sword_was_swung 0681  
                               i1led6_command@blue 0075                                  ?i1_display_health 0070  
                                        _output_ir 053C                            __size_of_display_health 008A  
                               ??i1_display_health 0070                                         ?_init_conn 0070  
                                       ?_init_leds 0070                                          leds_off@i 00A0  
                              i1led7_command@i_717 007B                                    led6_command@red 0043  
                              i1led7_command@green 0074                                  led1_command@i_675 00A3  
                                led1_command@green 0044                                    _damage_received 00C3  
                                    ?_led1_command 0043                                       ??_init_accel 0040  
                                    ?_led2_command 0043                                   __size_of___awdiv 0051  
                                    ?_led3_command 0043                                   __size_of___ftmul 00B4  
                                 __size_of___fttol 0087                                           ___awtoft 1B33  
                                         ___ftpack 101C                                      ?_led4_command 0043  
                                    ?_led5_command 0043                                  output_ir@pkt_type 00A6  
                                    ?_led6_command 0043                        determine_sword_was_swung@xh 00A0  
                      determine_sword_was_swung@yh 00A1                        determine_sword_was_swung@xl 00A3  
                      determine_sword_was_swung@zh 00A2                        determine_sword_was_swung@yl 00A4  
                      determine_sword_was_swung@zl 00A5                                         ?_output_ir 0040  
                                    ?_led7_command 0043                                   __size_of_init_ir 0039  
                                       output_ir@i 00A0              determine_sword_was_swung@x_neg_thresh 00A8  
                                         __ptext10 15A1                                           __ptext11 0BBF  
                                         __ptext20 1B53                                           __ptext12 0AF3  
                                         __ptext21 07FB                                           __ptext13 0A27  
                                         __ptext30 113B                                           __ptext14 095B  
                                         __ptext31 1080                                           __ptext23 1CA5  
                                         __ptext15 088F                                           __ptext40 07AA  
                                         __ptext32 1F45                                           __ptext24 0C8B  
                                         __ptext16 1734                                           __ptext33 1B10  
                                         __ptext25 1E8B                                           __ptext17 1668  
                                         __ptext34 0800                                           __ptext26 1427  
                                         __ptext18 1B20                                           __ptext35 1C1E  
                                         __ptext27 136C                                           __ptext19 0681  
                                         __ptext36 1DD7                                           __ptext28 12B1  
                                         __ptext37 1BE2                                           __ptext29 11F6  
                                         __ptext38 1B33                                           __ptext39 101C  
                                         _leds_off 15A1                                 __end_of_init_accel 101C  
                                    __size_of_main 00BF                                           _init_pic 1B7C  
                                         _init_isr 1B01                                    led7_command@red 0043  
                 determine_packets_to_send@packets 0041                             led3_command@brightness 00A0  
                           led6_command@brightness 00A0                                     ??_led1_command 0046  
            determine_sword_was_swung@y_neg_thresh 00AC                                     ??_led2_command 0046  
                    __size_of_display_blade_lights 03AF                                           int$flags 007E  
                                led5_command@i_703 00A3                                     ??_led3_command 0046  
                                   ??_led4_command 0046                   i1display_blade_lights@brightness 0030  
                                led5_command@green 0044                                     ??_led5_command 0046  
                                         _writespi 1B20                                     ??_led6_command 0046  
                                   ??_led7_command 0046                __end_of_determine_omega_mode_active 0800  
                      _determine_omega_mode_active 07FB                                 i1led7_command@blue 0075  
        __end_ofdetermine_sword_was_swung@midpoint 2002                  determine_sword_was_swung@midpoint 2000  
                                 led1_command@blue 0045              determine_sword_was_swung@z_neg_thresh 00B0  
                                      ??_init_conn 0040                                        ??_init_leds 0045  
                                         intlevel1 0000                         determine_sword_was_swung@x 00B2  
                       determine_sword_was_swung@y 00B4                         determine_sword_was_swung@z 00B6  
                    ??_determine_omega_mode_active 0040                           i1led2_command@brightness 0078  
                         i1led5_command@brightness 0078              determine_sword_was_swung@x_pos_thresh 00A6  
                                __CFG_CLKOUTEN$OFF 0000              determine_sword_was_swung@y_pos_thresh 00AA  
                                   _display_health 0805                                        ??_output_ir 0041  
                                      _SSPCON1bits 0215                                i1led4_command@i_696 007B  
               __size_of_determine_sword_was_swung 0129                                i1led4_command@green 0074  
            determine_sword_was_swung@z_pos_thresh 00AE                        ??_determine_packets_to_send 0040  
                         display_blade_lights@blue 00B8                           display_blade_lights@mode 00B2  
                          display_blade_lights@red 00B6  
